
lect5.axf:     file format elf32-littlearm


Disassembly of section .isr_vector:

08000000 <g_pfnVectors>:
 8000000:	20005000 	andcs	r5, r0, r0
 8000004:	08000c21 	stmdaeq	r0, {r0, r5, sl, fp}
 8000008:	08000c71 	stmdaeq	r0, {r0, r4, r5, r6, sl, fp}
 800000c:	08000c71 	stmdaeq	r0, {r0, r4, r5, r6, sl, fp}
 8000010:	08000c71 	stmdaeq	r0, {r0, r4, r5, r6, sl, fp}
 8000014:	08000c71 	stmdaeq	r0, {r0, r4, r5, r6, sl, fp}
 8000018:	08000c71 	stmdaeq	r0, {r0, r4, r5, r6, sl, fp}
	...
 800002c:	08000a1d 	stmdaeq	r0, {r0, r2, r3, r4, r9, fp}
 8000030:	08000c71 	stmdaeq	r0, {r0, r4, r5, r6, sl, fp}
 8000034:	00000000 	andeq	r0, r0, r0
 8000038:	08000c71 	stmdaeq	r0, {r0, r4, r5, r6, sl, fp}
 800003c:	08000c71 	stmdaeq	r0, {r0, r4, r5, r6, sl, fp}
 8000040:	08000c71 	stmdaeq	r0, {r0, r4, r5, r6, sl, fp}
 8000044:	08000c71 	stmdaeq	r0, {r0, r4, r5, r6, sl, fp}
 8000048:	08000c71 	stmdaeq	r0, {r0, r4, r5, r6, sl, fp}
 800004c:	08000c71 	stmdaeq	r0, {r0, r4, r5, r6, sl, fp}
 8000050:	08000c71 	stmdaeq	r0, {r0, r4, r5, r6, sl, fp}
 8000054:	08000c71 	stmdaeq	r0, {r0, r4, r5, r6, sl, fp}
 8000058:	080004f9 	stmdaeq	r0, {r0, r3, r4, r5, r6, r7, sl}
 800005c:	0800051d 	stmdaeq	r0, {r0, r2, r3, r4, r8, sl}
 8000060:	08000541 	stmdaeq	r0, {r0, r6, r8, sl}
 8000064:	08000565 	stmdaeq	r0, {r0, r2, r5, r6, r8, sl}
 8000068:	08000589 	stmdaeq	r0, {r0, r3, r7, r8, sl}
 800006c:	08000c71 	stmdaeq	r0, {r0, r4, r5, r6, sl, fp}
 8000070:	08000c71 	stmdaeq	r0, {r0, r4, r5, r6, sl, fp}
 8000074:	08000c71 	stmdaeq	r0, {r0, r4, r5, r6, sl, fp}
 8000078:	08000c71 	stmdaeq	r0, {r0, r4, r5, r6, sl, fp}
 800007c:	08000c71 	stmdaeq	r0, {r0, r4, r5, r6, sl, fp}
 8000080:	08000c71 	stmdaeq	r0, {r0, r4, r5, r6, sl, fp}
 8000084:	08000c71 	stmdaeq	r0, {r0, r4, r5, r6, sl, fp}
 8000088:	08000c71 	stmdaeq	r0, {r0, r4, r5, r6, sl, fp}
 800008c:	08000c71 	stmdaeq	r0, {r0, r4, r5, r6, sl, fp}
 8000090:	08000c71 	stmdaeq	r0, {r0, r4, r5, r6, sl, fp}
 8000094:	08000c71 	stmdaeq	r0, {r0, r4, r5, r6, sl, fp}
 8000098:	08000c71 	stmdaeq	r0, {r0, r4, r5, r6, sl, fp}
 800009c:	080005ad 	stmdaeq	r0, {r0, r2, r3, r5, r7, r8, sl}
 80000a0:	08000c71 	stmdaeq	r0, {r0, r4, r5, r6, sl, fp}
 80000a4:	08000c71 	stmdaeq	r0, {r0, r4, r5, r6, sl, fp}
 80000a8:	08000c71 	stmdaeq	r0, {r0, r4, r5, r6, sl, fp}
 80000ac:	08000c71 	stmdaeq	r0, {r0, r4, r5, r6, sl, fp}
 80000b0:	08000c71 	stmdaeq	r0, {r0, r4, r5, r6, sl, fp}
 80000b4:	08000c71 	stmdaeq	r0, {r0, r4, r5, r6, sl, fp}
 80000b8:	08000c71 	stmdaeq	r0, {r0, r4, r5, r6, sl, fp}
 80000bc:	08000c71 	stmdaeq	r0, {r0, r4, r5, r6, sl, fp}
 80000c0:	08000c71 	stmdaeq	r0, {r0, r4, r5, r6, sl, fp}
 80000c4:	08000c71 	stmdaeq	r0, {r0, r4, r5, r6, sl, fp}
 80000c8:	08000c71 	stmdaeq	r0, {r0, r4, r5, r6, sl, fp}
 80000cc:	08000c71 	stmdaeq	r0, {r0, r4, r5, r6, sl, fp}
 80000d0:	08000c71 	stmdaeq	r0, {r0, r4, r5, r6, sl, fp}
 80000d4:	08000c71 	stmdaeq	r0, {r0, r4, r5, r6, sl, fp}
 80000d8:	08000c71 	stmdaeq	r0, {r0, r4, r5, r6, sl, fp}
 80000dc:	08000c71 	stmdaeq	r0, {r0, r4, r5, r6, sl, fp}
 80000e0:	08000655 	stmdaeq	r0, {r0, r2, r4, r6, r9, sl}
 80000e4:	08000c71 	stmdaeq	r0, {r0, r4, r5, r6, sl, fp}
 80000e8:	00000000 	andeq	r0, r0, r0
 80000ec:	08000c71 	stmdaeq	r0, {r0, r4, r5, r6, sl, fp}
 80000f0:	08000c71 	stmdaeq	r0, {r0, r4, r5, r6, sl, fp}
 80000f4:	08000c71 	stmdaeq	r0, {r0, r4, r5, r6, sl, fp}
 80000f8:	08000c71 	stmdaeq	r0, {r0, r4, r5, r6, sl, fp}
 80000fc:	08000c71 	stmdaeq	r0, {r0, r4, r5, r6, sl, fp}
 8000100:	08000c71 	stmdaeq	r0, {r0, r4, r5, r6, sl, fp}
 8000104:	08000c71 	stmdaeq	r0, {r0, r4, r5, r6, sl, fp}
 8000108:	08000c71 	stmdaeq	r0, {r0, r4, r5, r6, sl, fp}
 800010c:	08000c71 	stmdaeq	r0, {r0, r4, r5, r6, sl, fp}
 8000110:	08000c71 	stmdaeq	r0, {r0, r4, r5, r6, sl, fp}
 8000114:	08000c71 	stmdaeq	r0, {r0, r4, r5, r6, sl, fp}
 8000118:	08000c71 	stmdaeq	r0, {r0, r4, r5, r6, sl, fp}
 800011c:	08000c71 	stmdaeq	r0, {r0, r4, r5, r6, sl, fp}
 8000120:	08000c71 	stmdaeq	r0, {r0, r4, r5, r6, sl, fp}
 8000124:	08000c71 	stmdaeq	r0, {r0, r4, r5, r6, sl, fp}
 8000128:	08000c71 	stmdaeq	r0, {r0, r4, r5, r6, sl, fp}
 800012c:	08000c71 	stmdaeq	r0, {r0, r4, r5, r6, sl, fp}

Disassembly of section .text:

08000130 <__do_global_dtors_aux>:
 8000130:	b510      	push	{r4, lr}
 8000132:	4c05      	ldr	r4, [pc, #20]	; (8000148 <__do_global_dtors_aux+0x18>)
 8000134:	7823      	ldrb	r3, [r4, #0]
 8000136:	b933      	cbnz	r3, 8000146 <__do_global_dtors_aux+0x16>
 8000138:	4b04      	ldr	r3, [pc, #16]	; (800014c <__do_global_dtors_aux+0x1c>)
 800013a:	b113      	cbz	r3, 8000142 <__do_global_dtors_aux+0x12>
 800013c:	4804      	ldr	r0, [pc, #16]	; (8000150 <__do_global_dtors_aux+0x20>)
 800013e:	f3af 8000 	nop.w
 8000142:	2301      	movs	r3, #1
 8000144:	7023      	strb	r3, [r4, #0]
 8000146:	bd10      	pop	{r4, pc}
 8000148:	20000004 	andcs	r0, r0, r4
 800014c:	00000000 	andeq	r0, r0, r0
 8000150:	08000cbc 	stmdaeq	r0, {r2, r3, r4, r5, r7, sl, fp}

08000154 <frame_dummy>:
 8000154:	b508      	push	{r3, lr}
 8000156:	4b03      	ldr	r3, [pc, #12]	; (8000164 <frame_dummy+0x10>)
 8000158:	b11b      	cbz	r3, 8000162 <frame_dummy+0xe>
 800015a:	4903      	ldr	r1, [pc, #12]	; (8000168 <frame_dummy+0x14>)
 800015c:	4803      	ldr	r0, [pc, #12]	; (800016c <frame_dummy+0x18>)
 800015e:	f3af 8000 	nop.w
 8000162:	bd08      	pop	{r3, pc}
 8000164:	00000000 	andeq	r0, r0, r0
 8000168:	20000008 	andcs	r0, r0, r8
 800016c:	08000cbc 	stmdaeq	r0, {r2, r3, r4, r5, r7, sl, fp}

08000170 <Enable_NVIC>:
 8000170:	b480      	push	{r7}
 8000172:	b083      	sub	sp, #12
 8000174:	af00      	add	r7, sp, #0
 8000176:	4603      	mov	r3, r0
 8000178:	80fb      	strh	r3, [r7, #6]
 800017a:	88fb      	ldrh	r3, [r7, #6]
 800017c:	2b0f      	cmp	r3, #15
 800017e:	d854      	bhi.n	800022a <Enable_NVIC+0xba>
 8000180:	a201      	add	r2, pc, #4	; (adr r2, 8000188 <Enable_NVIC+0x18>)
 8000182:	f852 f023 	ldr.w	pc, [r2, r3, lsl #2]
 8000186:	bf00      	nop
 8000188:	080001c9 	stmdaeq	r0, {r0, r3, r6, r7, r8}
 800018c:	080001d7 	stmdaeq	r0, {r0, r1, r2, r4, r6, r7, r8}
 8000190:	080001e5 	stmdaeq	r0, {r0, r2, r5, r6, r7, r8}
 8000194:	080001f3 	stmdaeq	r0, {r0, r1, r4, r5, r6, r7, r8}
 8000198:	08000201 	stmdaeq	r0, {r0, r9}
 800019c:	0800020f 	stmdaeq	r0, {r0, r1, r2, r3, r9}
 80001a0:	0800020f 	stmdaeq	r0, {r0, r1, r2, r3, r9}
 80001a4:	0800020f 	stmdaeq	r0, {r0, r1, r2, r3, r9}
 80001a8:	0800020f 	stmdaeq	r0, {r0, r1, r2, r3, r9}
 80001ac:	0800020f 	stmdaeq	r0, {r0, r1, r2, r3, r9}
 80001b0:	0800021d 	stmdaeq	r0, {r0, r2, r3, r4, r9}
 80001b4:	0800021d 	stmdaeq	r0, {r0, r2, r3, r4, r9}
 80001b8:	0800021d 	stmdaeq	r0, {r0, r2, r3, r4, r9}
 80001bc:	0800021d 	stmdaeq	r0, {r0, r2, r3, r4, r9}
 80001c0:	0800021d 	stmdaeq	r0, {r0, r2, r3, r4, r9}
 80001c4:	0800021d 	stmdaeq	r0, {r0, r2, r3, r4, r9}
 80001c8:	4b1a      	ldr	r3, [pc, #104]	; (8000234 <Enable_NVIC+0xc4>)
 80001ca:	681b      	ldr	r3, [r3, #0]
 80001cc:	4a19      	ldr	r2, [pc, #100]	; (8000234 <Enable_NVIC+0xc4>)
 80001ce:	f043 0340 	orr.w	r3, r3, #64	; 0x40
 80001d2:	6013      	str	r3, [r2, #0]
 80001d4:	e029      	b.n	800022a <Enable_NVIC+0xba>
 80001d6:	4b17      	ldr	r3, [pc, #92]	; (8000234 <Enable_NVIC+0xc4>)
 80001d8:	681b      	ldr	r3, [r3, #0]
 80001da:	4a16      	ldr	r2, [pc, #88]	; (8000234 <Enable_NVIC+0xc4>)
 80001dc:	f043 0380 	orr.w	r3, r3, #128	; 0x80
 80001e0:	6013      	str	r3, [r2, #0]
 80001e2:	e022      	b.n	800022a <Enable_NVIC+0xba>
 80001e4:	4b13      	ldr	r3, [pc, #76]	; (8000234 <Enable_NVIC+0xc4>)
 80001e6:	681b      	ldr	r3, [r3, #0]
 80001e8:	4a12      	ldr	r2, [pc, #72]	; (8000234 <Enable_NVIC+0xc4>)
 80001ea:	f443 7380 	orr.w	r3, r3, #256	; 0x100
 80001ee:	6013      	str	r3, [r2, #0]
 80001f0:	e01b      	b.n	800022a <Enable_NVIC+0xba>
 80001f2:	4b10      	ldr	r3, [pc, #64]	; (8000234 <Enable_NVIC+0xc4>)
 80001f4:	681b      	ldr	r3, [r3, #0]
 80001f6:	4a0f      	ldr	r2, [pc, #60]	; (8000234 <Enable_NVIC+0xc4>)
 80001f8:	f443 7300 	orr.w	r3, r3, #512	; 0x200
 80001fc:	6013      	str	r3, [r2, #0]
 80001fe:	e014      	b.n	800022a <Enable_NVIC+0xba>
 8000200:	4b0c      	ldr	r3, [pc, #48]	; (8000234 <Enable_NVIC+0xc4>)
 8000202:	681b      	ldr	r3, [r3, #0]
 8000204:	4a0b      	ldr	r2, [pc, #44]	; (8000234 <Enable_NVIC+0xc4>)
 8000206:	f443 6380 	orr.w	r3, r3, #1024	; 0x400
 800020a:	6013      	str	r3, [r2, #0]
 800020c:	e00d      	b.n	800022a <Enable_NVIC+0xba>
 800020e:	4b09      	ldr	r3, [pc, #36]	; (8000234 <Enable_NVIC+0xc4>)
 8000210:	681b      	ldr	r3, [r3, #0]
 8000212:	4a08      	ldr	r2, [pc, #32]	; (8000234 <Enable_NVIC+0xc4>)
 8000214:	f443 0300 	orr.w	r3, r3, #8388608	; 0x800000
 8000218:	6013      	str	r3, [r2, #0]
 800021a:	e006      	b.n	800022a <Enable_NVIC+0xba>
 800021c:	4b06      	ldr	r3, [pc, #24]	; (8000238 <Enable_NVIC+0xc8>)
 800021e:	681b      	ldr	r3, [r3, #0]
 8000220:	4a05      	ldr	r2, [pc, #20]	; (8000238 <Enable_NVIC+0xc8>)
 8000222:	f443 7380 	orr.w	r3, r3, #256	; 0x100
 8000226:	6013      	str	r3, [r2, #0]
 8000228:	bf00      	nop
 800022a:	bf00      	nop
 800022c:	370c      	adds	r7, #12
 800022e:	46bd      	mov	sp, r7
 8000230:	bc80      	pop	{r7}
 8000232:	4770      	bx	lr
 8000234:	e000e100 	and	lr, r0, r0, lsl #2
 8000238:	e000e104 	and	lr, r0, r4, lsl #2

0800023c <Disable_NVIC>:
 800023c:	b480      	push	{r7}
 800023e:	b083      	sub	sp, #12
 8000240:	af00      	add	r7, sp, #0
 8000242:	4603      	mov	r3, r0
 8000244:	80fb      	strh	r3, [r7, #6]
 8000246:	88fb      	ldrh	r3, [r7, #6]
 8000248:	2b0f      	cmp	r3, #15
 800024a:	d854      	bhi.n	80002f6 <Disable_NVIC+0xba>
 800024c:	a201      	add	r2, pc, #4	; (adr r2, 8000254 <Disable_NVIC+0x18>)
 800024e:	f852 f023 	ldr.w	pc, [r2, r3, lsl #2]
 8000252:	bf00      	nop
 8000254:	08000295 	stmdaeq	r0, {r0, r2, r4, r7, r9}
 8000258:	080002a3 	stmdaeq	r0, {r0, r1, r5, r7, r9}
 800025c:	080002b1 	stmdaeq	r0, {r0, r4, r5, r7, r9}
 8000260:	080002bf 	stmdaeq	r0, {r0, r1, r2, r3, r4, r5, r7, r9}
 8000264:	080002cd 	stmdaeq	r0, {r0, r2, r3, r6, r7, r9}
 8000268:	080002db 	stmdaeq	r0, {r0, r1, r3, r4, r6, r7, r9}
 800026c:	080002db 	stmdaeq	r0, {r0, r1, r3, r4, r6, r7, r9}
 8000270:	080002db 	stmdaeq	r0, {r0, r1, r3, r4, r6, r7, r9}
 8000274:	080002db 	stmdaeq	r0, {r0, r1, r3, r4, r6, r7, r9}
 8000278:	080002db 	stmdaeq	r0, {r0, r1, r3, r4, r6, r7, r9}
 800027c:	080002e9 	stmdaeq	r0, {r0, r3, r5, r6, r7, r9}
 8000280:	080002e9 	stmdaeq	r0, {r0, r3, r5, r6, r7, r9}
 8000284:	080002e9 	stmdaeq	r0, {r0, r3, r5, r6, r7, r9}
 8000288:	080002e9 	stmdaeq	r0, {r0, r3, r5, r6, r7, r9}
 800028c:	080002e9 	stmdaeq	r0, {r0, r3, r5, r6, r7, r9}
 8000290:	080002e9 	stmdaeq	r0, {r0, r3, r5, r6, r7, r9}
 8000294:	4b1a      	ldr	r3, [pc, #104]	; (8000300 <Disable_NVIC+0xc4>)
 8000296:	681b      	ldr	r3, [r3, #0]
 8000298:	4a19      	ldr	r2, [pc, #100]	; (8000300 <Disable_NVIC+0xc4>)
 800029a:	f043 0340 	orr.w	r3, r3, #64	; 0x40
 800029e:	6013      	str	r3, [r2, #0]
 80002a0:	e029      	b.n	80002f6 <Disable_NVIC+0xba>
 80002a2:	4b17      	ldr	r3, [pc, #92]	; (8000300 <Disable_NVIC+0xc4>)
 80002a4:	681b      	ldr	r3, [r3, #0]
 80002a6:	4a16      	ldr	r2, [pc, #88]	; (8000300 <Disable_NVIC+0xc4>)
 80002a8:	f043 0380 	orr.w	r3, r3, #128	; 0x80
 80002ac:	6013      	str	r3, [r2, #0]
 80002ae:	e022      	b.n	80002f6 <Disable_NVIC+0xba>
 80002b0:	4b13      	ldr	r3, [pc, #76]	; (8000300 <Disable_NVIC+0xc4>)
 80002b2:	681b      	ldr	r3, [r3, #0]
 80002b4:	4a12      	ldr	r2, [pc, #72]	; (8000300 <Disable_NVIC+0xc4>)
 80002b6:	f443 7380 	orr.w	r3, r3, #256	; 0x100
 80002ba:	6013      	str	r3, [r2, #0]
 80002bc:	e01b      	b.n	80002f6 <Disable_NVIC+0xba>
 80002be:	4b10      	ldr	r3, [pc, #64]	; (8000300 <Disable_NVIC+0xc4>)
 80002c0:	681b      	ldr	r3, [r3, #0]
 80002c2:	4a0f      	ldr	r2, [pc, #60]	; (8000300 <Disable_NVIC+0xc4>)
 80002c4:	f443 7300 	orr.w	r3, r3, #512	; 0x200
 80002c8:	6013      	str	r3, [r2, #0]
 80002ca:	e014      	b.n	80002f6 <Disable_NVIC+0xba>
 80002cc:	4b0c      	ldr	r3, [pc, #48]	; (8000300 <Disable_NVIC+0xc4>)
 80002ce:	681b      	ldr	r3, [r3, #0]
 80002d0:	4a0b      	ldr	r2, [pc, #44]	; (8000300 <Disable_NVIC+0xc4>)
 80002d2:	f443 6380 	orr.w	r3, r3, #1024	; 0x400
 80002d6:	6013      	str	r3, [r2, #0]
 80002d8:	e00d      	b.n	80002f6 <Disable_NVIC+0xba>
 80002da:	4b09      	ldr	r3, [pc, #36]	; (8000300 <Disable_NVIC+0xc4>)
 80002dc:	681b      	ldr	r3, [r3, #0]
 80002de:	4a08      	ldr	r2, [pc, #32]	; (8000300 <Disable_NVIC+0xc4>)
 80002e0:	f443 0300 	orr.w	r3, r3, #8388608	; 0x800000
 80002e4:	6013      	str	r3, [r2, #0]
 80002e6:	e006      	b.n	80002f6 <Disable_NVIC+0xba>
 80002e8:	4b06      	ldr	r3, [pc, #24]	; (8000304 <Disable_NVIC+0xc8>)
 80002ea:	681b      	ldr	r3, [r3, #0]
 80002ec:	4a05      	ldr	r2, [pc, #20]	; (8000304 <Disable_NVIC+0xc8>)
 80002ee:	f443 7380 	orr.w	r3, r3, #256	; 0x100
 80002f2:	6013      	str	r3, [r2, #0]
 80002f4:	bf00      	nop
 80002f6:	bf00      	nop
 80002f8:	370c      	adds	r7, #12
 80002fa:	46bd      	mov	sp, r7
 80002fc:	bc80      	pop	{r7}
 80002fe:	4770      	bx	lr
 8000300:	e000e180 	and	lr, r0, r0, lsl #3
 8000304:	e000e184 	and	lr, r0, r4, lsl #3

08000308 <Update_EXTI>:
 8000308:	b580      	push	{r7, lr}
 800030a:	b084      	sub	sp, #16
 800030c:	af00      	add	r7, sp, #0
 800030e:	6078      	str	r0, [r7, #4]
 8000310:	687b      	ldr	r3, [r7, #4]
 8000312:	891b      	ldrh	r3, [r3, #8]
 8000314:	813b      	strh	r3, [r7, #8]
 8000316:	2301      	movs	r3, #1
 8000318:	72bb      	strb	r3, [r7, #10]
 800031a:	687b      	ldr	r3, [r7, #4]
 800031c:	685b      	ldr	r3, [r3, #4]
 800031e:	f107 0208 	add.w	r2, r7, #8
 8000322:	4611      	mov	r1, r2
 8000324:	4618      	mov	r0, r3
 8000326:	f000 faaf 	bl	8000888 <MCAL_GPIO_Init>
 800032a:	687b      	ldr	r3, [r7, #4]
 800032c:	881b      	ldrh	r3, [r3, #0]
 800032e:	089b      	lsrs	r3, r3, #2
 8000330:	b29b      	uxth	r3, r3
 8000332:	73fb      	strb	r3, [r7, #15]
 8000334:	687b      	ldr	r3, [r7, #4]
 8000336:	881b      	ldrh	r3, [r3, #0]
 8000338:	b2db      	uxtb	r3, r3
 800033a:	f003 0303 	and.w	r3, r3, #3
 800033e:	b2db      	uxtb	r3, r3
 8000340:	009b      	lsls	r3, r3, #2
 8000342:	73bb      	strb	r3, [r7, #14]
 8000344:	4a5f      	ldr	r2, [pc, #380]	; (80004c4 <Update_EXTI+0x1bc>)
 8000346:	7bfb      	ldrb	r3, [r7, #15]
 8000348:	3302      	adds	r3, #2
 800034a:	f852 2023 	ldr.w	r2, [r2, r3, lsl #2]
 800034e:	7bbb      	ldrb	r3, [r7, #14]
 8000350:	210f      	movs	r1, #15
 8000352:	fa01 f303 	lsl.w	r3, r1, r3
 8000356:	43db      	mvns	r3, r3
 8000358:	4618      	mov	r0, r3
 800035a:	495a      	ldr	r1, [pc, #360]	; (80004c4 <Update_EXTI+0x1bc>)
 800035c:	7bfb      	ldrb	r3, [r7, #15]
 800035e:	4002      	ands	r2, r0
 8000360:	3302      	adds	r3, #2
 8000362:	f841 2023 	str.w	r2, [r1, r3, lsl #2]
 8000366:	4a57      	ldr	r2, [pc, #348]	; (80004c4 <Update_EXTI+0x1bc>)
 8000368:	7bfb      	ldrb	r3, [r7, #15]
 800036a:	3302      	adds	r3, #2
 800036c:	f852 2023 	ldr.w	r2, [r2, r3, lsl #2]
 8000370:	687b      	ldr	r3, [r7, #4]
 8000372:	685b      	ldr	r3, [r3, #4]
 8000374:	4954      	ldr	r1, [pc, #336]	; (80004c8 <Update_EXTI+0x1c0>)
 8000376:	428b      	cmp	r3, r1
 8000378:	d016      	beq.n	80003a8 <Update_EXTI+0xa0>
 800037a:	687b      	ldr	r3, [r7, #4]
 800037c:	685b      	ldr	r3, [r3, #4]
 800037e:	4953      	ldr	r1, [pc, #332]	; (80004cc <Update_EXTI+0x1c4>)
 8000380:	428b      	cmp	r3, r1
 8000382:	d00f      	beq.n	80003a4 <Update_EXTI+0x9c>
 8000384:	687b      	ldr	r3, [r7, #4]
 8000386:	685b      	ldr	r3, [r3, #4]
 8000388:	4951      	ldr	r1, [pc, #324]	; (80004d0 <Update_EXTI+0x1c8>)
 800038a:	428b      	cmp	r3, r1
 800038c:	d008      	beq.n	80003a0 <Update_EXTI+0x98>
 800038e:	687b      	ldr	r3, [r7, #4]
 8000390:	685b      	ldr	r3, [r3, #4]
 8000392:	4950      	ldr	r1, [pc, #320]	; (80004d4 <Update_EXTI+0x1cc>)
 8000394:	428b      	cmp	r3, r1
 8000396:	d101      	bne.n	800039c <Update_EXTI+0x94>
 8000398:	2303      	movs	r3, #3
 800039a:	e006      	b.n	80003aa <Update_EXTI+0xa2>
 800039c:	2300      	movs	r3, #0
 800039e:	e004      	b.n	80003aa <Update_EXTI+0xa2>
 80003a0:	2302      	movs	r3, #2
 80003a2:	e002      	b.n	80003aa <Update_EXTI+0xa2>
 80003a4:	2301      	movs	r3, #1
 80003a6:	e000      	b.n	80003aa <Update_EXTI+0xa2>
 80003a8:	2300      	movs	r3, #0
 80003aa:	7bb9      	ldrb	r1, [r7, #14]
 80003ac:	408b      	lsls	r3, r1
 80003ae:	4618      	mov	r0, r3
 80003b0:	4944      	ldr	r1, [pc, #272]	; (80004c4 <Update_EXTI+0x1bc>)
 80003b2:	7bfb      	ldrb	r3, [r7, #15]
 80003b4:	4302      	orrs	r2, r0
 80003b6:	3302      	adds	r3, #2
 80003b8:	f841 2023 	str.w	r2, [r1, r3, lsl #2]
 80003bc:	4b46      	ldr	r3, [pc, #280]	; (80004d8 <Update_EXTI+0x1d0>)
 80003be:	689b      	ldr	r3, [r3, #8]
 80003c0:	687a      	ldr	r2, [r7, #4]
 80003c2:	8812      	ldrh	r2, [r2, #0]
 80003c4:	4611      	mov	r1, r2
 80003c6:	2201      	movs	r2, #1
 80003c8:	408a      	lsls	r2, r1
 80003ca:	43d2      	mvns	r2, r2
 80003cc:	4611      	mov	r1, r2
 80003ce:	4a42      	ldr	r2, [pc, #264]	; (80004d8 <Update_EXTI+0x1d0>)
 80003d0:	400b      	ands	r3, r1
 80003d2:	6093      	str	r3, [r2, #8]
 80003d4:	4b40      	ldr	r3, [pc, #256]	; (80004d8 <Update_EXTI+0x1d0>)
 80003d6:	68db      	ldr	r3, [r3, #12]
 80003d8:	687a      	ldr	r2, [r7, #4]
 80003da:	8812      	ldrh	r2, [r2, #0]
 80003dc:	4611      	mov	r1, r2
 80003de:	2201      	movs	r2, #1
 80003e0:	408a      	lsls	r2, r1
 80003e2:	43d2      	mvns	r2, r2
 80003e4:	4611      	mov	r1, r2
 80003e6:	4a3c      	ldr	r2, [pc, #240]	; (80004d8 <Update_EXTI+0x1d0>)
 80003e8:	400b      	ands	r3, r1
 80003ea:	60d3      	str	r3, [r2, #12]
 80003ec:	687b      	ldr	r3, [r7, #4]
 80003ee:	7b1b      	ldrb	r3, [r3, #12]
 80003f0:	2b00      	cmp	r3, #0
 80003f2:	d10b      	bne.n	800040c <Update_EXTI+0x104>
 80003f4:	4b38      	ldr	r3, [pc, #224]	; (80004d8 <Update_EXTI+0x1d0>)
 80003f6:	689b      	ldr	r3, [r3, #8]
 80003f8:	687a      	ldr	r2, [r7, #4]
 80003fa:	8812      	ldrh	r2, [r2, #0]
 80003fc:	4611      	mov	r1, r2
 80003fe:	2201      	movs	r2, #1
 8000400:	408a      	lsls	r2, r1
 8000402:	4611      	mov	r1, r2
 8000404:	4a34      	ldr	r2, [pc, #208]	; (80004d8 <Update_EXTI+0x1d0>)
 8000406:	430b      	orrs	r3, r1
 8000408:	6093      	str	r3, [r2, #8]
 800040a:	e029      	b.n	8000460 <Update_EXTI+0x158>
 800040c:	687b      	ldr	r3, [r7, #4]
 800040e:	7b1b      	ldrb	r3, [r3, #12]
 8000410:	2b01      	cmp	r3, #1
 8000412:	d10b      	bne.n	800042c <Update_EXTI+0x124>
 8000414:	4b30      	ldr	r3, [pc, #192]	; (80004d8 <Update_EXTI+0x1d0>)
 8000416:	68db      	ldr	r3, [r3, #12]
 8000418:	687a      	ldr	r2, [r7, #4]
 800041a:	8812      	ldrh	r2, [r2, #0]
 800041c:	4611      	mov	r1, r2
 800041e:	2201      	movs	r2, #1
 8000420:	408a      	lsls	r2, r1
 8000422:	4611      	mov	r1, r2
 8000424:	4a2c      	ldr	r2, [pc, #176]	; (80004d8 <Update_EXTI+0x1d0>)
 8000426:	430b      	orrs	r3, r1
 8000428:	60d3      	str	r3, [r2, #12]
 800042a:	e019      	b.n	8000460 <Update_EXTI+0x158>
 800042c:	687b      	ldr	r3, [r7, #4]
 800042e:	7b1b      	ldrb	r3, [r3, #12]
 8000430:	2b02      	cmp	r3, #2
 8000432:	d115      	bne.n	8000460 <Update_EXTI+0x158>
 8000434:	4b28      	ldr	r3, [pc, #160]	; (80004d8 <Update_EXTI+0x1d0>)
 8000436:	689b      	ldr	r3, [r3, #8]
 8000438:	687a      	ldr	r2, [r7, #4]
 800043a:	8812      	ldrh	r2, [r2, #0]
 800043c:	4611      	mov	r1, r2
 800043e:	2201      	movs	r2, #1
 8000440:	408a      	lsls	r2, r1
 8000442:	4611      	mov	r1, r2
 8000444:	4a24      	ldr	r2, [pc, #144]	; (80004d8 <Update_EXTI+0x1d0>)
 8000446:	430b      	orrs	r3, r1
 8000448:	6093      	str	r3, [r2, #8]
 800044a:	4b23      	ldr	r3, [pc, #140]	; (80004d8 <Update_EXTI+0x1d0>)
 800044c:	68db      	ldr	r3, [r3, #12]
 800044e:	687a      	ldr	r2, [r7, #4]
 8000450:	8812      	ldrh	r2, [r2, #0]
 8000452:	4611      	mov	r1, r2
 8000454:	2201      	movs	r2, #1
 8000456:	408a      	lsls	r2, r1
 8000458:	4611      	mov	r1, r2
 800045a:	4a1f      	ldr	r2, [pc, #124]	; (80004d8 <Update_EXTI+0x1d0>)
 800045c:	430b      	orrs	r3, r1
 800045e:	60d3      	str	r3, [r2, #12]
 8000460:	687b      	ldr	r3, [r7, #4]
 8000462:	881b      	ldrh	r3, [r3, #0]
 8000464:	4619      	mov	r1, r3
 8000466:	687b      	ldr	r3, [r7, #4]
 8000468:	691b      	ldr	r3, [r3, #16]
 800046a:	4a1c      	ldr	r2, [pc, #112]	; (80004dc <Update_EXTI+0x1d4>)
 800046c:	f842 3021 	str.w	r3, [r2, r1, lsl #2]
 8000470:	687b      	ldr	r3, [r7, #4]
 8000472:	7b5b      	ldrb	r3, [r3, #13]
 8000474:	2b01      	cmp	r3, #1
 8000476:	d110      	bne.n	800049a <Update_EXTI+0x192>
 8000478:	4b17      	ldr	r3, [pc, #92]	; (80004d8 <Update_EXTI+0x1d0>)
 800047a:	681b      	ldr	r3, [r3, #0]
 800047c:	687a      	ldr	r2, [r7, #4]
 800047e:	8812      	ldrh	r2, [r2, #0]
 8000480:	4611      	mov	r1, r2
 8000482:	2201      	movs	r2, #1
 8000484:	408a      	lsls	r2, r1
 8000486:	4611      	mov	r1, r2
 8000488:	4a13      	ldr	r2, [pc, #76]	; (80004d8 <Update_EXTI+0x1d0>)
 800048a:	430b      	orrs	r3, r1
 800048c:	6013      	str	r3, [r2, #0]
 800048e:	687b      	ldr	r3, [r7, #4]
 8000490:	881b      	ldrh	r3, [r3, #0]
 8000492:	4618      	mov	r0, r3
 8000494:	f7ff fe6c 	bl	8000170 <Enable_NVIC>
 8000498:	e010      	b.n	80004bc <Update_EXTI+0x1b4>
 800049a:	4b0f      	ldr	r3, [pc, #60]	; (80004d8 <Update_EXTI+0x1d0>)
 800049c:	681b      	ldr	r3, [r3, #0]
 800049e:	687a      	ldr	r2, [r7, #4]
 80004a0:	8812      	ldrh	r2, [r2, #0]
 80004a2:	4611      	mov	r1, r2
 80004a4:	2201      	movs	r2, #1
 80004a6:	408a      	lsls	r2, r1
 80004a8:	43d2      	mvns	r2, r2
 80004aa:	4611      	mov	r1, r2
 80004ac:	4a0a      	ldr	r2, [pc, #40]	; (80004d8 <Update_EXTI+0x1d0>)
 80004ae:	400b      	ands	r3, r1
 80004b0:	6013      	str	r3, [r2, #0]
 80004b2:	687b      	ldr	r3, [r7, #4]
 80004b4:	881b      	ldrh	r3, [r3, #0]
 80004b6:	4618      	mov	r0, r3
 80004b8:	f7ff fec0 	bl	800023c <Disable_NVIC>
 80004bc:	bf00      	nop
 80004be:	3710      	adds	r7, #16
 80004c0:	46bd      	mov	sp, r7
 80004c2:	bd80      	pop	{r7, pc}
 80004c4:	40010000 	andmi	r0, r1, r0
 80004c8:	40010800 	andmi	r0, r1, r0, lsl #16
 80004cc:	40010c00 	andmi	r0, r1, r0, lsl #24
 80004d0:	40011000 	andmi	r1, r1, r0
 80004d4:	40011400 	andmi	r1, r1, r0, lsl #8
 80004d8:	40010400 	andmi	r0, r1, r0, lsl #8
 80004dc:	20000020 	andcs	r0, r0, r0, lsr #32

080004e0 <MCAL_EXTI_GPIO_init>:
 80004e0:	b580      	push	{r7, lr}
 80004e2:	b082      	sub	sp, #8
 80004e4:	af00      	add	r7, sp, #0
 80004e6:	6078      	str	r0, [r7, #4]
 80004e8:	6878      	ldr	r0, [r7, #4]
 80004ea:	f7ff ff0d 	bl	8000308 <Update_EXTI>
 80004ee:	bf00      	nop
 80004f0:	3708      	adds	r7, #8
 80004f2:	46bd      	mov	sp, r7
 80004f4:	bd80      	pop	{r7, pc}
	...

080004f8 <EXTI0_IRQHandler>:
 80004f8:	b580      	push	{r7, lr}
 80004fa:	af00      	add	r7, sp, #0
 80004fc:	4b05      	ldr	r3, [pc, #20]	; (8000514 <EXTI0_IRQHandler+0x1c>)
 80004fe:	695b      	ldr	r3, [r3, #20]
 8000500:	4a04      	ldr	r2, [pc, #16]	; (8000514 <EXTI0_IRQHandler+0x1c>)
 8000502:	f043 0301 	orr.w	r3, r3, #1
 8000506:	6153      	str	r3, [r2, #20]
 8000508:	4b03      	ldr	r3, [pc, #12]	; (8000518 <EXTI0_IRQHandler+0x20>)
 800050a:	681b      	ldr	r3, [r3, #0]
 800050c:	4798      	blx	r3
 800050e:	bf00      	nop
 8000510:	bd80      	pop	{r7, pc}
 8000512:	bf00      	nop
 8000514:	40010400 	andmi	r0, r1, r0, lsl #8
 8000518:	20000020 	andcs	r0, r0, r0, lsr #32

0800051c <EXTI1_IRQHandler>:
 800051c:	b580      	push	{r7, lr}
 800051e:	af00      	add	r7, sp, #0
 8000520:	4b05      	ldr	r3, [pc, #20]	; (8000538 <EXTI1_IRQHandler+0x1c>)
 8000522:	695b      	ldr	r3, [r3, #20]
 8000524:	4a04      	ldr	r2, [pc, #16]	; (8000538 <EXTI1_IRQHandler+0x1c>)
 8000526:	f043 0302 	orr.w	r3, r3, #2
 800052a:	6153      	str	r3, [r2, #20]
 800052c:	4b03      	ldr	r3, [pc, #12]	; (800053c <EXTI1_IRQHandler+0x20>)
 800052e:	685b      	ldr	r3, [r3, #4]
 8000530:	4798      	blx	r3
 8000532:	bf00      	nop
 8000534:	bd80      	pop	{r7, pc}
 8000536:	bf00      	nop
 8000538:	40010400 	andmi	r0, r1, r0, lsl #8
 800053c:	20000020 	andcs	r0, r0, r0, lsr #32

08000540 <EXTI2_IRQHandler>:
 8000540:	b580      	push	{r7, lr}
 8000542:	af00      	add	r7, sp, #0
 8000544:	4b05      	ldr	r3, [pc, #20]	; (800055c <EXTI2_IRQHandler+0x1c>)
 8000546:	695b      	ldr	r3, [r3, #20]
 8000548:	4a04      	ldr	r2, [pc, #16]	; (800055c <EXTI2_IRQHandler+0x1c>)
 800054a:	f043 0304 	orr.w	r3, r3, #4
 800054e:	6153      	str	r3, [r2, #20]
 8000550:	4b03      	ldr	r3, [pc, #12]	; (8000560 <EXTI2_IRQHandler+0x20>)
 8000552:	689b      	ldr	r3, [r3, #8]
 8000554:	4798      	blx	r3
 8000556:	bf00      	nop
 8000558:	bd80      	pop	{r7, pc}
 800055a:	bf00      	nop
 800055c:	40010400 	andmi	r0, r1, r0, lsl #8
 8000560:	20000020 	andcs	r0, r0, r0, lsr #32

08000564 <EXTI3_IRQHandler>:
 8000564:	b580      	push	{r7, lr}
 8000566:	af00      	add	r7, sp, #0
 8000568:	4b05      	ldr	r3, [pc, #20]	; (8000580 <EXTI3_IRQHandler+0x1c>)
 800056a:	695b      	ldr	r3, [r3, #20]
 800056c:	4a04      	ldr	r2, [pc, #16]	; (8000580 <EXTI3_IRQHandler+0x1c>)
 800056e:	f043 0308 	orr.w	r3, r3, #8
 8000572:	6153      	str	r3, [r2, #20]
 8000574:	4b03      	ldr	r3, [pc, #12]	; (8000584 <EXTI3_IRQHandler+0x20>)
 8000576:	68db      	ldr	r3, [r3, #12]
 8000578:	4798      	blx	r3
 800057a:	bf00      	nop
 800057c:	bd80      	pop	{r7, pc}
 800057e:	bf00      	nop
 8000580:	40010400 	andmi	r0, r1, r0, lsl #8
 8000584:	20000020 	andcs	r0, r0, r0, lsr #32

08000588 <EXTI4_IRQHandler>:
 8000588:	b580      	push	{r7, lr}
 800058a:	af00      	add	r7, sp, #0
 800058c:	4b05      	ldr	r3, [pc, #20]	; (80005a4 <EXTI4_IRQHandler+0x1c>)
 800058e:	695b      	ldr	r3, [r3, #20]
 8000590:	4a04      	ldr	r2, [pc, #16]	; (80005a4 <EXTI4_IRQHandler+0x1c>)
 8000592:	f043 0310 	orr.w	r3, r3, #16
 8000596:	6153      	str	r3, [r2, #20]
 8000598:	4b03      	ldr	r3, [pc, #12]	; (80005a8 <EXTI4_IRQHandler+0x20>)
 800059a:	691b      	ldr	r3, [r3, #16]
 800059c:	4798      	blx	r3
 800059e:	bf00      	nop
 80005a0:	bd80      	pop	{r7, pc}
 80005a2:	bf00      	nop
 80005a4:	40010400 	andmi	r0, r1, r0, lsl #8
 80005a8:	20000020 	andcs	r0, r0, r0, lsr #32

080005ac <EXTI9_5_IRQHandler>:
 80005ac:	b580      	push	{r7, lr}
 80005ae:	af00      	add	r7, sp, #0
 80005b0:	4b26      	ldr	r3, [pc, #152]	; (800064c <EXTI9_5_IRQHandler+0xa0>)
 80005b2:	695b      	ldr	r3, [r3, #20]
 80005b4:	f003 0320 	and.w	r3, r3, #32
 80005b8:	2b00      	cmp	r3, #0
 80005ba:	d008      	beq.n	80005ce <EXTI9_5_IRQHandler+0x22>
 80005bc:	4b23      	ldr	r3, [pc, #140]	; (800064c <EXTI9_5_IRQHandler+0xa0>)
 80005be:	695b      	ldr	r3, [r3, #20]
 80005c0:	4a22      	ldr	r2, [pc, #136]	; (800064c <EXTI9_5_IRQHandler+0xa0>)
 80005c2:	f043 0320 	orr.w	r3, r3, #32
 80005c6:	6153      	str	r3, [r2, #20]
 80005c8:	4b21      	ldr	r3, [pc, #132]	; (8000650 <EXTI9_5_IRQHandler+0xa4>)
 80005ca:	695b      	ldr	r3, [r3, #20]
 80005cc:	4798      	blx	r3
 80005ce:	4b1f      	ldr	r3, [pc, #124]	; (800064c <EXTI9_5_IRQHandler+0xa0>)
 80005d0:	695b      	ldr	r3, [r3, #20]
 80005d2:	f003 0340 	and.w	r3, r3, #64	; 0x40
 80005d6:	2b00      	cmp	r3, #0
 80005d8:	d008      	beq.n	80005ec <EXTI9_5_IRQHandler+0x40>
 80005da:	4b1c      	ldr	r3, [pc, #112]	; (800064c <EXTI9_5_IRQHandler+0xa0>)
 80005dc:	695b      	ldr	r3, [r3, #20]
 80005de:	4a1b      	ldr	r2, [pc, #108]	; (800064c <EXTI9_5_IRQHandler+0xa0>)
 80005e0:	f043 0340 	orr.w	r3, r3, #64	; 0x40
 80005e4:	6153      	str	r3, [r2, #20]
 80005e6:	4b1a      	ldr	r3, [pc, #104]	; (8000650 <EXTI9_5_IRQHandler+0xa4>)
 80005e8:	699b      	ldr	r3, [r3, #24]
 80005ea:	4798      	blx	r3
 80005ec:	4b17      	ldr	r3, [pc, #92]	; (800064c <EXTI9_5_IRQHandler+0xa0>)
 80005ee:	695b      	ldr	r3, [r3, #20]
 80005f0:	f003 0380 	and.w	r3, r3, #128	; 0x80
 80005f4:	2b00      	cmp	r3, #0
 80005f6:	d008      	beq.n	800060a <EXTI9_5_IRQHandler+0x5e>
 80005f8:	4b14      	ldr	r3, [pc, #80]	; (800064c <EXTI9_5_IRQHandler+0xa0>)
 80005fa:	695b      	ldr	r3, [r3, #20]
 80005fc:	4a13      	ldr	r2, [pc, #76]	; (800064c <EXTI9_5_IRQHandler+0xa0>)
 80005fe:	f043 0380 	orr.w	r3, r3, #128	; 0x80
 8000602:	6153      	str	r3, [r2, #20]
 8000604:	4b12      	ldr	r3, [pc, #72]	; (8000650 <EXTI9_5_IRQHandler+0xa4>)
 8000606:	69db      	ldr	r3, [r3, #28]
 8000608:	4798      	blx	r3
 800060a:	4b10      	ldr	r3, [pc, #64]	; (800064c <EXTI9_5_IRQHandler+0xa0>)
 800060c:	695b      	ldr	r3, [r3, #20]
 800060e:	f403 7380 	and.w	r3, r3, #256	; 0x100
 8000612:	2b00      	cmp	r3, #0
 8000614:	d008      	beq.n	8000628 <EXTI9_5_IRQHandler+0x7c>
 8000616:	4b0d      	ldr	r3, [pc, #52]	; (800064c <EXTI9_5_IRQHandler+0xa0>)
 8000618:	695b      	ldr	r3, [r3, #20]
 800061a:	4a0c      	ldr	r2, [pc, #48]	; (800064c <EXTI9_5_IRQHandler+0xa0>)
 800061c:	f443 7380 	orr.w	r3, r3, #256	; 0x100
 8000620:	6153      	str	r3, [r2, #20]
 8000622:	4b0b      	ldr	r3, [pc, #44]	; (8000650 <EXTI9_5_IRQHandler+0xa4>)
 8000624:	6a1b      	ldr	r3, [r3, #32]
 8000626:	4798      	blx	r3
 8000628:	4b08      	ldr	r3, [pc, #32]	; (800064c <EXTI9_5_IRQHandler+0xa0>)
 800062a:	695b      	ldr	r3, [r3, #20]
 800062c:	f403 7300 	and.w	r3, r3, #512	; 0x200
 8000630:	2b00      	cmp	r3, #0
 8000632:	d008      	beq.n	8000646 <EXTI9_5_IRQHandler+0x9a>
 8000634:	4b05      	ldr	r3, [pc, #20]	; (800064c <EXTI9_5_IRQHandler+0xa0>)
 8000636:	695b      	ldr	r3, [r3, #20]
 8000638:	4a04      	ldr	r2, [pc, #16]	; (800064c <EXTI9_5_IRQHandler+0xa0>)
 800063a:	f443 7300 	orr.w	r3, r3, #512	; 0x200
 800063e:	6153      	str	r3, [r2, #20]
 8000640:	4b03      	ldr	r3, [pc, #12]	; (8000650 <EXTI9_5_IRQHandler+0xa4>)
 8000642:	6a5b      	ldr	r3, [r3, #36]	; 0x24
 8000644:	4798      	blx	r3
 8000646:	bf00      	nop
 8000648:	bd80      	pop	{r7, pc}
 800064a:	bf00      	nop
 800064c:	40010400 	andmi	r0, r1, r0, lsl #8
 8000650:	20000020 	andcs	r0, r0, r0, lsr #32

08000654 <EXTI15_10_IRQHandler>:
 8000654:	b580      	push	{r7, lr}
 8000656:	af00      	add	r7, sp, #0
 8000658:	4b2d      	ldr	r3, [pc, #180]	; (8000710 <EXTI15_10_IRQHandler+0xbc>)
 800065a:	695b      	ldr	r3, [r3, #20]
 800065c:	f403 6380 	and.w	r3, r3, #1024	; 0x400
 8000660:	2b00      	cmp	r3, #0
 8000662:	d008      	beq.n	8000676 <EXTI15_10_IRQHandler+0x22>
 8000664:	4b2a      	ldr	r3, [pc, #168]	; (8000710 <EXTI15_10_IRQHandler+0xbc>)
 8000666:	695b      	ldr	r3, [r3, #20]
 8000668:	4a29      	ldr	r2, [pc, #164]	; (8000710 <EXTI15_10_IRQHandler+0xbc>)
 800066a:	f443 6380 	orr.w	r3, r3, #1024	; 0x400
 800066e:	6153      	str	r3, [r2, #20]
 8000670:	4b28      	ldr	r3, [pc, #160]	; (8000714 <EXTI15_10_IRQHandler+0xc0>)
 8000672:	6a9b      	ldr	r3, [r3, #40]	; 0x28
 8000674:	4798      	blx	r3
 8000676:	4b26      	ldr	r3, [pc, #152]	; (8000710 <EXTI15_10_IRQHandler+0xbc>)
 8000678:	695b      	ldr	r3, [r3, #20]
 800067a:	f403 6300 	and.w	r3, r3, #2048	; 0x800
 800067e:	2b00      	cmp	r3, #0
 8000680:	d008      	beq.n	8000694 <EXTI15_10_IRQHandler+0x40>
 8000682:	4b23      	ldr	r3, [pc, #140]	; (8000710 <EXTI15_10_IRQHandler+0xbc>)
 8000684:	695b      	ldr	r3, [r3, #20]
 8000686:	4a22      	ldr	r2, [pc, #136]	; (8000710 <EXTI15_10_IRQHandler+0xbc>)
 8000688:	f443 6300 	orr.w	r3, r3, #2048	; 0x800
 800068c:	6153      	str	r3, [r2, #20]
 800068e:	4b21      	ldr	r3, [pc, #132]	; (8000714 <EXTI15_10_IRQHandler+0xc0>)
 8000690:	6adb      	ldr	r3, [r3, #44]	; 0x2c
 8000692:	4798      	blx	r3
 8000694:	4b1e      	ldr	r3, [pc, #120]	; (8000710 <EXTI15_10_IRQHandler+0xbc>)
 8000696:	695b      	ldr	r3, [r3, #20]
 8000698:	f403 5380 	and.w	r3, r3, #4096	; 0x1000
 800069c:	2b00      	cmp	r3, #0
 800069e:	d008      	beq.n	80006b2 <EXTI15_10_IRQHandler+0x5e>
 80006a0:	4b1b      	ldr	r3, [pc, #108]	; (8000710 <EXTI15_10_IRQHandler+0xbc>)
 80006a2:	695b      	ldr	r3, [r3, #20]
 80006a4:	4a1a      	ldr	r2, [pc, #104]	; (8000710 <EXTI15_10_IRQHandler+0xbc>)
 80006a6:	f443 5380 	orr.w	r3, r3, #4096	; 0x1000
 80006aa:	6153      	str	r3, [r2, #20]
 80006ac:	4b19      	ldr	r3, [pc, #100]	; (8000714 <EXTI15_10_IRQHandler+0xc0>)
 80006ae:	6b1b      	ldr	r3, [r3, #48]	; 0x30
 80006b0:	4798      	blx	r3
 80006b2:	4b17      	ldr	r3, [pc, #92]	; (8000710 <EXTI15_10_IRQHandler+0xbc>)
 80006b4:	695b      	ldr	r3, [r3, #20]
 80006b6:	f403 5300 	and.w	r3, r3, #8192	; 0x2000
 80006ba:	2b00      	cmp	r3, #0
 80006bc:	d008      	beq.n	80006d0 <EXTI15_10_IRQHandler+0x7c>
 80006be:	4b14      	ldr	r3, [pc, #80]	; (8000710 <EXTI15_10_IRQHandler+0xbc>)
 80006c0:	695b      	ldr	r3, [r3, #20]
 80006c2:	4a13      	ldr	r2, [pc, #76]	; (8000710 <EXTI15_10_IRQHandler+0xbc>)
 80006c4:	f443 5300 	orr.w	r3, r3, #8192	; 0x2000
 80006c8:	6153      	str	r3, [r2, #20]
 80006ca:	4b12      	ldr	r3, [pc, #72]	; (8000714 <EXTI15_10_IRQHandler+0xc0>)
 80006cc:	6b5b      	ldr	r3, [r3, #52]	; 0x34
 80006ce:	4798      	blx	r3
 80006d0:	4b0f      	ldr	r3, [pc, #60]	; (8000710 <EXTI15_10_IRQHandler+0xbc>)
 80006d2:	695b      	ldr	r3, [r3, #20]
 80006d4:	f403 4380 	and.w	r3, r3, #16384	; 0x4000
 80006d8:	2b00      	cmp	r3, #0
 80006da:	d008      	beq.n	80006ee <EXTI15_10_IRQHandler+0x9a>
 80006dc:	4b0c      	ldr	r3, [pc, #48]	; (8000710 <EXTI15_10_IRQHandler+0xbc>)
 80006de:	695b      	ldr	r3, [r3, #20]
 80006e0:	4a0b      	ldr	r2, [pc, #44]	; (8000710 <EXTI15_10_IRQHandler+0xbc>)
 80006e2:	f443 4380 	orr.w	r3, r3, #16384	; 0x4000
 80006e6:	6153      	str	r3, [r2, #20]
 80006e8:	4b0a      	ldr	r3, [pc, #40]	; (8000714 <EXTI15_10_IRQHandler+0xc0>)
 80006ea:	6b9b      	ldr	r3, [r3, #56]	; 0x38
 80006ec:	4798      	blx	r3
 80006ee:	4b08      	ldr	r3, [pc, #32]	; (8000710 <EXTI15_10_IRQHandler+0xbc>)
 80006f0:	695b      	ldr	r3, [r3, #20]
 80006f2:	f403 4300 	and.w	r3, r3, #32768	; 0x8000
 80006f6:	2b00      	cmp	r3, #0
 80006f8:	d008      	beq.n	800070c <EXTI15_10_IRQHandler+0xb8>
 80006fa:	4b05      	ldr	r3, [pc, #20]	; (8000710 <EXTI15_10_IRQHandler+0xbc>)
 80006fc:	695b      	ldr	r3, [r3, #20]
 80006fe:	4a04      	ldr	r2, [pc, #16]	; (8000710 <EXTI15_10_IRQHandler+0xbc>)
 8000700:	f443 4300 	orr.w	r3, r3, #32768	; 0x8000
 8000704:	6153      	str	r3, [r2, #20]
 8000706:	4b03      	ldr	r3, [pc, #12]	; (8000714 <EXTI15_10_IRQHandler+0xc0>)
 8000708:	6bdb      	ldr	r3, [r3, #60]	; 0x3c
 800070a:	4798      	blx	r3
 800070c:	bf00      	nop
 800070e:	bd80      	pop	{r7, pc}
 8000710:	40010400 	andmi	r0, r1, r0, lsl #8
 8000714:	20000020 	andcs	r0, r0, r0, lsr #32

08000718 <Get_CRLH_Position>:
 8000718:	b480      	push	{r7}
 800071a:	b083      	sub	sp, #12
 800071c:	af00      	add	r7, sp, #0
 800071e:	4603      	mov	r3, r0
 8000720:	80fb      	strh	r3, [r7, #6]
 8000722:	88fb      	ldrh	r3, [r7, #6]
 8000724:	f5b3 4f00 	cmp.w	r3, #32768	; 0x8000
 8000728:	f000 80a5 	beq.w	8000876 <Get_CRLH_Position+0x15e>
 800072c:	f5b3 4f00 	cmp.w	r3, #32768	; 0x8000
 8000730:	f300 80a3 	bgt.w	800087a <Get_CRLH_Position+0x162>
 8000734:	f5b3 4f80 	cmp.w	r3, #16384	; 0x4000
 8000738:	f000 809b 	beq.w	8000872 <Get_CRLH_Position+0x15a>
 800073c:	f5b3 4f80 	cmp.w	r3, #16384	; 0x4000
 8000740:	f300 809b 	bgt.w	800087a <Get_CRLH_Position+0x162>
 8000744:	f5b3 5f00 	cmp.w	r3, #8192	; 0x2000
 8000748:	f000 8091 	beq.w	800086e <Get_CRLH_Position+0x156>
 800074c:	f5b3 5f00 	cmp.w	r3, #8192	; 0x2000
 8000750:	f300 8093 	bgt.w	800087a <Get_CRLH_Position+0x162>
 8000754:	f5b3 5f80 	cmp.w	r3, #4096	; 0x1000
 8000758:	f000 8087 	beq.w	800086a <Get_CRLH_Position+0x152>
 800075c:	f5b3 5f80 	cmp.w	r3, #4096	; 0x1000
 8000760:	f300 808b 	bgt.w	800087a <Get_CRLH_Position+0x162>
 8000764:	f5b3 6f00 	cmp.w	r3, #2048	; 0x800
 8000768:	d07d      	beq.n	8000866 <Get_CRLH_Position+0x14e>
 800076a:	f5b3 6f00 	cmp.w	r3, #2048	; 0x800
 800076e:	f300 8084 	bgt.w	800087a <Get_CRLH_Position+0x162>
 8000772:	f5b3 6f80 	cmp.w	r3, #1024	; 0x400
 8000776:	d074      	beq.n	8000862 <Get_CRLH_Position+0x14a>
 8000778:	f5b3 6f80 	cmp.w	r3, #1024	; 0x400
 800077c:	dc7d      	bgt.n	800087a <Get_CRLH_Position+0x162>
 800077e:	f5b3 7f00 	cmp.w	r3, #512	; 0x200
 8000782:	d06c      	beq.n	800085e <Get_CRLH_Position+0x146>
 8000784:	f5b3 7f00 	cmp.w	r3, #512	; 0x200
 8000788:	dc77      	bgt.n	800087a <Get_CRLH_Position+0x162>
 800078a:	f5b3 7f80 	cmp.w	r3, #256	; 0x100
 800078e:	d064      	beq.n	800085a <Get_CRLH_Position+0x142>
 8000790:	f5b3 7f80 	cmp.w	r3, #256	; 0x100
 8000794:	dc71      	bgt.n	800087a <Get_CRLH_Position+0x162>
 8000796:	2b80      	cmp	r3, #128	; 0x80
 8000798:	d05d      	beq.n	8000856 <Get_CRLH_Position+0x13e>
 800079a:	2b80      	cmp	r3, #128	; 0x80
 800079c:	dc6d      	bgt.n	800087a <Get_CRLH_Position+0x162>
 800079e:	2b20      	cmp	r3, #32
 80007a0:	dc48      	bgt.n	8000834 <Get_CRLH_Position+0x11c>
 80007a2:	2b00      	cmp	r3, #0
 80007a4:	dd69      	ble.n	800087a <Get_CRLH_Position+0x162>
 80007a6:	3b01      	subs	r3, #1
 80007a8:	2b1f      	cmp	r3, #31
 80007aa:	d866      	bhi.n	800087a <Get_CRLH_Position+0x162>
 80007ac:	a201      	add	r2, pc, #4	; (adr r2, 80007b4 <Get_CRLH_Position+0x9c>)
 80007ae:	f852 f023 	ldr.w	pc, [r2, r3, lsl #2]
 80007b2:	bf00      	nop
 80007b4:	0800083b 	stmdaeq	r0, {r0, r1, r3, r4, r5, fp}
 80007b8:	0800083f 	stmdaeq	r0, {r0, r1, r2, r3, r4, r5, fp}
 80007bc:	0800087b 	stmdaeq	r0, {r0, r1, r3, r4, r5, r6, fp}
 80007c0:	08000843 	stmdaeq	r0, {r0, r1, r6, fp}
 80007c4:	0800087b 	stmdaeq	r0, {r0, r1, r3, r4, r5, r6, fp}
 80007c8:	0800087b 	stmdaeq	r0, {r0, r1, r3, r4, r5, r6, fp}
 80007cc:	0800087b 	stmdaeq	r0, {r0, r1, r3, r4, r5, r6, fp}
 80007d0:	08000847 	stmdaeq	r0, {r0, r1, r2, r6, fp}
 80007d4:	0800087b 	stmdaeq	r0, {r0, r1, r3, r4, r5, r6, fp}
 80007d8:	0800087b 	stmdaeq	r0, {r0, r1, r3, r4, r5, r6, fp}
 80007dc:	0800087b 	stmdaeq	r0, {r0, r1, r3, r4, r5, r6, fp}
 80007e0:	0800087b 	stmdaeq	r0, {r0, r1, r3, r4, r5, r6, fp}
 80007e4:	0800087b 	stmdaeq	r0, {r0, r1, r3, r4, r5, r6, fp}
 80007e8:	0800087b 	stmdaeq	r0, {r0, r1, r3, r4, r5, r6, fp}
 80007ec:	0800087b 	stmdaeq	r0, {r0, r1, r3, r4, r5, r6, fp}
 80007f0:	0800084b 	stmdaeq	r0, {r0, r1, r3, r6, fp}
 80007f4:	0800087b 	stmdaeq	r0, {r0, r1, r3, r4, r5, r6, fp}
 80007f8:	0800087b 	stmdaeq	r0, {r0, r1, r3, r4, r5, r6, fp}
 80007fc:	0800087b 	stmdaeq	r0, {r0, r1, r3, r4, r5, r6, fp}
 8000800:	0800087b 	stmdaeq	r0, {r0, r1, r3, r4, r5, r6, fp}
 8000804:	0800087b 	stmdaeq	r0, {r0, r1, r3, r4, r5, r6, fp}
 8000808:	0800087b 	stmdaeq	r0, {r0, r1, r3, r4, r5, r6, fp}
 800080c:	0800087b 	stmdaeq	r0, {r0, r1, r3, r4, r5, r6, fp}
 8000810:	0800087b 	stmdaeq	r0, {r0, r1, r3, r4, r5, r6, fp}
 8000814:	0800087b 	stmdaeq	r0, {r0, r1, r3, r4, r5, r6, fp}
 8000818:	0800087b 	stmdaeq	r0, {r0, r1, r3, r4, r5, r6, fp}
 800081c:	0800087b 	stmdaeq	r0, {r0, r1, r3, r4, r5, r6, fp}
 8000820:	0800087b 	stmdaeq	r0, {r0, r1, r3, r4, r5, r6, fp}
 8000824:	0800087b 	stmdaeq	r0, {r0, r1, r3, r4, r5, r6, fp}
 8000828:	0800087b 	stmdaeq	r0, {r0, r1, r3, r4, r5, r6, fp}
 800082c:	0800087b 	stmdaeq	r0, {r0, r1, r3, r4, r5, r6, fp}
 8000830:	0800084f 	stmdaeq	r0, {r0, r1, r2, r3, r6, fp}
 8000834:	2b40      	cmp	r3, #64	; 0x40
 8000836:	d00c      	beq.n	8000852 <Get_CRLH_Position+0x13a>
 8000838:	e01f      	b.n	800087a <Get_CRLH_Position+0x162>
 800083a:	2300      	movs	r3, #0
 800083c:	e01e      	b.n	800087c <Get_CRLH_Position+0x164>
 800083e:	2304      	movs	r3, #4
 8000840:	e01c      	b.n	800087c <Get_CRLH_Position+0x164>
 8000842:	2308      	movs	r3, #8
 8000844:	e01a      	b.n	800087c <Get_CRLH_Position+0x164>
 8000846:	230c      	movs	r3, #12
 8000848:	e018      	b.n	800087c <Get_CRLH_Position+0x164>
 800084a:	2310      	movs	r3, #16
 800084c:	e016      	b.n	800087c <Get_CRLH_Position+0x164>
 800084e:	2314      	movs	r3, #20
 8000850:	e014      	b.n	800087c <Get_CRLH_Position+0x164>
 8000852:	2318      	movs	r3, #24
 8000854:	e012      	b.n	800087c <Get_CRLH_Position+0x164>
 8000856:	231c      	movs	r3, #28
 8000858:	e010      	b.n	800087c <Get_CRLH_Position+0x164>
 800085a:	2300      	movs	r3, #0
 800085c:	e00e      	b.n	800087c <Get_CRLH_Position+0x164>
 800085e:	2304      	movs	r3, #4
 8000860:	e00c      	b.n	800087c <Get_CRLH_Position+0x164>
 8000862:	2308      	movs	r3, #8
 8000864:	e00a      	b.n	800087c <Get_CRLH_Position+0x164>
 8000866:	230c      	movs	r3, #12
 8000868:	e008      	b.n	800087c <Get_CRLH_Position+0x164>
 800086a:	2310      	movs	r3, #16
 800086c:	e006      	b.n	800087c <Get_CRLH_Position+0x164>
 800086e:	2314      	movs	r3, #20
 8000870:	e004      	b.n	800087c <Get_CRLH_Position+0x164>
 8000872:	2318      	movs	r3, #24
 8000874:	e002      	b.n	800087c <Get_CRLH_Position+0x164>
 8000876:	231c      	movs	r3, #28
 8000878:	e000      	b.n	800087c <Get_CRLH_Position+0x164>
 800087a:	2300      	movs	r3, #0
 800087c:	4618      	mov	r0, r3
 800087e:	370c      	adds	r7, #12
 8000880:	46bd      	mov	sp, r7
 8000882:	bc80      	pop	{r7}
 8000884:	4770      	bx	lr
 8000886:	bf00      	nop

08000888 <MCAL_GPIO_Init>:
 8000888:	b590      	push	{r4, r7, lr}
 800088a:	b085      	sub	sp, #20
 800088c:	af00      	add	r7, sp, #0
 800088e:	6078      	str	r0, [r7, #4]
 8000890:	6039      	str	r1, [r7, #0]
 8000892:	2300      	movs	r3, #0
 8000894:	60fb      	str	r3, [r7, #12]
 8000896:	2300      	movs	r3, #0
 8000898:	72fb      	strb	r3, [r7, #11]
 800089a:	683b      	ldr	r3, [r7, #0]
 800089c:	881b      	ldrh	r3, [r3, #0]
 800089e:	2bff      	cmp	r3, #255	; 0xff
 80008a0:	d801      	bhi.n	80008a6 <MCAL_GPIO_Init+0x1e>
 80008a2:	687b      	ldr	r3, [r7, #4]
 80008a4:	e001      	b.n	80008aa <MCAL_GPIO_Init+0x22>
 80008a6:	687b      	ldr	r3, [r7, #4]
 80008a8:	3304      	adds	r3, #4
 80008aa:	60fb      	str	r3, [r7, #12]
 80008ac:	683b      	ldr	r3, [r7, #0]
 80008ae:	881b      	ldrh	r3, [r3, #0]
 80008b0:	4618      	mov	r0, r3
 80008b2:	f7ff ff31 	bl	8000718 <Get_CRLH_Position>
 80008b6:	4603      	mov	r3, r0
 80008b8:	461a      	mov	r2, r3
 80008ba:	230f      	movs	r3, #15
 80008bc:	4093      	lsls	r3, r2
 80008be:	43da      	mvns	r2, r3
 80008c0:	68fb      	ldr	r3, [r7, #12]
 80008c2:	681b      	ldr	r3, [r3, #0]
 80008c4:	401a      	ands	r2, r3
 80008c6:	68fb      	ldr	r3, [r7, #12]
 80008c8:	601a      	str	r2, [r3, #0]
 80008ca:	683b      	ldr	r3, [r7, #0]
 80008cc:	789b      	ldrb	r3, [r3, #2]
 80008ce:	2b04      	cmp	r3, #4
 80008d0:	d00b      	beq.n	80008ea <MCAL_GPIO_Init+0x62>
 80008d2:	683b      	ldr	r3, [r7, #0]
 80008d4:	789b      	ldrb	r3, [r3, #2]
 80008d6:	2b05      	cmp	r3, #5
 80008d8:	d007      	beq.n	80008ea <MCAL_GPIO_Init+0x62>
 80008da:	683b      	ldr	r3, [r7, #0]
 80008dc:	789b      	ldrb	r3, [r3, #2]
 80008de:	2b07      	cmp	r3, #7
 80008e0:	d003      	beq.n	80008ea <MCAL_GPIO_Init+0x62>
 80008e2:	683b      	ldr	r3, [r7, #0]
 80008e4:	789b      	ldrb	r3, [r3, #2]
 80008e6:	2b06      	cmp	r3, #6
 80008e8:	d11c      	bne.n	8000924 <MCAL_GPIO_Init+0x9c>
 80008ea:	683b      	ldr	r3, [r7, #0]
 80008ec:	789b      	ldrb	r3, [r3, #2]
 80008ee:	3b04      	subs	r3, #4
 80008f0:	009b      	lsls	r3, r3, #2
 80008f2:	b25a      	sxtb	r2, r3
 80008f4:	683b      	ldr	r3, [r7, #0]
 80008f6:	78db      	ldrb	r3, [r3, #3]
 80008f8:	b25b      	sxtb	r3, r3
 80008fa:	4313      	orrs	r3, r2
 80008fc:	b25b      	sxtb	r3, r3
 80008fe:	b2db      	uxtb	r3, r3
 8000900:	f003 030f 	and.w	r3, r3, #15
 8000904:	72fb      	strb	r3, [r7, #11]
 8000906:	7afc      	ldrb	r4, [r7, #11]
 8000908:	683b      	ldr	r3, [r7, #0]
 800090a:	881b      	ldrh	r3, [r3, #0]
 800090c:	4618      	mov	r0, r3
 800090e:	f7ff ff03 	bl	8000718 <Get_CRLH_Position>
 8000912:	4603      	mov	r3, r0
 8000914:	fa04 f203 	lsl.w	r2, r4, r3
 8000918:	68fb      	ldr	r3, [r7, #12]
 800091a:	681b      	ldr	r3, [r3, #0]
 800091c:	431a      	orrs	r2, r3
 800091e:	68fb      	ldr	r3, [r7, #12]
 8000920:	601a      	str	r2, [r3, #0]
 8000922:	e057      	b.n	80009d4 <MCAL_GPIO_Init+0x14c>
 8000924:	683b      	ldr	r3, [r7, #0]
 8000926:	789b      	ldrb	r3, [r3, #2]
 8000928:	2b00      	cmp	r3, #0
 800092a:	d003      	beq.n	8000934 <MCAL_GPIO_Init+0xac>
 800092c:	683b      	ldr	r3, [r7, #0]
 800092e:	789b      	ldrb	r3, [r3, #2]
 8000930:	2b01      	cmp	r3, #1
 8000932:	d115      	bne.n	8000960 <MCAL_GPIO_Init+0xd8>
 8000934:	683b      	ldr	r3, [r7, #0]
 8000936:	789b      	ldrb	r3, [r3, #2]
 8000938:	009b      	lsls	r3, r3, #2
 800093a:	b2db      	uxtb	r3, r3
 800093c:	f003 030f 	and.w	r3, r3, #15
 8000940:	72fb      	strb	r3, [r7, #11]
 8000942:	7afc      	ldrb	r4, [r7, #11]
 8000944:	683b      	ldr	r3, [r7, #0]
 8000946:	881b      	ldrh	r3, [r3, #0]
 8000948:	4618      	mov	r0, r3
 800094a:	f7ff fee5 	bl	8000718 <Get_CRLH_Position>
 800094e:	4603      	mov	r3, r0
 8000950:	fa04 f203 	lsl.w	r2, r4, r3
 8000954:	68fb      	ldr	r3, [r7, #12]
 8000956:	681b      	ldr	r3, [r3, #0]
 8000958:	431a      	orrs	r2, r3
 800095a:	68fb      	ldr	r3, [r7, #12]
 800095c:	601a      	str	r2, [r3, #0]
 800095e:	e039      	b.n	80009d4 <MCAL_GPIO_Init+0x14c>
 8000960:	683b      	ldr	r3, [r7, #0]
 8000962:	789b      	ldrb	r3, [r3, #2]
 8000964:	2b08      	cmp	r3, #8
 8000966:	d110      	bne.n	800098a <MCAL_GPIO_Init+0x102>
 8000968:	2304      	movs	r3, #4
 800096a:	72fb      	strb	r3, [r7, #11]
 800096c:	7afc      	ldrb	r4, [r7, #11]
 800096e:	683b      	ldr	r3, [r7, #0]
 8000970:	881b      	ldrh	r3, [r3, #0]
 8000972:	4618      	mov	r0, r3
 8000974:	f7ff fed0 	bl	8000718 <Get_CRLH_Position>
 8000978:	4603      	mov	r3, r0
 800097a:	fa04 f203 	lsl.w	r2, r4, r3
 800097e:	68fb      	ldr	r3, [r7, #12]
 8000980:	681b      	ldr	r3, [r3, #0]
 8000982:	431a      	orrs	r2, r3
 8000984:	68fb      	ldr	r3, [r7, #12]
 8000986:	601a      	str	r2, [r3, #0]
 8000988:	e024      	b.n	80009d4 <MCAL_GPIO_Init+0x14c>
 800098a:	2308      	movs	r3, #8
 800098c:	72fb      	strb	r3, [r7, #11]
 800098e:	7afc      	ldrb	r4, [r7, #11]
 8000990:	683b      	ldr	r3, [r7, #0]
 8000992:	881b      	ldrh	r3, [r3, #0]
 8000994:	4618      	mov	r0, r3
 8000996:	f7ff febf 	bl	8000718 <Get_CRLH_Position>
 800099a:	4603      	mov	r3, r0
 800099c:	fa04 f203 	lsl.w	r2, r4, r3
 80009a0:	68fb      	ldr	r3, [r7, #12]
 80009a2:	681b      	ldr	r3, [r3, #0]
 80009a4:	431a      	orrs	r2, r3
 80009a6:	68fb      	ldr	r3, [r7, #12]
 80009a8:	601a      	str	r2, [r3, #0]
 80009aa:	683b      	ldr	r3, [r7, #0]
 80009ac:	789b      	ldrb	r3, [r3, #2]
 80009ae:	2b02      	cmp	r3, #2
 80009b0:	d107      	bne.n	80009c2 <MCAL_GPIO_Init+0x13a>
 80009b2:	687b      	ldr	r3, [r7, #4]
 80009b4:	68db      	ldr	r3, [r3, #12]
 80009b6:	683a      	ldr	r2, [r7, #0]
 80009b8:	8812      	ldrh	r2, [r2, #0]
 80009ba:	431a      	orrs	r2, r3
 80009bc:	687b      	ldr	r3, [r7, #4]
 80009be:	60da      	str	r2, [r3, #12]
 80009c0:	e008      	b.n	80009d4 <MCAL_GPIO_Init+0x14c>
 80009c2:	687b      	ldr	r3, [r7, #4]
 80009c4:	68db      	ldr	r3, [r3, #12]
 80009c6:	683a      	ldr	r2, [r7, #0]
 80009c8:	8812      	ldrh	r2, [r2, #0]
 80009ca:	43d2      	mvns	r2, r2
 80009cc:	401a      	ands	r2, r3
 80009ce:	687b      	ldr	r3, [r7, #4]
 80009d0:	60da      	str	r2, [r3, #12]
 80009d2:	e7ff      	b.n	80009d4 <MCAL_GPIO_Init+0x14c>
 80009d4:	bf00      	nop
 80009d6:	3714      	adds	r7, #20
 80009d8:	46bd      	mov	sp, r7
 80009da:	bd90      	pop	{r4, r7, pc}

080009dc <cpu_access_level>:
 80009dc:	b480      	push	{r7}
 80009de:	b083      	sub	sp, #12
 80009e0:	af00      	add	r7, sp, #0
 80009e2:	4603      	mov	r3, r0
 80009e4:	71fb      	strb	r3, [r7, #7]
 80009e6:	79fb      	ldrb	r3, [r7, #7]
 80009e8:	2b00      	cmp	r3, #0
 80009ea:	d002      	beq.n	80009f2 <cpu_access_level+0x16>
 80009ec:	2b01      	cmp	r3, #1
 80009ee:	d009      	beq.n	8000a04 <cpu_access_level+0x28>
 80009f0:	e00f      	b.n	8000a12 <cpu_access_level+0x36>
 80009f2:	f3ef 8314 	mrs	r3, CONTROL
 80009f6:	ea4f 0353 	mov.w	r3, r3, lsr #1
 80009fa:	ea4f 0343 	mov.w	r3, r3, lsl #1
 80009fe:	f383 8814 	msr	CONTROL, r3
 8000a02:	e006      	b.n	8000a12 <cpu_access_level+0x36>
 8000a04:	f3ef 8314 	mrs	r3, CONTROL
 8000a08:	f043 0301 	orr.w	r3, r3, #1
 8000a0c:	f383 8814 	msr	CONTROL, r3
 8000a10:	bf00      	nop
 8000a12:	bf00      	nop
 8000a14:	370c      	adds	r7, #12
 8000a16:	46bd      	mov	sp, r7
 8000a18:	bc80      	pop	{r7}
 8000a1a:	4770      	bx	lr

08000a1c <SVC_Handler>:
 8000a1c:	b580      	push	{r7, lr}
 8000a1e:	af00      	add	r7, sp, #0
 8000a20:	2000      	movs	r0, #0
 8000a22:	f7ff ffdb 	bl	80009dc <cpu_access_level>
 8000a26:	bf00      	nop
 8000a28:	bd80      	pop	{r7, pc}
	...

08000a2c <EXTI_irq>:
 8000a2c:	b480      	push	{r7}
 8000a2e:	af00      	add	r7, sp, #0
 8000a30:	4b0f      	ldr	r3, [pc, #60]	; (8000a70 <EXTI_irq+0x44>)
 8000a32:	781b      	ldrb	r3, [r3, #0]
 8000a34:	2b00      	cmp	r3, #0
 8000a36:	d109      	bne.n	8000a4c <EXTI_irq+0x20>
 8000a38:	4b0e      	ldr	r3, [pc, #56]	; (8000a74 <EXTI_irq+0x48>)
 8000a3a:	2201      	movs	r2, #1
 8000a3c:	701a      	strb	r2, [r3, #0]
 8000a3e:	4b0e      	ldr	r3, [pc, #56]	; (8000a78 <EXTI_irq+0x4c>)
 8000a40:	2200      	movs	r2, #0
 8000a42:	701a      	strb	r2, [r3, #0]
 8000a44:	4b0a      	ldr	r3, [pc, #40]	; (8000a70 <EXTI_irq+0x44>)
 8000a46:	2201      	movs	r2, #1
 8000a48:	701a      	strb	r2, [r3, #0]
 8000a4a:	e00c      	b.n	8000a66 <EXTI_irq+0x3a>
 8000a4c:	4b08      	ldr	r3, [pc, #32]	; (8000a70 <EXTI_irq+0x44>)
 8000a4e:	781b      	ldrb	r3, [r3, #0]
 8000a50:	2b01      	cmp	r3, #1
 8000a52:	d108      	bne.n	8000a66 <EXTI_irq+0x3a>
 8000a54:	4b08      	ldr	r3, [pc, #32]	; (8000a78 <EXTI_irq+0x4c>)
 8000a56:	2201      	movs	r2, #1
 8000a58:	701a      	strb	r2, [r3, #0]
 8000a5a:	4b06      	ldr	r3, [pc, #24]	; (8000a74 <EXTI_irq+0x48>)
 8000a5c:	2200      	movs	r2, #0
 8000a5e:	701a      	strb	r2, [r3, #0]
 8000a60:	4b03      	ldr	r3, [pc, #12]	; (8000a70 <EXTI_irq+0x44>)
 8000a62:	2200      	movs	r2, #0
 8000a64:	701a      	strb	r2, [r3, #0]
 8000a66:	bf00      	nop
 8000a68:	46bd      	mov	sp, r7
 8000a6a:	bc80      	pop	{r7}
 8000a6c:	4770      	bx	lr
 8000a6e:	bf00      	nop
 8000a70:	2000005c 	andcs	r0, r0, ip, asr r0
 8000a74:	2000005d 	andcs	r0, r0, sp, asr r0
 8000a78:	2000005e 	andcs	r0, r0, lr, asr r0

08000a7c <taskA>:
 8000a7c:	b480      	push	{r7}
 8000a7e:	b085      	sub	sp, #20
 8000a80:	af00      	add	r7, sp, #0
 8000a82:	60f8      	str	r0, [r7, #12]
 8000a84:	60b9      	str	r1, [r7, #8]
 8000a86:	607a      	str	r2, [r7, #4]
 8000a88:	68fa      	ldr	r2, [r7, #12]
 8000a8a:	68bb      	ldr	r3, [r7, #8]
 8000a8c:	441a      	add	r2, r3
 8000a8e:	687b      	ldr	r3, [r7, #4]
 8000a90:	4413      	add	r3, r2
 8000a92:	4618      	mov	r0, r3
 8000a94:	3714      	adds	r7, #20
 8000a96:	46bd      	mov	sp, r7
 8000a98:	bc80      	pop	{r7}
 8000a9a:	4770      	bx	lr

08000a9c <taskB>:
 8000a9c:	b480      	push	{r7}
 8000a9e:	b085      	sub	sp, #20
 8000aa0:	af00      	add	r7, sp, #0
 8000aa2:	60f8      	str	r0, [r7, #12]
 8000aa4:	60b9      	str	r1, [r7, #8]
 8000aa6:	607a      	str	r2, [r7, #4]
 8000aa8:	603b      	str	r3, [r7, #0]
 8000aaa:	68fa      	ldr	r2, [r7, #12]
 8000aac:	68bb      	ldr	r3, [r7, #8]
 8000aae:	441a      	add	r2, r3
 8000ab0:	687b      	ldr	r3, [r7, #4]
 8000ab2:	441a      	add	r2, r3
 8000ab4:	683b      	ldr	r3, [r7, #0]
 8000ab6:	4413      	add	r3, r2
 8000ab8:	4618      	mov	r0, r3
 8000aba:	3714      	adds	r7, #20
 8000abc:	46bd      	mov	sp, r7
 8000abe:	bc80      	pop	{r7}
 8000ac0:	4770      	bx	lr
	...

08000ac4 <main_OS>:
 8000ac4:	b580      	push	{r7, lr}
 8000ac6:	af00      	add	r7, sp, #0
 8000ac8:	4b34      	ldr	r3, [pc, #208]	; (8000b9c <main_OS+0xd8>)
 8000aca:	681b      	ldr	r3, [r3, #0]
 8000acc:	f5a3 7300 	sub.w	r3, r3, #512	; 0x200
 8000ad0:	4a33      	ldr	r2, [pc, #204]	; (8000ba0 <main_OS+0xdc>)
 8000ad2:	6013      	str	r3, [r2, #0]
 8000ad4:	4b32      	ldr	r3, [pc, #200]	; (8000ba0 <main_OS+0xdc>)
 8000ad6:	681b      	ldr	r3, [r3, #0]
 8000ad8:	3b08      	subs	r3, #8
 8000ada:	4a32      	ldr	r2, [pc, #200]	; (8000ba4 <main_OS+0xe0>)
 8000adc:	6013      	str	r3, [r2, #0]
 8000ade:	4b31      	ldr	r3, [pc, #196]	; (8000ba4 <main_OS+0xe0>)
 8000ae0:	681b      	ldr	r3, [r3, #0]
 8000ae2:	3b64      	subs	r3, #100	; 0x64
 8000ae4:	4a30      	ldr	r2, [pc, #192]	; (8000ba8 <main_OS+0xe4>)
 8000ae6:	6013      	str	r3, [r2, #0]
 8000ae8:	4b2f      	ldr	r3, [pc, #188]	; (8000ba8 <main_OS+0xe4>)
 8000aea:	681b      	ldr	r3, [r3, #0]
 8000aec:	3b08      	subs	r3, #8
 8000aee:	4a2f      	ldr	r2, [pc, #188]	; (8000bac <main_OS+0xe8>)
 8000af0:	6013      	str	r3, [r2, #0]
 8000af2:	4b2e      	ldr	r3, [pc, #184]	; (8000bac <main_OS+0xe8>)
 8000af4:	681b      	ldr	r3, [r3, #0]
 8000af6:	3b64      	subs	r3, #100	; 0x64
 8000af8:	4a2d      	ldr	r2, [pc, #180]	; (8000bb0 <main_OS+0xec>)
 8000afa:	6013      	str	r3, [r2, #0]
 8000afc:	bf00      	nop
 8000afe:	4b2d      	ldr	r3, [pc, #180]	; (8000bb4 <main_OS+0xf0>)
 8000b00:	781b      	ldrb	r3, [r3, #0]
 8000b02:	2b01      	cmp	r3, #1
 8000b04:	d122      	bne.n	8000b4c <main_OS+0x88>
 8000b06:	4b27      	ldr	r3, [pc, #156]	; (8000ba4 <main_OS+0xe0>)
 8000b08:	681b      	ldr	r3, [r3, #0]
 8000b0a:	4618      	mov	r0, r3
 8000b0c:	f380 8809 	msr	PSP, r0
 8000b10:	f3ef 8014 	mrs	r0, CONTROL
 8000b14:	f04f 0102 	mov.w	r1, #2
 8000b18:	ea40 0001 	orr.w	r0, r0, r1
 8000b1c:	f380 8814 	msr	CONTROL, r0
 8000b20:	2001      	movs	r0, #1
 8000b22:	f7ff ff5b 	bl	80009dc <cpu_access_level>
 8000b26:	2203      	movs	r2, #3
 8000b28:	2102      	movs	r1, #2
 8000b2a:	2001      	movs	r0, #1
 8000b2c:	f7ff ffa6 	bl	8000a7c <taskA>
 8000b30:	4603      	mov	r3, r0
 8000b32:	b2da      	uxtb	r2, r3
 8000b34:	4b1f      	ldr	r3, [pc, #124]	; (8000bb4 <main_OS+0xf0>)
 8000b36:	701a      	strb	r2, [r3, #0]
 8000b38:	df03      	svc	3
 8000b3a:	f3ef 8014 	mrs	r0, CONTROL
 8000b3e:	f04f 0105 	mov.w	r1, #5
 8000b42:	ea00 0001 	and.w	r0, r0, r1
 8000b46:	f380 8814 	msr	CONTROL, r0
 8000b4a:	e7d7      	b.n	8000afc <main_OS+0x38>
 8000b4c:	4b1a      	ldr	r3, [pc, #104]	; (8000bb8 <main_OS+0xf4>)
 8000b4e:	781b      	ldrb	r3, [r3, #0]
 8000b50:	2b01      	cmp	r3, #1
 8000b52:	d1d3      	bne.n	8000afc <main_OS+0x38>
 8000b54:	4b15      	ldr	r3, [pc, #84]	; (8000bac <main_OS+0xe8>)
 8000b56:	681b      	ldr	r3, [r3, #0]
 8000b58:	4618      	mov	r0, r3
 8000b5a:	f380 8809 	msr	PSP, r0
 8000b5e:	f3ef 8014 	mrs	r0, CONTROL
 8000b62:	f04f 0102 	mov.w	r1, #2
 8000b66:	ea40 0001 	orr.w	r0, r0, r1
 8000b6a:	f380 8814 	msr	CONTROL, r0
 8000b6e:	2001      	movs	r0, #1
 8000b70:	f7ff ff34 	bl	80009dc <cpu_access_level>
 8000b74:	2304      	movs	r3, #4
 8000b76:	2203      	movs	r2, #3
 8000b78:	2102      	movs	r1, #2
 8000b7a:	2001      	movs	r0, #1
 8000b7c:	f7ff ff8e 	bl	8000a9c <taskB>
 8000b80:	4603      	mov	r3, r0
 8000b82:	b2da      	uxtb	r2, r3
 8000b84:	4b0c      	ldr	r3, [pc, #48]	; (8000bb8 <main_OS+0xf4>)
 8000b86:	701a      	strb	r2, [r3, #0]
 8000b88:	df03      	svc	3
 8000b8a:	f3ef 8014 	mrs	r0, CONTROL
 8000b8e:	f04f 0105 	mov.w	r1, #5
 8000b92:	ea00 0001 	and.w	r0, r0, r1
 8000b96:	f380 8814 	msr	CONTROL, r0
 8000b9a:	e7af      	b.n	8000afc <main_OS+0x38>
 8000b9c:	20000000 	andcs	r0, r0, r0
 8000ba0:	20000060 	andcs	r0, r0, r0, rrx
 8000ba4:	20000064 	andcs	r0, r0, r4, rrx
 8000ba8:	20000068 	andcs	r0, r0, r8, rrx
 8000bac:	2000006c 	andcs	r0, r0, ip, rrx
 8000bb0:	20000070 	andcs	r0, r0, r0, ror r0
 8000bb4:	2000005d 	andcs	r0, r0, sp, asr r0
 8000bb8:	2000005e 	andcs	r0, r0, lr, asr r0

08000bbc <main>:
 8000bbc:	b580      	push	{r7, lr}
 8000bbe:	b088      	sub	sp, #32
 8000bc0:	af00      	add	r7, sp, #0
 8000bc2:	4b13      	ldr	r3, [pc, #76]	; (8000c10 <main+0x54>)
 8000bc4:	699b      	ldr	r3, [r3, #24]
 8000bc6:	4a12      	ldr	r2, [pc, #72]	; (8000c10 <main+0x54>)
 8000bc8:	f043 0308 	orr.w	r3, r3, #8
 8000bcc:	6193      	str	r3, [r2, #24]
 8000bce:	4b10      	ldr	r3, [pc, #64]	; (8000c10 <main+0x54>)
 8000bd0:	699b      	ldr	r3, [r3, #24]
 8000bd2:	4a0f      	ldr	r2, [pc, #60]	; (8000c10 <main+0x54>)
 8000bd4:	f043 0301 	orr.w	r3, r3, #1
 8000bd8:	6193      	str	r3, [r2, #24]
 8000bda:	4a0e      	ldr	r2, [pc, #56]	; (8000c14 <main+0x58>)
 8000bdc:	f107 030c 	add.w	r3, r7, #12
 8000be0:	ca07      	ldmia	r2, {r0, r1, r2}
 8000be2:	e883 0007 	stmia.w	r3, {r0, r1, r2}
 8000be6:	2301      	movs	r3, #1
 8000be8:	767b      	strb	r3, [r7, #25]
 8000bea:	2300      	movs	r3, #0
 8000bec:	763b      	strb	r3, [r7, #24]
 8000bee:	4b0a      	ldr	r3, [pc, #40]	; (8000c18 <main+0x5c>)
 8000bf0:	61fb      	str	r3, [r7, #28]
 8000bf2:	f107 030c 	add.w	r3, r7, #12
 8000bf6:	4618      	mov	r0, r3
 8000bf8:	f7ff fc72 	bl	80004e0 <MCAL_EXTI_GPIO_init>
 8000bfc:	f7ff ff62 	bl	8000ac4 <main_OS>
 8000c00:	4b06      	ldr	r3, [pc, #24]	; (8000c1c <main+0x60>)
 8000c02:	781b      	ldrb	r3, [r3, #0]
 8000c04:	2b00      	cmp	r3, #0
 8000c06:	d0fb      	beq.n	8000c00 <main+0x44>
 8000c08:	4b04      	ldr	r3, [pc, #16]	; (8000c1c <main+0x60>)
 8000c0a:	2200      	movs	r2, #0
 8000c0c:	701a      	strb	r2, [r3, #0]
 8000c0e:	e7f7      	b.n	8000c00 <main+0x44>
 8000c10:	40021000 	andmi	r1, r2, r0
 8000c14:	08000cd4 	stmdaeq	r0, {r2, r4, r6, r7, sl, fp}
 8000c18:	08000a2d 	stmdaeq	r0, {r0, r2, r3, r5, r9, fp}
 8000c1c:	2000005c 	andcs	r0, r0, ip, asr r0

08000c20 <Reset_Handler>:
 8000c20:	480d      	ldr	r0, [pc, #52]	; (8000c58 <LoopForever+0x2>)
 8000c22:	4685      	mov	sp, r0
 8000c24:	f3af 8000 	nop.w
 8000c28:	480c      	ldr	r0, [pc, #48]	; (8000c5c <LoopForever+0x6>)
 8000c2a:	490d      	ldr	r1, [pc, #52]	; (8000c60 <LoopForever+0xa>)
 8000c2c:	4a0d      	ldr	r2, [pc, #52]	; (8000c64 <LoopForever+0xe>)
 8000c2e:	2300      	movs	r3, #0
 8000c30:	e002      	b.n	8000c38 <LoopCopyDataInit>

08000c32 <CopyDataInit>:
 8000c32:	58d4      	ldr	r4, [r2, r3]
 8000c34:	50c4      	str	r4, [r0, r3]
 8000c36:	3304      	adds	r3, #4

08000c38 <LoopCopyDataInit>:
 8000c38:	18c4      	adds	r4, r0, r3
 8000c3a:	428c      	cmp	r4, r1
 8000c3c:	d3f9      	bcc.n	8000c32 <CopyDataInit>
 8000c3e:	4a0a      	ldr	r2, [pc, #40]	; (8000c68 <LoopForever+0x12>)
 8000c40:	4c0a      	ldr	r4, [pc, #40]	; (8000c6c <LoopForever+0x16>)
 8000c42:	2300      	movs	r3, #0
 8000c44:	e001      	b.n	8000c4a <LoopFillZerobss>

08000c46 <FillZerobss>:
 8000c46:	6013      	str	r3, [r2, #0]
 8000c48:	3204      	adds	r2, #4

08000c4a <LoopFillZerobss>:
 8000c4a:	42a2      	cmp	r2, r4
 8000c4c:	d3fb      	bcc.n	8000c46 <FillZerobss>
 8000c4e:	f000 f811 	bl	8000c74 <__libc_init_array>
 8000c52:	f7ff ffb3 	bl	8000bbc <main>

08000c56 <LoopForever>:
 8000c56:	e7fe      	b.n	8000c56 <LoopForever>
 8000c58:	20005000 	andcs	r5, r0, r0
 8000c5c:	20000000 	andcs	r0, r0, r0
 8000c60:	20000004 	andcs	r0, r0, r4
 8000c64:	08000ce8 	stmdaeq	r0, {r3, r5, r6, r7, sl, fp}
 8000c68:	20000004 	andcs	r0, r0, r4
 8000c6c:	20000074 	andcs	r0, r0, r4, ror r0

08000c70 <ADC1_2_IRQHandler>:
 8000c70:	e7fe      	b.n	8000c70 <ADC1_2_IRQHandler>
	...

08000c74 <__libc_init_array>:
 8000c74:	b570      	push	{r4, r5, r6, lr}
 8000c76:	2600      	movs	r6, #0
 8000c78:	4d0c      	ldr	r5, [pc, #48]	; (8000cac <__libc_init_array+0x38>)
 8000c7a:	4c0d      	ldr	r4, [pc, #52]	; (8000cb0 <__libc_init_array+0x3c>)
 8000c7c:	1b64      	subs	r4, r4, r5
 8000c7e:	10a4      	asrs	r4, r4, #2
 8000c80:	42a6      	cmp	r6, r4
 8000c82:	d109      	bne.n	8000c98 <__libc_init_array+0x24>
 8000c84:	f000 f81a 	bl	8000cbc <_init>
 8000c88:	2600      	movs	r6, #0
 8000c8a:	4d0a      	ldr	r5, [pc, #40]	; (8000cb4 <__libc_init_array+0x40>)
 8000c8c:	4c0a      	ldr	r4, [pc, #40]	; (8000cb8 <__libc_init_array+0x44>)
 8000c8e:	1b64      	subs	r4, r4, r5
 8000c90:	10a4      	asrs	r4, r4, #2
 8000c92:	42a6      	cmp	r6, r4
 8000c94:	d105      	bne.n	8000ca2 <__libc_init_array+0x2e>
 8000c96:	bd70      	pop	{r4, r5, r6, pc}
 8000c98:	f855 3b04 	ldr.w	r3, [r5], #4
 8000c9c:	4798      	blx	r3
 8000c9e:	3601      	adds	r6, #1
 8000ca0:	e7ee      	b.n	8000c80 <__libc_init_array+0xc>
 8000ca2:	f855 3b04 	ldr.w	r3, [r5], #4
 8000ca6:	4798      	blx	r3
 8000ca8:	3601      	adds	r6, #1
 8000caa:	e7f2      	b.n	8000c92 <__libc_init_array+0x1e>
 8000cac:	08000ce0 	stmdaeq	r0, {r5, r6, r7, sl, fp}
 8000cb0:	08000ce0 	stmdaeq	r0, {r5, r6, r7, sl, fp}
 8000cb4:	08000ce0 	stmdaeq	r0, {r5, r6, r7, sl, fp}
 8000cb8:	08000ce4 	stmdaeq	r0, {r2, r5, r6, r7, sl, fp}

08000cbc <_init>:
 8000cbc:	b5f8      	push	{r3, r4, r5, r6, r7, lr}
 8000cbe:	bf00      	nop
 8000cc0:	bcf8      	pop	{r3, r4, r5, r6, r7}
 8000cc2:	bc08      	pop	{r3}
 8000cc4:	469e      	mov	lr, r3
 8000cc6:	4770      	bx	lr

08000cc8 <_fini>:
 8000cc8:	b5f8      	push	{r3, r4, r5, r6, r7, lr}
 8000cca:	bf00      	nop
 8000ccc:	bcf8      	pop	{r3, r4, r5, r6, r7}
 8000cce:	bc08      	pop	{r3}
 8000cd0:	469e      	mov	lr, r3
 8000cd2:	4770      	bx	lr

Disassembly of section .rodata:

08000cd4 <.rodata>:
 8000cd4:	00000009 	andeq	r0, r0, r9
 8000cd8:	40010c00 	andmi	r0, r1, r0, lsl #24
 8000cdc:	00170200 	andseq	r0, r7, r0, lsl #4

Disassembly of section .init_array:

08000ce0 <__frame_dummy_init_array_entry>:
 8000ce0:	08000155 	stmdaeq	r0, {r0, r2, r4, r6, r8}

Disassembly of section .fini_array:

08000ce4 <__do_global_dtors_aux_fini_array_entry>:
 8000ce4:	08000131 	stmdaeq	r0, {r0, r4, r5, r8}

Disassembly of section .data:

20000000 <_s_msp>:
20000000:	20005000 	andcs	r5, r0, r0

Disassembly of section .bss:

20000004 <__bss_start__>:
20000004:	00000000 	andeq	r0, r0, r0

20000008 <object.0>:
	...

20000020 <GP_IRQ_CallBack>:
	...

2000005c <Irq_flag>:
	...

2000005d <TASKA_FLAG>:
	...

2000005e <TASKB_FLAG>:
	...

20000060 <_e_msp>:
20000060:	00000000 	andeq	r0, r0, r0

20000064 <_s_psp_taskA>:
20000064:	00000000 	andeq	r0, r0, r0

20000068 <_e_psp_taskA>:
20000068:	00000000 	andeq	r0, r0, r0

2000006c <_s_psp_taskB>:
2000006c:	00000000 	andeq	r0, r0, r0

20000070 <_e_psp_taskB>:
20000070:	00000000 	andeq	r0, r0, r0

Disassembly of section ._user_heap_stack:

20000074 <_end-0x4>:
20000074:	00000000 	andeq	r0, r0, r0

20000078 <_end>:
	...

Disassembly of section .ARM.attributes:

00000000 <.ARM.attributes>:
   0:	00002841 	andeq	r2, r0, r1, asr #16
   4:	61656100 	cmnvs	r5, r0, lsl #2
   8:	01006962 	tsteq	r0, r2, ror #18
   c:	0000001e 	andeq	r0, r0, lr, lsl r0
  10:	4d2d3705 	stcmi	7, cr3, [sp, #-20]!	; 0xffffffec
  14:	070a0600 	streq	r0, [sl, -r0, lsl #12]
  18:	1202094d 	andne	r0, r2, #1261568	; 0x134000
  1c:	15011404 	strne	r1, [r1, #-1028]	; 0xfffffbfc
  20:	18031701 	stmdane	r3, {r0, r8, r9, sl, ip}
  24:	22011a01 	andcs	r1, r1, #4096	; 0x1000
  28:	Address 0x0000000000000028 is out of bounds.


Disassembly of section .comment:

00000000 <.comment>:
   0:	3a434347 	bcc	10d0d24 <_Min_Stack_Size+0x10d0924>
   4:	4e472820 	cdpmi	8, 4, cr2, cr7, cr0, {1}
   8:	6f542055 	svcvs	0x00542055
   c:	20736c6f 	rsbscs	r6, r3, pc, ror #24
  10:	20726f66 	rsbscs	r6, r2, r6, ror #30
  14:	334d5453 	movtcc	r5, #54355	; 0xd453
  18:	31312032 	teqcc	r1, r2, lsr r0
  1c:	722e332e 	eorvc	r3, lr, #-1207959552	; 0xb8000000
  20:	2e316c65 	cdpcs	12, 3, cr6, cr1, cr5, {3}
  24:	33323032 	teqcc	r2, #50	; 0x32
  28:	39313530 	ldmdbcc	r1!, {r4, r5, r8, sl, ip, sp}
  2c:	3439312d 	ldrtcc	r3, [r9], #-301	; 0xfffffed3
  30:	31202931 			; <UNDEFINED> instruction: 0x31202931
  34:	2e332e31 	mrccs	14, 1, r2, cr3, cr1, {1}
  38:	30322031 	eorscc	r2, r2, r1, lsr r0
  3c:	37303232 			; <UNDEFINED> instruction: 0x37303232
  40:	Address 0x0000000000000040 is out of bounds.


Disassembly of section .debug_info:

00000000 <.debug_info>:
   0:	0000052c 	andeq	r0, r0, ip, lsr #10
   4:	00000002 	andeq	r0, r0, r2
   8:	01040000 	mrseq	r0, (UNDEF: 4)
   c:	00001b39 	andeq	r1, r0, r9, lsr fp
  10:	004bb00c 	subeq	fp, fp, ip
  14:	00553100 	subseq	r3, r5, r0, lsl #2
	...
  2c:	07040200 	streq	r0, [r4, -r0, lsl #4]
  30:	000027e5 	andeq	r2, r0, r5, ror #15
  34:	69050403 	stmdbvs	r5, {r0, r1, sl}
  38:	0200746e 	andeq	r7, r0, #1845493760	; 0x6e000000
  3c:	5e790508 	cdppl	5, 7, cr0, cr9, cr8, {0}
  40:	08020000 	stmdaeq	r2, {}	; <UNPREDICTABLE>
  44:	0003c704 	andeq	ip, r3, r4, lsl #14
  48:	06010200 	streq	r0, [r1], -r0, lsl #4
  4c:	0000090a 	andeq	r0, r0, sl, lsl #18
  50:	0015b404 	andseq	fp, r5, r4, lsl #8
  54:	182b0200 	stmdane	fp!, {r9}
  58:	0000005c 	andeq	r0, r0, ip, asr r0
  5c:	f4080102 	vst4.8	{d0,d2,d4,d6}, [r8], r2
  60:	0200003a 	andeq	r0, r0, #58	; 0x3a
  64:	0bce0502 	bleq	ff381474 <_estack+0xdf37c474>
  68:	23040000 	movwcs	r0, #16384	; 0x4000
  6c:	02000032 	andeq	r0, r0, #50	; 0x32
  70:	00761939 	rsbseq	r1, r6, r9, lsr r9
  74:	02020000 	andeq	r0, r2, #0
  78:	007d7707 	rsbseq	r7, sp, r7, lsl #14
  7c:	05040200 	streq	r0, [r4, #-512]	; 0xfffffe00
  80:	00008171 	andeq	r8, r0, r1, ror r1
  84:	00492a04 	subeq	r2, r9, r4, lsl #20
  88:	194f0200 	stmdbne	pc, {r9}^	; <UNPREDICTABLE>
  8c:	00000090 	muleq	r0, r0, r0
  90:	27070402 	strcs	r0, [r7, -r2, lsl #8]
  94:	0200001f 	andeq	r0, r0, #31
  98:	8cda0708 	ldclhi	7, cr0, [sl], {8}
  9c:	04050000 	streq	r0, [r5], #-0
  a0:	000000a4 	andeq	r0, r0, r4, lsr #1
  a4:	01020106 	tsteq	r2, r6, lsl #2
  a8:	00091108 	andeq	r1, r9, r8, lsl #2
  ac:	15b60400 	ldrne	r0, [r6, #1024]!	; 0x400
  b0:	18030000 	stmdane	r3, {}	; <UNPREDICTABLE>
  b4:	00005013 	andeq	r5, r0, r3, lsl r0
  b8:	32250400 	eorcc	r0, r5, #0, 8
  bc:	24030000 	strcs	r0, [r3], #-0
  c0:	00006a14 	andeq	r6, r0, r4, lsl sl
  c4:	492c0400 	stmdbmi	ip!, {sl}
  c8:	30030000 	andcc	r0, r3, r0
  cc:	00008414 	andeq	r8, r0, r4, lsl r4
  d0:	00c50700 	sbceq	r0, r5, r0, lsl #14
  d4:	1c080000 	stcne	0, cr0, [r8], {-0}
  d8:	49094d04 	stmdbmi	r9, {r2, r8, sl, fp, lr}
  dc:	09000001 	stmdbeq	r0, {r0}
  e0:	004c5243 	subeq	r5, ip, r3, asr #4
  e4:	d1144e04 	tstle	r4, r4, lsl #28
  e8:	02000000 	andeq	r0, r0, #0
  ec:	43090023 	movwmi	r0, #36899	; 0x9023
  f0:	04004852 	streq	r4, [r0], #-2130	; 0xfffff7ae
  f4:	00d1144f 	sbcseq	r1, r1, pc, asr #8
  f8:	23020000 	movwcs	r0, #8192	; 0x2000
  fc:	44490904 	strbmi	r0, [r9], #-2308	; 0xfffff6fc
 100:	50040052 	andpl	r0, r4, r2, asr r0
 104:	0000d114 	andeq	sp, r0, r4, lsl r1
 108:	08230200 	stmdaeq	r3!, {r9}
 10c:	52444f09 	subpl	r4, r4, #9, 30	; 0x24
 110:	14510400 	ldrbne	r0, [r1], #-1024	; 0xfffffc00
 114:	000000d1 	ldrdeq	r0, [r0], -r1
 118:	0a0c2302 	beq	308d28 <_Min_Stack_Size+0x308928>
 11c:	00009564 	andeq	r9, r0, r4, ror #10
 120:	d1145204 	tstle	r4, r4, lsl #4
 124:	02000000 	andeq	r0, r0, #0
 128:	42091023 	andmi	r1, r9, #35	; 0x23
 12c:	04005252 	streq	r5, [r0], #-594	; 0xfffffdae
 130:	00d11453 	sbcseq	r1, r1, r3, asr r4
 134:	23020000 	movwcs	r0, #8192	; 0x2000
 138:	4db90a14 			; <UNDEFINED> instruction: 0x4db90a14
 13c:	54040000 	strpl	r0, [r4], #-0
 140:	0000d114 	andeq	sp, r0, r4, lsl r1
 144:	18230200 	stmdane	r3!, {r9}
 148:	972f0400 	strls	r0, [pc, -r0, lsl #8]!
 14c:	55040000 	strpl	r0, [r4, #-0]
 150:	0000d603 	andeq	sp, r0, r3, lsl #12
 154:	04180800 	ldreq	r0, [r8], #-2048	; 0xfffff800
 158:	01b80972 			; <UNDEFINED> instruction: 0x01b80972
 15c:	49090000 	stmdbmi	r9, {}	; <UNPREDICTABLE>
 160:	0400524d 	streq	r5, [r0], #-589	; 0xfffffdb3
 164:	00d11473 	sbcseq	r1, r1, r3, ror r4
 168:	23020000 	movwcs	r0, #8192	; 0x2000
 16c:	4d450900 	vstrmi.16	s1, [r5, #-0]	; <UNPREDICTABLE>
 170:	74040052 	strvc	r0, [r4], #-82	; 0xffffffae
 174:	0000d114 	andeq	sp, r0, r4, lsl r1
 178:	04230200 	strteq	r0, [r3], #-512	; 0xfffffe00
 17c:	001ead0a 	andseq	sl, lr, sl, lsl #26
 180:	14750400 	ldrbtne	r0, [r5], #-1024	; 0xfffffc00
 184:	000000d1 	ldrdeq	r0, [r0], -r1
 188:	0a082302 	beq	208d98 <_Min_Stack_Size+0x208998>
 18c:	00001377 	andeq	r1, r0, r7, ror r3
 190:	d1147604 	tstle	r4, r4, lsl #12
 194:	02000000 	andeq	r0, r0, #0
 198:	220a0c23 	andcs	r0, sl, #8960	; 0x2300
 19c:	04000077 	streq	r0, [r0], #-119	; 0xffffff89
 1a0:	00d11477 	sbcseq	r1, r1, r7, ror r4
 1a4:	23020000 	movwcs	r0, #8192	; 0x2000
 1a8:	52500910 	subspl	r0, r0, #16, 18	; 0x40000
 1ac:	14780400 	ldrbtne	r0, [r8], #-1024	; 0xfffffc00
 1b0:	000000d1 	ldrdeq	r0, [r0], -r1
 1b4:	00142302 	andseq	r2, r4, r2, lsl #6
 1b8:	00796504 	rsbseq	r6, r9, r4, lsl #10
 1bc:	03790400 	cmneq	r9, #0, 8
 1c0:	00000155 	andeq	r0, r0, r5, asr r1
 1c4:	80042008 	andhi	r2, r4, r8
 1c8:	00021909 	andeq	r1, r2, r9, lsl #18
 1cc:	99d20a00 	ldmibls	r2, {r9, fp}^
 1d0:	81040000 	mrshi	r0, (UNDEF: 4)
 1d4:	0000d114 	andeq	sp, r0, r4, lsl r1
 1d8:	00230200 	eoreq	r0, r3, r0, lsl #4
 1dc:	007f020a 	rsbseq	r0, pc, sl, lsl #4
 1e0:	14820400 	strne	r0, [r2], #1024	; 0x400
 1e4:	000000d1 	ldrdeq	r0, [r0], -r1
 1e8:	0a042302 	beq	108df8 <_Min_Stack_Size+0x1089f8>
 1ec:	00000201 	andeq	r0, r0, r1, lsl #4
 1f0:	29148304 	ldmdbcs	r4, {r2, r8, r9, pc}
 1f4:	02000002 	andeq	r0, r0, #2
 1f8:	c60a0823 	strgt	r0, [sl], -r3, lsr #16
 1fc:	04000027 	streq	r0, [r0], #-39	; 0xffffffd9
 200:	00c50b84 	sbceq	r0, r5, r4, lsl #23
 204:	23020000 	movwcs	r0, #8192	; 0x2000
 208:	36980a18 			; <UNDEFINED> instruction: 0x36980a18
 20c:	85040000 	strhi	r0, [r4, #-0]
 210:	0000d114 	andeq	sp, r0, r4, lsl r1
 214:	1c230200 	sfmne	f0, 4, [r3], #-0
 218:	00d10b00 	sbcseq	r0, r1, r0, lsl #22
 21c:	02290000 	eoreq	r0, r9, #0
 220:	2d0c0000 	stccs	0, cr0, [ip, #-0]
 224:	03000000 	movweq	r0, #0
 228:	02190700 	andseq	r0, r9, #0, 14
 22c:	d0040000 	andle	r0, r4, r0
 230:	04000090 	streq	r0, [r0], #-144	; 0xffffff70
 234:	01c40386 	biceq	r0, r4, r6, lsl #7
 238:	04080000 	streq	r0, [r8], #-0
 23c:	71090e05 	tstvc	r9, r5, lsl #28
 240:	0a000002 	beq	250 <_Min_Heap_Size+0x50>
 244:	00008b0f 	andeq	r8, r0, pc, lsl #22
 248:	b90b1005 	stmdblt	fp, {r0, r2, ip}
 24c:	02000000 	andeq	r0, r0, #0
 250:	e80a0023 	stmda	sl, {r0, r1, r5}
 254:	05000024 	streq	r0, [r0, #-36]	; 0xffffffdc
 258:	00ad0a13 	adceq	r0, sp, r3, lsl sl
 25c:	23020000 	movwcs	r0, #8192	; 0x2000
 260:	02e30a02 	rsceq	r0, r3, #8192	; 0x2000
 264:	16050000 	strne	r0, [r5], -r0
 268:	0000ad0a 	andeq	sl, r0, sl, lsl #26
 26c:	03230200 			; <UNDEFINED> instruction: 0x03230200
 270:	32720400 	rsbscc	r0, r2, #0, 8
 274:	19050000 	stmdbne	r5, {}	; <UNPREDICTABLE>
 278:	00023a02 	andeq	r3, r2, r2, lsl #20
 27c:	060c0800 	streq	r0, [ip], -r0, lsl #16
 280:	02c3090e 	sbceq	r0, r3, #229376	; 0x38000
 284:	fc0a0000 	stc2	0, cr0, [sl], {-0}
 288:	06000092 			; <UNDEFINED> instruction: 0x06000092
 28c:	00b90e10 	adcseq	r0, r9, r0, lsl lr
 290:	23020000 	movwcs	r0, #8192	; 0x2000
 294:	7d8a0a00 	vstrvc	s0, [sl]
 298:	11060000 	mrsne	r0, (UNDEF: 6)
 29c:	0002c311 	andeq	ip, r2, r1, lsl r3
 2a0:	04230200 	strteq	r0, [r3], #-512	; 0xfffffe00
 2a4:	0083480a 	addeq	r4, r3, sl, lsl #16
 2a8:	0e120600 	cfmsub32eq	mvax0, mvfx0, mvfx2, mvfx0
 2ac:	000000b9 	strheq	r0, [r0], -r9
 2b0:	0a082302 	beq	208ec0 <_Min_Stack_Size+0x208ac0>
 2b4:	0000a763 	andeq	sl, r0, r3, ror #14
 2b8:	ad0c1306 	stcge	3, cr1, [ip, #-24]	; 0xffffffe8
 2bc:	02000000 	andeq	r0, r0, #0
 2c0:	05000a23 	streq	r0, [r0, #-2595]	; 0xfffff5dd
 2c4:	00014904 	andeq	r4, r1, r4, lsl #18
 2c8:	1d5c0400 	cfldrdne	mvd0, [ip, #-0]
 2cc:	16060000 	strne	r0, [r6], -r0
 2d0:	00027d03 	andeq	r7, r2, r3, lsl #26
 2d4:	06140800 	ldreq	r0, [r4], -r0, lsl #16
 2d8:	031b0918 	tsteq	fp, #24, 18	; 0x60000
 2dc:	c90a0000 	stmdbgt	sl, {}	; <UNPREDICTABLE>
 2e0:	0600005e 			; <UNDEFINED> instruction: 0x0600005e
 2e4:	02c91d1b 	sbceq	r1, r9, #1728	; 0x6c0
 2e8:	23020000 	movwcs	r0, #8192	; 0x2000
 2ec:	3cb80a00 	vldmiacc	r8!, {s0-s-1}
 2f0:	1e060000 	cdpne	0, 0, cr0, cr6, cr0, {0}
 2f4:	0000ad14 	andeq	sl, r0, r4, lsl sp
 2f8:	0c230200 	sfmeq	f0, 4, [r3], #-0
 2fc:	007e170a 	rsbseq	r1, lr, sl, lsl #14
 300:	10210600 	eorne	r0, r1, r0, lsl #12
 304:	000000ad 	andeq	r0, r0, sp, lsr #1
 308:	0a0d2302 	beq	348f18 <_Min_Stack_Size+0x348b18>
 30c:	00006ef9 	strdeq	r6, [r0], -r9
 310:	9e092406 	cdpls	4, 0, cr2, cr9, cr6, {0}
 314:	02000000 	andeq	r0, r0, #0
 318:	04001023 	streq	r1, [r0], #-35	; 0xffffffdd
 31c:	000033ca 	andeq	r3, r0, sl, asr #7
 320:	d5022606 	strle	r2, [r2, #-1542]	; 0xfffff9fa
 324:	0b000002 	bleq	334 <_Min_Heap_Size+0x134>
 328:	0000009e 	muleq	r0, lr, r0
 32c:	00000337 	andeq	r0, r0, r7, lsr r3
 330:	00002d0c 	andeq	r2, r0, ip, lsl #26
 334:	0d000e00 	stceq	14, cr0, [r0, #-0]
 338:	00006ef8 	strdeq	r6, [r0], -r8
 33c:	27081001 	strcs	r1, [r8, -r1]
 340:	01000003 	tsteq	r0, r3
 344:	00200305 	eoreq	r0, r0, r5, lsl #6
 348:	010e2000 	mrseq	r2, (UNDEF: 14)
 34c:	000000da 	ldrdeq	r0, [r0], -sl
 350:	01067305 	tsteq	r6, r5, lsl #6
 354:	00036401 	andeq	r6, r3, r1, lsl #8
 358:	02c30f00 	sbceq	r0, r3, #0, 30
 35c:	640f0000 	strvs	r0, [pc], #-0	; 364 <_Min_Heap_Size+0x164>
 360:	00000003 	andeq	r0, r0, r3
 364:	02710405 	rsbseq	r0, r1, #83886080	; 0x5000000
 368:	01100000 	tsteq	r0, r0
 36c:	00009b5d 	andeq	r9, r0, sp, asr fp
 370:	06012801 	streq	r2, [r1], -r1, lsl #16
 374:	00065401 	andeq	r5, r6, r1, lsl #8
 378:	00071808 	andeq	r1, r7, r8, lsl #16
 37c:	00000008 	andeq	r0, r0, r8
 380:	01100100 	tsteq	r0, r0, lsl #2
 384:	00008644 	andeq	r8, r0, r4, asr #12
 388:	06011f01 	streq	r1, [r1], -r1, lsl #30
 38c:	0005ac01 	andeq	sl, r5, r1, lsl #24
 390:	00065408 	andeq	r5, r6, r8, lsl #8
 394:	00002c08 	andeq	r2, r0, r8, lsl #24
 398:	01100100 	tsteq	r0, r0, lsl #2
 39c:	00002eef 	andeq	r2, r0, pc, ror #29
 3a0:	06011a01 	streq	r1, [r1], -r1, lsl #20
 3a4:	00058801 	andeq	r8, r5, r1, lsl #16
 3a8:	0005ac08 	andeq	sl, r5, r8, lsl #24
 3ac:	00005808 	andeq	r5, r0, r8, lsl #16
 3b0:	01100100 	tsteq	r0, r0, lsl #2
 3b4:	000091e8 	andeq	r9, r0, r8, ror #3
 3b8:	06011401 	streq	r1, [r1], -r1, lsl #8
 3bc:	00056401 	andeq	r6, r5, r1, lsl #8
 3c0:	00058808 	andeq	r8, r5, r8, lsl #16
 3c4:	00008408 	andeq	r8, r0, r8, lsl #8
 3c8:	01100100 	tsteq	r0, r0, lsl #2
 3cc:	00007f3f 	andeq	r7, r0, pc, lsr pc
 3d0:	06010e01 	streq	r0, [r1], -r1, lsl #28
 3d4:	00054001 	andeq	r4, r5, r1
 3d8:	00056408 	andeq	r6, r5, r8, lsl #8
 3dc:	0000b008 	andeq	fp, r0, r8
 3e0:	01100100 	tsteq	r0, r0, lsl #2
 3e4:	0000a7f1 	strdeq	sl, [r0], -r1
 3e8:	06010801 	streq	r0, [r1], -r1, lsl #16
 3ec:	00051c01 	andeq	r1, r5, r1, lsl #24
 3f0:	00054008 	andeq	r4, r5, r8
 3f4:	0000dc08 	andeq	sp, r0, r8, lsl #24
 3f8:	01100100 	tsteq	r0, r0, lsl #2
 3fc:	00009668 	andeq	r9, r0, r8, ror #12
 400:	06010001 	streq	r0, [r1], -r1
 404:	0004f801 	andeq	pc, r4, r1, lsl #16
 408:	00051c08 	andeq	r1, r5, r8, lsl #24
 40c:	00010808 	andeq	r0, r1, r8, lsl #16
 410:	01110100 	tsteq	r1, r0, lsl #2
 414:	000010e9 	andeq	r1, r0, r9, ror #1
 418:	0106f101 	tsteq	r6, r1, lsl #2	; <UNPREDICTABLE>
	...
 424:	00000134 	andeq	r0, r0, r4, lsr r1
 428:	00043d01 	andeq	r3, r4, r1, lsl #26
 42c:	2f251200 	svccs	0x00251200
 430:	f1010000 	setend	le
 434:	00043d2f 	andeq	r3, r4, pc, lsr #26
 438:	74910200 	ldrvc	r0, [r1], #512	; 0x200
 43c:	1b040500 	blne	101844 <_Min_Stack_Size+0x101444>
 440:	11000003 	tstne	r0, r3
 444:	00744101 	rsbseq	r4, r4, r1, lsl #2
 448:	06e30100 	strbteq	r0, [r3], r0, lsl #2
 44c:	0004e001 	andeq	lr, r4, r1
 450:	0004f608 	andeq	pc, r4, r8, lsl #12
 454:	00018408 	andeq	r8, r1, r8, lsl #8
 458:	046e0100 	strbteq	r0, [lr], #-256	; 0xffffff00
 45c:	25120000 	ldrcs	r0, [r2, #-0]
 460:	0100002f 	tsteq	r0, pc, lsr #32
 464:	043d2de3 	ldrteq	r2, [sp], #-3555	; 0xfffff21d
 468:	91020000 	mrsls	r0, (UNDEF: 2)
 46c:	01130074 	tsteq	r3, r4, ror r0
 470:	00003bac 	andeq	r3, r0, ip, lsr #23
 474:	0106c101 	tsteq	r6, r1, lsl #2
	...
 480:	000001d4 	ldrdeq	r0, [r0], -r4
 484:	f0011101 			; <UNDEFINED> instruction: 0xf0011101
 488:	0100001b 	tsteq	r0, fp, lsl r0
 48c:	08010677 	stmdaeq	r1, {r0, r1, r2, r4, r5, r6, r9, sl}
 490:	e0080003 	and	r0, r8, r3
 494:	18080004 	stmdane	r8, {r2}
 498:	01000002 	tsteq	r0, r2
 49c:	000004dd 	ldrdeq	r0, [r0], -sp
 4a0:	002f2512 	eoreq	r2, pc, r2, lsl r5	; <UNPREDICTABLE>
 4a4:	25770100 	ldrbcs	r0, [r7, #-256]!	; 0xffffff00
 4a8:	0000043d 	andeq	r0, r0, sp, lsr r4
 4ac:	146c9102 	strbtne	r9, [ip], #-258	; 0xfffffefe
 4b0:	000024cd 	andeq	r2, r0, sp, asr #9
 4b4:	71137b01 	tstvc	r3, r1, lsl #22
 4b8:	02000002 	andeq	r0, r0, #2
 4bc:	24147091 	ldrcs	r7, [r4], #-145	; 0xffffff6f
 4c0:	01000095 	swpeq	r0, r5, [r0]	; <UNPREDICTABLE>
 4c4:	00ad0b84 	adceq	r0, sp, r4, lsl #23
 4c8:	91020000 	mrsls	r0, (UNDEF: 2)
 4cc:	4ad81477 	bmi	ff6056b0 <_estack+0xdf6006b0>
 4d0:	86010000 	strhi	r0, [r1], -r0
 4d4:	0000ad0a 	andeq	sl, r0, sl, lsl #26
 4d8:	76910200 	ldrvc	r0, [r1], r0, lsl #4
 4dc:	81011500 	tsthi	r1, r0, lsl #10
 4e0:	010000a7 	smlatbeq	r0, r7, r0, r0
 4e4:	3c01064c 	stccc	6, cr0, [r1], {76}	; 0x4c
 4e8:	08080002 	stmdaeq	r8, {r1}
 4ec:	68080003 	stmdavs	r8, {r0, r1}
 4f0:	01000002 	tsteq	r0, r2
 4f4:	00000508 	andeq	r0, r0, r8, lsl #10
 4f8:	51524916 	cmppl	r2, r6, lsl r9
 4fc:	1d4c0100 	stfnee	f0, [ip, #-0]
 500:	000000b9 	strheq	r0, [r0], -r9
 504:	00769102 	rsbseq	r9, r6, r2, lsl #2
 508:	acc80117 	stfgee	f0, [r8], {23}
 50c:	25010000 	strcs	r0, [r1, #-0]
 510:	01700106 	cmneq	r0, r6, lsl #2
 514:	023c0800 	eorseq	r0, ip, #0, 16
 518:	02c40800 	sbceq	r0, r4, #0, 16
 51c:	16010000 	strne	r0, [r1], -r0
 520:	00515249 	subseq	r5, r1, r9, asr #4
 524:	b91c2501 	ldmdblt	ip, {r0, r8, sl, sp}
 528:	02000000 	andeq	r0, r0, #0
 52c:	00007691 	muleq	r0, r1, r6
 530:	000004b9 			; <UNDEFINED> instruction: 0x000004b9
 534:	01800002 	orreq	r0, r0, r2
 538:	01040000 	mrseq	r0, (UNDEF: 4)
 53c:	00001b39 	andeq	r1, r0, r9, lsr fp
 540:	00ae2e0c 	adceq	r2, lr, ip, lsl #28
 544:	00553100 	subseq	r3, r5, r0, lsl #2
 548:	00007000 	andeq	r7, r0, r0
	...
 554:	000ae100 	andeq	lr, sl, r0, lsl #2
 558:	00237000 	eoreq	r7, r3, r0
 55c:	07040200 	streq	r0, [r4, -r0, lsl #4]
 560:	000027e5 	andeq	r2, r0, r5, ror #15
 564:	69050403 	stmdbvs	r5, {r0, r1, sl}
 568:	0200746e 	andeq	r7, r0, #1845493760	; 0x6e000000
 56c:	5e790508 	cdppl	5, 7, cr0, cr9, cr8, {0}
 570:	08020000 	stmdaeq	r2, {}	; <UNPREDICTABLE>
 574:	0003c704 	andeq	ip, r3, r4, lsl #14
 578:	06010200 	streq	r0, [r1], -r0, lsl #4
 57c:	0000090a 	andeq	r0, r0, sl, lsl #18
 580:	0015b404 	andseq	fp, r5, r4, lsl #8
 584:	182b0200 	stmdane	fp!, {r9}
 588:	0000005c 	andeq	r0, r0, ip, asr r0
 58c:	f4080102 	vst4.8	{d0,d2,d4,d6}, [r8], r2
 590:	0200003a 	andeq	r0, r0, #58	; 0x3a
 594:	0bce0502 	bleq	ff3819a4 <_estack+0xdf37c9a4>
 598:	23040000 	movwcs	r0, #16384	; 0x4000
 59c:	02000032 	andeq	r0, r0, #50	; 0x32
 5a0:	00761939 	rsbseq	r1, r6, r9, lsr r9
 5a4:	02020000 	andeq	r0, r2, #0
 5a8:	007d7707 	rsbseq	r7, sp, r7, lsl #14
 5ac:	05040200 	streq	r0, [r4, #-512]	; 0xfffffe00
 5b0:	00008171 	andeq	r8, r0, r1, ror r1
 5b4:	00492a04 	subeq	r2, r9, r4, lsl #20
 5b8:	194f0200 	stmdbne	pc, {r9}^	; <UNPREDICTABLE>
 5bc:	00000090 	muleq	r0, r0, r0
 5c0:	27070402 	strcs	r0, [r7, -r2, lsl #8]
 5c4:	0200001f 	andeq	r0, r0, #31
 5c8:	8cda0708 	ldclhi	7, cr0, [sl], {8}
 5cc:	01020000 	mrseq	r0, (UNDEF: 2)
 5d0:	00091108 	andeq	r1, r9, r8, lsl #2
 5d4:	15b60400 	ldrne	r0, [r6, #1024]!	; 0x400
 5d8:	18030000 	stmdane	r3, {}	; <UNPREDICTABLE>
 5dc:	00005013 	andeq	r5, r0, r3, lsl r0
 5e0:	32250400 	eorcc	r0, r5, #0, 8
 5e4:	24030000 	strcs	r0, [r3], #-0
 5e8:	00006a14 	andeq	r6, r0, r4, lsl sl
 5ec:	492c0400 	stmdbmi	ip!, {sl}
 5f0:	30030000 	andcc	r0, r3, r0
 5f4:	00008414 	andeq	r8, r0, r4, lsl r4
 5f8:	00bd0500 	adcseq	r0, sp, r0, lsl #10
 5fc:	1c060000 	stcne	0, cr0, [r6], {-0}
 600:	41094d04 	tstmi	r9, r4, lsl #26
 604:	07000001 	streq	r0, [r0, -r1]
 608:	004c5243 	subeq	r5, ip, r3, asr #4
 60c:	c9144e04 	ldmdbgt	r4, {r2, r9, sl, fp, lr}
 610:	02000000 	andeq	r0, r0, #0
 614:	43070023 	movwmi	r0, #28707	; 0x7023
 618:	04004852 	streq	r4, [r0], #-2130	; 0xfffff7ae
 61c:	00c9144f 	sbceq	r1, r9, pc, asr #8
 620:	23020000 	movwcs	r0, #8192	; 0x2000
 624:	44490704 	strbmi	r0, [r9], #-1796	; 0xfffff8fc
 628:	50040052 	andpl	r0, r4, r2, asr r0
 62c:	0000c914 	andeq	ip, r0, r4, lsl r9
 630:	08230200 	stmdaeq	r3!, {r9}
 634:	52444f07 	subpl	r4, r4, #7, 30
 638:	14510400 	ldrbne	r0, [r1], #-1024	; 0xfffffc00
 63c:	000000c9 	andeq	r0, r0, r9, asr #1
 640:	080c2302 	stmdaeq	ip, {r1, r8, r9, sp}
 644:	00009564 	andeq	r9, r0, r4, ror #10
 648:	c9145204 	ldmdbgt	r4, {r2, r9, ip, lr}
 64c:	02000000 	andeq	r0, r0, #0
 650:	42071023 	andmi	r1, r7, #35	; 0x23
 654:	04005252 	streq	r5, [r0], #-594	; 0xfffffdae
 658:	00c91453 	sbceq	r1, r9, r3, asr r4
 65c:	23020000 	movwcs	r0, #8192	; 0x2000
 660:	4db90814 	ldcmi	8, cr0, [r9, #80]!	; 0x50
 664:	54040000 	strpl	r0, [r4], #-0
 668:	0000c914 	andeq	ip, r0, r4, lsl r9
 66c:	18230200 	stmdane	r3!, {r9}
 670:	972f0400 	strls	r0, [pc, -r0, lsl #8]!
 674:	55040000 	strpl	r0, [r4, #-0]
 678:	0000ce03 	andeq	ip, r0, r3, lsl #28
 67c:	04300600 	ldrteq	r0, [r0], #-1536	; 0xfffffa00
 680:	020a095d 	andeq	r0, sl, #1523712	; 0x174000
 684:	43070000 	movwmi	r0, #28672	; 0x7000
 688:	5e040052 	mcrpl	0, 0, r0, cr4, cr2, {2}
 68c:	0000c914 	andeq	ip, r0, r4, lsl r9
 690:	00230200 	eoreq	r0, r3, r0, lsl #4
 694:	00ad0808 	adceq	r0, sp, r8, lsl #16
 698:	145f0400 	ldrbne	r0, [pc], #-1024	; 6a0 <_Min_Stack_Size+0x2a0>
 69c:	000000c9 	andeq	r0, r0, r9, asr #1
 6a0:	07042302 	streq	r2, [r4, -r2, lsl #6]
 6a4:	00524943 	subseq	r4, r2, r3, asr #18
 6a8:	c9146004 	ldmdbgt	r4, {r2, sp, lr}
 6ac:	02000000 	andeq	r0, r0, #0
 6b0:	a1080823 	tstge	r8, r3, lsr #16
 6b4:	040000ad 	streq	r0, [r0], #-173	; 0xffffff53
 6b8:	00c91461 	sbceq	r1, r9, r1, ror #8
 6bc:	23020000 	movwcs	r0, #8192	; 0x2000
 6c0:	adc4080c 	stclge	8, cr0, [r4, #48]	; 0x30
 6c4:	62040000 	andvs	r0, r4, #0
 6c8:	0000c914 	andeq	ip, r0, r4, lsl r9
 6cc:	10230200 	eorne	r0, r3, r0, lsl #4
 6d0:	00ae0708 	adceq	r0, lr, r8, lsl #14
 6d4:	14630400 	strbtne	r0, [r3], #-1024	; 0xfffffc00
 6d8:	000000c9 	andeq	r0, r0, r9, asr #1
 6dc:	08142302 	ldmdaeq	r4, {r1, r8, r9, sp}
 6e0:	0000ad1f 	andeq	sl, r0, pc, lsl sp
 6e4:	c9146404 	ldmdbgt	r4, {r2, sl, sp, lr}
 6e8:	02000000 	andeq	r0, r0, #0
 6ec:	cd081823 	stcgt	8, cr1, [r8, #-140]	; 0xffffff74
 6f0:	040000ad 	streq	r0, [r0], #-173	; 0xffffff53
 6f4:	00c91465 	sbceq	r1, r9, r5, ror #8
 6f8:	23020000 	movwcs	r0, #8192	; 0x2000
 6fc:	ad45081c 	stclge	8, cr0, [r5, #-112]	; 0xffffff90
 700:	66040000 	strvs	r0, [r4], -r0
 704:	0000c914 	andeq	ip, r0, r4, lsl r9
 708:	20230200 	eorcs	r0, r3, r0, lsl #4
 70c:	52534307 	subspl	r4, r3, #469762048	; 0x1c000000
 710:	14670400 	strbtne	r0, [r7], #-1024	; 0xfffffc00
 714:	000000c9 	andeq	r0, r0, r9, asr #1
 718:	08242302 	stmdaeq	r4!, {r1, r8, r9, sp}
 71c:	0000ae0e 	andeq	sl, r0, lr, lsl #28
 720:	c9146804 	ldmdbgt	r4, {r2, fp, sp, lr}
 724:	02000000 	andeq	r0, r0, #0
 728:	aa082823 	bge	20a7bc <_Min_Stack_Size+0x20a3bc>
 72c:	040000ad 	streq	r0, [r0], #-173	; 0xffffff53
 730:	00c91469 	sbceq	r1, r9, r9, ror #8
 734:	23020000 	movwcs	r0, #8192	; 0x2000
 738:	f104002c 			; <UNDEFINED> instruction: 0xf104002c
 73c:	040000ad 	streq	r0, [r0], #-173	; 0xffffff53
 740:	014d036b 	cmpeq	sp, fp, ror #6
 744:	04060000 	streq	r0, [r6], #-0
 748:	4d090e05 	stcmi	14, cr0, [r9, #-20]	; 0xffffffec
 74c:	08000002 	stmdaeq	r0, {r1}
 750:	00008b0f 	andeq	r8, r0, pc, lsl #22
 754:	b10b1005 	tstlt	fp, r5
 758:	02000000 	andeq	r0, r0, #0
 75c:	e8080023 	stmda	r8, {r0, r1, r5}
 760:	05000024 	streq	r0, [r0, #-36]	; 0xffffffdc
 764:	00a50a13 	adceq	r0, r5, r3, lsl sl
 768:	23020000 	movwcs	r0, #8192	; 0x2000
 76c:	02e30802 	rsceq	r0, r3, #131072	; 0x20000
 770:	16050000 	strne	r0, [r5], -r0
 774:	0000a50a 	andeq	sl, r0, sl, lsl #10
 778:	03230200 			; <UNDEFINED> instruction: 0x03230200
 77c:	32720400 	rsbscc	r0, r2, #0, 8
 780:	19050000 	stmdbne	r5, {}	; <UNPREDICTABLE>
 784:	00021602 	andeq	r1, r2, r2, lsl #12
 788:	62010900 	andvs	r0, r1, #0, 18
 78c:	010000ad 	smlatbeq	r0, sp, r0, r0
 790:	01090146 	tsteq	r9, r6, asr #2
 794:	000000a5 	andeq	r0, r0, r5, lsr #1
	...
 7a0:	00000320 	andeq	r0, r0, r0, lsr #6
 7a4:	0002aa01 	andeq	sl, r2, r1, lsl #20
 7a8:	ad4a0a00 	vstrge	s1, [sl, #-0]
 7ac:	46010000 	strmi	r0, [r1], -r0
 7b0:	02aa2a01 	adceq	r2, sl, #4096	; 0x1000
 7b4:	91020000 	mrsls	r0, (UNDEF: 2)
 7b8:	8b140a6c 	blhi	503170 <_Min_Stack_Size+0x502d70>
 7bc:	46010000 	strmi	r0, [r1], -r0
 7c0:	00b13b01 	adcseq	r3, r1, r1, lsl #22
 7c4:	91020000 	mrsls	r0, (UNDEF: 2)
 7c8:	6d740b6a 	vldmdbvs	r4!, {d16-<overflow reg d68>}
 7cc:	63010070 	movwvs	r0, #4208	; 0x1070
 7d0:	00c91401 	sbceq	r1, r9, r1, lsl #8
 7d4:	91020000 	mrsls	r0, (UNDEF: 2)
 7d8:	040c0074 	streq	r0, [ip], #-116	; 0xffffff8c
 7dc:	00000141 	andeq	r0, r0, r1, asr #2
 7e0:	ad31010d 	ldfges	f0, [r1, #-52]!	; 0xffffffcc
 7e4:	39010000 	stmdbcc	r1, {}	; <UNPREDICTABLE>
 7e8:	00010601 	andeq	r0, r1, r1, lsl #12
 7ec:	00000000 	andeq	r0, r0, r0
 7f0:	7c000000 	stcvc	0, cr0, [r0], {-0}
 7f4:	01000003 	tsteq	r0, r3
 7f8:	000002ed 	andeq	r0, r0, sp, ror #5
 7fc:	00ad4a0a 	adceq	r4, sp, sl, lsl #20
 800:	01390100 	teqeq	r9, r0, lsl #2
 804:	0002aa2a 	andeq	sl, r2, sl, lsr #20
 808:	74910200 	ldrvc	r0, [r1], #512	; 0x200
 80c:	008b140a 	addeq	r1, fp, sl, lsl #8
 810:	01390100 	teqeq	r9, r0, lsl #2
 814:	0000b13b 	andeq	fp, r0, fp, lsr r1
 818:	72910200 	addsvc	r0, r1, #0, 4
 81c:	7f010d00 	svcvc	0x00010d00
 820:	010000ad 	smlatbeq	r0, sp, r0, r0
 824:	01060115 	tsteq	r6, r5, lsl r1
	...
 830:	000003d8 	ldrdeq	r0, [r0], -r8
 834:	00033a01 	andeq	r3, r3, r1, lsl #20
 838:	ad4a0a00 	vstrge	s1, [sl, #-0]
 83c:	15010000 	strne	r0, [r1, #-0]
 840:	02aa2801 	adceq	r2, sl, #65536	; 0x10000
 844:	91020000 	mrsls	r0, (UNDEF: 2)
 848:	8b140a74 	blhi	503220 <_Min_Stack_Size+0x502e20>
 84c:	15010000 	strne	r0, [r1, #-0]
 850:	00b13901 	adcseq	r3, r1, r1, lsl #18
 854:	91020000 	mrsls	r0, (UNDEF: 2)
 858:	ae280a72 			; <UNDEFINED> instruction: 0xae280a72
 85c:	15010000 	strne	r0, [r1, #-0]
 860:	00a54c01 	adceq	r4, r5, r1, lsl #24
 864:	91020000 	mrsls	r0, (UNDEF: 2)
 868:	010d0071 	tsteq	sp, r1, ror r0
 86c:	0000adb0 			; <UNDEFINED> instruction: 0x0000adb0
 870:	06010501 	streq	r0, [r1], -r1, lsl #10
 874:	00000001 	andeq	r0, r0, r1
 878:	00000000 	andeq	r0, r0, r0
 87c:	00043400 	andeq	r3, r4, r0, lsl #8
 880:	03770100 	cmneq	r7, #0, 2
 884:	4a0a0000 	bmi	28088c <_Min_Stack_Size+0x28048c>
 888:	010000ad 	smlatbeq	r0, sp, r0, r0
 88c:	aa290105 	bge	a40ca8 <_Min_Stack_Size+0xa408a8>
 890:	02000002 	andeq	r0, r0, #2
 894:	280a7491 	stmdacs	sl, {r0, r4, r7, sl, ip, sp, lr}
 898:	010000ae 	smlatbeq	r0, lr, r0, r0
 89c:	b13a0105 	teqlt	sl, r5, lsl #2
 8a0:	02000000 	andeq	r0, r0, #0
 8a4:	0e007291 	mcreq	2, 0, r7, cr0, cr1, {4}
 8a8:	00ae1501 	adceq	r1, lr, r1, lsl #10
 8ac:	0af70100 	beq	ffdc0cb4 <_estack+0xdfdbbcb4>
 8b0:	0000b101 	andeq	fp, r0, r1, lsl #2
	...
 8bc:	00049000 	andeq	r9, r4, r0
 8c0:	03b50100 			; <UNDEFINED> instruction: 0x03b50100
 8c4:	4a0f0000 	bmi	3c08cc <_Min_Stack_Size+0x3c04cc>
 8c8:	010000ad 	smlatbeq	r0, sp, r0, r0
 8cc:	02aa2df7 	adceq	r2, sl, #15808	; 0x3dc0
 8d0:	91020000 	mrsls	r0, (UNDEF: 2)
 8d4:	ade6106c 	stclge	0, cr1, [r6, #432]!	; 0x1b0
 8d8:	f9010000 			; <UNDEFINED> instruction: 0xf9010000
 8dc:	0000b10b 	andeq	fp, r0, fp, lsl #2
 8e0:	76910200 	ldrvc	r0, [r1], r0, lsl #4
 8e4:	50010e00 	andpl	r0, r1, r0, lsl #28
 8e8:	010000ad 	smlatbeq	r0, sp, r0, r0
 8ec:	a5010ae3 	strge	r0, [r1, #-2787]	; 0xfffff51d
	...
 8f8:	ec000000 	stc	0, cr0, [r0], {-0}
 8fc:	01000004 	tsteq	r0, r4
 900:	00000402 	andeq	r0, r0, r2, lsl #8
 904:	00ad4a0f 	adceq	r4, sp, pc, lsl #20
 908:	2ce30100 	stfcse	f0, [r3]
 90c:	000002aa 	andeq	r0, r0, sl, lsr #5
 910:	0f6c9102 	svceq	0x006c9102
 914:	00008b14 	andeq	r8, r0, r4, lsl fp
 918:	b13de301 	teqlt	sp, r1, lsl #6
 91c:	02000000 	andeq	r0, r0, #0
 920:	fd106a91 	ldc2	10, cr6, [r0, #-580]	; 0xfffffdbc	; <UNPREDICTABLE>
 924:	010000ad 	smlatbeq	r0, sp, r0, r0
 928:	00a50ae5 	adceq	r0, r5, r5, ror #21
 92c:	91020000 	mrsls	r0, (UNDEF: 2)
 930:	01110077 	tsteq	r1, r7, ror r0
 934:	0000add5 	ldrdeq	sl, [r0], -r5
 938:	0106ae01 	tsteq	r6, r1, lsl #28
	...
 944:	00000548 	andeq	r0, r0, r8, asr #10
 948:	00042d01 	andeq	r2, r4, r1, lsl #26
 94c:	ad4a0f00 	stclge	15, cr0, [sl, #-0]
 950:	ae010000 	cdpge	0, 0, cr0, cr1, cr0, {0}
 954:	0002aa29 	andeq	sl, r2, r9, lsr #20
 958:	74910200 	ldrvc	r0, [r1], #512	; 0x200
 95c:	da011200 	ble	45164 <_Min_Stack_Size+0x44d64>
 960:	01000000 	mrseq	r0, (UNDEF: 0)
 964:	88010674 	stmdahi	r1, {r2, r4, r5, r6, r9, sl}
 968:	dc080008 	stcle	0, cr0, [r8], {8}
 96c:	a4080009 	strge	r0, [r8], #-9
 970:	01000005 	tsteq	r0, r5
 974:	00000485 	andeq	r0, r0, r5, lsl #9
 978:	00ad4a0f 	adceq	r4, sp, pc, lsl #20
 97c:	25740100 	ldrbcs	r0, [r4, #-256]!	; 0xffffff00
 980:	000002aa 	andeq	r0, r0, sl, lsr #5
 984:	0f649102 	svceq	0x00649102
 988:	0000ad27 	andeq	sl, r0, r7, lsr #26
 98c:	853f7401 	ldrhi	r7, [pc, #-1025]!	; 593 <_Min_Stack_Size+0x193>
 990:	02000004 	andeq	r0, r0, #4
 994:	92106091 	andsls	r6, r0, #145	; 0x91
 998:	010000ad 	smlatbeq	r0, sp, r0, r0
 99c:	048b1576 	streq	r1, [fp], #1398	; 0x576
 9a0:	91020000 	mrsls	r0, (UNDEF: 2)
 9a4:	ad74106c 	ldclge	0, cr1, [r4, #-432]!	; 0xfffffe50
 9a8:	77010000 	strvc	r0, [r1, -r0]
 9ac:	0000a50a 	andeq	sl, r0, sl, lsl #10
 9b0:	6b910200 	blvs	fe4411b8 <_estack+0xde43c1b8>
 9b4:	4d040c00 	stcmi	12, cr0, [r4, #-0]
 9b8:	0c000002 	stceq	0, cr0, [r0], {2}
 9bc:	0000c904 	andeq	ip, r0, r4, lsl #18
 9c0:	0d011300 	stceq	3, cr1, [r1, #-0]
 9c4:	010000ad 	smlatbeq	r0, sp, r0, r0
 9c8:	a5010917 	strge	r0, [r1, #-2327]	; 0xfffff6e9
 9cc:	18000000 	stmdane	r0, {}	; <UNPREDICTABLE>
 9d0:	86080007 	strhi	r0, [r8], -r7
 9d4:	f4080008 	vst4.8	{d0-d3}, [r8], r8
 9d8:	01000005 	tsteq	r0, r5
 9dc:	008b140f 	addeq	r1, fp, pc, lsl #8
 9e0:	24170100 	ldrcs	r0, [r7], #-256	; 0xffffff00
 9e4:	000000b1 	strheq	r0, [r0], -r1
 9e8:	00769102 	rsbseq	r9, r6, r2, lsl #2
 9ec:	00052400 	andeq	r2, r5, r0, lsl #8
 9f0:	ef000200 	svc	0x00000200
 9f4:	04000002 	streq	r0, [r0], #-2
 9f8:	001b3901 	andseq	r3, fp, r1, lsl #18
 9fc:	af7e0c00 	svcge	0x007e0c00
 a00:	55310000 	ldrpl	r0, [r1, #-0]!
 a04:	00c00000 	sbceq	r0, r0, r0
	...
 a10:	141c0000 	ldrne	r0, [ip], #-0
 a14:	258c0000 	strcs	r0, [ip]
 a18:	01020000 	mrseq	r0, (UNDEF: 2)
 a1c:	00090a06 	andeq	r0, r9, r6, lsl #20
 a20:	15b40300 	ldrne	r0, [r4, #768]!	; 0x300
 a24:	2b020000 	blcs	80a2c <_Min_Stack_Size+0x8062c>
 a28:	00004018 	andeq	r4, r0, r8, lsl r0
 a2c:	08010200 	stmdaeq	r1, {r9}
 a30:	00003af4 	strdeq	r3, [r0], -r4
 a34:	ce050202 	cdpgt	2, 0, cr0, cr5, cr2, {0}
 a38:	0300000b 	movweq	r0, #11
 a3c:	00003223 	andeq	r3, r0, r3, lsr #4
 a40:	5a193902 	bpl	64ee50 <_Min_Stack_Size+0x64ea50>
 a44:	02000000 	andeq	r0, r0, #0
 a48:	7d770702 	ldclvc	7, cr0, [r7, #-8]!
 a4c:	04020000 	streq	r0, [r2], #-0
 a50:	00817105 	addeq	r7, r1, r5, lsl #2
 a54:	492a0300 	stmdbmi	sl!, {r8, r9}
 a58:	4f020000 	svcmi	0x00020000
 a5c:	00007419 	andeq	r7, r0, r9, lsl r4
 a60:	07040200 	streq	r0, [r4, -r0, lsl #4]
 a64:	00001f27 	andeq	r1, r0, r7, lsr #30
 a68:	79050802 	stmdbvc	r5, {r1, fp}
 a6c:	0200005e 	andeq	r0, r0, #94	; 0x5e
 a70:	8cda0708 	ldclhi	7, cr0, [sl], {8}
 a74:	04040000 	streq	r0, [r4], #-0
 a78:	746e6905 	strbtvc	r6, [lr], #-2309	; 0xfffff6fb
 a7c:	07040200 	streq	r0, [r4, -r0, lsl #4]
 a80:	000027e5 	andeq	r2, r0, r5, ror #15
 a84:	0015b603 	andseq	fp, r5, r3, lsl #12
 a88:	13180300 	tstne	r8, #0, 6
 a8c:	00000034 	andeq	r0, r0, r4, lsr r0
 a90:	00322503 	eorseq	r2, r2, r3, lsl #10
 a94:	14240300 	strtne	r0, [r4], #-768	; 0xfffffd00
 a98:	0000004e 	andeq	r0, r0, lr, asr #32
 a9c:	00492c03 	subeq	r2, r9, r3, lsl #24
 aa0:	14300300 	ldrtne	r0, [r0], #-768	; 0xfffffd00
 aa4:	00000068 	andeq	r0, r0, r8, rrx
 aa8:	0000af05 	andeq	sl, r0, r5, lsl #30
 aac:	04080200 	streq	r0, [r8], #-512	; 0xfffffe00
 ab0:	000003c7 	andeq	r0, r0, r7, asr #7
 ab4:	00cd0406 	sbceq	r0, sp, r6, lsl #8
 ab8:	01070000 	mrseq	r0, (UNDEF: 7)
 abc:	11080102 	tstne	r8, r2, lsl #2
 ac0:	08000009 	stmdaeq	r0, {r0, r3}
 ac4:	094d041c 	stmdbeq	sp, {r2, r3, r4, sl}^
 ac8:	00000149 	andeq	r0, r0, r9, asr #2
 acc:	4c524309 	mrrcmi	3, 0, r4, r2, cr9
 ad0:	144e0400 	strbne	r0, [lr], #-1024	; 0xfffffc00
 ad4:	000000bb 	strheq	r0, [r0], -fp
 ad8:	09002302 	stmdbeq	r0, {r1, r8, r9, sp}
 adc:	00485243 	subeq	r5, r8, r3, asr #4
 ae0:	bb144f04 	bllt	5146f8 <_Min_Stack_Size+0x5142f8>
 ae4:	02000000 	andeq	r0, r0, #0
 ae8:	49090423 	stmdbmi	r9, {r0, r1, r5, sl}
 aec:	04005244 	streq	r5, [r0], #-580	; 0xfffffdbc
 af0:	00bb1450 	adcseq	r1, fp, r0, asr r4
 af4:	23020000 	movwcs	r0, #8192	; 0x2000
 af8:	444f0908 	strbmi	r0, [pc], #-2312	; b00 <_Min_Stack_Size+0x700>
 afc:	51040052 	qaddpl	r0, r2, r4
 b00:	0000bb14 	andeq	fp, r0, r4, lsl fp
 b04:	0c230200 	sfmeq	f0, 4, [r3], #-0
 b08:	0095640a 	addseq	r6, r5, sl, lsl #8
 b0c:	14520400 	ldrbne	r0, [r2], #-1024	; 0xfffffc00
 b10:	000000bb 	strheq	r0, [r0], -fp
 b14:	09102302 	ldmdbeq	r0, {r1, r8, r9, sp}
 b18:	00525242 	subseq	r5, r2, r2, asr #4
 b1c:	bb145304 	bllt	515734 <_Min_Stack_Size+0x515334>
 b20:	02000000 	andeq	r0, r0, #0
 b24:	b90a1423 	stmdblt	sl, {r0, r1, r5, sl, ip}
 b28:	0400004d 	streq	r0, [r0], #-77	; 0xffffffb3
 b2c:	00bb1454 	adcseq	r1, fp, r4, asr r4
 b30:	23020000 	movwcs	r0, #8192	; 0x2000
 b34:	2f030018 	svccs	0x00030018
 b38:	04000097 	streq	r0, [r0], #-151	; 0xffffff69
 b3c:	00d60355 	sbcseq	r0, r6, r5, asr r3
 b40:	30080000 	andcc	r0, r8, r0
 b44:	12095d04 	andne	r5, r9, #4, 26	; 0x100
 b48:	09000002 	stmdbeq	r0, {r1}
 b4c:	04005243 	streq	r5, [r0], #-579	; 0xfffffdbd
 b50:	00bb145e 	adcseq	r1, fp, lr, asr r4
 b54:	23020000 	movwcs	r0, #8192	; 0x2000
 b58:	ad080a00 	vstrge	s0, [r8, #-0]
 b5c:	5f040000 	svcpl	0x00040000
 b60:	0000bb14 	andeq	fp, r0, r4, lsl fp
 b64:	04230200 	strteq	r0, [r3], #-512	; 0xfffffe00
 b68:	52494309 	subpl	r4, r9, #603979776	; 0x24000000
 b6c:	14600400 	strbtne	r0, [r0], #-1024	; 0xfffffc00
 b70:	000000bb 	strheq	r0, [r0], -fp
 b74:	0a082302 	beq	209784 <_Min_Stack_Size+0x209384>
 b78:	0000ada1 	andeq	sl, r0, r1, lsr #27
 b7c:	bb146104 	bllt	518f94 <_Min_Stack_Size+0x518b94>
 b80:	02000000 	andeq	r0, r0, #0
 b84:	c40a0c23 	strgt	r0, [sl], #-3107	; 0xfffff3dd
 b88:	040000ad 	streq	r0, [r0], #-173	; 0xffffff53
 b8c:	00bb1462 	adcseq	r1, fp, r2, ror #8
 b90:	23020000 	movwcs	r0, #8192	; 0x2000
 b94:	ae070a10 	vmovge	s14, r0
 b98:	63040000 	movwvs	r0, #16384	; 0x4000
 b9c:	0000bb14 	andeq	fp, r0, r4, lsl fp
 ba0:	14230200 	strtne	r0, [r3], #-512	; 0xfffffe00
 ba4:	00ad1f0a 	adceq	r1, sp, sl, lsl #30
 ba8:	14640400 	strbtne	r0, [r4], #-1024	; 0xfffffc00
 bac:	000000bb 	strheq	r0, [r0], -fp
 bb0:	0a182302 	beq	6097c0 <_Min_Stack_Size+0x6093c0>
 bb4:	0000adcd 	andeq	sl, r0, sp, asr #27
 bb8:	bb146504 	bllt	519fd0 <_Min_Stack_Size+0x519bd0>
 bbc:	02000000 	andeq	r0, r0, #0
 bc0:	450a1c23 	strmi	r1, [sl, #-3107]	; 0xfffff3dd
 bc4:	040000ad 	streq	r0, [r0], #-173	; 0xffffff53
 bc8:	00bb1466 	adcseq	r1, fp, r6, ror #8
 bcc:	23020000 	movwcs	r0, #8192	; 0x2000
 bd0:	53430920 	movtpl	r0, #14624	; 0x3920
 bd4:	67040052 	smlsdvs	r4, r2, r0, r0
 bd8:	0000bb14 	andeq	fp, r0, r4, lsl fp
 bdc:	24230200 	strtcs	r0, [r3], #-512	; 0xfffffe00
 be0:	00ae0e0a 	adceq	r0, lr, sl, lsl #28
 be4:	14680400 	strbtne	r0, [r8], #-1024	; 0xfffffc00
 be8:	000000bb 	strheq	r0, [r0], -fp
 bec:	0a282302 	beq	a097fc <_Min_Stack_Size+0xa093fc>
 bf0:	0000adaa 	andeq	sl, r0, sl, lsr #27
 bf4:	bb146904 	bllt	51b00c <_Min_Stack_Size+0x51ac0c>
 bf8:	02000000 	andeq	r0, r0, #0
 bfc:	03002c23 	movweq	r2, #3107	; 0xc23
 c00:	0000adf1 	strdeq	sl, [r0], -r1
 c04:	55036b04 	strpl	r6, [r3, #-2820]	; 0xfffff4fc
 c08:	08000001 	stmdaeq	r0, {r0}
 c0c:	090e050c 	stmdbeq	lr, {r2, r3, r8, sl}
 c10:	00000264 	andeq	r0, r0, r4, ror #4
 c14:	0092fc0a 	addseq	pc, r2, sl, lsl #24
 c18:	0e100500 	cfmul32eq	mvfx0, mvfx0, mvfx0
 c1c:	000000a3 	andeq	r0, r0, r3, lsr #1
 c20:	0a002302 	beq	9830 <_Min_Stack_Size+0x9430>
 c24:	00007d8a 	andeq	r7, r0, sl, lsl #27
 c28:	64111105 	ldrvs	r1, [r1], #-261	; 0xfffffefb
 c2c:	02000002 	andeq	r0, r0, #2
 c30:	480a0423 	stmdami	sl, {r0, r1, r5, sl}
 c34:	05000083 	streq	r0, [r0, #-131]	; 0xffffff7d
 c38:	00a30e12 	adceq	r0, r3, r2, lsl lr
 c3c:	23020000 	movwcs	r0, #8192	; 0x2000
 c40:	a7630a08 	strbge	r0, [r3, -r8, lsl #20]!
 c44:	13050000 	movwne	r0, #20480	; 0x5000
 c48:	0000970c 	andeq	r9, r0, ip, lsl #14
 c4c:	0a230200 	beq	8c1454 <_Min_Stack_Size+0x8c1054>
 c50:	49040600 	stmdbmi	r4, {r9, sl}
 c54:	03000001 	movweq	r0, #1
 c58:	00001d5c 	andeq	r1, r0, ip, asr sp
 c5c:	1e031605 	cfmadd32ne	mvax0, mvfx1, mvfx3, mvfx5
 c60:	08000002 	stmdaeq	r0, {r1}
 c64:	09180514 	ldmdbeq	r8, {r2, r4, r8, sl}
 c68:	000002bc 			; <UNDEFINED> instruction: 0x000002bc
 c6c:	005ec90a 	subseq	ip, lr, sl, lsl #18
 c70:	1d1b0500 	cfldr32ne	mvfx0, [fp, #-0]
 c74:	0000026a 	andeq	r0, r0, sl, ror #4
 c78:	0a002302 	beq	9888 <_Min_Stack_Size+0x9488>
 c7c:	00003cb8 			; <UNDEFINED> instruction: 0x00003cb8
 c80:	97141e05 	ldrls	r1, [r4, -r5, lsl #28]
 c84:	02000000 	andeq	r0, r0, #0
 c88:	170a0c23 	strne	r0, [sl, -r3, lsr #24]
 c8c:	0500007e 	streq	r0, [r0, #-126]	; 0xffffff82
 c90:	00971021 	addseq	r1, r7, r1, lsr #32
 c94:	23020000 	movwcs	r0, #8192	; 0x2000
 c98:	6ef90a0d 	vmovvs.f32	s1, #157	; 0xc0e80000 -7.250
 c9c:	24050000 	strcs	r0, [r5], #-0
 ca0:	0000c709 	andeq	ip, r0, r9, lsl #14
 ca4:	10230200 	eorne	r0, r3, r0, lsl #4
 ca8:	33ca0300 	biccc	r0, sl, #0, 6
 cac:	26050000 	strcs	r0, [r5], -r0
 cb0:	00027602 	andeq	r7, r2, r2, lsl #12
 cb4:	af600b00 	svcge	0x00600b00
 cb8:	1a010000 	bne	40cc0 <_Min_Stack_Size+0x408c0>
 cbc:	00008905 	andeq	r8, r0, r5, lsl #18
 cc0:	03050100 	movweq	r0, #20736	; 0x5100
 cc4:	00000000 	andeq	r0, r0, r0
 cc8:	00afa80b 	adceq	sl, pc, fp, lsl #16
 ccc:	051b0100 	ldreq	r0, [fp, #-256]	; 0xffffff00
 cd0:	00000089 	andeq	r0, r0, r9, lsl #1
 cd4:	00030501 	andeq	r0, r3, r1, lsl #10
 cd8:	0c000000 	stceq	0, cr0, [r0], {-0}
 cdc:	006c6176 	rsbeq	r6, ip, r6, ror r1
 ce0:	89141b01 	ldmdbhi	r4, {r0, r8, r9, fp, ip}
 ce4:	01000000 	mrseq	r0, (UNDEF: 0)
 ce8:	00000305 	andeq	r0, r0, r5, lsl #6
 cec:	9f0b0000 	svcls	0x000b0000
 cf0:	010000af 	smlatbeq	r0, pc, r0, r0	; <UNPREDICTABLE>
 cf4:	0097091e 	addseq	r0, r7, lr, lsl r9
 cf8:	05010000 	streq	r0, [r1, #-0]
 cfc:	00005c03 	andeq	r5, r0, r3, lsl #24
 d00:	afd50b20 	svcge	0x00d50b20
 d04:	1e010000 	cdpne	0, 0, cr0, cr1, cr0, {0}
 d08:	00009713 	andeq	r9, r0, r3, lsl r7
 d0c:	03050100 	movweq	r0, #20736	; 0x5100
 d10:	2000005d 	andcs	r0, r0, sp, asr r0
 d14:	00af8c0b 	adceq	r8, pc, fp, lsl #24
 d18:	1f1e0100 	svcne	0x001e0100
 d1c:	00000097 	muleq	r0, r7, r0
 d20:	5e030501 	cfsh32pl	mvfx0, mvfx3, #1
 d24:	0d200000 	stceq	0, cr0, [r0, #-0]
 d28:	0000af97 	muleq	r0, r7, pc	; <UNPREDICTABLE>
 d2c:	890c1f01 	stmdbhi	ip, {r0, r8, r9, sl, fp, ip}
 d30:	01000000 	mrseq	r0, (UNDEF: 0)
 d34:	afc00b01 	svcge	0x00c00b01
 d38:	21010000 	mrscs	r0, (UNDEF: 1)
 d3c:	0000900e 	andeq	r9, r0, lr
 d40:	03050100 	movweq	r0, #20736	; 0x5100
 d44:	20000000 	andcs	r0, r0, r0
 d48:	00ae3d0b 	adceq	r3, lr, fp, lsl #26
 d4c:	0e220100 	sufeqs	f0, f2, f0
 d50:	00000090 	muleq	r0, r0, r0
 d54:	60030501 	andvs	r0, r3, r1, lsl #10
 d58:	0b200000 	bleq	800d60 <_Min_Stack_Size+0x800960>
 d5c:	0000af71 	andeq	sl, r0, r1, ror pc
 d60:	900e2401 	andls	r2, lr, r1, lsl #8
 d64:	01000000 	mrseq	r0, (UNDEF: 0)
 d68:	00640305 	rsbeq	r0, r4, r5, lsl #6
 d6c:	5d0b2000 	stcpl	0, cr2, [fp, #-0]
 d70:	010000b0 	strheq	r0, [r0, -r0]
 d74:	00900e25 	addseq	r0, r0, r5, lsr #28
 d78:	05010000 	streq	r0, [r1, #-0]
 d7c:	00006803 	andeq	r6, r0, r3, lsl #16
 d80:	b07f0b20 	rsbslt	r0, pc, r0, lsr #22
 d84:	27010000 	strcs	r0, [r1, -r0]
 d88:	0000900e 	andeq	r9, r0, lr
 d8c:	03050100 	movweq	r0, #20736	; 0x5100
 d90:	2000006c 	andcs	r0, r0, ip, rrx
 d94:	00b06a0b 	adcseq	r6, r0, fp, lsl #20
 d98:	0e280100 	sufeqe	f0, f0, f0
 d9c:	00000090 	muleq	r0, r0, r0
 da0:	70030501 	andvc	r0, r3, r1, lsl #10
 da4:	0e200000 	cdpeq	0, 2, cr0, cr0, cr0, {0}
 da8:	0000afb6 			; <UNDEFINED> instruction: 0x0000afb6
 dac:	00400107 	subeq	r0, r0, r7, lsl #2
 db0:	2f010000 	svccs	0x00010000
 db4:	0003d906 	andeq	sp, r3, r6, lsl #18
 db8:	ae460f00 	cdpge	15, 4, cr0, cr6, cr0, {0}
 dbc:	0f000000 	svceq	0x00000000
 dc0:	0000ae44 	andeq	sl, r0, r4, asr #28
 dc4:	01100001 	tsteq	r0, r1
 dc8:	00007441 	andeq	r7, r0, r1, asr #8
 dcc:	0106ca05 	tsteq	r6, r5, lsl #20
 dd0:	0003ee01 	andeq	lr, r3, r1, lsl #28
 dd4:	03ee1100 	mvneq	r1, #0, 2
 dd8:	06000000 	streq	r0, [r0], -r0
 ddc:	0002bc04 	andeq	fp, r2, r4, lsl #24
 de0:	c7011200 	strgt	r1, [r1, -r0, lsl #4]
 de4:	010000af 	smlatbeq	r0, pc, r0, r0	; <UNPREDICTABLE>
 de8:	89010595 	stmdbhi	r1, {r0, r2, r4, r7, r8, sl}
 dec:	bc000000 	stclt	0, cr0, [r0], {-0}
 df0:	2008000b 	andcs	r0, r8, fp
 df4:	5008000c 	andpl	r0, r8, ip
 df8:	01000006 	tsteq	r0, r6
 dfc:	00000423 	andeq	r0, r0, r3, lsr #8
 e00:	002f2513 	eoreq	r2, pc, r3, lsl r5	; <UNPREDICTABLE>
 e04:	13990100 	orrsne	r0, r9, #0, 2
 e08:	000002bc 			; <UNDEFINED> instruction: 0x000002bc
 e0c:	00649102 	rsbeq	r9, r4, r2, lsl #2
 e10:	b0770114 	rsbslt	r0, r7, r4, lsl r1
 e14:	63010000 	movwvs	r0, #4096	; 0x1000
 e18:	000ac406 	andeq	ip, sl, r6, lsl #8
 e1c:	000bbc08 	andeq	fp, fp, r8, lsl #24
 e20:	00068808 	andeq	r8, r6, r8, lsl #16
 e24:	01150100 	tsteq	r5, r0, lsl #2
 e28:	0000b071 	andeq	fp, r0, r1, ror r0
 e2c:	01055f01 	tsteq	r5, r1, lsl #30
 e30:	00000089 	andeq	r0, r0, r9, lsl #1
 e34:	08000a9c 	stmdaeq	r0, {r2, r3, r4, r7, r9, fp}
 e38:	08000ac2 	stmdaeq	r0, {r1, r6, r7, r9, fp}
 e3c:	000006b4 			; <UNDEFINED> instruction: 0x000006b4
 e40:	00048d01 	andeq	r8, r4, r1, lsl #26
 e44:	00611600 	rsbeq	r1, r1, r0, lsl #12
 e48:	890f5f01 	stmdbhi	pc, {r0, r8, r9, sl, fp, ip, lr}	; <UNPREDICTABLE>
 e4c:	02000000 	andeq	r0, r0, #0
 e50:	62167491 	andsvs	r7, r6, #-1862270976	; 0x91000000
 e54:	165f0100 	ldrbne	r0, [pc], -r0, lsl #2
 e58:	00000089 	andeq	r0, r0, r9, lsl #1
 e5c:	16709102 	ldrbtne	r9, [r0], -r2, lsl #2
 e60:	5f010063 	svcpl	0x00010063
 e64:	0000891d 	andeq	r8, r0, sp, lsl r9
 e68:	6c910200 	lfmvs	f0, 4, [r1], {0}
 e6c:	01006416 	tsteq	r0, r6, lsl r4
 e70:	0089245f 	addeq	r2, r9, pc, asr r4
 e74:	91020000 	mrsls	r0, (UNDEF: 2)
 e78:	01150068 	tsteq	r5, r8, rrx
 e7c:	0000b064 	andeq	fp, r0, r4, rrx
 e80:	01055c01 	tsteq	r5, r1, lsl #24
 e84:	00000089 	andeq	r0, r0, r9, lsl #1
 e88:	08000a7c 	stmdaeq	r0, {r2, r3, r4, r5, r6, r9, fp}
 e8c:	08000a9c 	stmdaeq	r0, {r2, r3, r4, r7, r9, fp}
 e90:	00000710 	andeq	r0, r0, r0, lsl r7
 e94:	0004d401 	andeq	sp, r4, r1, lsl #8
 e98:	00611600 	rsbeq	r1, r1, r0, lsl #12
 e9c:	890f5c01 	stmdbhi	pc, {r0, sl, fp, ip, lr}	; <UNPREDICTABLE>
 ea0:	02000000 	andeq	r0, r0, #0
 ea4:	62167491 	andsvs	r7, r6, #-1862270976	; 0x91000000
 ea8:	165c0100 	ldrbne	r0, [ip], -r0, lsl #2
 eac:	00000089 	andeq	r0, r0, r9, lsl #1
 eb0:	16709102 	ldrbtne	r9, [r0], -r2, lsl #2
 eb4:	5c010063 	stcpl	0, cr0, [r1], {99}	; 0x63
 eb8:	0000891d 	andeq	r8, r0, sp, lsl r9
 ebc:	6c910200 	lfmvs	f0, 4, [r1], {0}
 ec0:	cc011700 	stcgt	7, cr1, [r1], {-0}
 ec4:	010000af 	smlatbeq	r0, pc, r0, r0	; <UNPREDICTABLE>
 ec8:	0a2c064b 	beq	b027fc <_Min_Stack_Size+0xb023fc>
 ecc:	0a7c0800 	beq	1f02ed4 <_Min_Stack_Size+0x1f02ad4>
 ed0:	076c0800 	strbeq	r0, [ip, -r0, lsl #16]!
 ed4:	14010000 	strne	r0, [r1], #-0
 ed8:	00b05101 	adcseq	r5, r0, r1, lsl #2
 edc:	06470100 	strbeq	r0, [r7], -r0, lsl #2
 ee0:	08000a1c 	stmdaeq	r0, {r2, r3, r4, r9, fp}
 ee4:	08000a2a 	stmdaeq	r0, {r1, r3, r5, r9, fp}
 ee8:	000007b0 			; <UNDEFINED> instruction: 0x000007b0
 eec:	4f011801 	svcmi	0x00011801
 ef0:	010000af 	smlatbeq	r0, pc, r0, r0	; <UNPREDICTABLE>
 ef4:	dc010633 	stcle	6, cr0, [r1], {51}	; 0x33
 ef8:	1c080009 	stcne	0, cr0, [r8], {9}
 efc:	dc08000a 	stcle	0, cr0, [r8], {10}
 f00:	01000007 	tsteq	r0, r7
 f04:	00af5a19 	adceq	r5, pc, r9, lsl sl	; <UNPREDICTABLE>
 f08:	26330100 	ldrtcs	r0, [r3], -r0, lsl #2
 f0c:	000003ba 			; <UNDEFINED> instruction: 0x000003ba
 f10:	00779102 	rsbseq	r9, r7, r2, lsl #2
 f14:	00001e00 	andeq	r1, r0, r0, lsl #28
 f18:	a1000200 	mrsge	r0, R8_usr
 f1c:	04000004 	streq	r0, [r0], #-4
 f20:	001c1701 	andseq	r1, ip, r1, lsl #14
 f24:	00010000 	andeq	r0, r1, r0
 f28:	00b08c00 	adcseq	r8, r0, r0, lsl #24
 f2c:	00553100 	subseq	r3, r5, r0, lsl #2
 f30:	00b0af00 	adcseq	sl, r0, r0, lsl #30
 f34:	Address 0x0000000000000f34 is out of bounds.


Disassembly of section .debug_abbrev:

00000000 <.debug_abbrev>:
   0:	25011101 	strcs	r1, [r1, #-257]	; 0xfffffeff
   4:	030b130e 	movweq	r1, #45838	; 0xb30e
   8:	550e1b0e 	strpl	r1, [lr, #-2830]	; 0xfffff4f2
   c:	52011106 	andpl	r1, r1, #-2147483647	; 0x80000001
  10:	99061001 	stmdbls	r6, {r0, ip}
  14:	00000642 	andeq	r0, r0, r2, asr #12
  18:	0b002402 	bleq	9028 <_Min_Stack_Size+0x8c28>
  1c:	030b3e0b 	movweq	r3, #48651	; 0xbe0b
  20:	0300000e 	movweq	r0, #14
  24:	0b0b0024 	bleq	2c00bc <_Min_Stack_Size+0x2bfcbc>
  28:	08030b3e 	stmdaeq	r3, {r1, r2, r3, r4, r5, r8, r9, fp}
  2c:	16040000 	strne	r0, [r4], -r0
  30:	3a0e0300 	bcc	380c38 <_Min_Stack_Size+0x380838>
  34:	390b3b0b 	stmdbcc	fp, {r0, r1, r3, r8, r9, fp, ip, sp}
  38:	0013490b 	andseq	r4, r3, fp, lsl #18
  3c:	000f0500 	andeq	r0, pc, r0, lsl #10
  40:	13490b0b 	movtne	r0, #39691	; 0x9b0b
  44:	15060000 	strne	r0, [r6, #-0]
  48:	000c2700 	andeq	r2, ip, r0, lsl #14
  4c:	00350700 	eorseq	r0, r5, r0, lsl #14
  50:	00001349 	andeq	r1, r0, r9, asr #6
  54:	0b011308 	bleq	44c7c <_Min_Stack_Size+0x4487c>
  58:	3b0b3a0b 	blcc	2ce88c <_Min_Stack_Size+0x2ce48c>
  5c:	010b390b 	tsteq	fp, fp, lsl #18
  60:	09000013 	stmdbeq	r0, {r0, r1, r4}
  64:	0803000d 	stmdaeq	r3, {r0, r2, r3}
  68:	0b3b0b3a 	bleq	ec2d58 <_Min_Stack_Size+0xec2958>
  6c:	13490b39 	movtne	r0, #39737	; 0x9b39
  70:	00000a38 	andeq	r0, r0, r8, lsr sl
  74:	03000d0a 	movweq	r0, #3338	; 0xd0a
  78:	3b0b3a0e 	blcc	2ce8b8 <_Min_Stack_Size+0x2ce4b8>
  7c:	490b390b 	stmdbmi	fp, {r0, r1, r3, r8, fp, ip, sp}
  80:	000a3813 	andeq	r3, sl, r3, lsl r8
  84:	01010b00 	tsteq	r1, r0, lsl #22
  88:	13011349 	movwne	r1, #4937	; 0x1349
  8c:	210c0000 	mrscs	r0, (UNDEF: 12)
  90:	2f134900 	svccs	0x00134900
  94:	0d00000b 	stceq	0, cr0, [r0, #-44]	; 0xffffffd4
  98:	0e030034 	mcreq	0, 0, r0, cr3, cr4, {1}
  9c:	0b3b0b3a 	bleq	ec2d8c <_Min_Stack_Size+0xec298c>
  a0:	13490b39 	movtne	r0, #39737	; 0x9b39
  a4:	0a020c3f 	beq	831a8 <_Min_Stack_Size+0x82da8>
  a8:	2e0e0000 	cdpcs	0, 0, cr0, cr14, cr0, {0}
  ac:	030c3f01 	movweq	r3, #52993	; 0xcf01
  b0:	3b0b3a0e 	blcc	2ce8f0 <_Min_Stack_Size+0x2ce4f0>
  b4:	270b390b 	strcs	r3, [fp, -fp, lsl #18]
  b8:	010c3c0c 	tsteq	ip, ip, lsl #24
  bc:	0f000013 	svceq	0x00000013
  c0:	13490005 	movtne	r0, #36869	; 0x9005
  c4:	2e100000 	cdpcs	0, 1, cr0, cr0, cr0, {0}
  c8:	030c3f00 	movweq	r3, #52992	; 0xcf00
  cc:	3b0b3a0e 	blcc	2ce90c <_Min_Stack_Size+0x2ce50c>
  d0:	270b3905 	strcs	r3, [fp, -r5, lsl #18]
  d4:	1201110c 	andne	r1, r1, #12, 2
  d8:	96064001 	strls	r4, [r6], -r1
  dc:	00000c42 	andeq	r0, r0, r2, asr #24
  e0:	3f012e11 	svccc	0x00012e11
  e4:	3a0e030c 	bcc	380d1c <_Min_Stack_Size+0x38091c>
  e8:	390b3b0b 	stmdbcc	fp, {r0, r1, r3, r8, r9, fp, ip, sp}
  ec:	110c270b 	tstne	ip, fp, lsl #14
  f0:	40011201 	andmi	r1, r1, r1, lsl #4
  f4:	0c429606 	mcrreq	6, 0, r9, r2, cr6
  f8:	00001301 	andeq	r1, r0, r1, lsl #6
  fc:	03000512 	movweq	r0, #1298	; 0x512
 100:	3b0b3a0e 	blcc	2ce940 <_Min_Stack_Size+0x2ce540>
 104:	490b390b 	stmdbmi	fp, {r0, r1, r3, r8, fp, ip, sp}
 108:	000a0213 	andeq	r0, sl, r3, lsl r2
 10c:	002e1300 	eoreq	r1, lr, r0, lsl #6
 110:	0e030c3f 	mcreq	12, 0, r0, cr3, cr15, {1}
 114:	0b3b0b3a 	bleq	ec2e04 <_Min_Stack_Size+0xec2a04>
 118:	0c270b39 			; <UNDEFINED> instruction: 0x0c270b39
 11c:	01120111 	tsteq	r2, r1, lsl r1
 120:	42970640 	addsmi	r0, r7, #64, 12	; 0x4000000
 124:	1400000c 	strne	r0, [r0], #-12
 128:	0e030034 	mcreq	0, 0, r0, cr3, cr4, {1}
 12c:	0b3b0b3a 	bleq	ec2e1c <_Min_Stack_Size+0xec2a1c>
 130:	13490b39 	movtne	r0, #39737	; 0x9b39
 134:	00000a02 	andeq	r0, r0, r2, lsl #20
 138:	3f012e15 	svccc	0x00012e15
 13c:	3a0e030c 	bcc	380d74 <_Min_Stack_Size+0x380974>
 140:	390b3b0b 	stmdbcc	fp, {r0, r1, r3, r8, r9, fp, ip, sp}
 144:	110c270b 	tstne	ip, fp, lsl #14
 148:	40011201 	andmi	r1, r1, r1, lsl #4
 14c:	0c429706 	mcrreq	7, 0, r9, r2, cr6
 150:	00001301 	andeq	r1, r0, r1, lsl #6
 154:	03000516 	movweq	r0, #1302	; 0x516
 158:	3b0b3a08 	blcc	2ce980 <_Min_Stack_Size+0x2ce580>
 15c:	490b390b 	stmdbmi	fp, {r0, r1, r3, r8, fp, ip, sp}
 160:	000a0213 	andeq	r0, sl, r3, lsl r2
 164:	012e1700 			; <UNDEFINED> instruction: 0x012e1700
 168:	0e030c3f 	mcreq	12, 0, r0, cr3, cr15, {1}
 16c:	0b3b0b3a 	bleq	ec2e5c <_Min_Stack_Size+0xec2a5c>
 170:	0c270b39 			; <UNDEFINED> instruction: 0x0c270b39
 174:	01120111 	tsteq	r2, r1, lsl r1
 178:	42970640 	addsmi	r0, r7, #64, 12	; 0x4000000
 17c:	0000000c 	andeq	r0, r0, ip
 180:	25011101 	strcs	r1, [r1, #-257]	; 0xfffffeff
 184:	030b130e 	movweq	r1, #45838	; 0xb30e
 188:	550e1b0e 	strpl	r1, [lr, #-2830]	; 0xfffff4f2
 18c:	52011106 	andpl	r1, r1, #-2147483647	; 0x80000001
 190:	99061001 	stmdbls	r6, {r0, ip}
 194:	00000642 	andeq	r0, r0, r2, asr #12
 198:	0b002402 	bleq	91a8 <_Min_Stack_Size+0x8da8>
 19c:	030b3e0b 	movweq	r3, #48651	; 0xbe0b
 1a0:	0300000e 	movweq	r0, #14
 1a4:	0b0b0024 	bleq	2c023c <_Min_Stack_Size+0x2bfe3c>
 1a8:	08030b3e 	stmdaeq	r3, {r1, r2, r3, r4, r5, r8, r9, fp}
 1ac:	16040000 	strne	r0, [r4], -r0
 1b0:	3a0e0300 	bcc	380db8 <_Min_Stack_Size+0x3809b8>
 1b4:	390b3b0b 	stmdbcc	fp, {r0, r1, r3, r8, r9, fp, ip, sp}
 1b8:	0013490b 	andseq	r4, r3, fp, lsl #18
 1bc:	00350500 	eorseq	r0, r5, r0, lsl #10
 1c0:	00001349 	andeq	r1, r0, r9, asr #6
 1c4:	0b011306 	bleq	44de4 <_Min_Stack_Size+0x449e4>
 1c8:	3b0b3a0b 	blcc	2ce9fc <_Min_Stack_Size+0x2ce5fc>
 1cc:	010b390b 	tsteq	fp, fp, lsl #18
 1d0:	07000013 	smladeq	r0, r3, r0, r0
 1d4:	0803000d 	stmdaeq	r3, {r0, r2, r3}
 1d8:	0b3b0b3a 	bleq	ec2ec8 <_Min_Stack_Size+0xec2ac8>
 1dc:	13490b39 	movtne	r0, #39737	; 0x9b39
 1e0:	00000a38 	andeq	r0, r0, r8, lsr sl
 1e4:	03000d08 	movweq	r0, #3336	; 0xd08
 1e8:	3b0b3a0e 	blcc	2cea28 <_Min_Stack_Size+0x2ce628>
 1ec:	490b390b 	stmdbmi	fp, {r0, r1, r3, r8, fp, ip, sp}
 1f0:	000a3813 	andeq	r3, sl, r3, lsl r8
 1f4:	012e0900 			; <UNDEFINED> instruction: 0x012e0900
 1f8:	0e030c3f 	mcreq	12, 0, r0, cr3, cr15, {1}
 1fc:	053b0b3a 	ldreq	r0, [fp, #-2874]!	; 0xfffff4c6
 200:	0c270b39 			; <UNDEFINED> instruction: 0x0c270b39
 204:	01111349 	tsteq	r1, r9, asr #6
 208:	06400112 			; <UNDEFINED> instruction: 0x06400112
 20c:	010c4297 			; <UNDEFINED> instruction: 0x010c4297
 210:	0a000013 	beq	264 <_Min_Heap_Size+0x64>
 214:	0e030005 	cdpeq	0, 0, cr0, cr3, cr5, {0}
 218:	053b0b3a 	ldreq	r0, [fp, #-2874]!	; 0xfffff4c6
 21c:	13490b39 	movtne	r0, #39737	; 0x9b39
 220:	00000a02 	andeq	r0, r0, r2, lsl #20
 224:	0300340b 	movweq	r3, #1035	; 0x40b
 228:	3b0b3a08 	blcc	2cea50 <_Min_Stack_Size+0x2ce650>
 22c:	490b3905 	stmdbmi	fp, {r0, r2, r8, fp, ip, sp}
 230:	000a0213 	andeq	r0, sl, r3, lsl r2
 234:	000f0c00 	andeq	r0, pc, r0, lsl #24
 238:	13490b0b 	movtne	r0, #39691	; 0x9b0b
 23c:	2e0d0000 	cdpcs	0, 0, cr0, cr13, cr0, {0}
 240:	030c3f01 	movweq	r3, #52993	; 0xcf01
 244:	3b0b3a0e 	blcc	2cea84 <_Min_Stack_Size+0x2ce684>
 248:	270b3905 	strcs	r3, [fp, -r5, lsl #18]
 24c:	1201110c 	andne	r1, r1, #12, 2
 250:	97064001 	strls	r4, [r6, -r1]
 254:	13010c42 	movwne	r0, #7234	; 0x1c42
 258:	2e0e0000 	cdpcs	0, 0, cr0, cr14, cr0, {0}
 25c:	030c3f01 	movweq	r3, #52993	; 0xcf01
 260:	3b0b3a0e 	blcc	2ceaa0 <_Min_Stack_Size+0x2ce6a0>
 264:	270b390b 	strcs	r3, [fp, -fp, lsl #18]
 268:	1113490c 	tstne	r3, ip, lsl #18
 26c:	40011201 	andmi	r1, r1, r1, lsl #4
 270:	0c429706 	mcrreq	7, 0, r9, r2, cr6
 274:	00001301 	andeq	r1, r0, r1, lsl #6
 278:	0300050f 	movweq	r0, #1295	; 0x50f
 27c:	3b0b3a0e 	blcc	2ceabc <_Min_Stack_Size+0x2ce6bc>
 280:	490b390b 	stmdbmi	fp, {r0, r1, r3, r8, fp, ip, sp}
 284:	000a0213 	andeq	r0, sl, r3, lsl r2
 288:	00341000 	eorseq	r1, r4, r0
 28c:	0b3a0e03 	bleq	e83aa0 <_Min_Stack_Size+0xe836a0>
 290:	0b390b3b 	bleq	e42f84 <_Min_Stack_Size+0xe42b84>
 294:	0a021349 	beq	84fc0 <_Min_Stack_Size+0x84bc0>
 298:	2e110000 	cdpcs	0, 1, cr0, cr1, cr0, {0}
 29c:	030c3f01 	movweq	r3, #52993	; 0xcf01
 2a0:	3b0b3a0e 	blcc	2ceae0 <_Min_Stack_Size+0x2ce6e0>
 2a4:	270b390b 	strcs	r3, [fp, -fp, lsl #18]
 2a8:	1201110c 	andne	r1, r1, #12, 2
 2ac:	97064001 	strls	r4, [r6, -r1]
 2b0:	13010c42 	movwne	r0, #7234	; 0x1c42
 2b4:	2e120000 	cdpcs	0, 1, cr0, cr2, cr0, {0}
 2b8:	030c3f01 	movweq	r3, #52993	; 0xcf01
 2bc:	3b0b3a0e 	blcc	2ceafc <_Min_Stack_Size+0x2ce6fc>
 2c0:	270b390b 	strcs	r3, [fp, -fp, lsl #18]
 2c4:	1201110c 	andne	r1, r1, #12, 2
 2c8:	96064001 	strls	r4, [r6], -r1
 2cc:	13010c42 	movwne	r0, #7234	; 0x1c42
 2d0:	2e130000 	cdpcs	0, 1, cr0, cr3, cr0, {0}
 2d4:	030c3f01 	movweq	r3, #52993	; 0xcf01
 2d8:	3b0b3a0e 	blcc	2ceb18 <_Min_Stack_Size+0x2ce718>
 2dc:	270b390b 	strcs	r3, [fp, -fp, lsl #18]
 2e0:	1113490c 	tstne	r3, ip, lsl #18
 2e4:	40011201 	andmi	r1, r1, r1, lsl #4
 2e8:	0c429706 	mcrreq	7, 0, r9, r2, cr6
 2ec:	01000000 	mrseq	r0, (UNDEF: 0)
 2f0:	0e250111 	mcreq	1, 1, r0, cr5, cr1, {0}
 2f4:	0e030b13 	vmoveq.32	d3[0], r0
 2f8:	06550e1b 			; <UNDEFINED> instruction: 0x06550e1b
 2fc:	01520111 	cmpeq	r2, r1, lsl r1
 300:	42990610 	addsmi	r0, r9, #16, 12	; 0x1000000
 304:	02000006 	andeq	r0, r0, #6
 308:	0b0b0024 	bleq	2c03a0 <_Min_Stack_Size+0x2bffa0>
 30c:	0e030b3e 	vmoveq.16	d3[0], r0
 310:	16030000 	strne	r0, [r3], -r0
 314:	3a0e0300 	bcc	380f1c <_Min_Stack_Size+0x380b1c>
 318:	390b3b0b 	stmdbcc	fp, {r0, r1, r3, r8, r9, fp, ip, sp}
 31c:	0013490b 	andseq	r4, r3, fp, lsl #18
 320:	00240400 	eoreq	r0, r4, r0, lsl #8
 324:	0b3e0b0b 	bleq	f82f58 <_Min_Stack_Size+0xf82b58>
 328:	00000803 	andeq	r0, r0, r3, lsl #16
 32c:	49003505 	stmdbmi	r0, {r0, r2, r8, sl, ip, sp}
 330:	06000013 			; <UNDEFINED> instruction: 0x06000013
 334:	0b0b000f 	bleq	2c0378 <_Min_Stack_Size+0x2bff78>
 338:	00001349 	andeq	r1, r0, r9, asr #6
 33c:	27001507 	strcs	r1, [r0, -r7, lsl #10]
 340:	0800000c 	stmdaeq	r0, {r2, r3}
 344:	0b0b0113 	bleq	2c0798 <_Min_Stack_Size+0x2c0398>
 348:	0b3b0b3a 	bleq	ec3038 <_Min_Stack_Size+0xec2c38>
 34c:	13010b39 	movwne	r0, #6969	; 0x1b39
 350:	0d090000 	stceq	0, cr0, [r9, #-0]
 354:	3a080300 	bcc	200f5c <_Min_Stack_Size+0x200b5c>
 358:	390b3b0b 	stmdbcc	fp, {r0, r1, r3, r8, r9, fp, ip, sp}
 35c:	3813490b 	ldmdacc	r3, {r0, r1, r3, r8, fp, lr}
 360:	0a00000a 	beq	390 <_Min_Heap_Size+0x190>
 364:	0e03000d 	cdpeq	0, 0, cr0, cr3, cr13, {0}
 368:	0b3b0b3a 	bleq	ec3058 <_Min_Stack_Size+0xec2c58>
 36c:	13490b39 	movtne	r0, #39737	; 0x9b39
 370:	00000a38 	andeq	r0, r0, r8, lsr sl
 374:	0300340b 	movweq	r3, #1035	; 0x40b
 378:	3b0b3a0e 	blcc	2cebb8 <_Min_Stack_Size+0x2ce7b8>
 37c:	490b390b 	stmdbmi	fp, {r0, r1, r3, r8, fp, ip, sp}
 380:	020c3f13 	andeq	r3, ip, #19, 30	; 0x4c
 384:	0c00000a 	stceq	0, cr0, [r0], {10}
 388:	08030034 	stmdaeq	r3, {r2, r4, r5}
 38c:	0b3b0b3a 	bleq	ec307c <_Min_Stack_Size+0xec2c7c>
 390:	13490b39 	movtne	r0, #39737	; 0x9b39
 394:	0a020c3f 	beq	83498 <_Min_Stack_Size+0x83098>
 398:	340d0000 	strcc	r0, [sp], #-0
 39c:	3a0e0300 	bcc	380fa4 <_Min_Stack_Size+0x380ba4>
 3a0:	390b3b0b 	stmdbcc	fp, {r0, r1, r3, r8, r9, fp, ip, sp}
 3a4:	3f13490b 	svccc	0x0013490b
 3a8:	000c3c0c 	andeq	r3, ip, ip, lsl #24
 3ac:	01040e00 	tsteq	r4, r0, lsl #28
 3b0:	0b3e0e03 	bleq	f83bc4 <_Min_Stack_Size+0xf837c4>
 3b4:	13490b0b 	movtne	r0, #39691	; 0x9b0b
 3b8:	0b3b0b3a 	bleq	ec30a8 <_Min_Stack_Size+0xec2ca8>
 3bc:	13010b39 	movwne	r0, #6969	; 0x1b39
 3c0:	280f0000 	stmdacs	pc, {}	; <UNPREDICTABLE>
 3c4:	1c0e0300 	stcne	3, cr0, [lr], {-0}
 3c8:	1000000b 	andne	r0, r0, fp
 3cc:	0c3f012e 	ldfeqs	f0, [pc], #-184	; 31c <_Min_Heap_Size+0x11c>
 3d0:	0b3a0e03 	bleq	e83be4 <_Min_Stack_Size+0xe837e4>
 3d4:	0b390b3b 	bleq	e430c8 <_Min_Stack_Size+0xe42cc8>
 3d8:	0c3c0c27 	ldceq	12, cr0, [ip], #-156	; 0xffffff64
 3dc:	00001301 	andeq	r1, r0, r1, lsl #6
 3e0:	49000511 	stmdbmi	r0, {r0, r4, r8, sl}
 3e4:	12000013 	andne	r0, r0, #19
 3e8:	0c3f012e 	ldfeqs	f0, [pc], #-184	; 338 <_Min_Heap_Size+0x138>
 3ec:	0b3a0e03 	bleq	e83c00 <_Min_Stack_Size+0xe83800>
 3f0:	0b390b3b 	bleq	e430e4 <_Min_Stack_Size+0xe42ce4>
 3f4:	13490c27 	movtne	r0, #39975	; 0x9c27
 3f8:	01120111 	tsteq	r2, r1, lsl r1
 3fc:	42960640 	addsmi	r0, r6, #64, 12	; 0x4000000
 400:	0013010c 	andseq	r0, r3, ip, lsl #2
 404:	00341300 	eorseq	r1, r4, r0, lsl #6
 408:	0b3a0e03 	bleq	e83c1c <_Min_Stack_Size+0xe8381c>
 40c:	0b390b3b 	bleq	e43100 <_Min_Stack_Size+0xe42d00>
 410:	0a021349 	beq	8513c <_Min_Stack_Size+0x84d3c>
 414:	2e140000 	cdpcs	0, 1, cr0, cr4, cr0, {0}
 418:	030c3f00 	movweq	r3, #52992	; 0xcf00
 41c:	3b0b3a0e 	blcc	2cec5c <_Min_Stack_Size+0x2ce85c>
 420:	110b390b 	tstne	fp, fp, lsl #18
 424:	40011201 	andmi	r1, r1, r1, lsl #4
 428:	0c429606 	mcrreq	6, 0, r9, r2, cr6
 42c:	2e150000 	cdpcs	0, 1, cr0, cr5, cr0, {0}
 430:	030c3f01 	movweq	r3, #52993	; 0xcf01
 434:	3b0b3a0e 	blcc	2cec74 <_Min_Stack_Size+0x2ce874>
 438:	270b390b 	strcs	r3, [fp, -fp, lsl #18]
 43c:	1113490c 	tstne	r3, ip, lsl #18
 440:	40011201 	andmi	r1, r1, r1, lsl #4
 444:	0c429706 	mcrreq	7, 0, r9, r2, cr6
 448:	00001301 	andeq	r1, r0, r1, lsl #6
 44c:	03000516 	movweq	r0, #1302	; 0x516
 450:	3b0b3a08 	blcc	2cec78 <_Min_Stack_Size+0x2ce878>
 454:	490b390b 	stmdbmi	fp, {r0, r1, r3, r8, fp, ip, sp}
 458:	000a0213 	andeq	r0, sl, r3, lsl r2
 45c:	002e1700 	eoreq	r1, lr, r0, lsl #14
 460:	0e030c3f 	mcreq	12, 0, r0, cr3, cr15, {1}
 464:	0b3b0b3a 	bleq	ec3154 <_Min_Stack_Size+0xec2d54>
 468:	01110b39 	tsteq	r1, r9, lsr fp
 46c:	06400112 			; <UNDEFINED> instruction: 0x06400112
 470:	000c4297 	muleq	ip, r7, r2
 474:	012e1800 			; <UNDEFINED> instruction: 0x012e1800
 478:	0e030c3f 	mcreq	12, 0, r0, cr3, cr15, {1}
 47c:	0b3b0b3a 	bleq	ec316c <_Min_Stack_Size+0xec2d6c>
 480:	0c270b39 			; <UNDEFINED> instruction: 0x0c270b39
 484:	01120111 	tsteq	r2, r1, lsl r1
 488:	42970640 	addsmi	r0, r7, #64, 12	; 0x4000000
 48c:	1900000c 	stmdbne	r0, {r2, r3}
 490:	0e030005 	cdpeq	0, 0, cr0, cr3, cr5, {0}
 494:	0b3b0b3a 	bleq	ec3184 <_Min_Stack_Size+0xec2d84>
 498:	13490b39 	movtne	r0, #39737	; 0x9b39
 49c:	00000a02 	andeq	r0, r0, r2, lsl #20
 4a0:	00110100 	andseq	r0, r1, r0, lsl #2
 4a4:	06550610 			; <UNDEFINED> instruction: 0x06550610
 4a8:	0e1b0e03 	cdpeq	14, 1, cr0, cr11, cr3, {0}
 4ac:	05130e25 	ldreq	r0, [r3, #-3621]	; 0xfffff1db
 4b0:	Address 0x00000000000004b0 is out of bounds.


Disassembly of section .debug_loc:

00000000 <.debug_loc>:
   0:	08000654 	stmdaeq	r0, {r2, r4, r6, r9, sl}
   4:	08000656 	stmdaeq	r0, {r1, r2, r4, r6, r9, sl}
   8:	007d0002 	rsbseq	r0, sp, r2
   c:	08000656 	stmdaeq	r0, {r1, r2, r4, r6, r9, sl}
  10:	08000658 	stmdaeq	r0, {r3, r4, r6, r9, sl}
  14:	087d0002 	ldmdaeq	sp!, {r1}^
  18:	08000658 	stmdaeq	r0, {r3, r4, r6, r9, sl}
  1c:	08000718 	stmdaeq	r0, {r3, r4, r8, r9, sl}
  20:	08770002 	ldmdaeq	r7!, {r1}^
	...
  2c:	080005ac 	stmdaeq	r0, {r2, r3, r5, r7, r8, sl}
  30:	080005ae 	stmdaeq	r0, {r1, r2, r3, r5, r7, r8, sl}
  34:	007d0002 	rsbseq	r0, sp, r2
  38:	080005ae 	stmdaeq	r0, {r1, r2, r3, r5, r7, r8, sl}
  3c:	080005b0 	stmdaeq	r0, {r4, r5, r7, r8, sl}
  40:	087d0002 	ldmdaeq	sp!, {r1}^
  44:	080005b0 	stmdaeq	r0, {r4, r5, r7, r8, sl}
  48:	08000654 	stmdaeq	r0, {r2, r4, r6, r9, sl}
  4c:	08770002 	ldmdaeq	r7!, {r1}^
	...
  58:	08000588 	stmdaeq	r0, {r3, r7, r8, sl}
  5c:	0800058a 	stmdaeq	r0, {r1, r3, r7, r8, sl}
  60:	007d0002 	rsbseq	r0, sp, r2
  64:	0800058a 	stmdaeq	r0, {r1, r3, r7, r8, sl}
  68:	0800058c 	stmdaeq	r0, {r2, r3, r7, r8, sl}
  6c:	087d0002 	ldmdaeq	sp!, {r1}^
  70:	0800058c 	stmdaeq	r0, {r2, r3, r7, r8, sl}
  74:	080005ac 	stmdaeq	r0, {r2, r3, r5, r7, r8, sl}
  78:	08770002 	ldmdaeq	r7!, {r1}^
	...
  84:	08000564 	stmdaeq	r0, {r2, r5, r6, r8, sl}
  88:	08000566 	stmdaeq	r0, {r1, r2, r5, r6, r8, sl}
  8c:	007d0002 	rsbseq	r0, sp, r2
  90:	08000566 	stmdaeq	r0, {r1, r2, r5, r6, r8, sl}
  94:	08000568 	stmdaeq	r0, {r3, r5, r6, r8, sl}
  98:	087d0002 	ldmdaeq	sp!, {r1}^
  9c:	08000568 	stmdaeq	r0, {r3, r5, r6, r8, sl}
  a0:	08000588 	stmdaeq	r0, {r3, r7, r8, sl}
  a4:	08770002 	ldmdaeq	r7!, {r1}^
	...
  b0:	08000540 	stmdaeq	r0, {r6, r8, sl}
  b4:	08000542 	stmdaeq	r0, {r1, r6, r8, sl}
  b8:	007d0002 	rsbseq	r0, sp, r2
  bc:	08000542 	stmdaeq	r0, {r1, r6, r8, sl}
  c0:	08000544 	stmdaeq	r0, {r2, r6, r8, sl}
  c4:	087d0002 	ldmdaeq	sp!, {r1}^
  c8:	08000544 	stmdaeq	r0, {r2, r6, r8, sl}
  cc:	08000564 	stmdaeq	r0, {r2, r5, r6, r8, sl}
  d0:	08770002 	ldmdaeq	r7!, {r1}^
	...
  dc:	0800051c 	stmdaeq	r0, {r2, r3, r4, r8, sl}
  e0:	0800051e 	stmdaeq	r0, {r1, r2, r3, r4, r8, sl}
  e4:	007d0002 	rsbseq	r0, sp, r2
  e8:	0800051e 	stmdaeq	r0, {r1, r2, r3, r4, r8, sl}
  ec:	08000520 	stmdaeq	r0, {r5, r8, sl}
  f0:	087d0002 	ldmdaeq	sp!, {r1}^
  f4:	08000520 	stmdaeq	r0, {r5, r8, sl}
  f8:	08000540 	stmdaeq	r0, {r6, r8, sl}
  fc:	08770002 	ldmdaeq	r7!, {r1}^
	...
 108:	080004f8 	stmdaeq	r0, {r3, r4, r5, r6, r7, sl}
 10c:	080004fa 	stmdaeq	r0, {r1, r3, r4, r5, r6, r7, sl}
 110:	007d0002 	rsbseq	r0, sp, r2
 114:	080004fa 	stmdaeq	r0, {r1, r3, r4, r5, r6, r7, sl}
 118:	080004fc 	stmdaeq	r0, {r2, r3, r4, r5, r6, r7, sl}
 11c:	087d0002 	ldmdaeq	sp!, {r1}^
 120:	080004fc 	stmdaeq	r0, {r2, r3, r4, r5, r6, r7, sl}
 124:	0800051c 	stmdaeq	r0, {r2, r3, r4, r8, sl}
 128:	08770002 	ldmdaeq	r7!, {r1}^
	...
 13c:	007d0002 	rsbseq	r0, sp, r2
	...
 148:	087d0002 	ldmdaeq	sp!, {r1}^
	...
 154:	107d0002 	rsbsne	r0, sp, r2
	...
 160:	10770002 	rsbsne	r0, r7, r2
	...
 16c:	08770002 	ldmdaeq	r7!, {r1}^
	...
 178:	087d0002 	ldmdaeq	sp!, {r1}^
	...
 184:	080004e0 	stmdaeq	r0, {r5, r6, r7, sl}
 188:	080004e2 	stmdaeq	r0, {r1, r5, r6, r7, sl}
 18c:	007d0002 	rsbseq	r0, sp, r2
 190:	080004e2 	stmdaeq	r0, {r1, r5, r6, r7, sl}
 194:	080004e4 	stmdaeq	r0, {r2, r5, r6, r7, sl}
 198:	087d0002 	ldmdaeq	sp!, {r1}^
 19c:	080004e4 	stmdaeq	r0, {r2, r5, r6, r7, sl}
 1a0:	080004e6 	stmdaeq	r0, {r1, r2, r5, r6, r7, sl}
 1a4:	107d0002 	rsbsne	r0, sp, r2
 1a8:	080004e6 	stmdaeq	r0, {r1, r2, r5, r6, r7, sl}
 1ac:	080004f2 	stmdaeq	r0, {r1, r4, r5, r6, r7, sl}
 1b0:	10770002 	rsbsne	r0, r7, r2
 1b4:	080004f2 	stmdaeq	r0, {r1, r4, r5, r6, r7, sl}
 1b8:	080004f4 	stmdaeq	r0, {r2, r4, r5, r6, r7, sl}
 1bc:	08770002 	ldmdaeq	r7!, {r1}^
 1c0:	080004f4 	stmdaeq	r0, {r2, r4, r5, r6, r7, sl}
 1c4:	080004f6 	stmdaeq	r0, {r1, r2, r4, r5, r6, r7, sl}
 1c8:	087d0002 	ldmdaeq	sp!, {r1}^
	...
 1dc:	007d0002 	rsbseq	r0, sp, r2
	...
 1e8:	047d0002 	ldrbteq	r0, [sp], #-2
	...
 1f4:	04770002 	ldrbteq	r0, [r7], #-2
	...
 200:	047d0002 	ldrbteq	r0, [sp], #-2
	...
 20c:	007d0002 	rsbseq	r0, sp, r2
	...
 218:	08000308 	stmdaeq	r0, {r3, r8, r9}
 21c:	0800030a 	stmdaeq	r0, {r1, r3, r8, r9}
 220:	007d0002 	rsbseq	r0, sp, r2
 224:	0800030a 	stmdaeq	r0, {r1, r3, r8, r9}
 228:	0800030c 	stmdaeq	r0, {r2, r3, r8, r9}
 22c:	087d0002 	ldmdaeq	sp!, {r1}^
 230:	0800030c 	stmdaeq	r0, {r2, r3, r8, r9}
 234:	0800030e 	stmdaeq	r0, {r1, r2, r3, r8, r9}
 238:	187d0002 	ldmdane	sp!, {r1}^
 23c:	0800030e 	stmdaeq	r0, {r1, r2, r3, r8, r9}
 240:	080004c0 	stmdaeq	r0, {r6, r7, sl}
 244:	18770002 	ldmdane	r7!, {r1}^
 248:	080004c0 	stmdaeq	r0, {r6, r7, sl}
 24c:	080004c2 	stmdaeq	r0, {r1, r6, r7, sl}
 250:	08770002 	ldmdaeq	r7!, {r1}^
 254:	080004c2 	stmdaeq	r0, {r1, r6, r7, sl}
 258:	080004e0 	stmdaeq	r0, {r5, r6, r7, sl}
 25c:	087d0002 	ldmdaeq	sp!, {r1}^
	...
 268:	0800023c 	stmdaeq	r0, {r2, r3, r4, r5, r9}
 26c:	0800023e 	stmdaeq	r0, {r1, r2, r3, r4, r5, r9}
 270:	007d0002 	rsbseq	r0, sp, r2
 274:	0800023e 	stmdaeq	r0, {r1, r2, r3, r4, r5, r9}
 278:	08000240 	stmdaeq	r0, {r6, r9}
 27c:	047d0002 	ldrbteq	r0, [sp], #-2
 280:	08000240 	stmdaeq	r0, {r6, r9}
 284:	08000242 	stmdaeq	r0, {r1, r6, r9}
 288:	107d0002 	rsbsne	r0, sp, r2
 28c:	08000242 	stmdaeq	r0, {r1, r6, r9}
 290:	080002fa 	stmdaeq	r0, {r1, r3, r4, r5, r6, r7, r9}
 294:	10770002 	rsbsne	r0, r7, r2
 298:	080002fa 	stmdaeq	r0, {r1, r3, r4, r5, r6, r7, r9}
 29c:	080002fc 	stmdaeq	r0, {r2, r3, r4, r5, r6, r7, r9}
 2a0:	04770002 	ldrbteq	r0, [r7], #-2
 2a4:	080002fc 	stmdaeq	r0, {r2, r3, r4, r5, r6, r7, r9}
 2a8:	080002fe 	stmdaeq	r0, {r1, r2, r3, r4, r5, r6, r7, r9}
 2ac:	047d0002 	ldrbteq	r0, [sp], #-2
 2b0:	080002fe 	stmdaeq	r0, {r1, r2, r3, r4, r5, r6, r7, r9}
 2b4:	08000308 	stmdaeq	r0, {r3, r8, r9}
 2b8:	007d0002 	rsbseq	r0, sp, r2
	...
 2c4:	08000170 	stmdaeq	r0, {r4, r5, r6, r8}
 2c8:	08000172 	stmdaeq	r0, {r1, r4, r5, r6, r8}
 2cc:	007d0002 	rsbseq	r0, sp, r2
 2d0:	08000172 	stmdaeq	r0, {r1, r4, r5, r6, r8}
 2d4:	08000174 	stmdaeq	r0, {r2, r4, r5, r6, r8}
 2d8:	047d0002 	ldrbteq	r0, [sp], #-2
 2dc:	08000174 	stmdaeq	r0, {r2, r4, r5, r6, r8}
 2e0:	08000176 	stmdaeq	r0, {r1, r2, r4, r5, r6, r8}
 2e4:	107d0002 	rsbsne	r0, sp, r2
 2e8:	08000176 	stmdaeq	r0, {r1, r2, r4, r5, r6, r8}
 2ec:	0800022e 	stmdaeq	r0, {r1, r2, r3, r5, r9}
 2f0:	10770002 	rsbsne	r0, r7, r2
 2f4:	0800022e 	stmdaeq	r0, {r1, r2, r3, r5, r9}
 2f8:	08000230 	stmdaeq	r0, {r4, r5, r9}
 2fc:	04770002 	ldrbteq	r0, [r7], #-2
 300:	08000230 	stmdaeq	r0, {r4, r5, r9}
 304:	08000232 	stmdaeq	r0, {r1, r4, r5, r9}
 308:	047d0002 	ldrbteq	r0, [sp], #-2
 30c:	08000232 	stmdaeq	r0, {r1, r4, r5, r9}
 310:	0800023c 	stmdaeq	r0, {r2, r3, r4, r5, r9}
 314:	007d0002 	rsbseq	r0, sp, r2
	...
 328:	007d0002 	rsbseq	r0, sp, r2
	...
 334:	047d0002 	ldrbteq	r0, [sp], #-2
	...
 340:	187d0002 	ldmdane	sp!, {r1}^
	...
 34c:	18770002 	ldmdane	r7!, {r1}^
	...
 358:	04770002 	ldrbteq	r0, [r7], #-2
	...
 364:	047d0002 	ldrbteq	r0, [sp], #-2
	...
 370:	007d0002 	rsbseq	r0, sp, r2
	...
 384:	007d0002 	rsbseq	r0, sp, r2
	...
 390:	047d0002 	ldrbteq	r0, [sp], #-2
	...
 39c:	107d0002 	rsbsne	r0, sp, r2
	...
 3a8:	10770002 	rsbsne	r0, r7, r2
	...
 3b4:	04770002 	ldrbteq	r0, [r7], #-2
	...
 3c0:	047d0002 	ldrbteq	r0, [sp], #-2
	...
 3cc:	007d0002 	rsbseq	r0, sp, r2
	...
 3e0:	007d0002 	rsbseq	r0, sp, r2
	...
 3ec:	047d0002 	ldrbteq	r0, [sp], #-2
	...
 3f8:	107d0002 	rsbsne	r0, sp, r2
	...
 404:	10770002 	rsbsne	r0, r7, r2
	...
 410:	04770002 	ldrbteq	r0, [r7], #-2
	...
 41c:	047d0002 	ldrbteq	r0, [sp], #-2
	...
 428:	007d0002 	rsbseq	r0, sp, r2
	...
 43c:	007d0002 	rsbseq	r0, sp, r2
	...
 448:	047d0002 	ldrbteq	r0, [sp], #-2
	...
 454:	107d0002 	rsbsne	r0, sp, r2
	...
 460:	10770002 	rsbsne	r0, r7, r2
	...
 46c:	04770002 	ldrbteq	r0, [r7], #-2
	...
 478:	047d0002 	ldrbteq	r0, [sp], #-2
	...
 484:	007d0002 	rsbseq	r0, sp, r2
	...
 498:	007d0002 	rsbseq	r0, sp, r2
	...
 4a4:	047d0002 	ldrbteq	r0, [sp], #-2
	...
 4b0:	187d0002 	ldmdane	sp!, {r1}^
	...
 4bc:	18770002 	ldmdane	r7!, {r1}^
	...
 4c8:	04770002 	ldrbteq	r0, [r7], #-2
	...
 4d4:	047d0002 	ldrbteq	r0, [sp], #-2
	...
 4e0:	007d0002 	rsbseq	r0, sp, r2
	...
 4f4:	007d0002 	rsbseq	r0, sp, r2
	...
 500:	047d0002 	ldrbteq	r0, [sp], #-2
	...
 50c:	187d0002 	ldmdane	sp!, {r1}^
	...
 518:	18770002 	ldmdane	r7!, {r1}^
	...
 524:	04770002 	ldrbteq	r0, [r7], #-2
	...
 530:	047d0002 	ldrbteq	r0, [sp], #-2
	...
 53c:	007d0002 	rsbseq	r0, sp, r2
	...
 550:	007d0002 	rsbseq	r0, sp, r2
	...
 55c:	047d0002 	ldrbteq	r0, [sp], #-2
	...
 568:	107d0002 	rsbsne	r0, sp, r2
	...
 574:	10770002 	rsbsne	r0, r7, r2
	...
 580:	04770002 	ldrbteq	r0, [r7], #-2
	...
 58c:	047d0002 	ldrbteq	r0, [sp], #-2
	...
 598:	007d0002 	rsbseq	r0, sp, r2
	...
 5a4:	08000888 	stmdaeq	r0, {r3, r7, fp}
 5a8:	0800088a 	stmdaeq	r0, {r1, r3, r7, fp}
 5ac:	007d0002 	rsbseq	r0, sp, r2
 5b0:	0800088a 	stmdaeq	r0, {r1, r3, r7, fp}
 5b4:	0800088c 	stmdaeq	r0, {r2, r3, r7, fp}
 5b8:	0c7d0002 	ldcleq	0, cr0, [sp], #-8
 5bc:	0800088c 	stmdaeq	r0, {r2, r3, r7, fp}
 5c0:	0800088e 	stmdaeq	r0, {r1, r2, r3, r7, fp}
 5c4:	207d0002 	rsbscs	r0, sp, r2
 5c8:	0800088e 	stmdaeq	r0, {r1, r2, r3, r7, fp}
 5cc:	080009d8 	stmdaeq	r0, {r3, r4, r6, r7, r8, fp}
 5d0:	20770002 	rsbscs	r0, r7, r2
 5d4:	080009d8 	stmdaeq	r0, {r3, r4, r6, r7, r8, fp}
 5d8:	080009da 	stmdaeq	r0, {r1, r3, r4, r6, r7, r8, fp}
 5dc:	0c770002 	ldcleq	0, cr0, [r7], #-8
 5e0:	080009da 	stmdaeq	r0, {r1, r3, r4, r6, r7, r8, fp}
 5e4:	080009dc 	stmdaeq	r0, {r2, r3, r4, r6, r7, r8, fp}
 5e8:	0c7d0002 	ldcleq	0, cr0, [sp], #-8
	...
 5f4:	08000718 	stmdaeq	r0, {r3, r4, r8, r9, sl}
 5f8:	0800071a 	stmdaeq	r0, {r1, r3, r4, r8, r9, sl}
 5fc:	007d0002 	rsbseq	r0, sp, r2
 600:	0800071a 	stmdaeq	r0, {r1, r3, r4, r8, r9, sl}
 604:	0800071c 	stmdaeq	r0, {r2, r3, r4, r8, r9, sl}
 608:	047d0002 	ldrbteq	r0, [sp], #-2
 60c:	0800071c 	stmdaeq	r0, {r2, r3, r4, r8, r9, sl}
 610:	0800071e 	stmdaeq	r0, {r1, r2, r3, r4, r8, r9, sl}
 614:	107d0002 	rsbsne	r0, sp, r2
 618:	0800071e 	stmdaeq	r0, {r1, r2, r3, r4, r8, r9, sl}
 61c:	08000880 	stmdaeq	r0, {r7, fp}
 620:	10770002 	rsbsne	r0, r7, r2
 624:	08000880 	stmdaeq	r0, {r7, fp}
 628:	08000882 	stmdaeq	r0, {r1, r7, fp}
 62c:	04770002 	ldrbteq	r0, [r7], #-2
 630:	08000882 	stmdaeq	r0, {r1, r7, fp}
 634:	08000884 	stmdaeq	r0, {r2, r7, fp}
 638:	047d0002 	ldrbteq	r0, [sp], #-2
 63c:	08000884 	stmdaeq	r0, {r2, r7, fp}
 640:	08000886 	stmdaeq	r0, {r1, r2, r7, fp}
 644:	007d0002 	rsbseq	r0, sp, r2
	...
 650:	08000bbc 	stmdaeq	r0, {r2, r3, r4, r5, r7, r8, r9, fp}
 654:	08000bbe 	stmdaeq	r0, {r1, r2, r3, r4, r5, r7, r8, r9, fp}
 658:	007d0002 	rsbseq	r0, sp, r2
 65c:	08000bbe 	stmdaeq	r0, {r1, r2, r3, r4, r5, r7, r8, r9, fp}
 660:	08000bc0 	stmdaeq	r0, {r6, r7, r8, r9, fp}
 664:	087d0002 	ldmdaeq	sp!, {r1}^
 668:	08000bc0 	stmdaeq	r0, {r6, r7, r8, r9, fp}
 66c:	08000bc2 	stmdaeq	r0, {r1, r6, r7, r8, r9, fp}
 670:	287d0002 	ldmdacs	sp!, {r1}^
 674:	08000bc2 	stmdaeq	r0, {r1, r6, r7, r8, r9, fp}
 678:	08000c20 	stmdaeq	r0, {r5, sl, fp}
 67c:	28770002 	ldmdacs	r7!, {r1}^
	...
 688:	08000ac4 	stmdaeq	r0, {r2, r6, r7, r9, fp}
 68c:	08000ac6 	stmdaeq	r0, {r1, r2, r6, r7, r9, fp}
 690:	007d0002 	rsbseq	r0, sp, r2
 694:	08000ac6 	stmdaeq	r0, {r1, r2, r6, r7, r9, fp}
 698:	08000ac8 	stmdaeq	r0, {r3, r6, r7, r9, fp}
 69c:	087d0002 	ldmdaeq	sp!, {r1}^
 6a0:	08000ac8 	stmdaeq	r0, {r3, r6, r7, r9, fp}
 6a4:	08000bbc 	stmdaeq	r0, {r2, r3, r4, r5, r7, r8, r9, fp}
 6a8:	08770002 	ldmdaeq	r7!, {r1}^
	...
 6b4:	08000a9c 	stmdaeq	r0, {r2, r3, r4, r7, r9, fp}
 6b8:	08000a9e 	stmdaeq	r0, {r1, r2, r3, r4, r7, r9, fp}
 6bc:	007d0002 	rsbseq	r0, sp, r2
 6c0:	08000a9e 	stmdaeq	r0, {r1, r2, r3, r4, r7, r9, fp}
 6c4:	08000aa0 	stmdaeq	r0, {r5, r7, r9, fp}
 6c8:	047d0002 	ldrbteq	r0, [sp], #-2
 6cc:	08000aa0 	stmdaeq	r0, {r5, r7, r9, fp}
 6d0:	08000aa2 	stmdaeq	r0, {r1, r5, r7, r9, fp}
 6d4:	187d0002 	ldmdane	sp!, {r1}^
 6d8:	08000aa2 	stmdaeq	r0, {r1, r5, r7, r9, fp}
 6dc:	08000abc 	stmdaeq	r0, {r2, r3, r4, r5, r7, r9, fp}
 6e0:	18770002 	ldmdane	r7!, {r1}^
 6e4:	08000abc 	stmdaeq	r0, {r2, r3, r4, r5, r7, r9, fp}
 6e8:	08000abe 	stmdaeq	r0, {r1, r2, r3, r4, r5, r7, r9, fp}
 6ec:	04770002 	ldrbteq	r0, [r7], #-2
 6f0:	08000abe 	stmdaeq	r0, {r1, r2, r3, r4, r5, r7, r9, fp}
 6f4:	08000ac0 	stmdaeq	r0, {r6, r7, r9, fp}
 6f8:	047d0002 	ldrbteq	r0, [sp], #-2
 6fc:	08000ac0 	stmdaeq	r0, {r6, r7, r9, fp}
 700:	08000ac2 	stmdaeq	r0, {r1, r6, r7, r9, fp}
 704:	007d0002 	rsbseq	r0, sp, r2
	...
 710:	08000a7c 	stmdaeq	r0, {r2, r3, r4, r5, r6, r9, fp}
 714:	08000a7e 	stmdaeq	r0, {r1, r2, r3, r4, r5, r6, r9, fp}
 718:	007d0002 	rsbseq	r0, sp, r2
 71c:	08000a7e 	stmdaeq	r0, {r1, r2, r3, r4, r5, r6, r9, fp}
 720:	08000a80 	stmdaeq	r0, {r7, r9, fp}
 724:	047d0002 	ldrbteq	r0, [sp], #-2
 728:	08000a80 	stmdaeq	r0, {r7, r9, fp}
 72c:	08000a82 	stmdaeq	r0, {r1, r7, r9, fp}
 730:	187d0002 	ldmdane	sp!, {r1}^
 734:	08000a82 	stmdaeq	r0, {r1, r7, r9, fp}
 738:	08000a96 	stmdaeq	r0, {r1, r2, r4, r7, r9, fp}
 73c:	18770002 	ldmdane	r7!, {r1}^
 740:	08000a96 	stmdaeq	r0, {r1, r2, r4, r7, r9, fp}
 744:	08000a98 	stmdaeq	r0, {r3, r4, r7, r9, fp}
 748:	04770002 	ldrbteq	r0, [r7], #-2
 74c:	08000a98 	stmdaeq	r0, {r3, r4, r7, r9, fp}
 750:	08000a9a 	stmdaeq	r0, {r1, r3, r4, r7, r9, fp}
 754:	047d0002 	ldrbteq	r0, [sp], #-2
 758:	08000a9a 	stmdaeq	r0, {r1, r3, r4, r7, r9, fp}
 75c:	08000a9c 	stmdaeq	r0, {r2, r3, r4, r7, r9, fp}
 760:	007d0002 	rsbseq	r0, sp, r2
	...
 76c:	08000a2c 	stmdaeq	r0, {r2, r3, r5, r9, fp}
 770:	08000a2e 	stmdaeq	r0, {r1, r2, r3, r5, r9, fp}
 774:	007d0002 	rsbseq	r0, sp, r2
 778:	08000a2e 	stmdaeq	r0, {r1, r2, r3, r5, r9, fp}
 77c:	08000a30 	stmdaeq	r0, {r4, r5, r9, fp}
 780:	047d0002 	ldrbteq	r0, [sp], #-2
 784:	08000a30 	stmdaeq	r0, {r4, r5, r9, fp}
 788:	08000a6a 	stmdaeq	r0, {r1, r3, r5, r6, r9, fp}
 78c:	04770002 	ldrbteq	r0, [r7], #-2
 790:	08000a6a 	stmdaeq	r0, {r1, r3, r5, r6, r9, fp}
 794:	08000a6c 	stmdaeq	r0, {r2, r3, r5, r6, r9, fp}
 798:	047d0002 	ldrbteq	r0, [sp], #-2
 79c:	08000a6c 	stmdaeq	r0, {r2, r3, r5, r6, r9, fp}
 7a0:	08000a7c 	stmdaeq	r0, {r2, r3, r4, r5, r6, r9, fp}
 7a4:	007d0002 	rsbseq	r0, sp, r2
	...
 7b0:	08000a1c 	stmdaeq	r0, {r2, r3, r4, r9, fp}
 7b4:	08000a1e 	stmdaeq	r0, {r1, r2, r3, r4, r9, fp}
 7b8:	007d0002 	rsbseq	r0, sp, r2
 7bc:	08000a1e 	stmdaeq	r0, {r1, r2, r3, r4, r9, fp}
 7c0:	08000a20 	stmdaeq	r0, {r5, r9, fp}
 7c4:	087d0002 	ldmdaeq	sp!, {r1}^
 7c8:	08000a20 	stmdaeq	r0, {r5, r9, fp}
 7cc:	08000a2a 	stmdaeq	r0, {r1, r3, r5, r9, fp}
 7d0:	08770002 	ldmdaeq	r7!, {r1}^
	...
 7dc:	080009dc 	stmdaeq	r0, {r2, r3, r4, r6, r7, r8, fp}
 7e0:	080009de 	stmdaeq	r0, {r1, r2, r3, r4, r6, r7, r8, fp}
 7e4:	007d0002 	rsbseq	r0, sp, r2
 7e8:	080009de 	stmdaeq	r0, {r1, r2, r3, r4, r6, r7, r8, fp}
 7ec:	080009e0 	stmdaeq	r0, {r5, r6, r7, r8, fp}
 7f0:	047d0002 	ldrbteq	r0, [sp], #-2
 7f4:	080009e0 	stmdaeq	r0, {r5, r6, r7, r8, fp}
 7f8:	080009e2 	stmdaeq	r0, {r1, r5, r6, r7, r8, fp}
 7fc:	107d0002 	rsbsne	r0, sp, r2
 800:	080009e2 	stmdaeq	r0, {r1, r5, r6, r7, r8, fp}
 804:	08000a16 	stmdaeq	r0, {r1, r2, r4, r9, fp}
 808:	10770002 	rsbsne	r0, r7, r2
 80c:	08000a16 	stmdaeq	r0, {r1, r2, r4, r9, fp}
 810:	08000a18 	stmdaeq	r0, {r3, r4, r9, fp}
 814:	04770002 	ldrbteq	r0, [r7], #-2
 818:	08000a18 	stmdaeq	r0, {r3, r4, r9, fp}
 81c:	08000a1a 	stmdaeq	r0, {r1, r3, r4, r9, fp}
 820:	047d0002 	ldrbteq	r0, [sp], #-2
 824:	08000a1a 	stmdaeq	r0, {r1, r3, r4, r9, fp}
 828:	08000a1c 	stmdaeq	r0, {r2, r3, r4, r9, fp}
 82c:	007d0002 	rsbseq	r0, sp, r2
	...

Disassembly of section .debug_aranges:

00000000 <.debug_aranges>:
   0:	0000007c 	andeq	r0, r0, ip, ror r0
   4:	00000002 	andeq	r0, r0, r2
   8:	00040000 	andeq	r0, r4, r0
   c:	00000000 	andeq	r0, r0, r0
  10:	08000170 	stmdaeq	r0, {r4, r5, r6, r8}
  14:	000000cc 	andeq	r0, r0, ip, asr #1
  18:	0800023c 	stmdaeq	r0, {r2, r3, r4, r5, r9}
  1c:	000000cc 	andeq	r0, r0, ip, asr #1
  20:	08000308 	stmdaeq	r0, {r3, r8, r9}
  24:	000001d8 	ldrdeq	r0, [r0], -r8
  28:	00000000 	andeq	r0, r0, r0
  2c:	00000094 	muleq	r0, r4, r0
  30:	080004e0 	stmdaeq	r0, {r5, r6, r7, sl}
  34:	00000016 	andeq	r0, r0, r6, lsl r0
  38:	00000000 	andeq	r0, r0, r0
  3c:	00000016 	andeq	r0, r0, r6, lsl r0
  40:	080004f8 	stmdaeq	r0, {r3, r4, r5, r6, r7, sl}
  44:	00000024 	andeq	r0, r0, r4, lsr #32
  48:	0800051c 	stmdaeq	r0, {r2, r3, r4, r8, sl}
  4c:	00000024 	andeq	r0, r0, r4, lsr #32
  50:	08000540 	stmdaeq	r0, {r6, r8, sl}
  54:	00000024 	andeq	r0, r0, r4, lsr #32
  58:	08000564 	stmdaeq	r0, {r2, r5, r6, r8, sl}
  5c:	00000024 	andeq	r0, r0, r4, lsr #32
  60:	08000588 	stmdaeq	r0, {r3, r7, r8, sl}
  64:	00000024 	andeq	r0, r0, r4, lsr #32
  68:	080005ac 	stmdaeq	r0, {r2, r3, r5, r7, r8, sl}
  6c:	000000a8 	andeq	r0, r0, r8, lsr #1
  70:	08000654 	stmdaeq	r0, {r2, r4, r6, r9, sl}
  74:	000000c4 	andeq	r0, r0, r4, asr #1
	...
  80:	0000005c 	andeq	r0, r0, ip, asr r0
  84:	05300002 	ldreq	r0, [r0, #-2]!
  88:	00040000 	andeq	r0, r4, r0
  8c:	00000000 	andeq	r0, r0, r0
  90:	08000718 	stmdaeq	r0, {r3, r4, r8, r9, sl}
  94:	0000016e 	andeq	r0, r0, lr, ror #2
  98:	08000888 	stmdaeq	r0, {r3, r7, fp}
  9c:	00000154 	andeq	r0, r0, r4, asr r1
  a0:	00000000 	andeq	r0, r0, r0
  a4:	000000d4 	ldrdeq	r0, [r0], -r4
  a8:	00000000 	andeq	r0, r0, r0
  ac:	0000002e 	andeq	r0, r0, lr, lsr #32
  b0:	00000000 	andeq	r0, r0, r0
  b4:	0000001a 	andeq	r0, r0, sl, lsl r0
  b8:	00000000 	andeq	r0, r0, r0
  bc:	0000001c 	andeq	r0, r0, ip, lsl r0
  c0:	00000000 	andeq	r0, r0, r0
  c4:	0000002e 	andeq	r0, r0, lr, lsr #32
  c8:	00000000 	andeq	r0, r0, r0
  cc:	00000022 	andeq	r0, r0, r2, lsr #32
  d0:	00000000 	andeq	r0, r0, r0
  d4:	0000004e 	andeq	r0, r0, lr, asr #32
	...
  e0:	0000004c 	andeq	r0, r0, ip, asr #32
  e4:	09ed0002 	stmibeq	sp!, {r1}^
  e8:	00040000 	andeq	r0, r4, r0
  ec:	00000000 	andeq	r0, r0, r0
  f0:	080009dc 	stmdaeq	r0, {r2, r3, r4, r6, r7, r8, fp}
  f4:	00000040 	andeq	r0, r0, r0, asr #32
  f8:	08000a1c 	stmdaeq	r0, {r2, r3, r4, r9, fp}
  fc:	0000000e 	andeq	r0, r0, lr
 100:	08000a2c 	stmdaeq	r0, {r2, r3, r5, r9, fp}
 104:	00000050 	andeq	r0, r0, r0, asr r0
 108:	08000a7c 	stmdaeq	r0, {r2, r3, r4, r5, r6, r9, fp}
 10c:	00000020 	andeq	r0, r0, r0, lsr #32
 110:	08000a9c 	stmdaeq	r0, {r2, r3, r4, r7, r9, fp}
 114:	00000026 	andeq	r0, r0, r6, lsr #32
 118:	08000ac4 	stmdaeq	r0, {r2, r6, r7, r9, fp}
 11c:	000000f8 	strdeq	r0, [r0], -r8
 120:	08000bbc 	stmdaeq	r0, {r2, r3, r4, r5, r7, r8, r9, fp}
 124:	00000064 	andeq	r0, r0, r4, rrx
	...
 130:	00000024 	andeq	r0, r0, r4, lsr #32
 134:	0f150002 	svceq	0x00150002
 138:	00040000 	andeq	r0, r4, r0
 13c:	00000000 	andeq	r0, r0, r0
 140:	08000c20 	stmdaeq	r0, {r5, sl, fp}
 144:	00000050 	andeq	r0, r0, r0, asr r0
 148:	08000c70 	stmdaeq	r0, {r4, r5, r6, sl, fp}
 14c:	00000002 	andeq	r0, r0, r2
	...

Disassembly of section .debug_ranges:

00000000 <.debug_ranges>:
   0:	08000170 	stmdaeq	r0, {r4, r5, r6, r8}
   4:	0800023c 	stmdaeq	r0, {r2, r3, r4, r5, r9}
   8:	0800023c 	stmdaeq	r0, {r2, r3, r4, r5, r9}
   c:	08000308 	stmdaeq	r0, {r3, r8, r9}
  10:	08000308 	stmdaeq	r0, {r3, r8, r9}
  14:	080004e0 	stmdaeq	r0, {r5, r6, r7, sl}
  18:	00000001 	andeq	r0, r0, r1
  1c:	00000001 	andeq	r0, r0, r1
  20:	080004e0 	stmdaeq	r0, {r5, r6, r7, sl}
  24:	080004f6 	stmdaeq	r0, {r1, r2, r4, r5, r6, r7, sl}
  28:	00000001 	andeq	r0, r0, r1
  2c:	00000001 	andeq	r0, r0, r1
  30:	080004f8 	stmdaeq	r0, {r3, r4, r5, r6, r7, sl}
  34:	0800051c 	stmdaeq	r0, {r2, r3, r4, r8, sl}
  38:	0800051c 	stmdaeq	r0, {r2, r3, r4, r8, sl}
  3c:	08000540 	stmdaeq	r0, {r6, r8, sl}
  40:	08000540 	stmdaeq	r0, {r6, r8, sl}
  44:	08000564 	stmdaeq	r0, {r2, r5, r6, r8, sl}
  48:	08000564 	stmdaeq	r0, {r2, r5, r6, r8, sl}
  4c:	08000588 	stmdaeq	r0, {r3, r7, r8, sl}
  50:	08000588 	stmdaeq	r0, {r3, r7, r8, sl}
  54:	080005ac 	stmdaeq	r0, {r2, r3, r5, r7, r8, sl}
  58:	080005ac 	stmdaeq	r0, {r2, r3, r5, r7, r8, sl}
  5c:	08000654 	stmdaeq	r0, {r2, r4, r6, r9, sl}
  60:	08000654 	stmdaeq	r0, {r2, r4, r6, r9, sl}
  64:	08000718 	stmdaeq	r0, {r3, r4, r8, r9, sl}
	...
  70:	08000718 	stmdaeq	r0, {r3, r4, r8, r9, sl}
  74:	08000886 	stmdaeq	r0, {r1, r2, r7, fp}
  78:	08000888 	stmdaeq	r0, {r3, r7, fp}
  7c:	080009dc 	stmdaeq	r0, {r2, r3, r4, r6, r7, r8, fp}
  80:	00000001 	andeq	r0, r0, r1
  84:	00000001 	andeq	r0, r0, r1
  88:	00000001 	andeq	r0, r0, r1
  8c:	00000001 	andeq	r0, r0, r1
  90:	00000001 	andeq	r0, r0, r1
  94:	00000001 	andeq	r0, r0, r1
  98:	00000001 	andeq	r0, r0, r1
  9c:	00000001 	andeq	r0, r0, r1
  a0:	00000001 	andeq	r0, r0, r1
  a4:	00000001 	andeq	r0, r0, r1
  a8:	00000001 	andeq	r0, r0, r1
  ac:	00000001 	andeq	r0, r0, r1
  b0:	00000001 	andeq	r0, r0, r1
  b4:	00000001 	andeq	r0, r0, r1
	...
  c0:	080009dc 	stmdaeq	r0, {r2, r3, r4, r6, r7, r8, fp}
  c4:	08000a1c 	stmdaeq	r0, {r2, r3, r4, r9, fp}
  c8:	08000a1c 	stmdaeq	r0, {r2, r3, r4, r9, fp}
  cc:	08000a2a 	stmdaeq	r0, {r1, r3, r5, r9, fp}
  d0:	08000a2c 	stmdaeq	r0, {r2, r3, r5, r9, fp}
  d4:	08000a7c 	stmdaeq	r0, {r2, r3, r4, r5, r6, r9, fp}
  d8:	08000a7c 	stmdaeq	r0, {r2, r3, r4, r5, r6, r9, fp}
  dc:	08000a9c 	stmdaeq	r0, {r2, r3, r4, r7, r9, fp}
  e0:	08000a9c 	stmdaeq	r0, {r2, r3, r4, r7, r9, fp}
  e4:	08000ac2 	stmdaeq	r0, {r1, r6, r7, r9, fp}
  e8:	08000ac4 	stmdaeq	r0, {r2, r6, r7, r9, fp}
  ec:	08000bbc 	stmdaeq	r0, {r2, r3, r4, r5, r7, r8, r9, fp}
  f0:	08000bbc 	stmdaeq	r0, {r2, r3, r4, r5, r7, r8, r9, fp}
  f4:	08000c20 	stmdaeq	r0, {r5, sl, fp}
	...
 100:	ffffffff 			; <UNDEFINED> instruction: 0xffffffff
 104:	00000000 	andeq	r0, r0, r0
 108:	08000c20 	stmdaeq	r0, {r5, sl, fp}
 10c:	08000c70 	stmdaeq	r0, {r4, r5, r6, sl, fp}
 110:	08000c70 	stmdaeq	r0, {r4, r5, r6, sl, fp}
 114:	08000c72 	stmdaeq	r0, {r1, r4, r5, r6, sl, fp}
	...

Disassembly of section .debug_macro:

00000000 <.debug_macro>:
       0:	00020004 	andeq	r0, r2, r4
       4:	07000000 	streq	r0, [r0, -r0]
       8:	0000015b 	andeq	r0, r0, fp, asr r1
       c:	03010003 	movweq	r0, #4099	; 0x1003
      10:	09050609 	stmdbeq	r5, {r0, r3, r9, sl}
      14:	0000aced 	andeq	sl, r0, sp, ror #25
      18:	05040b03 	streq	r0, [r4, #-2819]	; 0xfffff4fd
      1c:	005d4909 	subseq	r4, sp, r9, lsl #18
      20:	070b0300 	streq	r0, [fp, -r0, lsl #6]
      24:	89cd0805 	stmibhi	sp, {r0, r2, fp}^
      28:	0a030000 	beq	c0030 <_Min_Stack_Size+0xbfc30>
      2c:	0bfd0708 	bleq	fff41c54 <_estack+0xdff3cc54>
      30:	03040000 	movweq	r0, #16384	; 0x4000
      34:	0805090b 	stmdaeq	r5, {r0, r1, r3, r8, fp}
      38:	00006261 	andeq	r6, r0, r1, ror #4
      3c:	050a0a03 	streq	r0, [sl, #-2563]	; 0xfffff5fd
      40:	0015cc07 	andseq	ip, r5, r7, lsl #24
      44:	0b0a0300 	bleq	280c4c <_Min_Stack_Size+0x28084c>
      48:	000c2107 	andeq	r2, ip, r7, lsl #2
      4c:	43070400 	movwmi	r0, #29696	; 0x7400
      50:	0400000c 	streq	r0, [r0], #-12
      54:	050c0b03 	streq	r0, [ip, #-2819]	; 0xfffff4fd
      58:	00940f02 	addseq	r0, r4, r2, lsl #30
      5c:	08040300 	stmdaeq	r4, {r8, r9}
      60:	0d050304 	stceq	3, cr0, [r5, #-16]
      64:	000c9e07 	andeq	r9, ip, r7, lsl #28
      68:	32070400 	andcc	r0, r7, #0, 8
      6c:	0400000d 	streq	r0, [r0], #-13
      70:	000d7507 	andeq	r7, sp, r7, lsl #10
      74:	a9070400 	stmdbge	r7, {sl}
      78:	0300000d 	movweq	r0, #13
      7c:	bf070e10 	svclt	0x00070e10
      80:	0400000d 	streq	r0, [r0], #-13
      84:	050f1203 	streq	r1, [pc, #-515]	; fffffe89 <_estack+0xdfffae89>
      88:	00677c0b 	rsbeq	r7, r7, fp, lsl #24
      8c:	090d0300 	stmdbeq	sp, {r8, r9}
      90:	0e0e0304 	cdpeq	3, 0, cr0, cr14, cr4, {0}
      94:	000ecd07 	andeq	ip, lr, r7, lsl #26
      98:	0f030400 	svceq	0x00030400
      9c:	0f5a0710 	svceq	0x005a0710
      a0:	18030000 	stmdane	r3, {}	; <UNPREDICTABLE>
      a4:	0f70070e 	svceq	0x0070070e
      a8:	03040000 	movweq	r0, #16384	; 0x4000
      ac:	0605111b 			; <UNDEFINED> instruction: 0x0605111b
      b0:	00006cb6 			; <UNDEFINED> instruction: 0x00006cb6
      b4:	07020703 	streq	r0, [r2, -r3, lsl #14]
      b8:	00000fb3 			; <UNDEFINED> instruction: 0x00000fb3
      bc:	0a070404 	beq	1c10d4 <_Min_Stack_Size+0x1c0cd4>
      c0:	04000010 	streq	r0, [r0], #-16
      c4:	00103e07 	andseq	r3, r0, r7, lsl #28
      c8:	12220300 	eorne	r0, r2, #0, 6
      cc:	00104e07 	andseq	r4, r0, r7, lsl #28
      d0:	a6070400 	strge	r0, [r7], -r0, lsl #8
      d4:	03000010 	movweq	r0, #16
      d8:	071303ba 			; <UNDEFINED> instruction: 0x071303ba
      dc:	00001134 	andeq	r1, r0, r4, lsr r1
      e0:	11500704 	cmpne	r0, r4, lsl #14
      e4:	03040000 	movweq	r0, #16384	; 0x4000
      e8:	2b051413 	blcs	14513c <_Min_Stack_Size+0x144d3c>
      ec:	0000a4f2 	strdeq	sl, [r0], -r2
      f0:	040e2f03 	streq	r2, [lr], #-3843	; 0xfffff0fd
      f4:	0012c707 	andseq	ip, r2, r7, lsl #14
      f8:	14030400 	strne	r0, [r3], #-1024	; 0xfffffc00
      fc:	44020515 	strmi	r0, [r2], #-1301	; 0xfffffaeb
     100:	0400002e 	streq	r0, [r0], #-46	; 0xffffffd2
     104:	07161603 	ldreq	r1, [r6, -r3, lsl #12]
     108:	00001630 	andeq	r1, r0, r0, lsr r6
     10c:	16460704 	strbne	r0, [r6], -r4, lsl #14
     110:	03040000 	movweq	r0, #16384	; 0x4000
     114:	0903170c 	stmdbeq	r3, {r2, r3, r8, r9, sl, ip}
     118:	dc0a0518 	cfstr32le	mvfx0, [sl], {24}
     11c:	03000008 	movweq	r0, #8
     120:	6f07190d 	svcvs	0x0007190d
     124:	04000016 	streq	r0, [r0], #-22	; 0xffffffea
     128:	07030e03 	streq	r0, [r3, -r3, lsl #28]
     12c:	00001772 	andeq	r1, r0, r2, ror r7
     130:	17dc0704 	ldrbne	r0, [ip, r4, lsl #14]
     134:	05040000 	streq	r0, [r4, #-0]
     138:	0008d30d 	andeq	sp, r8, sp, lsl #6
     13c:	bb070400 	bllt	1c1144 <_Min_Stack_Size+0x1c0d44>
     140:	04000019 	streq	r0, [r0], #-25	; 0xffffffe7
     144:	07050c03 	streq	r0, [r5, -r3, lsl #24]
     148:	00002073 	andeq	r2, r0, r3, ror r0
     14c:	21490704 	cmpcs	r9, r4, lsl #14
     150:	05040000 	streq	r0, [r4, #-0]
     154:	0023281a 	eoreq	r2, r3, sl, lsl r8
     158:	04000400 	streq	r0, [r0], #-1024	; 0xfffffc00
     15c:	00050000 	andeq	r0, r5, r0
     160:	000097d1 	ldrdeq	r9, [r0], -r1
     164:	43fd0005 	mvnsmi	r0, #5
     168:	00050000 	andeq	r0, r5, r0
     16c:	00006830 	andeq	r6, r0, r0, lsr r8
     170:	28030005 	stmdacs	r3, {r0, r2}
     174:	00050000 	andeq	r0, r5, r0
     178:	00000e71 	andeq	r0, r0, r1, ror lr
     17c:	52aa0005 	adcpl	r0, sl, #5
     180:	00050000 	andeq	r0, r5, r0
     184:	00008847 	andeq	r8, r0, r7, asr #16
     188:	25230005 	strcs	r0, [r3, #-5]!
     18c:	00050000 	andeq	r0, r5, r0
     190:	000025c5 	andeq	r2, r0, r5, asr #11
     194:	90770005 	rsbsls	r0, r7, r5
     198:	00050000 	andeq	r0, r5, r0
     19c:	000029af 	andeq	r2, r0, pc, lsr #19
     1a0:	44f80005 	ldrbtmi	r0, [r8], #5
     1a4:	00050000 	andeq	r0, r5, r0
     1a8:	00004de1 	andeq	r4, r0, r1, ror #27
     1ac:	a8a80005 	stmiage	r8!, {r0, r2}
     1b0:	00050000 	andeq	r0, r5, r0
     1b4:	000046cd 	andeq	r4, r0, sp, asr #13
     1b8:	7eb90005 	cdpvc	0, 11, cr0, cr9, cr5, {0}
     1bc:	00050000 	andeq	r0, r5, r0
     1c0:	00009c26 	andeq	r9, r0, r6, lsr #24
     1c4:	20110005 	andscs	r0, r1, r5
     1c8:	00050000 	andeq	r0, r5, r0
     1cc:	00000675 	andeq	r0, r0, r5, ror r6
     1d0:	2cd30005 	ldclcs	0, cr0, [r3], {5}
     1d4:	00050000 	andeq	r0, r5, r0
     1d8:	00002815 	andeq	r2, r0, r5, lsl r8
     1dc:	21270005 			; <UNDEFINED> instruction: 0x21270005
     1e0:	00050000 	andeq	r0, r5, r0
     1e4:	00002e72 	andeq	r2, r0, r2, ror lr
     1e8:	8c6b0005 	stclhi	0, cr0, [fp], #-20	; 0xffffffec
     1ec:	00050000 	andeq	r0, r5, r0
     1f0:	00005e9a 	muleq	r0, sl, lr
     1f4:	70d20005 	sbcsvc	r0, r2, r5
     1f8:	00050000 	andeq	r0, r5, r0
     1fc:	000079b2 			; <UNDEFINED> instruction: 0x000079b2
     200:	12a90005 	adcne	r0, r9, #5
     204:	00050000 	andeq	r0, r5, r0
     208:	00000857 	andeq	r0, r0, r7, asr r8
     20c:	61f70005 	mvnsvs	r0, r5
     210:	00050000 	andeq	r0, r5, r0
     214:	00006a7f 	andeq	r6, r0, pc, ror sl
     218:	1d090005 	stcne	0, cr0, [r9, #-20]	; 0xffffffec
     21c:	00050000 	andeq	r0, r5, r0
     220:	00002237 	andeq	r2, r0, r7, lsr r2
     224:	1eb20005 	cdpne	0, 11, cr0, cr2, cr5, {0}
     228:	00050000 	andeq	r0, r5, r0
     22c:	00000871 	andeq	r0, r0, r1, ror r8
     230:	39a50005 	stmibcc	r5!, {r0, r2}
     234:	00050000 	andeq	r0, r5, r0
     238:	00002ea7 	andeq	r2, r0, r7, lsr #29
     23c:	0ec90005 	cdpeq	0, 12, cr0, cr9, cr5, {0}
     240:	00050000 	andeq	r0, r5, r0
     244:	00008917 	andeq	r8, r0, r7, lsl r9
     248:	87c60005 	strbhi	r0, [r6, r5]
     24c:	00050000 	andeq	r0, r5, r0
     250:	00007d67 	andeq	r7, r0, r7, ror #26
     254:	1f170005 	svcne	0x00170005
     258:	00050000 	andeq	r0, r5, r0
     25c:	00002890 	muleq	r0, r0, r8
     260:	08fc0005 	ldmeq	ip!, {r0, r2}^
     264:	00050000 	andeq	r0, r5, r0
     268:	00000bbf 			; <UNDEFINED> instruction: 0x00000bbf
     26c:	81620005 	cmnhi	r2, r5
     270:	00050000 	andeq	r0, r5, r0
     274:	00005e6a 	andeq	r5, r0, sl, ror #28
     278:	3ae50005 	bcc	ff940294 <_estack+0xdf93b294>
     27c:	00050000 	andeq	r0, r5, r0
     280:	000048c1 	andeq	r4, r0, r1, asr #17
     284:	9ab10005 	bls	fec402a0 <_estack+0xdec3b2a0>
     288:	00050000 	andeq	r0, r5, r0
     28c:	00008cca 	andeq	r8, r0, sl, asr #25
     290:	1d1e0005 	ldcne	0, cr0, [lr, #-20]	; 0xffffffec
     294:	00050000 	andeq	r0, r5, r0
     298:	0000a048 	andeq	sl, r0, r8, asr #32
     29c:	78a30005 	stmiavc	r3!, {r0, r2}
     2a0:	00050000 	andeq	r0, r5, r0
     2a4:	0000aca5 	andeq	sl, r0, r5, lsr #25
     2a8:	6b450005 	blvs	11402c4 <_Min_Stack_Size+0x113fec4>
     2ac:	00050000 	andeq	r0, r5, r0
     2b0:	00007d04 	andeq	r7, r0, r4, lsl #26
     2b4:	88730005 	ldmdahi	r3!, {r0, r2}^
     2b8:	00050000 	andeq	r0, r5, r0
     2bc:	00004cb2 			; <UNDEFINED> instruction: 0x00004cb2
     2c0:	1c620005 	stclne	0, cr0, [r2], #-20	; 0xffffffec
     2c4:	00050000 	andeq	r0, r5, r0
     2c8:	00007c93 	muleq	r0, r3, ip
     2cc:	64f70005 	ldrbtvs	r0, [r7], #5
     2d0:	00050000 	andeq	r0, r5, r0
     2d4:	00000ea7 	andeq	r0, r0, r7, lsr #29
     2d8:	4a3a0005 	bmi	e802f4 <_Min_Stack_Size+0xe7fef4>
     2dc:	00050000 	andeq	r0, r5, r0
     2e0:	00009e34 	andeq	r9, r0, r4, lsr lr
     2e4:	27d00005 	ldrbcs	r0, [r0, r5]
     2e8:	00050000 	andeq	r0, r5, r0
     2ec:	00002fcd 	andeq	r2, r0, sp, asr #31
     2f0:	8b1e0005 	blhi	78030c <_Min_Stack_Size+0x77ff0c>
     2f4:	00050000 	andeq	r0, r5, r0
     2f8:	000012cd 	andeq	r1, r0, sp, asr #5
     2fc:	35e40005 	strbcc	r0, [r4, #5]!
     300:	00050000 	andeq	r0, r5, r0
     304:	00006806 	andeq	r6, r0, r6, lsl #16
     308:	7ac20005 	bvc	ff080324 <_estack+0xdf07b324>
     30c:	00050000 	andeq	r0, r5, r0
     310:	0000ac8e 	andeq	sl, r0, lr, lsl #25
     314:	a4c40005 	strbge	r0, [r4], #5
     318:	00050000 	andeq	r0, r5, r0
     31c:	000072d2 	ldrdeq	r7, [r0], -r2
     320:	05590005 	ldrbeq	r0, [r9, #-5]
     324:	00050000 	andeq	r0, r5, r0
     328:	000054e4 	andeq	r5, r0, r4, ror #9
     32c:	9ffc0005 	svcls	0x00fc0005
     330:	00050000 	andeq	r0, r5, r0
     334:	00009f7b 	andeq	r9, r0, fp, ror pc
     338:	039f0005 	orrseq	r0, pc, #5
     33c:	00050000 	andeq	r0, r5, r0
     340:	0000a3b8 			; <UNDEFINED> instruction: 0x0000a3b8
     344:	49ea0005 	stmibmi	sl!, {r0, r2}^
     348:	00050000 	andeq	r0, r5, r0
     34c:	00006c10 	andeq	r6, r0, r0, lsl ip
     350:	5dd50005 	ldclpl	0, cr0, [r5, #20]
     354:	00050000 	andeq	r0, r5, r0
     358:	00005401 	andeq	r5, r0, r1, lsl #8
     35c:	5a660005 	bpl	1980378 <_Min_Stack_Size+0x197ff78>
     360:	00050000 	andeq	r0, r5, r0
     364:	0000a6f4 	strdeq	sl, [r0], -r4
     368:	9b8a0005 	blls	fe280384 <_estack+0xde27b384>
     36c:	00050000 	andeq	r0, r5, r0
     370:	00001448 	andeq	r1, r0, r8, asr #8
     374:	9f210005 	svcls	0x00210005
     378:	00050000 	andeq	r0, r5, r0
     37c:	00000424 	andeq	r0, r0, r4, lsr #8
     380:	03e00005 	mvneq	r0, #5
     384:	00050000 	andeq	r0, r5, r0
     388:	0000ab19 	andeq	sl, r0, r9, lsl fp
     38c:	1cdc0005 	ldclne	0, cr0, [ip], {5}
     390:	00050000 	andeq	r0, r5, r0
     394:	000007d3 	ldrdeq	r0, [r0], -r3
     398:	90f40005 	rscsls	r0, r4, r5
     39c:	00050000 	andeq	r0, r5, r0
     3a0:	00003ed1 	ldrdeq	r3, [r0], -r1
     3a4:	95b70005 	ldrls	r0, [r7, #5]!
     3a8:	00050000 	andeq	r0, r5, r0
     3ac:	00004751 	andeq	r4, r0, r1, asr r7
     3b0:	93fa0005 	mvnsls	r0, #5
     3b4:	00050000 	andeq	r0, r5, r0
     3b8:	00004b22 	andeq	r4, r0, r2, lsr #22
     3bc:	50ca0005 	sbcpl	r0, sl, r5
     3c0:	00050000 	andeq	r0, r5, r0
     3c4:	00003350 	andeq	r3, r0, r0, asr r3
     3c8:	2b310005 	blcs	c403e4 <_Min_Stack_Size+0xc3ffe4>
     3cc:	00050000 	andeq	r0, r5, r0
     3d0:	0000439d 	muleq	r0, sp, r3
     3d4:	43430005 	movtmi	r0, #12293	; 0x3005
     3d8:	00050000 	andeq	r0, r5, r0
     3dc:	00004463 	andeq	r4, r0, r3, ror #8
     3e0:	74730005 	ldrbtvc	r0, [r3], #-5
     3e4:	00050000 	andeq	r0, r5, r0
     3e8:	0000a015 	andeq	sl, r0, r5, lsl r0
     3ec:	363d0005 	ldrtcc	r0, [sp], -r5
     3f0:	00050000 	andeq	r0, r5, r0
     3f4:	0000a754 	andeq	sl, r0, r4, asr r7
     3f8:	41070005 	tstmi	r7, r5
     3fc:	00050000 	andeq	r0, r5, r0
     400:	0000237f 	andeq	r2, r0, pc, ror r3
     404:	320f0005 	andcc	r0, pc, #5
     408:	00050000 	andeq	r0, r5, r0
     40c:	0000213b 	andeq	r2, r0, fp, lsr r1
     410:	4b790005 	blmi	1e4042c <_Min_Stack_Size+0x1e4002c>
     414:	00050000 	andeq	r0, r5, r0
     418:	00008cf1 	strdeq	r8, [r0], -r1
     41c:	46e00005 	strbtmi	r0, [r0], r5
     420:	00050000 	andeq	r0, r5, r0
     424:	0000817a 	andeq	r8, r0, sl, ror r1
     428:	0bb00005 	bleq	fec00444 <_estack+0xdebfb444>
     42c:	00050000 	andeq	r0, r5, r0
     430:	000025a9 	andeq	r2, r0, r9, lsr #11
     434:	8ec30005 	cdphi	0, 12, cr0, cr3, cr5, {0}
     438:	00050000 	andeq	r0, r5, r0
     43c:	00004631 	andeq	r4, r0, r1, lsr r6
     440:	37bd0005 	ldrcc	r0, [sp, r5]!
     444:	00050000 	andeq	r0, r5, r0
     448:	000078e6 	andeq	r7, r0, r6, ror #17
     44c:	4c9b0005 	ldcmi	0, cr0, [fp], {5}
     450:	00050000 	andeq	r0, r5, r0
     454:	00009829 	andeq	r9, r0, r9, lsr #16
     458:	68190005 	ldmdavs	r9, {r0, r2}
     45c:	00050000 	andeq	r0, r5, r0
     460:	00007ed0 	ldrdeq	r7, [r0], -r0
     464:	15db0005 	ldrbne	r0, [fp, #5]
     468:	00050000 	andeq	r0, r5, r0
     46c:	00002991 	muleq	r0, r1, r9
     470:	27750005 	ldrbcs	r0, [r5, -r5]!
     474:	00050000 	andeq	r0, r5, r0
     478:	00001ac8 	andeq	r1, r0, r8, asr #21
     47c:	11d00005 	bicsne	r0, r0, r5
     480:	00050000 	andeq	r0, r5, r0
     484:	000014f9 	strdeq	r1, [r0], -r9
     488:	16df0005 	ldrbne	r0, [pc], r5
     48c:	00050000 	andeq	r0, r5, r0
     490:	00001fdd 	ldrdeq	r1, [r0], -sp
     494:	5ae00005 	bpl	ff8004b0 <_estack+0xdf7fb4b0>
     498:	00050000 	andeq	r0, r5, r0
     49c:	0000168b 	andeq	r1, r0, fp, lsl #13
     4a0:	5b800005 	blpl	fe0004bc <_estack+0xddffb4bc>
     4a4:	00050000 	andeq	r0, r5, r0
     4a8:	0000103d 	andeq	r1, r0, sp, lsr r0
     4ac:	694d0005 	stmdbvs	sp, {r0, r2}^
     4b0:	00050000 	andeq	r0, r5, r0
     4b4:	00004855 	andeq	r4, r0, r5, asr r8
     4b8:	678b0005 	strvs	r0, [fp, r5]
     4bc:	00050000 	andeq	r0, r5, r0
     4c0:	000049b3 			; <UNDEFINED> instruction: 0x000049b3
     4c4:	413c0005 	teqmi	ip, r5
     4c8:	00050000 	andeq	r0, r5, r0
     4cc:	0000564f 	andeq	r5, r0, pc, asr #12
     4d0:	4e380005 	cdpmi	0, 3, cr0, cr8, cr5, {0}
     4d4:	00050000 	andeq	r0, r5, r0
     4d8:	000066ee 	andeq	r6, r0, lr, ror #13
     4dc:	65b10005 	ldrvs	r0, [r1, #5]!
     4e0:	00050000 	andeq	r0, r5, r0
     4e4:	00007a48 	andeq	r7, r0, r8, asr #20
     4e8:	1ffd0005 	svcne	0x00fd0005
     4ec:	00050000 	andeq	r0, r5, r0
     4f0:	0000287a 	andeq	r2, r0, sl, ror r8
     4f4:	22dd0005 	sbcscs	r0, sp, #5
     4f8:	00050000 	andeq	r0, r5, r0
     4fc:	00003088 	andeq	r3, r0, r8, lsl #1
     500:	79d80005 	ldmibvc	r8, {r0, r2}^
     504:	00050000 	andeq	r0, r5, r0
     508:	00003026 	andeq	r3, r0, r6, lsr #32
     50c:	388e0005 	stmcc	lr, {r0, r2}
     510:	00050000 	andeq	r0, r5, r0
     514:	0000366d 	andeq	r3, r0, sp, ror #12
     518:	08e70005 	stmiaeq	r7!, {r0, r2}^
     51c:	00050000 	andeq	r0, r5, r0
     520:	000046f9 	strdeq	r4, [r0], -r9
     524:	6d420005 	stclvs	0, cr0, [r2, #-20]	; 0xffffffec
     528:	00050000 	andeq	r0, r5, r0
     52c:	000085d3 	ldrdeq	r8, [r0], -r3
     530:	ab700005 	blge	1c0054c <_Min_Stack_Size+0x1c0014c>
     534:	00050000 	andeq	r0, r5, r0
     538:	00008bbb 			; <UNDEFINED> instruction: 0x00008bbb
     53c:	75340005 	ldrvc	r0, [r4, #-5]!
     540:	00050000 	andeq	r0, r5, r0
     544:	0000127f 	andeq	r1, r0, pc, ror r2
     548:	4dbe0005 	ldcmi	0, cr0, [lr, #20]!
     54c:	00050000 	andeq	r0, r5, r0
     550:	000006ba 			; <UNDEFINED> instruction: 0x000006ba
     554:	93100005 	tstls	r0, #5
     558:	00050000 	andeq	r0, r5, r0
     55c:	0000a0a1 	andeq	sl, r0, r1, lsr #1
     560:	63750005 	cmnvs	r5, #5
     564:	00050000 	andeq	r0, r5, r0
     568:	00001b0a 	andeq	r1, r0, sl, lsl #22
     56c:	46530005 	ldrbmi	r0, [r3], -r5
     570:	00050000 	andeq	r0, r5, r0
     574:	0000647f 	andeq	r6, r0, pc, ror r4
     578:	34370005 	ldrtcc	r0, [r7], #-5
     57c:	00050000 	andeq	r0, r5, r0
     580:	000090dd 	ldrdeq	r9, [r0], -sp
     584:	89d90005 	ldmibhi	r9, {r0, r2}^
     588:	00050000 	andeq	r0, r5, r0
     58c:	00001fc6 	andeq	r1, r0, r6, asr #31
     590:	0b540005 	bleq	15005ac <_Min_Stack_Size+0x15001ac>
     594:	00050000 	andeq	r0, r5, r0
     598:	00009efa 	strdeq	r9, [r0], -sl
     59c:	09e10005 	stmibeq	r1!, {r0, r2}^
     5a0:	00050000 	andeq	r0, r5, r0
     5a4:	00006cf8 	strdeq	r6, [r0], -r8
     5a8:	338b0005 	orrcc	r0, fp, #5
     5ac:	00050000 	andeq	r0, r5, r0
     5b0:	000063d8 	ldrdeq	r6, [r0], -r8
     5b4:	00560005 	subseq	r0, r6, r5
     5b8:	00050000 	andeq	r0, r5, r0
     5bc:	000097dc 	ldrdeq	r9, [r0], -ip
     5c0:	55cb0005 	strbpl	r0, [fp, #5]
     5c4:	00050000 	andeq	r0, r5, r0
     5c8:	00007063 	andeq	r7, r0, r3, rrx
     5cc:	8dcb0005 	stclhi	0, cr0, [fp, #20]
     5d0:	00050000 	andeq	r0, r5, r0
     5d4:	00004cf2 	strdeq	r4, [r0], -r2
     5d8:	509d0005 	addspl	r0, sp, r5
     5dc:	00050000 	andeq	r0, r5, r0
     5e0:	00007556 	andeq	r7, r0, r6, asr r5
     5e4:	3d720005 	ldclcc	0, cr0, [r2, #-20]!	; 0xffffffec
     5e8:	00050000 	andeq	r0, r5, r0
     5ec:	0000187b 	andeq	r1, r0, fp, ror r8
     5f0:	7ad60005 	bvc	ff58060c <_estack+0xdf57b60c>
     5f4:	00050000 	andeq	r0, r5, r0
     5f8:	00004c0f 	andeq	r4, r0, pc, lsl #24
     5fc:	76020005 	strvc	r0, [r2], -r5
     600:	00050000 	andeq	r0, r5, r0
     604:	00001068 	andeq	r1, r0, r8, rrx
     608:	6f630005 	svcvs	0x00630005
     60c:	00050000 	andeq	r0, r5, r0
     610:	00001dd7 	ldrdeq	r1, [r0], -r7
     614:	0f5b0005 	svceq	0x005b0005
     618:	00050000 	andeq	r0, r5, r0
     61c:	0000098a 	andeq	r0, r0, sl, lsl #19
     620:	8b930005 	blhi	fe4c063c <_estack+0xde4bb63c>
     624:	00050000 	andeq	r0, r5, r0
     628:	0000aa85 	andeq	sl, r0, r5, lsl #21
     62c:	09160005 	ldmdbeq	r6, {r0, r2}
     630:	00050000 	andeq	r0, r5, r0
     634:	0000621e 	andeq	r6, r0, lr, lsl r2
     638:	4c340005 	ldcmi	0, cr0, [r4], #-20	; 0xffffffec
     63c:	00050000 	andeq	r0, r5, r0
     640:	00009846 	andeq	r9, r0, r6, asr #16
     644:	a1130005 	tstge	r3, r5
     648:	00050000 	andeq	r0, r5, r0
     64c:	00003d0d 	andeq	r3, r0, sp, lsl #26
     650:	30ac0005 	adccc	r0, ip, r5
     654:	00050000 	andeq	r0, r5, r0
     658:	00000718 	andeq	r0, r0, r8, lsl r7
     65c:	9fd10005 	svcls	0x00d10005
     660:	00050000 	andeq	r0, r5, r0
     664:	00008ed3 	ldrdeq	r8, [r0], -r3
     668:	11860005 	orrne	r0, r6, r5
     66c:	00050000 	andeq	r0, r5, r0
     670:	00005cfc 	strdeq	r5, [r0], -ip
     674:	26dd0005 	ldrbcs	r0, [sp], r5
     678:	00050000 	andeq	r0, r5, r0
     67c:	00000456 	andeq	r0, r0, r6, asr r4
     680:	0c4c0005 	mcrreq	0, 0, r0, ip, cr5
     684:	00050000 	andeq	r0, r5, r0
     688:	00004f60 	andeq	r4, r0, r0, ror #30
     68c:	5d7f0005 	ldclpl	0, cr0, [pc, #-20]!	; 680 <_Min_Stack_Size+0x280>
     690:	00050000 	andeq	r0, r5, r0
     694:	000095cf 	andeq	r9, r0, pc, asr #11
     698:	00e90005 	rsceq	r0, r9, r5
     69c:	00050000 	andeq	r0, r5, r0
     6a0:	000066d7 	ldrdeq	r6, [r0], -r7
     6a4:	02080005 	andeq	r0, r8, #5
     6a8:	00050000 	andeq	r0, r5, r0
     6ac:	000065c8 	andeq	r6, r0, r8, asr #11
     6b0:	79340005 	ldmdbvc	r4!, {r0, r2}
     6b4:	00050000 	andeq	r0, r5, r0
     6b8:	0000a6b6 			; <UNDEFINED> instruction: 0x0000a6b6
     6bc:	7dc00005 	stclvc	0, cr0, [r0, #20]
     6c0:	00050000 	andeq	r0, r5, r0
     6c4:	00008858 	andeq	r8, r0, r8, asr r8
     6c8:	1ee00005 	cdpne	0, 14, cr0, cr0, cr5, {0}
     6cc:	00050000 	andeq	r0, r5, r0
     6d0:	000045f6 	strdeq	r4, [r0], -r6
     6d4:	3e370005 	cdpcc	0, 3, cr0, cr7, cr5, {0}
     6d8:	00050000 	andeq	r0, r5, r0
     6dc:	00001af0 	strdeq	r1, [r0], -r0
     6e0:	84e90005 	strbthi	r0, [r9], #5
     6e4:	00050000 	andeq	r0, r5, r0
     6e8:	00006ebe 			; <UNDEFINED> instruction: 0x00006ebe
     6ec:	5ca40005 	stcpl	0, cr0, [r4], #20
     6f0:	00050000 	andeq	r0, r5, r0
     6f4:	00001bfc 	strdeq	r1, [r0], -ip
     6f8:	28280005 	stmdacs	r8!, {r0, r2}
     6fc:	00050000 	andeq	r0, r5, r0
     700:	00004e20 	andeq	r4, r0, r0, lsr #28
     704:	190a0005 	stmdbne	sl, {r0, r2}
     708:	00050000 	andeq	r0, r5, r0
     70c:	00000f16 	andeq	r0, r0, r6, lsl pc
     710:	40a30005 	adcmi	r0, r3, r5
     714:	00050000 	andeq	r0, r5, r0
     718:	000007c1 	andeq	r0, r0, r1, asr #15
     71c:	61780005 	cmnvs	r8, r5
     720:	00050000 	andeq	r0, r5, r0
     724:	000047fb 	strdeq	r4, [r0], -fp
     728:	2fb40005 	svccs	0x00b40005
     72c:	00050000 	andeq	r0, r5, r0
     730:	0000122e 	andeq	r1, r0, lr, lsr #4
     734:	4cdf0005 	ldclmi	0, cr0, [pc], {5}
     738:	00050000 	andeq	r0, r5, r0
     73c:	000031fc 	strdeq	r3, [r0], -ip
     740:	32830005 	addcc	r0, r3, #5
     744:	00050000 	andeq	r0, r5, r0
     748:	00001018 	andeq	r1, r0, r8, lsl r0
     74c:	41dd0005 	bicsmi	r0, sp, r5
     750:	00050000 	andeq	r0, r5, r0
     754:	000024f2 	strdeq	r2, [r0], -r2	; <UNPREDICTABLE>
     758:	79110005 	ldmdbvc	r1, {r0, r2}
     75c:	00050000 	andeq	r0, r5, r0
     760:	0000072e 	andeq	r0, r0, lr, lsr #14
     764:	28c80005 	stmiacs	r8, {r0, r2}^
     768:	00050000 	andeq	r0, r5, r0
     76c:	00006f48 	andeq	r6, r0, r8, asr #30
     770:	63520005 	cmpvs	r2, #5
     774:	00050000 	andeq	r0, r5, r0
     778:	0000741b 	andeq	r7, r0, fp, lsl r4
     77c:	18660005 	stmdane	r6!, {r0, r2}^
     780:	00050000 	andeq	r0, r5, r0
     784:	0000600d 	andeq	r6, r0, sp
     788:	54c70005 	strbpl	r0, [r7], #5
     78c:	00050000 	andeq	r0, r5, r0
     790:	00005e87 	andeq	r5, r0, r7, lsl #29
     794:	74810005 	strvc	r0, [r1], #5
     798:	00050000 	andeq	r0, r5, r0
     79c:	0000053b 	andeq	r0, r0, fp, lsr r5
     7a0:	69e00005 	stmibvs	r0!, {r0, r2}^
     7a4:	00050000 	andeq	r0, r5, r0
     7a8:	00006dc7 	andeq	r6, r0, r7, asr #27
     7ac:	11680005 	cmnne	r8, r5
     7b0:	00050000 	andeq	r0, r5, r0
     7b4:	0000ab84 	andeq	sl, r0, r4, lsl #23
     7b8:	81070005 	tsthi	r7, r5
     7bc:	00050000 	andeq	r0, r5, r0
     7c0:	00007ce2 	andeq	r7, r0, r2, ror #25
     7c4:	8bca0005 	blhi	ff2807e0 <_estack+0xdf27b7e0>
     7c8:	00050000 	andeq	r0, r5, r0
     7cc:	0000a0ff 	strdeq	sl, [r0], -pc	; <UNPREDICTABLE>
     7d0:	9c660005 	stclls	0, cr0, [r6], #-20	; 0xffffffec
     7d4:	00050000 	andeq	r0, r5, r0
     7d8:	0000166a 	andeq	r1, r0, sl, ror #12
     7dc:	8a550005 	bhi	15407f8 <_Min_Stack_Size+0x15403f8>
     7e0:	00050000 	andeq	r0, r5, r0
     7e4:	0000a682 	andeq	sl, r0, r2, lsl #13
     7e8:	0e830005 	cdpeq	0, 8, cr0, cr3, cr5, {0}
     7ec:	00050000 	andeq	r0, r5, r0
     7f0:	00005145 	andeq	r5, r0, r5, asr #2
     7f4:	6cdf0005 	ldclvs	0, cr0, [pc], {5}
     7f8:	00050000 	andeq	r0, r5, r0
     7fc:	00001e4e 	andeq	r1, r0, lr, asr #28
     800:	973c0005 	ldrls	r0, [ip, -r5]!
     804:	00050000 	andeq	r0, r5, r0
     808:	00007748 	andeq	r7, r0, r8, asr #14
     80c:	7b9b0005 	blvc	fe6c0828 <_estack+0xde6bb828>
     810:	00050000 	andeq	r0, r5, r0
     814:	00007cc0 	andeq	r7, r0, r0, asr #25
     818:	267b0005 	ldrbtcs	r0, [fp], -r5
     81c:	00050000 	andeq	r0, r5, r0
     820:	00009d4d 	andeq	r9, r0, sp, asr #26
     824:	3bfc0005 	blcc	fff00840 <_estack+0xdfefb840>
     828:	00050000 	andeq	r0, r5, r0
     82c:	00006628 	andeq	r6, r0, r8, lsr #12
     830:	09730005 	ldmdbeq	r3!, {r0, r2}^
     834:	00050000 	andeq	r0, r5, r0
     838:	000007a4 	andeq	r0, r0, r4, lsr #15
     83c:	1cbe0005 	ldcne	0, cr0, [lr], #20
     840:	00050000 	andeq	r0, r5, r0
     844:	00001a42 	andeq	r1, r0, r2, asr #20
     848:	8e030005 	cdphi	0, 0, cr0, cr3, cr5, {0}
     84c:	00050000 	andeq	r0, r5, r0
     850:	000077fa 	strdeq	r7, [r0], -sl
     854:	47100005 	ldrmi	r0, [r0, -r5]
     858:	00050000 	andeq	r0, r5, r0
     85c:	00009ec0 	andeq	r9, r0, r0, asr #29
     860:	541e0005 	ldrpl	r0, [lr], #-5
     864:	00050000 	andeq	r0, r5, r0
     868:	00001a87 	andeq	r1, r0, r7, lsl #21
     86c:	382f0005 	stmdacc	pc!, {r0, r2}	; <UNPREDICTABLE>
     870:	00050000 	andeq	r0, r5, r0
     874:	00004f27 	andeq	r4, r0, r7, lsr #30
     878:	66fc0005 	ldrbtvs	r0, [ip], r5
     87c:	00050000 	andeq	r0, r5, r0
     880:	00002627 	andeq	r2, r0, r7, lsr #12
     884:	15a10005 	strne	r0, [r1, #5]!
     888:	00050000 	andeq	r0, r5, r0
     88c:	00009805 	andeq	r9, r0, r5, lsl #16
     890:	7d3f0005 	ldcvc	0, cr0, [pc, #-20]!	; 884 <_Min_Stack_Size+0x484>
     894:	00050000 	andeq	r0, r5, r0
     898:	000056b2 			; <UNDEFINED> instruction: 0x000056b2
     89c:	93940005 	orrsls	r0, r4, #5
     8a0:	00050000 	andeq	r0, r5, r0
     8a4:	00007aae 	andeq	r7, r0, lr, lsr #21
     8a8:	558e0005 	strpl	r0, [lr, #5]
     8ac:	00050000 	andeq	r0, r5, r0
     8b0:	0000800a 	andeq	r8, r0, sl
     8b4:	9edb0005 	cdpls	0, 13, cr0, cr11, cr5, {0}
     8b8:	00050000 	andeq	r0, r5, r0
     8bc:	00008784 	andeq	r8, r0, r4, lsl #15
     8c0:	4a5b0005 	bmi	16c08dc <_Min_Stack_Size+0x16c04dc>
     8c4:	00050000 	andeq	r0, r5, r0
     8c8:	000002bc 			; <UNDEFINED> instruction: 0x000002bc
     8cc:	42980005 	addsmi	r0, r8, #5
     8d0:	00050000 	andeq	r0, r5, r0
     8d4:	00002504 	andeq	r2, r0, r4, lsl #10
     8d8:	2ce60005 	stclcs	0, cr0, [r6], #20
     8dc:	00050000 	andeq	r0, r5, r0
     8e0:	00009689 	andeq	r9, r0, r9, lsl #13
     8e4:	990e0005 	stmdbls	lr, {r0, r2}
     8e8:	00050000 	andeq	r0, r5, r0
     8ec:	000065fc 	strdeq	r6, [r0], -ip
     8f0:	7b1b0005 	blvc	6c090c <_Min_Stack_Size+0x6c050c>
     8f4:	00050000 	andeq	r0, r5, r0
     8f8:	0000a067 	andeq	sl, r0, r7, rrx
     8fc:	86da0005 	ldrbhi	r0, [sl], r5
     900:	00050000 	andeq	r0, r5, r0
     904:	0000a346 	andeq	sl, r0, r6, asr #6
     908:	a8ee0005 	stmiage	lr!, {r0, r2}^
     90c:	00050000 	andeq	r0, r5, r0
     910:	000012eb 	andeq	r1, r0, fp, ror #5
     914:	08490005 	stmdaeq	r9, {r0, r2}^
     918:	00050000 	andeq	r0, r5, r0
     91c:	00007b4d 	andeq	r7, r0, sp, asr #22
     920:	81360005 	teqhi	r6, r5
     924:	00050000 	andeq	r0, r5, r0
     928:	00002b8e 	andeq	r2, r0, lr, lsl #23
     92c:	04480005 	strbeq	r0, [r8], #-5
     930:	00050000 	andeq	r0, r5, r0
     934:	00000f73 	andeq	r0, r0, r3, ror pc
     938:	550c0005 	strpl	r0, [ip, #-5]
     93c:	00050000 	andeq	r0, r5, r0
     940:	00001395 	muleq	r0, r5, r3
     944:	7bba0005 	blvc	fee80960 <_estack+0xdee7b960>
     948:	00050000 	andeq	r0, r5, r0
     94c:	00001299 	muleq	r0, r9, r2
     950:	88380005 	ldmdahi	r8!, {r0, r2}
     954:	00050000 	andeq	r0, r5, r0
     958:	00006365 	andeq	r6, r0, r5, ror #6
     95c:	4e9d0005 	cdpmi	0, 9, cr0, cr13, cr5, {0}
     960:	00050000 	andeq	r0, r5, r0
     964:	00007e1e 	andeq	r7, r0, lr, lsl lr
     968:	84b20005 	ldrthi	r0, [r2], #5
     96c:	00050000 	andeq	r0, r5, r0
     970:	00003059 	andeq	r3, r0, r9, asr r0
     974:	15be0005 	ldrne	r0, [lr, #5]!
     978:	00050000 	andeq	r0, r5, r0
     97c:	000084c9 	andeq	r8, r0, r9, asr #9
     980:	48190005 	ldmdami	r9, {r0, r2}
     984:	00050000 	andeq	r0, r5, r0
     988:	00003597 	muleq	r0, r7, r5
     98c:	a7720005 	ldrbge	r0, [r2, -r5]!
     990:	00050000 	andeq	r0, r5, r0
     994:	00003db0 			; <UNDEFINED> instruction: 0x00003db0
     998:	712b0005 			; <UNDEFINED> instruction: 0x712b0005
     99c:	00050000 	andeq	r0, r5, r0
     9a0:	000000af 	andeq	r0, r0, pc, lsr #1
     9a4:	41ba0005 			; <UNDEFINED> instruction: 0x41ba0005
     9a8:	00050000 	andeq	r0, r5, r0
     9ac:	00006c92 	muleq	r0, r2, ip
     9b0:	2f000005 	svccs	0x00000005
     9b4:	00050000 	andeq	r0, r5, r0
     9b8:	00001ca2 	andeq	r1, r0, r2, lsr #25
     9bc:	8f540005 	svchi	0x00540005
     9c0:	00050000 	andeq	r0, r5, r0
     9c4:	00002279 	andeq	r2, r0, r9, ror r2
     9c8:	96790005 	ldrbtls	r0, [r9], -r5
     9cc:	00050000 	andeq	r0, r5, r0
     9d0:	00008b7e 	andeq	r8, r0, lr, ror fp
     9d4:	432c0005 			; <UNDEFINED> instruction: 0x432c0005
     9d8:	00050000 	andeq	r0, r5, r0
     9dc:	00009e9a 	muleq	r0, sl, lr
     9e0:	8fd10005 	svchi	0x00d10005
     9e4:	00050000 	andeq	r0, r5, r0
     9e8:	0000017c 	andeq	r0, r0, ip, ror r1
     9ec:	0de20005 	stcleq	0, cr0, [r2, #20]!
     9f0:	00050000 	andeq	r0, r5, r0
     9f4:	00009b22 	andeq	r9, r0, r2, lsr #22
     9f8:	775a0005 	ldrbvc	r0, [sl, -r5]
     9fc:	00050000 	andeq	r0, r5, r0
     a00:	00001d3e 	andeq	r1, r0, lr, lsr sp
     a04:	94210005 	strtls	r0, [r1], #-5
     a08:	00050000 	andeq	r0, r5, r0
     a0c:	00004d62 	andeq	r4, r0, r2, ror #26
     a10:	25390005 	ldrcs	r0, [r9, #-5]!
     a14:	00050000 	andeq	r0, r5, r0
     a18:	0000015b 	andeq	r0, r0, fp, asr r1
     a1c:	38e20005 	stmiacc	r2!, {r0, r2}^
     a20:	00050000 	andeq	r0, r5, r0
     a24:	00008935 	andeq	r8, r0, r5, lsr r9
     a28:	3fdd0005 	svccc	0x00dd0005
     a2c:	00050000 	andeq	r0, r5, r0
     a30:	000009c2 	andeq	r0, r0, r2, asr #19
     a34:	3c560005 	mrrccc	0, 0, r0, r6, cr5
     a38:	00050000 	andeq	r0, r5, r0
     a3c:	0000447b 	andeq	r4, r0, fp, ror r4
     a40:	77280005 	strvc	r0, [r8, -r5]!
     a44:	00050000 	andeq	r0, r5, r0
     a48:	000047cb 	andeq	r4, r0, fp, asr #15
     a4c:	2e8b0005 	cdpcs	0, 8, cr0, cr11, cr5, {0}
     a50:	00050000 	andeq	r0, r5, r0
     a54:	00009daa 	andeq	r9, r0, sl, lsr #27
     a58:	97850005 	strls	r0, [r5, r5]
     a5c:	00050000 	andeq	r0, r5, r0
     a60:	00006a00 	andeq	r6, r0, r0, lsl #20
     a64:	5b6e0006 	blpl	1b80a84 <_Min_Stack_Size+0x1b80684>
     a68:	00050000 	andeq	r0, r5, r0
     a6c:	0000449c 	muleq	r0, ip, r4
     a70:	93270005 			; <UNDEFINED> instruction: 0x93270005
     a74:	00060000 	andeq	r0, r6, r0
     a78:	0000788e 	andeq	r7, r0, lr, lsl #17
     a7c:	97b70005 	ldrls	r0, [r7, r5]!
     a80:	00060000 	andeq	r0, r6, r0
     a84:	00007219 	andeq	r7, r0, r9, lsl r2
     a88:	96b80006 	ldrtls	r0, [r8], r6
     a8c:	00060000 	andeq	r0, r6, r0
     a90:	00009ad3 	ldrdeq	r9, [r0], -r3
     a94:	450b0006 	strmi	r0, [fp, #-6]
     a98:	00050000 	andeq	r0, r5, r0
     a9c:	0000742d 	andeq	r7, r0, sp, lsr #8
     aa0:	486d0006 	stmdami	sp!, {r1, r2}^
     aa4:	00060000 	andeq	r0, r6, r0
     aa8:	0000569f 	muleq	r0, pc, r6	; <UNPREDICTABLE>
     aac:	685a0006 	ldmdavs	sl, {r1, r2}^
     ab0:	00050000 	andeq	r0, r5, r0
     ab4:	0000a5b4 			; <UNDEFINED> instruction: 0x0000a5b4
     ab8:	44b10005 	ldrtmi	r0, [r1], #5
     abc:	00060000 	andeq	r0, r6, r0
     ac0:	000088e2 	andeq	r8, r0, r2, ror #17
     ac4:	a6a10006 	strtge	r0, [r1], r6
     ac8:	00050000 	andeq	r0, r5, r0
     acc:	00006e90 	muleq	r0, r0, lr
     ad0:	45df0005 	ldrbmi	r0, [pc, #5]	; add <_Min_Stack_Size+0x6dd>
     ad4:	00060000 	andeq	r0, r6, r0
     ad8:	00005e57 	andeq	r5, r0, r7, asr lr
     adc:	25fb0005 	ldrbcs	r0, [fp, #5]!
     ae0:	00050000 	andeq	r0, r5, r0
     ae4:	00006eee 	andeq	r6, r0, lr, ror #29
     ae8:	a4530006 	ldrbge	r0, [r3], #-6
     aec:	00050000 	andeq	r0, r5, r0
     af0:	000055f1 	strdeq	r5, [r0], -r1
     af4:	4ba20005 	blmi	fe880b10 <_estack+0xde87bb10>
     af8:	00050000 	andeq	r0, r5, r0
     afc:	00009d69 	andeq	r9, r0, r9, ror #26
     b00:	231c0005 	tstcs	ip, #5
     b04:	00050000 	andeq	r0, r5, r0
     b08:	00009ae9 	andeq	r9, r0, r9, ror #21
     b0c:	85ea0005 	strbhi	r0, [sl, #5]!
     b10:	00060000 	andeq	r0, r6, r0
     b14:	000039e8 	andeq	r3, r0, r8, ror #19
     b18:	72740005 	rsbsvc	r0, r4, #5
     b1c:	00050000 	andeq	r0, r5, r0
     b20:	0000a2af 	andeq	sl, r0, pc, lsr #5
     b24:	49750005 	ldmdbmi	r5!, {r0, r2}^
     b28:	00050000 	andeq	r0, r5, r0
     b2c:	00003ad8 	ldrdeq	r3, [r0], -r8
     b30:	5b0a0006 	blpl	280b50 <_Min_Stack_Size+0x280750>
     b34:	00060000 	andeq	r0, r6, r0
     b38:	000048aa 	andeq	r4, r0, sl, lsr #17
     b3c:	702b0006 	eorvc	r0, fp, r6
     b40:	00060000 	andeq	r0, r6, r0
     b44:	0000693d 	andeq	r6, r0, sp, lsr r9
     b48:	89880006 	stmibhi	r8, {r1, r2}
     b4c:	00060000 	andeq	r0, r6, r0
     b50:	00001f39 	andeq	r1, r0, r9, lsr pc
     b54:	41760006 	cmnmi	r6, r6
     b58:	00060000 	andeq	r0, r6, r0
     b5c:	00007d2d 	andeq	r7, r0, sp, lsr #26
     b60:	1dac0006 	stcne	0, cr0, [ip, #24]!
     b64:	00060000 	andeq	r0, r6, r0
     b68:	000032f8 	strdeq	r3, [r0], -r8
     b6c:	62490006 	subvs	r0, r9, #6
     b70:	00050000 	andeq	r0, r5, r0
     b74:	00001e38 	andeq	r1, r0, r8, lsr lr
     b78:	1c450005 	mcrrne	0, 0, r0, r5, cr5
     b7c:	00050000 	andeq	r0, r5, r0
     b80:	00003e69 	andeq	r3, r0, r9, ror #28
     b84:	85740005 	ldrbhi	r0, [r4, #-5]!
     b88:	00060000 	andeq	r0, r6, r0
     b8c:	00003067 	andeq	r3, r0, r7, rrx
     b90:	3e510005 	cdpcc	0, 5, cr0, cr1, cr5, {0}
     b94:	00050000 	andeq	r0, r5, r0
     b98:	00006a6a 	andeq	r6, r0, sl, ror #20
     b9c:	99f50005 	ldmibls	r5!, {r0, r2}^
     ba0:	00060000 	andeq	r0, r6, r0
     ba4:	000090b2 	strheq	r9, [r0], -r2
     ba8:	63f00005 	mvnsvs	r0, #5
     bac:	00060000 	andeq	r0, r6, r0
     bb0:	00008df1 	strdeq	r8, [r0], -r1
     bb4:	acd40006 	ldclge	0, cr0, [r4], {6}
     bb8:	00060000 	andeq	r0, r6, r0
     bbc:	00003d27 	andeq	r3, r0, r7, lsr #26
     bc0:	08240006 	stmdaeq	r4!, {r1, r2}
     bc4:	00060000 	andeq	r0, r6, r0
     bc8:	00007006 	andeq	r7, r0, r6
     bcc:	81440006 	cmphi	r4, r6
     bd0:	00050000 	andeq	r0, r5, r0
     bd4:	0000663b 	andeq	r6, r0, fp, lsr r6
     bd8:	3c7a0005 	ldclcc	0, cr0, [sl], #-20	; 0xffffffec
     bdc:	00050000 	andeq	r0, r5, r0
     be0:	000092a1 	andeq	r9, r0, r1, lsr #5
     be4:	19c90005 	stmibne	r9, {r0, r2}^
     be8:	00050000 	andeq	r0, r5, r0
     bec:	0000716a 	andeq	r7, r0, sl, ror #2
     bf0:	a9340005 	ldmdbge	r4!, {r0, r2}
     bf4:	00050000 	andeq	r0, r5, r0
     bf8:	00002c03 	andeq	r2, r0, r3, lsl #24
     bfc:	00000400 	andeq	r0, r0, r0, lsl #8
     c00:	6cc94d05 	stclvs	13, cr4, [r9], {5}
     c04:	62050000 	andvs	r0, r5, #0
     c08:	00002f10 	andeq	r2, r0, r0, lsl pc
     c0c:	63c56305 	bicvs	r6, r5, #335544320	; 0x14000000
     c10:	fe050000 	cdp2	0, 0, cr0, cr5, cr0, {0}
     c14:	006b6803 	rsbeq	r6, fp, r3, lsl #16
     c18:	04810500 	streq	r0, [r1], #1280	; 0x500
     c1c:	00003d41 	andeq	r3, r0, r1, asr #26
     c20:	00000400 	andeq	r0, r0, r0, lsl #8
     c24:	551b0405 	ldrpl	r0, [fp, #-1029]	; 0xfffffbfb
     c28:	06050000 	streq	r0, [r5], -r0
     c2c:	00000026 	andeq	r0, r0, r6, lsr #32
     c30:	222a0705 	eorcs	r0, sl, #1310720	; 0x140000
     c34:	08050000 	stmdaeq	r5, {}	; <UNPREDICTABLE>
     c38:	00006591 	muleq	r0, r1, r5
     c3c:	794d0905 	stmdbvc	sp, {r0, r2, r8, fp}^
     c40:	04000000 	streq	r0, [r0], #-0
     c44:	1b050000 	blne	140c4c <_Min_Stack_Size+0x14084c>
     c48:	000055a5 	andeq	r5, r0, r5, lsr #11
     c4c:	5de62705 	stclpl	7, cr2, [r6, #20]!
     c50:	2b050000 	blcs	140c58 <_Min_Stack_Size+0x140858>
     c54:	00008583 	andeq	r8, r0, r3, lsl #11
     c58:	24d42e05 	ldrbcs	r2, [r4], #3589	; 0xe05
     c5c:	e3050000 	movw	r0, #20480	; 0x5000
     c60:	000e9802 	andeq	r9, lr, r2, lsl #16
     c64:	02e60500 	rsceq	r0, r6, #0, 10
     c68:	00009056 	andeq	r9, r0, r6, asr r0
     c6c:	d802ec05 	stmdale	r2, {r0, r2, sl, fp, sp, lr, pc}
     c70:	05000034 	streq	r0, [r0, #-52]	; 0xffffffcc
     c74:	aa4c02ef 	bge	1301838 <_Min_Stack_Size+0x1301438>
     c78:	f2050000 	vhadd.s8	d0, d5, d0
     c7c:	00199a02 	andseq	r9, r9, r2, lsl #20
     c80:	02f50500 	rscseq	r0, r5, #0, 10
     c84:	00009dbf 			; <UNDEFINED> instruction: 0x00009dbf
     c88:	d002f805 	andle	pc, r2, r5, lsl #16
     c8c:	05000091 	streq	r0, [r0, #-145]	; 0xffffff6f
     c90:	60900391 	umullsvs	r0, r0, r1, r3	; <UNPREDICTABLE>
     c94:	9b050000 	blls	140c9c <_Min_Stack_Size+0x14089c>
     c98:	00792203 	rsbseq	r2, r9, r3, lsl #4
     c9c:	00040000 	andeq	r0, r4, r0
     ca0:	dc160500 	cfldr32le	mvfx0, [r6], {-0}
     ca4:	0500002d 	streq	r0, [r0, #-45]	; 0xffffffd3
     ca8:	00181221 	andseq	r1, r8, r1, lsr #4
     cac:	b5280500 	strlt	r0, [r8, #-1280]!	; 0xfffffb00
     cb0:	0600008a 	streq	r0, [r0], -sl, lsl #1
     cb4:	9b120183 	blls	4812c8 <_Min_Stack_Size+0x480ec8>
     cb8:	84050000 	strhi	r0, [r5], #-0
     cbc:	004bdc01 	subeq	sp, fp, r1, lsl #24
     cc0:	01880600 	orreq	r0, r8, r0, lsl #12
     cc4:	000048e4 	andeq	r4, r0, r4, ror #17
     cc8:	d5018905 	strle	r8, [r1, #-2309]	; 0xfffff6fb
     ccc:	0600009d 			; <UNDEFINED> instruction: 0x0600009d
     cd0:	ab09018a 	blge	241300 <_Min_Stack_Size+0x240f00>
     cd4:	8b050000 	blhi	140cdc <_Min_Stack_Size+0x1408dc>
     cd8:	001f8b01 	andseq	r8, pc, r1, lsl #22
     cdc:	019e0600 	orrseq	r0, lr, r0, lsl #12
     ce0:	000043d1 	ldrdeq	r4, [r0], -r1
     ce4:	8a019f05 	bhi	68900 <_Min_Stack_Size+0x68500>
     ce8:	05000061 	streq	r0, [r0, #-97]	; 0xffffff9f
     cec:	6d8601f7 	stfvss	f0, [r6, #988]	; 0x3dc
     cf0:	fd050000 	stc2	0, cr0, [r5, #-0]
     cf4:	005f1901 	subseq	r1, pc, r1, lsl #18
     cf8:	02850500 	addeq	r0, r5, #0, 10
     cfc:	00007b8b 	andeq	r7, r0, fp, lsl #23
     d00:	f1028a05 			; <UNDEFINED> instruction: 0xf1028a05
     d04:	0500006f 	streq	r0, [r0, #-111]	; 0xffffff91
     d08:	21e20295 			; <UNDEFINED> instruction: 0x21e20295
     d0c:	99050000 	stmdbls	r5, {}	; <UNPREDICTABLE>
     d10:	0076aa02 	rsbseq	sl, r6, r2, lsl #20
     d14:	029f0500 	addseq	r0, pc, #0, 10
     d18:	0000076f 	andeq	r0, r0, pc, ror #14
     d1c:	be02af05 	cdplt	15, 0, cr10, cr2, cr5, {0}
     d20:	05000000 	streq	r0, [r0, #-0]
     d24:	951402bf 	ldrls	r0, [r4, #-703]	; 0xfffffd41
     d28:	cb050000 	blgt	140d30 <_Min_Stack_Size+0x140930>
     d2c:	0094b702 	addseq	fp, r4, r2, lsl #14
     d30:	00040000 	andeq	r0, r4, r0
     d34:	01e00500 	mvneq	r0, r0, lsl #10
     d38:	00006eac 	andeq	r6, r0, ip, lsr #29
     d3c:	fb01e606 	blx	7a55e <_Min_Stack_Size+0x7a15e>
     d40:	05000048 	streq	r0, [r0, #-72]	; 0xffffffb8
     d44:	16a501ea 	strtne	r0, [r5], sl, ror #3
     d48:	f8050000 			; <UNDEFINED> instruction: 0xf8050000
     d4c:	006b3b01 	rsbeq	r3, fp, r1, lsl #22
     d50:	01fc0500 	mvnseq	r0, r0, lsl #10
     d54:	00006c5b 	andeq	r6, r0, fp, asr ip
     d58:	c2028305 	andgt	r8, r2, #335544320	; 0x14000000
     d5c:	05000029 	streq	r0, [r0, #-41]	; 0xffffffd7
     d60:	6c220289 	sfmvs	f0, 4, [r2], #-548	; 0xfffffddc
     d64:	96050000 	strls	r0, [r5], -r0
     d68:	0098dd02 	addseq	sp, r8, r2, lsl #26
     d6c:	02a20500 	adceq	r0, r2, #0, 10
     d70:	00004b3c 	andeq	r4, r0, ip, lsr fp
     d74:	00000400 	andeq	r0, r0, r0, lsl #8
     d78:	6de41f05 	stclvs	15, cr1, [r4, #20]!
     d7c:	20050000 	andcs	r0, r5, r0
     d80:	00003742 	andeq	r3, r0, r2, asr #14
     d84:	62572105 	subsvs	r2, r7, #1073741825	; 0x40000001
     d88:	25050000 	strcs	r0, [r5, #-0]
     d8c:	000003ba 			; <UNDEFINED> instruction: 0x000003ba
     d90:	908a2b05 	addls	r2, sl, r5, lsl #22
     d94:	45050000 	strmi	r0, [r5, #-0]
     d98:	00001324 	andeq	r1, r0, r4, lsr #6
     d9c:	1c794905 			; <UNDEFINED> instruction: 0x1c794905
     da0:	4a050000 	bmi	140da8 <_Min_Stack_Size+0x1409a8>
     da4:	00008a33 	andeq	r8, r0, r3, lsr sl
     da8:	00000400 	andeq	r0, r0, r0, lsl #8
     dac:	304a0d05 	subcc	r0, sl, r5, lsl #26
     db0:	0e050000 	cdpeq	0, 0, cr0, cr5, cr0, {0}
     db4:	00002f4b 	andeq	r2, r0, fp, asr #30
     db8:	4bcf0f05 	blmi	ff3c49d4 <_estack+0xdf3bf9d4>
     dbc:	04000000 	streq	r0, [r0], #-0
     dc0:	b5050000 	strlt	r0, [r5, #-0]
     dc4:	001cb201 	andseq	fp, ip, r1, lsl #4
     dc8:	01b60500 			; <UNDEFINED> instruction: 0x01b60500
     dcc:	00000f31 	andeq	r0, r0, r1, lsr pc
     dd0:	5401b705 	strpl	fp, [r1], #-1797	; 0xfffff8fb
     dd4:	0500009b 	streq	r0, [r0, #-155]	; 0xffffff65
     dd8:	194d01b8 	stmdbne	sp, {r3, r4, r5, r7, r8}^
     ddc:	b9050000 	stmdblt	r5, {}	; <UNPREDICTABLE>
     de0:	0049a901 	subeq	sl, r9, r1, lsl #18
     de4:	01ba0500 			; <UNDEFINED> instruction: 0x01ba0500
     de8:	00001276 	andeq	r1, r0, r6, ror r2
     dec:	4c01bb05 			; <UNDEFINED> instruction: 0x4c01bb05
     df0:	05000075 	streq	r0, [r0, #-117]	; 0xffffff8b
     df4:	829501bc 	addshi	r0, r5, #188, 2	; 0x2f
     df8:	bd050000 	stclt	0, cr0, [r5, #-0]
     dfc:	00829101 	addeq	r9, r2, r1, lsl #2
     e00:	01be0500 			; <UNDEFINED> instruction: 0x01be0500
     e04:	000027b4 			; <UNDEFINED> instruction: 0x000027b4
     e08:	3c01bf05 	stccc	15, cr11, [r1], {5}
     e0c:	0500007b 	streq	r0, [r0, #-123]	; 0xffffff85
     e10:	27b001c0 	ldrcs	r0, [r0, r0, asr #3]!
     e14:	c1050000 	mrsgt	r0, (UNDEF: 5)
     e18:	001efd01 	andseq	pc, lr, r1, lsl #26
     e1c:	01c20500 	biceq	r0, r2, r0, lsl #10
     e20:	000027f2 	strdeq	r2, [r0], -r2	; <UNPREDICTABLE>
     e24:	5001c305 	andpl	ip, r1, r5, lsl #6
     e28:	0500009b 	streq	r0, [r0, #-155]	; 0xffffff65
     e2c:	3d6901c4 	stfcce	f0, [r9, #-784]!	; 0xfffffcf0
     e30:	cb050000 	blgt	140e38 <_Min_Stack_Size+0x140a38>
     e34:	0011a201 	andseq	sl, r1, r1, lsl #4
     e38:	01e70600 	mvneq	r0, r0, lsl #12
     e3c:	000055bd 			; <UNDEFINED> instruction: 0x000055bd
     e40:	eb028405 	bl	a1e5c <_Min_Stack_Size+0xa1a5c>
     e44:	05000056 	streq	r0, [r0, #-86]	; 0xffffffaa
     e48:	6a210285 	bvs	841864 <_Min_Stack_Size+0x841464>
     e4c:	86050000 	strhi	r0, [r5], -r0
     e50:	006add02 	rsbeq	sp, sl, r2, lsl #26
     e54:	02870500 	addeq	r0, r7, #0, 10
     e58:	00005413 	andeq	r5, r0, r3, lsl r4
     e5c:	71028805 	tstvc	r2, r5, lsl #16
     e60:	05000083 	streq	r0, [r0, #-131]	; 0xffffff7d
     e64:	5d3e0289 	lfmpl	f0, 4, [lr, #-548]!	; 0xfffffddc
     e68:	8a050000 	bhi	140e70 <_Min_Stack_Size+0x140a70>
     e6c:	00868302 	addeq	r8, r6, r2, lsl #6
     e70:	028b0500 	addeq	r0, fp, #0, 10
     e74:	0000867f 	andeq	r8, r0, pc, ror r6
     e78:	21028c05 	tstcs	r2, r5, lsl #24
     e7c:	050000a9 	streq	r0, [r0, #-169]	; 0xffffff57
     e80:	7ff8028d 	svcvc	0x00f8028d
     e84:	8e050000 	cdphi	0, 0, cr0, cr5, cr0, {0}
     e88:	0084dd02 	addeq	sp, r4, r2, lsl #26
     e8c:	028f0500 	addeq	r0, pc, #0, 10
     e90:	0000995e 	andeq	r9, r0, lr, asr r9
     e94:	d8029005 	stmdale	r2, {r0, r2, ip, pc}
     e98:	05000084 	streq	r0, [r0, #-132]	; 0xffffff7c
     e9c:	6ad90291 	bvs	ff6418e8 <_estack+0xdf63c8e8>
     ea0:	92050000 	andls	r0, r5, #0
     ea4:	00671902 	rsbeq	r1, r7, r2, lsl #18
     ea8:	029f0600 	addseq	r0, pc, #0, 12
     eac:	00009c37 	andeq	r9, r0, r7, lsr ip
     eb0:	5902d406 	stmdbpl	r2, {r1, r2, sl, ip, lr, pc}
     eb4:	06000010 			; <UNDEFINED> instruction: 0x06000010
     eb8:	42e00386 	rscmi	r0, r0, #402653186	; 0x18000002
     ebc:	8b050000 	blhi	140ec4 <_Min_Stack_Size+0x140ac4>
     ec0:	0041fb03 	subeq	pc, r1, r3, lsl #22
     ec4:	03910600 	orrseq	r0, r1, #0, 12
     ec8:	000042d9 	ldrdeq	r4, [r0], -r9
     ecc:	00000400 	andeq	r0, r0, r0, lsl #8
     ed0:	515e2705 	cmppl	lr, r5, lsl #14
     ed4:	28050000 	stmdacs	r5, {}	; <UNPREDICTABLE>
     ed8:	000074c2 	andeq	r7, r0, r2, asr #9
     edc:	51592a05 	cmppl	r9, r5, lsl #20
     ee0:	83050000 	movwhi	r0, #20480	; 0x5000
     ee4:	00710101 	rsbseq	r0, r1, r1, lsl #2
     ee8:	01840500 	orreq	r0, r4, r0, lsl #10
     eec:	00005019 	andeq	r5, r0, r9, lsl r0
     ef0:	e3018505 	movw	r8, #5381	; 0x1505
     ef4:	05000068 	streq	r0, [r0, #-104]	; 0xffffff98
     ef8:	7bad0186 	blvc	feb41518 <_estack+0xdeb3c518>
     efc:	87050000 	strhi	r0, [r5, -r0]
     f00:	00112301 	andseq	r2, r1, r1, lsl #6
     f04:	01880500 	orreq	r0, r8, r0, lsl #10
     f08:	0000111f 	andeq	r1, r0, pc, lsl r1
     f0c:	13018905 	movwne	r8, #6405	; 0x1905
     f10:	0500004f 	streq	r0, [r0, #-79]	; 0xffffffb1
     f14:	70fd018a 	rscsvc	r0, sp, sl, lsl #3
     f18:	8b050000 	blhi	140f20 <_Min_Stack_Size+0x140b20>
     f1c:	006c7d01 	rsbeq	r7, ip, r1, lsl #26
     f20:	019b0600 	orrseq	r0, fp, r0, lsl #12
     f24:	000092eb 	andeq	r9, r0, fp, ror #5
     f28:	bd01e706 	stclt	7, cr14, [r1, #-24]	; 0xffffffe8
     f2c:	06000055 			; <UNDEFINED> instruction: 0x06000055
     f30:	105902d4 	ldrsbne	r0, [r9], #-36	; 0xffffffdc
     f34:	86060000 	strhi	r0, [r6], -r0
     f38:	0042e003 	subeq	lr, r2, r3
     f3c:	038b0500 	orreq	r0, fp, #0, 10
     f40:	000041fb 	strdeq	r4, [r0], -fp
     f44:	d9039106 	stmdble	r3, {r1, r2, r8, ip, pc}
     f48:	05000042 	streq	r0, [r0, #-66]	; 0xffffffbe
     f4c:	4c630396 	stclmi	3, cr0, [r3], #-600	; 0xfffffda8
     f50:	9b050000 	blls	140f58 <_Min_Stack_Size+0x140b58>
     f54:	00896a03 	addeq	r6, r9, r3, lsl #20
     f58:	00040000 	andeq	r0, r4, r0
     f5c:	27140500 	ldrcs	r0, [r4, -r0, lsl #10]
     f60:	05000099 	streq	r0, [r0, #-153]	; 0xffffff67
     f64:	00304a16 	eorseq	r4, r0, r6, lsl sl
     f68:	b1170500 	tstlt	r7, r0, lsl #10
     f6c:	0000009e 	muleq	r0, lr, r0
     f70:	06000004 	streq	r0, [r0], -r4
     f74:	92eb019b 	rscls	r0, fp, #-1073741786	; 0xc0000026
     f78:	e7060000 	str	r0, [r6, -r0]
     f7c:	0055bd01 	subseq	fp, r5, r1, lsl #26
     f80:	02d40600 	sbcseq	r0, r4, #0, 12
     f84:	00001059 	andeq	r1, r0, r9, asr r0
     f88:	f902d905 			; <UNDEFINED> instruction: 0xf902d905
     f8c:	0600002f 	streq	r0, [r0], -pc, lsr #32
     f90:	2a6b02e0 	bcs	1ac1b18 <_Min_Stack_Size+0x1ac1718>
     f94:	86060000 	strhi	r0, [r6], -r0
     f98:	0042e003 	subeq	lr, r2, r3
     f9c:	038b0500 	orreq	r0, fp, #0, 10
     fa0:	000041fb 	strdeq	r4, [r0], -fp
     fa4:	d9039106 	stmdble	r3, {r1, r2, r8, ip, pc}
     fa8:	05000042 	streq	r0, [r0, #-66]	; 0xffffffbe
     fac:	4c630396 	stclmi	3, cr0, [r3], #-600	; 0xfffffda8
     fb0:	04000000 	streq	r0, [r0], #-0
     fb4:	06050000 	streq	r0, [r5], -r0
     fb8:	000070b7 	strheq	r7, [r0], -r7	; <UNPREDICTABLE>
     fbc:	61b70f05 			; <UNDEFINED> instruction: 0x61b70f05
     fc0:	1a050000 	bne	140fc8 <_Min_Stack_Size+0x140bc8>
     fc4:	00007eee 	andeq	r7, r0, lr, ror #29
     fc8:	933b2105 	teqls	fp, #1073741825	; 0x40000001
     fcc:	2f050000 	svccs	0x00050000
     fd0:	000047e7 	andeq	r4, r0, r7, ror #15
     fd4:	33633d05 	cmncc	r3, #320	; 0x140
     fd8:	53050000 	movwpl	r0, #20480	; 0x5000
     fdc:	00005dc0 	andeq	r5, r0, r0, asr #27
     fe0:	770d6d05 	strvc	r6, [sp, -r5, lsl #26]
     fe4:	8c050000 	stchi	0, cr0, [r5], {-0}
     fe8:	006a5001 	rsbeq	r5, sl, r1
     fec:	01a60500 			; <UNDEFINED> instruction: 0x01a60500
     ff0:	00001c2a 	andeq	r1, r0, sl, lsr #24
     ff4:	7d01bc05 	stcvc	12, cr11, [r1, #-20]	; 0xffffffec
     ff8:	05000042 	streq	r0, [r0, #-66]	; 0xffffffbe
     ffc:	602901ce 	eorvs	r0, r9, lr, asr #3
    1000:	f4060000 	vst4.8	{d0-d3}, [r6], r0
    1004:	00770701 	rsbseq	r0, r7, r1, lsl #14
    1008:	00040000 	andeq	r0, r4, r0
    100c:	cf7f0600 	svcgt	0x007f0600
    1010:	05000079 	streq	r0, [r0, #-121]	; 0xffffff87
    1014:	45740192 	ldrbmi	r0, [r4, #-402]!	; 0xfffffe6e
    1018:	94060000 	strls	r0, [r6], #-0
    101c:	008e2b01 	addeq	r2, lr, r1, lsl #22
    1020:	01b30500 			; <UNDEFINED> instruction: 0x01b30500
    1024:	00002154 	andeq	r2, r0, r4, asr r1
    1028:	6c01bb05 			; <UNDEFINED> instruction: 0x6c01bb05
    102c:	05000021 	streq	r0, [r0, #-33]	; 0xffffffdf
    1030:	83fa01c0 	mvnshi	r0, #192, 2	; 0x30
    1034:	c9050000 	stmdbgt	r5, {}	; <UNPREDICTABLE>
    1038:	004b6101 	subeq	r6, fp, r1, lsl #2
    103c:	00040000 	andeq	r0, r4, r0
    1040:	99110500 	ldmdbls	r1, {r8, sl}
    1044:	05000092 	streq	r0, [r0, #-146]	; 0xffffff6e
    1048:	00897c15 	addeq	r7, r9, r5, lsl ip
    104c:	00040000 	andeq	r0, r4, r0
    1050:	1a020500 	bne	82458 <_Min_Stack_Size+0x82058>
    1054:	050000aa 	streq	r0, [r0, #-170]	; 0xffffff56
    1058:	00240823 	eoreq	r0, r4, r3, lsr #16
    105c:	f5250500 			; <UNDEFINED> instruction: 0xf5250500
    1060:	05000002 	streq	r0, [r0, #-2]
    1064:	00874a27 	addeq	r4, r7, r7, lsr #20
    1068:	9a2a0500 	bls	a82470 <_Min_Stack_Size+0xa82070>
    106c:	0500001a 	streq	r0, [r0, #-26]	; 0xffffffe6
    1070:	00a8662c 	adceq	r6, r8, ip, lsr #12
    1074:	9c2e0500 	cfstr32ls	mvfx0, [lr], #-0
    1078:	0500009b 	streq	r0, [r0, #-155]	; 0xffffff65
    107c:	004a9530 	subeq	r9, sl, r0, lsr r5
    1080:	c5320500 	ldrgt	r0, [r2, #-1280]!	; 0xfffffb00
    1084:	05000044 	streq	r0, [r0, #-68]	; 0xffffffbc
    1088:	00a5ca34 	adceq	ip, r5, r4, lsr sl
    108c:	7a360500 	bvc	d82494 <_Min_Stack_Size+0xd82094>
    1090:	0500007f 	streq	r0, [r0, #-127]	; 0xffffff81
    1094:	00344c38 	eorseq	r4, r4, r8, lsr ip
    1098:	543b0500 	ldrtpl	r0, [fp], #-1280	; 0xfffffb00
    109c:	0500001a 	streq	r0, [r0, #-26]	; 0xffffffe6
    10a0:	0026963d 	eoreq	r9, r6, sp, lsr r6
    10a4:	00040000 	andeq	r0, r4, r0
    10a8:	ae4d0500 	cdpge	5, 4, cr0, cr13, cr0, {0}
    10ac:	05000081 	streq	r0, [r0, #-129]	; 0xffffff7f
    10b0:	00993660 	addseq	r3, r9, r0, ror #12
    10b4:	01910500 	orrseq	r0, r1, r0, lsl #10
    10b8:	0000296b 	andeq	r2, r0, fp, ror #18
    10bc:	52029a05 	andpl	r9, r2, #20480	; 0x5000
    10c0:	05000089 	streq	r0, [r0, #-137]	; 0xffffff77
    10c4:	4e85029b 	mcrmi	2, 4, r0, cr5, cr11, {4}
    10c8:	9c050000 	stcls	0, cr0, [r5], {-0}
    10cc:	006c6502 	rsbeq	r6, ip, r2, lsl #10
    10d0:	029d0500 	addseq	r0, sp, #0, 10
    10d4:	00009112 	andeq	r9, r0, r2, lsl r1
    10d8:	ff029e05 			; <UNDEFINED> instruction: 0xff029e05
    10dc:	05000088 	streq	r0, [r0, #-136]	; 0xffffff78
    10e0:	6842029f 	stmdavs	r2, {r0, r1, r2, r3, r4, r7, r9}^
    10e4:	a0050000 	andge	r0, r5, r0
    10e8:	00a57a02 	adceq	r7, r5, r2, lsl #20
    10ec:	02ac0500 	adceq	r0, ip, #0, 10
    10f0:	000013e9 	andeq	r1, r0, r9, ror #7
    10f4:	b202ad05 	andlt	sl, r2, #320	; 0x140
    10f8:	050000aa 	streq	r0, [r0, #-170]	; 0xffffff56
    10fc:	04ae02ae 	strteq	r0, [lr], #686	; 0x2ae
    1100:	b9050000 	stmdblt	r5, {}	; <UNPREDICTABLE>
    1104:	002cfb02 	eoreq	pc, ip, r2, lsl #22
    1108:	02ba0500 	adcseq	r0, sl, #0, 10
    110c:	0000322e 	andeq	r3, r0, lr, lsr #4
    1110:	6902bb05 	stmdbvs	r2, {r0, r2, r8, r9, fp, ip, sp, pc}
    1114:	05000095 	streq	r0, [r0, #-149]	; 0xffffff6b
    1118:	8c2202bc 	sfmhi	f0, 4, [r2], #-752	; 0xfffffd10
    111c:	bd050000 	stclt	0, cr0, [r5, #-0]
    1120:	005da802 	subseq	sl, sp, r2, lsl #16
    1124:	03980500 	orrseq	r0, r8, #0, 10
    1128:	0000a12c 	andeq	sl, r0, ip, lsr #2
    112c:	e203b205 	and	fp, r3, #1342177280	; 0x50000000
    1130:	00000062 	andeq	r0, r0, r2, rrx
    1134:	06000004 	streq	r0, [r0], -r4
    1138:	0087430b 	addeq	r4, r7, fp, lsl #6
    113c:	ed100500 	cfldr32	mvfx0, [r0, #-0]
    1140:	05000050 	streq	r0, [r0, #-80]	; 0xffffffb0
    1144:	005fc51a 	subseq	ip, pc, sl, lsl r5	; <UNPREDICTABLE>
    1148:	2d2d0500 	cfstr32cs	mvfx0, [sp, #-0]
    114c:	00000087 	andeq	r0, r0, r7, lsl #1
    1150:	05000004 	streq	r0, [r0, #-4]
    1154:	719103bb 			; <UNDEFINED> instruction: 0x719103bb
    1158:	c5050000 	strgt	r0, [r5, #-0]
    115c:	00174a03 	andseq	r4, r7, r3, lsl #20
    1160:	03ce0500 	biceq	r0, lr, #0, 10
    1164:	00000faf 	andeq	r0, r0, pc, lsr #31
    1168:	4d03d205 	sfmmi	f5, 1, [r3, #-20]	; 0xffffffec
    116c:	0500003f 	streq	r0, [r0, #-63]	; 0xffffffc1
    1170:	09fa03d7 	ldmibeq	sl!, {r0, r1, r2, r4, r6, r7, r8, r9}^
    1174:	e2050000 	and	r0, r5, #0
    1178:	00915b03 	addseq	r5, r1, r3, lsl #22
    117c:	03e50500 	mvneq	r0, #0, 10
    1180:	00005b94 	muleq	r0, r4, fp
    1184:	fa03eb05 	blx	fbda0 <_Min_Stack_Size+0xfb9a0>
    1188:	05000060 	streq	r0, [r0, #-96]	; 0xffffffa0
    118c:	5b1303ee 	blpl	4c214c <_Min_Stack_Size+0x4c1d4c>
    1190:	f1050000 			; <UNDEFINED> instruction: 0xf1050000
    1194:	00572803 	subseq	r2, r7, r3, lsl #16
    1198:	04870500 	streq	r0, [r7], #1280	; 0x500
    119c:	0000686e 	andeq	r6, r0, lr, ror #16
    11a0:	e1048a05 	tst	r4, r5, lsl #20
    11a4:	05000004 	streq	r0, [r0, #-4]
    11a8:	2ec3048d 	cdpcs	4, 12, cr0, cr3, cr13, {4}
    11ac:	8e050000 	cdphi	0, 0, cr0, cr5, cr0, {0}
    11b0:	00809e04 	addeq	r9, r0, r4, lsl #28
    11b4:	048f0500 	streq	r0, [pc], #1280	; 11bc <_Min_Stack_Size+0xdbc>
    11b8:	000021b5 			; <UNDEFINED> instruction: 0x000021b5
    11bc:	cf049005 	svcgt	0x00049005
    11c0:	0500005c 	streq	r0, [r0, #-92]	; 0xffffffa4
    11c4:	02720491 	rsbseq	r0, r2, #-1862270976	; 0x91000000
    11c8:	92050000 	andls	r0, r5, #0
    11cc:	009f3304 	addseq	r3, pc, r4, lsl #6
    11d0:	04930500 	ldreq	r0, [r3], #1280	; 0x500
    11d4:	000020f7 	strdeq	r2, [r0], -r7
    11d8:	24049405 	strcs	r9, [r4], #-1029	; 0xfffffbfb
    11dc:	05000040 	streq	r0, [r0, #-64]	; 0xffffffc0
    11e0:	83a60495 			; <UNDEFINED> instruction: 0x83a60495
    11e4:	96050000 	strls	r0, [r5], -r0
    11e8:	004fbe04 	subeq	fp, pc, r4, lsl #28
    11ec:	04970500 	ldreq	r0, [r7], #1280	; 0x500
    11f0:	00004982 	andeq	r4, r0, r2, lsl #19
    11f4:	68049805 	stmdavs	r4, {r0, r2, fp, ip, pc}
    11f8:	05000043 	streq	r0, [r0, #-67]	; 0xffffffbd
    11fc:	9e650499 	mcrls	4, 3, r0, cr5, cr9, {4}
    1200:	9a050000 	bls	141208 <_Min_Stack_Size+0x140e08>
    1204:	00384404 	eorseq	r4, r8, r4, lsl #8
    1208:	049b0500 	ldreq	r0, [fp], #1280	; 0x500
    120c:	00006f7e 	andeq	r6, r0, lr, ror pc
    1210:	48049c05 	stmdami	r4, {r0, r2, sl, fp, ip, pc}
    1214:	05000064 	streq	r0, [r0, #-100]	; 0xffffff9c
    1218:	1623049d 			; <UNDEFINED> instruction: 0x1623049d
    121c:	9e050000 	cdpls	0, 0, cr0, cr5, cr0, {0}
    1220:	0007e704 	andeq	lr, r7, r4, lsl #14
    1224:	049f0500 	ldreq	r0, [pc], #1280	; 122c <_Min_Stack_Size+0xe2c>
    1228:	00005395 	muleq	r0, r5, r3
    122c:	0704a005 	streq	sl, [r4, -r5]
    1230:	0500000d 	streq	r0, [r0, #-13]
    1234:	8c3c04a1 	cfldrshi	mvf0, [ip], #-644	; 0xfffffd7c
    1238:	a2050000 	andge	r0, r5, #0
    123c:	007a0e04 	rsbseq	r0, sl, r4, lsl #28
    1240:	04a30500 	strteq	r0, [r3], #1280	; 0x500
    1244:	00003246 	andeq	r3, r0, r6, asr #4
    1248:	3f05d305 	svccc	0x0005d305
    124c:	0500008b 	streq	r0, [r0, #-139]	; 0xffffff75
    1250:	99ac05d4 	stmibls	ip!, {r2, r4, r6, r7, r8, sl}
    1254:	d5050000 	strle	r0, [r5, #-0]
    1258:	007e6605 	rsbseq	r6, lr, r5, lsl #12
    125c:	05d60500 	ldrbeq	r0, [r6, #1280]	; 0x500
    1260:	00006d5a 	andeq	r6, r0, sl, asr sp
    1264:	9b05d705 	blls	176e80 <_Min_Stack_Size+0x176a80>
    1268:	05000034 	streq	r0, [r0, #-52]	; 0xffffffcc
    126c:	357705d8 	ldrbcc	r0, [r7, #-1496]!	; 0xfffffa28
    1270:	d9050000 	stmdble	r5, {}	; <UNPREDICTABLE>
    1274:	005c7e05 	subseq	r7, ip, r5, lsl #28
    1278:	05da0500 	ldrbeq	r0, [sl, #1280]	; 0x500
    127c:	00004253 	andeq	r4, r0, r3, asr r2
    1280:	a605db05 	strge	sp, [r5], -r5, lsl #22
    1284:	05000035 	streq	r0, [r0, #-53]	; 0xffffffcb
    1288:	9d8405dc 	cfstr32ls	mvfx0, [r4, #880]	; 0x370
    128c:	dd050000 	stcle	0, cr0, [r5, #-0]
    1290:	00565f05 	subseq	r5, r6, r5, lsl #30
    1294:	05df0500 	ldrbeq	r0, [pc, #1280]	; 179c <_Min_Stack_Size+0x139c>
    1298:	000073a6 	andeq	r7, r0, r6, lsr #7
    129c:	e405ea05 	str	lr, [r5], #-2565	; 0xfffff5fb
    12a0:	0500000e 	streq	r0, [r0, #-14]
    12a4:	657605f0 	ldrbvs	r0, [r6, #-1520]!	; 0xfffffa10
    12a8:	fd050000 	stc2	0, cr0, [r5, #-0]
    12ac:	00337805 	eorseq	r7, r3, r5, lsl #16
    12b0:	06800500 	streq	r0, [r0], r0, lsl #10
    12b4:	00004a6f 	andeq	r4, r0, pc, ror #20
    12b8:	d9068205 	stmdble	r6, {r0, r2, r9, pc}
    12bc:	05000064 	streq	r0, [r0, #-100]	; 0xffffff9c
    12c0:	04c406e1 	strbeq	r0, [r4], #1761	; 0x6e1
    12c4:	04000000 	streq	r0, [r0], #-0
    12c8:	31050000 	mrscc	r0, (UNDEF: 5)
    12cc:	000040bd 	strheq	r4, [r0], -sp
    12d0:	7a013205 	bvc	4daec <_Min_Stack_Size+0x4d6ec>
    12d4:	33050000 	movwcc	r0, #20480	; 0x5000
    12d8:	000060a4 	andeq	r6, r0, r4, lsr #1
    12dc:	859a3605 	ldrhi	r3, [sl, #1541]	; 0x605
    12e0:	39050000 	stmdbcc	r5, {}	; <UNPREDICTABLE>
    12e4:	000062c5 	andeq	r6, r0, r5, asr #5
    12e8:	a02c3a05 	eorge	r3, ip, r5, lsl #20
    12ec:	3c050000 	stccc	0, cr0, [r5], {-0}
    12f0:	000049d4 	ldrdeq	r4, [r0], -r4	; <UNPREDICTABLE>
    12f4:	38ce3d05 	stmiacc	lr, {r0, r2, r8, sl, fp, ip, sp}^
    12f8:	3e050000 	cdpcc	0, 0, cr0, cr5, cr0, {0}
    12fc:	0000278d 	andeq	r2, r0, sp, lsl #15
    1300:	93a83f05 			; <UNDEFINED> instruction: 0x93a83f05
    1304:	42050000 	andmi	r0, r5, #0
    1308:	000011ac 	andeq	r1, r0, ip, lsr #3
    130c:	0d6f4305 	stcleq	3, cr4, [pc, #-20]!	; 1300 <_Min_Stack_Size+0xf00>
    1310:	44050000 	strmi	r0, [r5], #-0
    1314:	00008a27 	andeq	r8, r0, r7, lsr #20
    1318:	15374e05 	ldrne	r4, [r7, #-3589]!	; 0xfffff1fb
    131c:	51050000 	mrspl	r0, (UNDEF: 5)
    1320:	000070ea 	andeq	r7, r0, sl, ror #1
    1324:	77eb5e05 	strbvc	r5, [fp, r5, lsl #28]!
    1328:	5f050000 	svcpl	0x00050000
    132c:	00008d6d 	andeq	r8, r0, sp, ror #26
    1330:	97f46b05 	ldrbls	r6, [r4, r5, lsl #22]!
    1334:	6c050000 	stcvs	0, cr0, [r5], {-0}
    1338:	00004f9b 	muleq	r0, fp, pc	; <UNPREDICTABLE>
    133c:	060c7005 	streq	r7, [ip], -r5
    1340:	71050000 	mrsvc	r0, (UNDEF: 5)
    1344:	0000000f 	andeq	r0, r0, pc
    1348:	8d067305 	stchi	3, cr7, [r6, #-20]	; 0xffffffec
    134c:	75050000 	strvc	r0, [r5, #-0]
    1350:	0000172a 	andeq	r1, r0, sl, lsr #14
    1354:	3a957805 	bcc	fe55f370 <_estack+0xde55a370>
    1358:	79050000 	stmdbvc	r5, {}	; <UNPREDICTABLE>
    135c:	000094cd 	andeq	r9, r0, sp, asr #9
    1360:	85577a05 	ldrbhi	r7, [r7, #-2565]	; 0xfffff5fb
    1364:	7d050000 	stcvc	0, cr0, [r5, #-0]
    1368:	0000786f 	andeq	r7, r0, pc, ror #16
    136c:	0d018205 	sfmeq	f0, 1, [r1, #-20]	; 0xffffffec
    1370:	050000a3 	streq	r0, [r0, #-163]	; 0xffffff5d
    1374:	710d0184 	smlabbvc	sp, r4, r1, r0
    1378:	85050000 	strhi	r0, [r5, #-0]
    137c:	00285a01 	eoreq	r5, r8, r1, lsl #20
    1380:	01870500 	orreq	r0, r7, r0, lsl #10
    1384:	000063a9 	andeq	r6, r0, r9, lsr #7
    1388:	19018a05 	stmdbne	r1, {r0, r2, r9, fp, pc}
    138c:	05000001 	streq	r0, [r0, #-1]
    1390:	34bf018b 	ldrtcc	r0, [pc], #395	; 1398 <_Min_Stack_Size+0xf98>
    1394:	8c050000 	stchi	0, cr0, [r5], {-0}
    1398:	008f3901 	addeq	r3, pc, r1, lsl #18
    139c:	018e0500 	orreq	r0, lr, r0, lsl #10
    13a0:	00004f47 	andeq	r4, r0, r7, asr #30
    13a4:	72018f05 	andvc	r8, r1, #5, 30
    13a8:	0500009b 	streq	r0, [r0, #-155]	; 0xffffff65
    13ac:	9c790191 	ldflse	f0, [r9], #-580	; 0xfffffdbc
    13b0:	93050000 	movwls	r0, #20480	; 0x5000
    13b4:	001fa301 	andseq	sl, pc, r1, lsl #6
    13b8:	01a40500 			; <UNDEFINED> instruction: 0x01a40500
    13bc:	00002023 	andeq	r2, r0, r3, lsr #32
    13c0:	4a01a505 	bmi	6a7dc <_Min_Stack_Size+0x6a3dc>
    13c4:	05000012 	streq	r0, [r0, #-18]	; 0xffffffee
    13c8:	05a101a6 	streq	r0, [r1, #422]!	; 0x1a6
    13cc:	a7050000 	strge	r0, [r5, -r0]
    13d0:	00737b01 	rsbseq	r7, r3, r1, lsl #22
    13d4:	01a80500 			; <UNDEFINED> instruction: 0x01a80500
    13d8:	000038b5 			; <UNDEFINED> instruction: 0x000038b5
    13dc:	7f01aa05 	svcvc	0x0001aa05
    13e0:	0500008a 	streq	r0, [r0, #-138]	; 0xffffff76
    13e4:	7dd201ab 	ldfvce	f0, [r2, #684]	; 0x2ac
    13e8:	ac050000 	stcge	0, cr0, [r5], {-0}
    13ec:	006ca201 	rsbeq	sl, ip, r1, lsl #4
    13f0:	01d90500 	bicseq	r0, r9, r0, lsl #10
    13f4:	000001d9 	ldrdeq	r0, [r0], -r9
    13f8:	2e01e605 	cfmadd32cs	mvax0, mvfx14, mvfx1, mvfx5
    13fc:	05000076 	streq	r0, [r0, #-118]	; 0xffffff8a
    1400:	4d3f01e7 	ldfmis	f0, [pc, #-924]!	; 106c <_Min_Stack_Size+0xc6c>
    1404:	e8050000 	stmda	r5, {}	; <UNPREDICTABLE>
    1408:	005f5401 	subseq	r5, pc, r1, lsl #8
    140c:	01e90500 	mvneq	r0, r0, lsl #10
    1410:	0000329a 	muleq	r0, sl, r2
    1414:	fc01ea05 	stc2	10, cr14, [r1], {5}	; <UNPREDICTABLE>
    1418:	050000a8 	streq	r0, [r0, #-168]	; 0xffffff58
    141c:	0bd801eb 	bleq	ff601bd0 <_estack+0xdf5fcbd0>
    1420:	ec050000 	stc	0, cr0, [r5], {-0}
    1424:	00468501 	subeq	r8, r6, r1, lsl #10
    1428:	01ef0500 	mvneq	r0, r0, lsl #10
    142c:	000053ce 	andeq	r5, r0, lr, asr #7
    1430:	f801f005 			; <UNDEFINED> instruction: 0xf801f005
    1434:	0500002a 	streq	r0, [r0, #-42]	; 0xffffffd6
    1438:	255b01f6 	ldrbcs	r0, [fp, #-502]	; 0xfffffe0a
    143c:	cf050000 	svcgt	0x00050000
    1440:	0032bb02 	eorseq	fp, r2, r2, lsl #22
    1444:	02e10500 	rsceq	r0, r1, #0, 10
    1448:	00004b48 	andeq	r4, r0, r8, asr #22
    144c:	f202e705 	vabd.s8	d14, d2, d5
    1450:	0500006d 	streq	r0, [r0, #-109]	; 0xffffff93
    1454:	3ea202e8 	cdpcc	2, 10, cr0, cr2, cr8, {7}
    1458:	ef050000 	svc	0x00050000
    145c:	00a41502 	adceq	r1, r4, r2, lsl #10
    1460:	02f50500 	rscseq	r0, r5, #0, 10
    1464:	00002e1a 	andeq	r2, r0, sl, lsl lr
    1468:	4e02fb05 	vmlami.f64	d15, d2, d5
    146c:	050000a5 	streq	r0, [r0, #-165]	; 0xffffff5b
    1470:	487f02fc 	ldmdami	pc!, {r2, r3, r4, r5, r6, r7, r9}^	; <UNPREDICTABLE>
    1474:	83050000 	movwhi	r0, #20480	; 0x5000
    1478:	008fe103 	addeq	lr, pc, r3, lsl #2
    147c:	03840500 	orreq	r0, r4, #0, 10
    1480:	00001081 	andeq	r1, r0, r1, lsl #1
    1484:	c4038b05 	strgt	r8, [r3], #-2821	; 0xfffff4fb
    1488:	05000036 	streq	r0, [r0, #-54]	; 0xffffffca
    148c:	975d0391 			; <UNDEFINED> instruction: 0x975d0391
    1490:	a5050000 	strge	r0, [r5, #-0]
    1494:	0041c903 	subeq	ip, r1, r3, lsl #18
    1498:	03c60500 	biceq	r0, r6, #0, 10
    149c:	0000263a 	andeq	r2, r0, sl, lsr r6
    14a0:	a703c705 	strge	ip, [r3, -r5, lsl #14]
    14a4:	05000066 	streq	r0, [r0, #-102]	; 0xffffff9a
    14a8:	695d03ce 	ldmdbvs	sp, {r1, r2, r3, r6, r7, r8, r9}^
    14ac:	cf050000 	svcgt	0x00050000
    14b0:	0033e703 	eorseq	lr, r3, r3, lsl #14
    14b4:	03d20500 	bicseq	r0, r2, #0, 10
    14b8:	00002f5b 	andeq	r2, r0, fp, asr pc
    14bc:	2803dc05 	stmdacs	r3, {r0, r2, sl, fp, ip, lr, pc}
    14c0:	05000048 	streq	r0, [r0, #-72]	; 0xffffffb8
    14c4:	920603dd 	andls	r0, r6, #1946157059	; 0x74000003
    14c8:	e7050000 	str	r0, [r5, -r0]
    14cc:	0081be03 	addeq	fp, r1, r3, lsl #28
    14d0:	03fd0500 	mvnseq	r0, #0, 10
    14d4:	00008f72 	andeq	r8, r0, r2, ror pc
    14d8:	5d03ff05 	stcpl	15, cr15, [r3, #-20]	; 0xffffffec
    14dc:	05000098 	streq	r0, [r0, #-152]	; 0xffffff68
    14e0:	a2cf0481 	sbcge	r0, pc, #-2130706432	; 0x81000000
    14e4:	82050000 	andhi	r0, r5, #0
    14e8:	00207304 	eoreq	r7, r0, r4, lsl #6
    14ec:	04840500 	streq	r0, [r4], #1280	; 0x500
    14f0:	0000a78e 	andeq	sl, r0, lr, lsl #15
    14f4:	9b048e05 	blls	124d10 <_Min_Stack_Size+0x124910>
    14f8:	05000075 	streq	r0, [r0, #-117]	; 0xffffff8b
    14fc:	96cc0492 			; <UNDEFINED> instruction: 0x96cc0492
    1500:	96050000 	strls	r0, [r5], -r0
    1504:	00145d04 	andseq	r5, r4, r4, lsl #26
    1508:	04990500 	ldreq	r0, [r9], #1280	; 0x500
    150c:	00005431 	andeq	r5, r0, r1, lsr r4
    1510:	ed049d05 	stc	13, cr9, [r4, #-20]	; 0xffffffec
    1514:	0500008e 	streq	r0, [r0, #-142]	; 0xffffff72
    1518:	2a79049f 	bcs	1e4279c <_Min_Stack_Size+0x1e4239c>
    151c:	c2050000 	andgt	r0, r5, #0
    1520:	00704904 	rsbseq	r4, r0, r4, lsl #18
    1524:	04c60500 	strbeq	r0, [r6], #1280	; 0x500
    1528:	00008be9 	andeq	r8, r0, r9, ror #23
    152c:	ff04ca05 			; <UNDEFINED> instruction: 0xff04ca05
    1530:	05000010 	streq	r0, [r0, #-16]
    1534:	341d04ce 	ldrcc	r0, [sp], #-1230	; 0xfffffb32
    1538:	d2050000 	andle	r0, r5, #0
    153c:	0073fe04 	rsbseq	pc, r3, r4, lsl #28
    1540:	04d60500 	ldrbeq	r0, [r6], #1280	; 0x500
    1544:	00002d60 	andeq	r2, r0, r0, ror #26
    1548:	5504da05 	strpl	sp, [r4, #-2565]	; 0xfffff5fb
    154c:	05000094 	streq	r0, [r0, #-148]	; 0xffffff6c
    1550:	a80204de 	stmdage	r2, {r1, r2, r3, r4, r6, r7, sl}
    1554:	e5050000 	str	r0, [r5, #-0]
    1558:	0017f504 	andseq	pc, r7, r4, lsl #10
    155c:	04e60500 	strbteq	r0, [r6], #1280	; 0x500
    1560:	00001c57 	andeq	r1, r0, r7, asr ip
    1564:	7b04e705 	blvc	13b180 <_Min_Stack_Size+0x13ad80>
    1568:	05000038 	streq	r0, [r0, #-56]	; 0xffffffc8
    156c:	4d8404e8 	cfstrsmi	mvf0, [r4, #928]	; 0x3a0
    1570:	e9050000 	stmdb	r5, {}	; <UNPREDICTABLE>
    1574:	005e3d04 	subseq	r3, lr, r4, lsl #26
    1578:	04fe0500 	ldrbteq	r0, [lr], #1280	; 0x500
    157c:	00007340 	andeq	r7, r0, r0, asr #6
    1580:	9804ff05 	stmdals	r4, {r0, r2, r8, r9, sl, fp, ip, sp, lr, pc}
    1584:	050000a3 	streq	r0, [r0, #-163]	; 0xffffff5d
    1588:	90420591 	umaalls	r0, r2, r1, r5
    158c:	97050000 	strls	r0, [r5, -r0]
    1590:	008d2905 	addeq	r2, sp, r5, lsl #18
    1594:	059a0500 	ldreq	r0, [sl, #1280]	; 0x500
    1598:	000019f5 	strdeq	r1, [r0], -r5
    159c:	21059c05 	tstcs	r5, r5, lsl #24
    15a0:	05000045 	streq	r0, [r0, #-69]	; 0xffffffbb
    15a4:	803405a0 	eorshi	r0, r4, r0, lsr #11
    15a8:	a2050000 	andge	r0, r5, #0
    15ac:	00441605 	subeq	r1, r4, r5, lsl #12
    15b0:	05a60500 	streq	r0, [r6, #1280]!	; 0x500
    15b4:	00006afe 	strdeq	r6, [r0], -lr
    15b8:	0305a905 	movweq	sl, #22789	; 0x5905
    15bc:	05000033 	streq	r0, [r0, #-51]	; 0xffffffcd
    15c0:	a9d305ab 	ldmibge	r3, {r0, r1, r3, r5, r7, r8, sl}^
    15c4:	af050000 	svcge	0x00050000
    15c8:	00022105 	andeq	r2, r2, r5, lsl #2
    15cc:	05b10500 	ldreq	r0, [r1, #1280]!	; 0x500
    15d0:	000036f7 	strdeq	r3, [r0], -r7
    15d4:	8b05b305 	blhi	16e1f0 <_Min_Stack_Size+0x16ddf0>
    15d8:	05000069 	streq	r0, [r0, #-105]	; 0xffffff97
    15dc:	82ac05b7 	adchi	r0, ip, #767557632	; 0x2dc00000
    15e0:	c8050000 	stmdagt	r5, {}	; <UNPREDICTABLE>
    15e4:	00400f05 	subeq	r0, r0, r5, lsl #30
    15e8:	05c90500 	strbeq	r0, [r9, #1280]	; 0x500
    15ec:	00003ffb 	strdeq	r3, [r0], -fp
    15f0:	e305ca05 	movw	ip, #23045	; 0x5a05
    15f4:	050000ab 	streq	r0, [r0, #-171]	; 0xffffff55
    15f8:	8e8605ce 	cdphi	5, 8, cr0, cr6, cr14, {6}
    15fc:	cf050000 	svcgt	0x00050000
    1600:	008e5105 	addeq	r5, lr, r5, lsl #2
    1604:	05d40500 	ldrbeq	r0, [r4, #1280]	; 0x500
    1608:	00000069 	andeq	r0, r0, r9, rrx
    160c:	4d05d805 	stcmi	8, cr13, [r5, #-20]	; 0xffffffec
    1610:	05000052 	streq	r0, [r0, #-82]	; 0xffffffae
    1614:	0e2d05dc 	mcreq	5, 1, r0, cr13, cr12, {6}
    1618:	e0050000 	and	r0, r5, r0
    161c:	0022f305 	eoreq	pc, r2, r5, lsl #6
    1620:	05e10500 	strbeq	r0, [r1, #1280]!	; 0x500
    1624:	000010bc 	strheq	r1, [r0], -ip
    1628:	ee05e205 	cdp	2, 0, cr14, cr5, cr5, {0}
    162c:	0000007a 	andeq	r0, r0, sl, ror r0
    1630:	05000004 	streq	r0, [r0, #-4]
    1634:	0099d708 	addseq	sp, r9, r8, lsl #14
    1638:	d90d0600 	stmdble	sp, {r9, sl}
    163c:	05000069 	streq	r0, [r0, #-105]	; 0xffffff97
    1640:	0083d610 	addeq	sp, r3, r0, lsl r6
    1644:	00040000 	andeq	r0, r4, r0
    1648:	77380500 	ldrvc	r0, [r8, -r0, lsl #10]!
    164c:	05000076 	streq	r0, [r0, #-118]	; 0xffffff8a
    1650:	00a58f3c 	adceq	r8, r5, ip, lsr pc
    1654:	5d3d0500 	cfldr32pl	mvfx0, [sp, #-0]
    1658:	05000022 	streq	r0, [r0, #-34]	; 0xffffffde
    165c:	0048f23f 	subeq	pc, r8, pc, lsr r2	; <UNPREDICTABLE>
    1660:	5e430500 	cdppl	5, 4, cr0, cr3, cr0, {0}
    1664:	0500005d 	streq	r0, [r0, #-93]	; 0xffffffa3
    1668:	9a7501a8 	bls	1d41d10 <_Min_Stack_Size+0x1d41910>
    166c:	04000000 	streq	r0, [r0], #-0
    1670:	0a050000 	beq	141678 <_Min_Stack_Size+0x141278>
    1674:	00002185 	andeq	r2, r0, r5, lsl #3
    1678:	619b1005 	orrsvs	r1, fp, r5
    167c:	2b060000 	blcs	181684 <_Min_Stack_Size+0x181284>
    1680:	00007ddb 	ldrdeq	r7, [r0], -fp
    1684:	8e2b2c06 	cdphi	12, 2, cr2, cr11, cr6, {0}
    1688:	2d060000 	stccs	0, cr0, [r6, #-0]
    168c:	00000911 	andeq	r0, r0, r1, lsl r9
    1690:	73a02e06 	movvc	r2, #6, 28	; 0x60
    1694:	2f020000 	svccs	0x00020000
    1698:	00746e69 	rsbseq	r6, r4, r9, ror #28
    169c:	aa2a3006 	bge	a8d6bc <_Min_Stack_Size+0xa8d2bc>
    16a0:	31060000 	mrscc	r0, (UNDEF: 6)
    16a4:	00000622 	andeq	r0, r0, r2, lsr #12
    16a8:	6eb93206 	cdpvs	2, 11, cr3, cr9, cr6, {0}
    16ac:	33050000 	movwcc	r0, #20480	; 0x5000
    16b0:	00004df6 	strdeq	r4, [r0], -r6
    16b4:	4df43405 	cfldrdmi	mvd3, [r4, #20]!
    16b8:	35050000 	strcc	r0, [r5, #-0]
    16bc:	000069d1 	ldrdeq	r6, [r0], -r1
    16c0:	9b473605 	blls	11ceedc <_Min_Stack_Size+0x11ceadc>
    16c4:	37050000 	strcc	r0, [r5, -r0]
    16c8:	000000cf 	andeq	r0, r0, pc, asr #1
    16cc:	829f3805 	addshi	r3, pc, #327680	; 0x50000
    16d0:	39050000 	stmdbcc	r5, {}	; <UNPREDICTABLE>
    16d4:	00004eac 	andeq	r4, r0, ip, lsr #29
    16d8:	a53e3a05 	ldrge	r3, [lr, #-2565]!	; 0xfffff5fb
    16dc:	43050000 	movwmi	r0, #20480	; 0x5000
    16e0:	000045cf 	andeq	r4, r0, pc, asr #11
    16e4:	9fe24a05 	svcls	0x00e24a05
    16e8:	52050000 	andpl	r0, r5, #0
    16ec:	00000d7c 	andeq	r0, r0, ip, ror sp
    16f0:	45685d05 	strbmi	r5, [r8, #-3333]!	; 0xfffff2fb
    16f4:	68050000 	stmdavs	r5, {}	; <UNPREDICTABLE>
    16f8:	000099e9 	andeq	r9, r0, r9, ror #19
    16fc:	a4087105 	strge	r7, [r8], #-261	; 0xfffffefb
    1700:	78050000 	stmdavc	r5, {}	; <UNPREDICTABLE>
    1704:	000090c7 	andeq	r9, r0, r7, asr #1
    1708:	95018105 	strls	r8, [r1, #-261]	; 0xfffffefb
    170c:	05000021 	streq	r0, [r0, #-33]	; 0xffffffdf
    1710:	95810188 	strls	r0, [r1, #392]	; 0x188
    1714:	93050000 	movwls	r0, #20480	; 0x5000
    1718:	004dd301 	subeq	sp, sp, r1, lsl #6
    171c:	01970500 	orrseq	r0, r7, r0, lsl #10
    1720:	00008e34 	andeq	r8, r0, r4, lsr lr
    1724:	6401a205 	strvs	sl, [r1], #-517	; 0xfffffdfb
    1728:	0500008f 	streq	r0, [r0, #-143]	; 0xffffff71
    172c:	165c01ad 	ldrbne	r0, [ip], -sp, lsr #3
    1730:	b6050000 	strlt	r0, [r5], -r0
    1734:	00717201 	rsbseq	r7, r1, r1, lsl #4
    1738:	01b80600 			; <UNDEFINED> instruction: 0x01b80600
    173c:	00007ddb 	ldrdeq	r7, [r0], -fp
    1740:	2b01b906 	blcs	6fb60 <_Min_Stack_Size+0x6f760>
    1744:	0600008e 	streq	r0, [r0], -lr, lsl #1
    1748:	091101ba 	ldmdbeq	r1, {r1, r3, r4, r5, r7, r8}
    174c:	bb060000 	bllt	181754 <_Min_Stack_Size+0x181354>
    1750:	0073a001 	rsbseq	sl, r3, r1
    1754:	01bc0200 			; <UNDEFINED> instruction: 0x01bc0200
    1758:	00746e69 	rsbseq	r6, r4, r9, ror #28
    175c:	b901bd06 	stmdblt	r1, {r1, r2, r8, sl, fp, ip, sp, pc}
    1760:	0600006e 	streq	r0, [r0], -lr, rrx
    1764:	aa2a01c2 	bge	a81e74 <_Min_Stack_Size+0xa81a74>
    1768:	c3060000 	movwgt	r0, #24576	; 0x6000
    176c:	00062201 	andeq	r2, r6, r1, lsl #4
    1770:	00040000 	andeq	r0, r4, r0
    1774:	bf0a0500 	svclt	0x000a0500
    1778:	0500004b 	streq	r0, [r0, #-75]	; 0xffffffb5
    177c:	009c0115 	addseq	r0, ip, r5, lsl r1
    1780:	2c190500 	cfldr32cs	mvfx0, [r9], {-0}
    1784:	0500007f 	streq	r0, [r0, #-127]	; 0xffffff81
    1788:	0047e81b 	subeq	lr, r7, fp, lsl r8
    178c:	90210500 	eorls	r0, r1, r0, lsl #10
    1790:	05000040 	streq	r0, [r0, #-64]	; 0xffffffc0
    1794:	00136325 	andseq	r6, r3, r5, lsr #6
    1798:	64270500 	strtvs	r0, [r7], #-1280	; 0xfffffb00
    179c:	05000033 	streq	r0, [r0, #-51]	; 0xffffffcd
    17a0:	009c132d 	addseq	r1, ip, sp, lsr #6
    17a4:	f6310500 			; <UNDEFINED> instruction: 0xf6310500
    17a8:	05000003 	streq	r0, [r0, #-3]
    17ac:	005dc133 	subseq	ip, sp, r3, lsr r1
    17b0:	ea390500 	b	e42bb8 <_Min_Stack_Size+0xe427b8>
    17b4:	05000082 	streq	r0, [r0, #-130]	; 0xffffff7e
    17b8:	00650f3d 	rsbeq	r0, r5, sp, lsr pc
    17bc:	0e3f0500 	cfabs32eq	mvfx0, mvfx15
    17c0:	05000077 	streq	r0, [r0, #-119]	; 0xffffff89
    17c4:	00a2bb44 	adceq	fp, r2, r4, asr #22
    17c8:	ab490500 	blge	1242bd0 <_Min_Stack_Size+0x12427d0>
    17cc:	0500007c 	streq	r0, [r0, #-124]	; 0xffffff84
    17d0:	0018e04e 	andseq	lr, r8, lr, asr #32
    17d4:	b5530500 	ldrblt	r0, [r3, #-1280]	; 0xfffffb00
    17d8:	0000007f 	andeq	r0, r0, pc, ror r0
    17dc:	05000004 	streq	r0, [r0, #-4]
    17e0:	006a5117 	rsbeq	r5, sl, r7, lsl r1
    17e4:	2b1d0500 	blcs	742bec <_Min_Stack_Size+0x7427ec>
    17e8:	0500001c 	streq	r0, [r0, #-28]	; 0xffffffe4
    17ec:	00427e23 	subeq	r7, r2, r3, lsr #28
    17f0:	2a290500 	bcs	a42bf8 <_Min_Stack_Size+0xa427f8>
    17f4:	05000060 	streq	r0, [r0, #-96]	; 0xffffffa0
    17f8:	00221235 	eoreq	r1, r2, r5, lsr r2
    17fc:	a13f0500 	teqge	pc, r0, lsl #10
    1800:	05000067 	streq	r0, [r0, #-103]	; 0xffffff99
    1804:	0011b749 	andseq	fp, r1, r9, asr #14
    1808:	33530500 	cmpcc	r3, #0, 10
    180c:	0500002c 	streq	r0, [r0, #-44]	; 0xffffffd4
    1810:	aac90180 	bge	ff241e18 <_estack+0xdf23ce18>
    1814:	81050000 	mrshi	r0, (UNDEF: 5)
    1818:	006c3f01 	rsbeq	r3, ip, r1, lsl #30
    181c:	01820500 	orreq	r0, r2, r0, lsl #10
    1820:	00001db9 			; <UNDEFINED> instruction: 0x00001db9
    1824:	e0019805 	and	r9, r1, r5, lsl #16
    1828:	05000043 	streq	r0, [r0, #-67]	; 0xffffffbd
    182c:	0efe0199 	mrceq	1, 7, r0, cr14, cr9, {4}
    1830:	9a050000 	bls	141838 <_Min_Stack_Size+0x141438>
    1834:	00a4aa01 	adceq	sl, r4, r1, lsl #20
    1838:	01a20500 			; <UNDEFINED> instruction: 0x01a20500
    183c:	0000934b 	andeq	r9, r0, fp, asr #6
    1840:	0201a305 	andeq	sl, r1, #335544320	; 0x14000000
    1844:	05000030 	streq	r0, [r0, #-48]	; 0xffffffd0
    1848:	881201a4 	ldmdahi	r2, {r2, r5, r7, r8}
    184c:	ae050000 	cdpge	0, 0, cr0, cr5, cr0, {0}
    1850:	00029d01 	andeq	r9, r2, r1, lsl #26
    1854:	01af0500 			; <UNDEFINED> instruction: 0x01af0500
    1858:	00001130 	andeq	r1, r0, r0, lsr r1
    185c:	f601b005 			; <UNDEFINED> instruction: 0xf601b005
    1860:	0500009a 	streq	r0, [r0, #-154]	; 0xffffff66
    1864:	5f2901b8 	svcpl	0x002901b8
    1868:	b9050000 	stmdblt	r5, {}	; <UNPREDICTABLE>
    186c:	000e0701 	andeq	r0, lr, r1, lsl #14
    1870:	01ba0500 			; <UNDEFINED> instruction: 0x01ba0500
    1874:	00003795 	muleq	r0, r5, r7
    1878:	1801c405 	stmdane	r1, {r0, r2, sl, lr, pc}
    187c:	05000015 	streq	r0, [r0, #-21]	; 0xffffffeb
    1880:	350201c5 	strcc	r0, [r2, #-453]	; 0xfffffe3b
    1884:	c6050000 	strgt	r0, [r5], -r0
    1888:	003bc201 	eorseq	ip, fp, r1, lsl #4
    188c:	01d40500 	bicseq	r0, r4, r0, lsl #10
    1890:	00003b02 	andeq	r3, r0, r2, lsl #22
    1894:	8e01d505 	cfsh32hi	mvfx13, mvfx1, #5
    1898:	0500002f 	streq	r0, [r0, #-47]	; 0xffffffd1
    189c:	8a8d01d6 	bhi	fe341ffc <_estack+0xde33cffc>
    18a0:	e6050000 	str	r0, [r5], -r0
    18a4:	00902301 	addseq	r2, r0, r1, lsl #6
    18a8:	01e70500 	mvneq	r0, r0, lsl #10
    18ac:	00005685 	andeq	r5, r0, r5, lsl #13
    18b0:	2301e805 	movwcs	lr, #6149	; 0x1805
    18b4:	05000065 	streq	r0, [r0, #-101]	; 0xffffff9b
    18b8:	16ff01f6 			; <UNDEFINED> instruction: 0x16ff01f6
    18bc:	f7050000 			; <UNDEFINED> instruction: 0xf7050000
    18c0:	0013c301 	andseq	ip, r3, r1, lsl #6
    18c4:	01f80500 	mvnseq	r0, r0, lsl #10
    18c8:	0000629d 	muleq	r0, sp, r2
    18cc:	80028605 	andhi	r8, r2, r5, lsl #12
    18d0:	05000066 	streq	r0, [r0, #-102]	; 0xffffff9a
    18d4:	2ac70287 	bcs	ff1c22f8 <_estack+0xdf1bd2f8>
    18d8:	88050000 	stmdahi	r5, {}	; <UNPREDICTABLE>
    18dc:	00a50102 	adceq	r0, r5, r2, lsl #2
    18e0:	02960500 	addseq	r0, r6, #0, 10
    18e4:	00000b69 	andeq	r0, r0, r9, ror #22
    18e8:	2c029705 	stccs	7, cr9, [r2], {5}
    18ec:	05000067 	streq	r0, [r0, #-103]	; 0xffffff99
    18f0:	369e0298 			; <UNDEFINED> instruction: 0x369e0298
    18f4:	a6050000 	strge	r0, [r5], -r0
    18f8:	00192402 	andseq	r2, r9, r2, lsl #8
    18fc:	02a70500 	adceq	r0, r7, #0, 10
    1900:	0000aa61 	andeq	sl, r0, r1, ror #20
    1904:	3902a805 	stmdbcc	r2, {r0, r2, fp, sp, pc}
    1908:	05000031 	streq	r0, [r0, #-49]	; 0xffffffcf
    190c:	708e02b6 			; <UNDEFINED> instruction: 0x708e02b6
    1910:	b7050000 	strlt	r0, [r5, -r0]
    1914:	004d1b02 	subeq	r1, sp, r2, lsl #22
    1918:	02b80500 	adcseq	r0, r8, #0, 10
    191c:	00003d8a 	andeq	r3, r0, sl, lsl #27
    1920:	e602c605 	str	ip, [r2], -r5, lsl #12
    1924:	05000034 	streq	r0, [r0, #-52]	; 0xffffffcc
    1928:	242202c7 	strtcs	r0, [r2], #-711	; 0xfffffd39
    192c:	cf050000 	svcgt	0x00050000
    1930:	004eca02 	subeq	ip, lr, r2, lsl #20
    1934:	02d70500 	sbcseq	r0, r7, #0, 10
    1938:	0000811e 	andeq	r8, r0, lr, lsl r1
    193c:	4a02dd05 	bmi	b8d58 <_Min_Stack_Size+0xb8958>
    1940:	05000040 	streq	r0, [r0, #-64]	; 0xffffffc0
    1944:	30c502de 	ldrdcc	r0, [r5], #46	; 0x2e
    1948:	e2050000 	and	r0, r5, #0
    194c:	000f3d02 	andeq	r3, pc, r2, lsl #26
    1950:	02e60500 	rsceq	r0, r6, #0, 10
    1954:	0000aaea 	andeq	sl, r0, sl, ror #21
    1958:	9f02eb05 	svcls	0x0002eb05
    195c:	0500004d 	streq	r0, [r0, #-77]	; 0xffffffb3
    1960:	040a02f6 	streq	r0, [sl], #-758	; 0xfffffd0a
    1964:	80050000 	andhi	r0, r5, r0
    1968:	005aa903 	subseq	sl, sl, r3, lsl #18
    196c:	03850500 	orreq	r0, r5, #0, 10
    1970:	0000003e 	andeq	r0, r0, lr, lsr r0
    1974:	24038c05 	strcs	r8, [r3], #-3077	; 0xfffff3fb
    1978:	0500004a 	streq	r0, [r0, #-74]	; 0xffffffb6
    197c:	92b5038d 	adcsls	r0, r5, #872415234	; 0x34000002
    1980:	98050000 	stmdals	r5, {}	; <UNPREDICTABLE>
    1984:	00121603 	andseq	r1, r2, r3, lsl #12
    1988:	03990500 	orrseq	r0, r9, #0, 10
    198c:	00004076 	andeq	r4, r0, r6, ror r0
    1990:	0f03a405 	svceq	0x0003a405
    1994:	0500008a 	streq	r0, [r0, #-138]	; 0xffffff76
    1998:	65e203a5 	strbvs	r0, [r2, #933]!	; 0x3a5
    199c:	b1050000 	mrslt	r0, (UNDEF: 5)
    19a0:	0043b903 	subeq	fp, r3, r3, lsl #18
    19a4:	03b20500 			; <UNDEFINED> instruction: 0x03b20500
    19a8:	000093e0 	andeq	r9, r0, r0, ror #7
    19ac:	3103c105 	tstcc	r3, r5, lsl #2
    19b0:	0500002f 	streq	r0, [r0, #-47]	; 0xffffffd1
    19b4:	768e03c2 	strvc	r0, [lr], r2, asr #7
    19b8:	04000000 	streq	r0, [r0], #-0
    19bc:	11050000 	mrsne	r0, (UNDEF: 5)
    19c0:	00003cc5 	andeq	r3, r0, r5, asr #25
    19c4:	9bcb1205 	blls	ff2c61e0 <_estack+0xdf2c11e0>
    19c8:	13050000 	movwne	r0, #20480	; 0x5000
    19cc:	00008087 	andeq	r8, r0, r7, lsl #1
    19d0:	3bde1505 	blcc	ff786dec <_estack+0xdf781dec>
    19d4:	17050000 	strne	r0, [r5, -r0]
    19d8:	00005fdc 	ldrdeq	r5, [r0], -ip
    19dc:	3dfb1905 			; <UNDEFINED> instruction: 0x3dfb1905
    19e0:	1a050000 	bne	1419e8 <_Min_Stack_Size+0x1415e8>
    19e4:	00007de2 	andeq	r7, r0, r2, ror #27
    19e8:	a8bb1b05 	ldmge	fp!, {r0, r2, r8, r9, fp, ip}
    19ec:	1c050000 	stcne	0, cr0, [r5], {-0}
    19f0:	00002d2d 	andeq	r2, r0, sp, lsr #26
    19f4:	31c81d05 	biccc	r1, r8, r5, lsl #26
    19f8:	1e050000 	cdpne	0, 0, cr0, cr5, cr0, {0}
    19fc:	00003c84 	andeq	r3, r0, r4, lsl #25
    1a00:	5e091f05 	cdppl	15, 0, cr1, cr9, cr5, {0}
    1a04:	23050000 	movwcs	r0, #20480	; 0x5000
    1a08:	00008d7a 	andeq	r8, r0, sl, ror sp
    1a0c:	2ded2b05 			; <UNDEFINED> instruction: 0x2ded2b05
    1a10:	2c050000 	stccs	0, cr0, [r5], {-0}
    1a14:	0000963b 	andeq	r9, r0, fp, lsr r6
    1a18:	7bfc2e05 	blvc	fff0d234 <_estack+0xdff08234>
    1a1c:	2f050000 	svccs	0x00050000
    1a20:	0000062c 	andeq	r0, r0, ip, lsr #12
    1a24:	351c3105 	ldrcc	r3, [ip, #-261]	; 0xfffffefb
    1a28:	34050000 	strcc	r0, [r5], #-0
    1a2c:	00009d21 	andeq	r9, r0, r1, lsr #26
    1a30:	39013505 	stmdbcc	r1, {r0, r2, r8, sl, ip, sp}
    1a34:	37050000 	strcc	r0, [r5, -r0]
    1a38:	00003549 	andeq	r3, r0, r9, asr #10
    1a3c:	7d943905 	vldrvc.16	s6, [r4, #10]	; <UNPREDICTABLE>
    1a40:	3b050000 	blcc	141a48 <_Min_Stack_Size+0x141648>
    1a44:	00002dc3 	andeq	r2, r0, r3, asr #27
    1a48:	a3ef3c05 	mvnge	r3, #1280	; 0x500
    1a4c:	41050000 	mrsmi	r0, (UNDEF: 5)
    1a50:	000011e8 	andeq	r1, r0, r8, ror #3
    1a54:	14cb4205 	strbne	r4, [fp], #517	; 0x205
    1a58:	44050000 	strmi	r0, [r5], #-0
    1a5c:	0000958b 	andeq	r9, r0, fp, lsl #11
    1a60:	2e01b805 	cdpcs	8, 0, cr11, cr1, cr5, {0}
    1a64:	05000047 	streq	r0, [r0, #-71]	; 0xffffffb9
    1a68:	460e01b9 			; <UNDEFINED> instruction: 0x460e01b9
    1a6c:	ba050000 	blt	141a74 <_Min_Stack_Size+0x141674>
    1a70:	0020d401 	eoreq	sp, r0, r1, lsl #8
    1a74:	01bb0500 			; <UNDEFINED> instruction: 0x01bb0500
    1a78:	000047a8 	andeq	r4, r0, r8, lsr #15
    1a7c:	ba01bc05 	blt	70a98 <_Min_Stack_Size+0x70698>
    1a80:	05000098 	streq	r0, [r0, #-152]	; 0xffffff68
    1a84:	078601be 			; <UNDEFINED> instruction: 0x078601be
    1a88:	c0050000 	andgt	r0, r5, r0
    1a8c:	009c4501 	addseq	r4, ip, r1, lsl #10
    1a90:	01c10500 	biceq	r0, r1, r0, lsl #10
    1a94:	0000048d 	andeq	r0, r0, sp, lsl #9
    1a98:	b201c305 	andlt	ip, r1, #335544320	; 0x14000000
    1a9c:	0500003a 	streq	r0, [r0, #-58]	; 0xffffffc6
    1aa0:	2d9d01c4 	ldfcss	f0, [sp, #784]	; 0x310
    1aa4:	c5050000 	strgt	r0, [r5, #-0]
    1aa8:	00074901 	andeq	r4, r7, r1, lsl #18
    1aac:	01c70500 	biceq	r0, r7, r0, lsl #10
    1ab0:	000009a2 	andeq	r0, r0, r2, lsr #19
    1ab4:	8401c805 	strhi	ip, [r1], #-2053	; 0xfffff7fb
    1ab8:	050000a9 	streq	r0, [r0, #-169]	; 0xffffff57
    1abc:	865f01ca 	ldrbhi	r0, [pc], -sl, asr #3
    1ac0:	cb050000 	blgt	141ac8 <_Min_Stack_Size+0x1416c8>
    1ac4:	00835101 	addeq	r5, r3, r1, lsl #2
    1ac8:	01d50500 	bicseq	r0, r5, r0, lsl #10
    1acc:	000060cc 	andeq	r6, r0, ip, asr #1
    1ad0:	9a01d705 	bls	776ec <_Min_Stack_Size+0x772ec>
    1ad4:	05000031 	streq	r0, [r0, #-49]	; 0xffffffcf
    1ad8:	2bd501d8 	blcs	ff542240 <_estack+0xdf53d240>
    1adc:	d9050000 	stmdble	r5, {}	; <UNPREDICTABLE>
    1ae0:	0075be01 	rsbseq	fp, r5, r1, lsl #28
    1ae4:	01da0500 	bicseq	r0, sl, r0, lsl #10
    1ae8:	00000d88 	andeq	r0, r0, r8, lsl #27
    1aec:	8d01dc05 	stchi	12, cr13, [r1, #-20]	; 0xffffffec
    1af0:	05000041 	streq	r0, [r0, #-65]	; 0xffffffbf
    1af4:	86fd01de 	usathi	r0, #29, lr, asr #3
    1af8:	df050000 	svcle	0x00050000
    1afc:	0005dc01 	andeq	sp, r5, r1, lsl #24
    1b00:	01e00500 	mvneq	r0, r0, lsl #10
    1b04:	00009de5 	andeq	r9, r0, r5, ror #27
    1b08:	9801e205 	stmdals	r1, {r0, r2, r9, sp, lr, pc}
    1b0c:	05000087 	streq	r0, [r0, #-135]	; 0xffffff79
    1b10:	068c01e3 	streq	r0, [ip], r3, ror #3
    1b14:	e5050000 	str	r0, [r5, #-0]
    1b18:	007f5001 	rsbseq	r5, pc, r1
    1b1c:	01e60500 	mvneq	r0, r0, lsl #10
    1b20:	000012fa 	strdeq	r1, [r0], -sl
    1b24:	7501e905 	strvc	lr, [r1, #-2309]	; 0xfffff6fb
    1b28:	0500000c 	streq	r0, [r0, #-12]
    1b2c:	15f301ea 	ldrbne	r0, [r3, #490]!	; 0x1ea
    1b30:	eb050000 	bl	141b38 <_Min_Stack_Size+0x141738>
    1b34:	00713a01 	rsbseq	r3, r1, r1, lsl #20
    1b38:	01ed0500 	mvneq	r0, r0, lsl #10
    1b3c:	00000573 	andeq	r0, r0, r3, ror r5
    1b40:	ca01ee05 	bgt	7d35c <_Min_Stack_Size+0x7cf5c>
    1b44:	0500007f 	streq	r0, [r0, #-127]	; 0xffffff81
    1b48:	9cf701f0 	ldflse	f0, [r7], #960	; 0x3c0
    1b4c:	f1050000 			; <UNDEFINED> instruction: 0xf1050000
    1b50:	00a61101 	adceq	r1, r6, r1, lsl #2
    1b54:	01f70500 	mvnseq	r0, r0, lsl #10
    1b58:	000080fb 	strdeq	r8, [r0], -fp
    1b5c:	9e01f805 	cdpls	8, 0, cr15, cr1, cr5, {0}
    1b60:	050000a5 	streq	r0, [r0, #-165]	; 0xffffff5b
    1b64:	33db01f9 	bicscc	r0, fp, #1073741886	; 0x4000003e
    1b68:	fa050000 	blx	141b70 <_Min_Stack_Size+0x141770>
    1b6c:	003e1401 	eorseq	r1, lr, r1, lsl #8
    1b70:	01fb0500 	mvnseq	r0, r0, lsl #10
    1b74:	000078c1 	andeq	r7, r0, r1, asr #17
    1b78:	a401fc05 	strge	pc, [r1], #-3077	; 0xfffff3fb
    1b7c:	05000065 	streq	r0, [r0, #-101]	; 0xffffff9b
    1b80:	226c01fd 	rsbcs	r0, ip, #1073741887	; 0x4000003f
    1b84:	fe050000 	cdp2	0, 0, cr0, cr5, cr0, {0}
    1b88:	0091f901 	addseq	pc, r1, r1, lsl #18
    1b8c:	01ff0500 	mvnseq	r0, r0, lsl #10
    1b90:	00008b32 	andeq	r8, r0, r2, lsr fp
    1b94:	d3028005 	movwle	r8, #8197	; 0x2005
    1b98:	05000003 	streq	r0, [r0, #-3]
    1b9c:	626f0281 	rsbvs	r0, pc, #268435464	; 0x10000008
    1ba0:	82050000 	andhi	r0, r5, #0
    1ba4:	003ec302 	eorseq	ip, lr, r2, lsl #6
    1ba8:	02830500 	addeq	r0, r3, #0, 10
    1bac:	00008eb5 			; <UNDEFINED> instruction: 0x00008eb5
    1bb0:	cf028405 	svcgt	0x00028405
    1bb4:	05000022 	streq	r0, [r0, #-34]	; 0xffffffde
    1bb8:	62d40285 	sbcsvs	r0, r4, #1342177288	; 0x50000008
    1bbc:	86050000 	strhi	r0, [r5], -r0
    1bc0:	007f1e02 	rsbseq	r1, pc, r2, lsl #28
    1bc4:	02880500 	addeq	r0, r8, #0, 10
    1bc8:	00004e4c 	andeq	r4, r0, ip, asr #28
    1bcc:	fa028905 	blx	a3fe8 <_Min_Stack_Size+0xa3be8>
    1bd0:	050000ac 	streq	r0, [r0, #-172]	; 0xffffff54
    1bd4:	6db9028a 	lfmvs	f0, 4, [r9, #552]!	; 0x228
    1bd8:	8c050000 	stchi	0, cr0, [r5], {-0}
    1bdc:	00736f02 	rsbseq	r6, r3, r2, lsl #30
    1be0:	028d0500 	addeq	r0, sp, #0, 10
    1be4:	0000315f 	andeq	r3, r0, pc, asr r1
    1be8:	00028f05 	andeq	r8, r2, r5, lsl #30
    1bec:	05000000 	streq	r0, [r0, #-0]
    1bf0:	9e560290 	mrcls	2, 2, r0, cr6, cr0, {4}
    1bf4:	91050000 	mrsls	r0, (UNDEF: 5)
    1bf8:	004c2502 	subeq	r2, ip, r2, lsl #10
    1bfc:	02920500 	addseq	r0, r2, #0, 10
    1c00:	00008e42 	andeq	r8, r0, r2, asr #28
    1c04:	7d029705 	stcvc	7, cr9, [r2, #-20]	; 0xffffffec
    1c08:	0500005a 	streq	r0, [r0, #-90]	; 0xffffffa6
    1c0c:	477c0298 			; <UNDEFINED> instruction: 0x477c0298
    1c10:	99050000 	stmdbls	r5, {}	; <UNPREDICTABLE>
    1c14:	000db602 	andeq	fp, sp, r2, lsl #12
    1c18:	029a0500 	addseq	r0, sl, #0, 10
    1c1c:	00006750 	andeq	r6, r0, r0, asr r7
    1c20:	ba029b05 	blt	a883c <_Min_Stack_Size+0xa843c>
    1c24:	05000039 	streq	r0, [r0, #-57]	; 0xffffffc7
    1c28:	56f8029c 	usatpl	r0, #24, ip, lsl #5
    1c2c:	9d050000 	stcls	0, cr0, [r5, #-0]
    1c30:	00392d02 	eorseq	r2, r9, r2, lsl #26
    1c34:	029f0500 	addseq	r0, pc, #0, 10
    1c38:	000080ce 	andeq	r8, r0, lr, asr #1
    1c3c:	7502a005 	strvc	sl, [r2, #-5]
    1c40:	0500003e 	streq	r0, [r0, #-62]	; 0xffffffc2
    1c44:	6aac02a1 	bvs	feb026d0 <_estack+0xdeafd6d0>
    1c48:	a2050000 	andge	r0, r5, #0
    1c4c:	006e1c02 	rsbeq	r1, lr, r2, lsl #24
    1c50:	02a30500 	adceq	r0, r3, #0, 10
    1c54:	00000cd8 	ldrdeq	r0, [r0], -r8
    1c58:	3f02a405 	svccc	0x0002a405
    1c5c:	050000ab 	streq	r0, [r0, #-171]	; 0xffffff55
    1c60:	01a702a5 			; <UNDEFINED> instruction: 0x01a702a5
    1c64:	a8050000 	stmdage	r5, {}	; <UNPREDICTABLE>
    1c68:	002c9302 	eoreq	r9, ip, r2, lsl #6
    1c6c:	02a90500 	adceq	r0, r9, #0, 10
    1c70:	00007972 	andeq	r7, r0, r2, ror r9
    1c74:	3502aa05 	strcc	sl, [r2, #-2565]	; 0xfffff5fb
    1c78:	05000049 	streq	r0, [r0, #-73]	; 0xffffffb7
    1c7c:	95fb02ac 	ldrbls	r0, [fp, #684]!	; 0x2ac
    1c80:	ad050000 	stcge	0, cr0, [r5, #-0]
    1c84:	00640802 	rsbeq	r0, r4, r2, lsl #16
    1c88:	02ae0500 	adceq	r0, lr, #0, 10
    1c8c:	00006f08 	andeq	r6, r0, r8, lsl #30
    1c90:	3002b005 	andcc	fp, r2, r5
    1c94:	05000084 	streq	r0, [r0, #-132]	; 0xffffff7c
    1c98:	1d7002b1 	lfmne	f0, 2, [r0, #-708]!	; 0xfffffd3c
    1c9c:	b3050000 	movwlt	r0, #20480	; 0x5000
    1ca0:	006fb502 	rsbeq	fp, pc, r2, lsl #10
    1ca4:	02b40500 	adcseq	r0, r4, #0, 10
    1ca8:	00003dbf 			; <UNDEFINED> instruction: 0x00003dbf
    1cac:	3602b605 	strcc	fp, [r2], -r5, lsl #12
    1cb0:	05000020 	streq	r0, [r0, #-32]	; 0xffffffe0
    1cb4:	3a5302b7 	bcc	14c2798 <_Min_Stack_Size+0x14c2398>
    1cb8:	b8050000 	stmdalt	r5, {}	; <UNPREDICTABLE>
    1cbc:	0028e202 	eoreq	lr, r8, r2, lsl #4
    1cc0:	02b90500 	adcseq	r0, r9, #0, 10
    1cc4:	000035fb 	strdeq	r3, [r0], -fp
    1cc8:	0f02bb05 	svceq	0x0002bb05
    1ccc:	05000052 	streq	r0, [r0, #-82]	; 0xffffffae
    1cd0:	9a1202bc 	bls	4827c8 <_Min_Stack_Size+0x4823c8>
    1cd4:	bd050000 	stclt	0, cr0, [r5, #-0]
    1cd8:	00851402 	addeq	r1, r5, r2, lsl #8
    1cdc:	02be0500 	adcseq	r0, lr, #0, 10
    1ce0:	0000a355 	andeq	sl, r0, r5, asr r3
    1ce4:	6902c805 	stmdbvs	r2, {r0, r2, fp, lr, pc}
    1ce8:	05000051 	streq	r0, [r0, #-81]	; 0xffffffaf
    1cec:	3ce402c9 	sfmcc	f0, 2, [r4], #804	; 0x324
    1cf0:	ca050000 	bgt	141cf8 <_Min_Stack_Size+0x1418f8>
    1cf4:	0035ca02 	eorseq	ip, r5, r2, lsl #20
    1cf8:	02cb0500 	sbceq	r0, fp, #0, 10
    1cfc:	00003e20 	andeq	r3, r0, r0, lsr #28
    1d00:	0e02cc05 	cdpeq	12, 0, cr12, cr2, cr5, {0}
    1d04:	05000069 	streq	r0, [r0, #-105]	; 0xffffff97
    1d08:	19a902cd 	stmibne	r9!, {r0, r2, r3, r6, r7, r9}
    1d0c:	ce050000 	cdpgt	0, 0, cr0, cr5, cr0, {0}
    1d10:	00a52502 	adceq	r2, r5, r2, lsl #10
    1d14:	02cf0500 	sbceq	r0, pc, #0, 10
    1d18:	00000ca5 	andeq	r0, r0, r5, lsr #25
    1d1c:	5202d005 	andpl	sp, r2, #5
    1d20:	05000041 	streq	r0, [r0, #-65]	; 0xffffffbf
    1d24:	42c202d1 	sbcmi	r0, r2, #268435469	; 0x1000000d
    1d28:	d2050000 	andle	r0, r5, #0
    1d2c:	00a0d002 	adceq	sp, r0, r2
    1d30:	02d30500 	sbcseq	r0, r3, #0, 10
    1d34:	00005037 	andeq	r5, r0, r7, lsr r0
    1d38:	9002d405 	andls	sp, r2, r5, lsl #8
    1d3c:	05000001 	streq	r0, [r0, #-1]
    1d40:	a9a402d5 	stmibge	r4!, {r0, r2, r4, r6, r7, r9}
    1d44:	d6050000 	strle	r0, [r5], -r0
    1d48:	00937402 	addseq	r7, r3, r2, lsl #8
    1d4c:	02d70500 	sbcseq	r0, r7, #0, 10
    1d50:	00009c95 	muleq	r0, r5, ip
    1d54:	2602d805 	strcs	sp, [r2], -r5, lsl #16
    1d58:	0500003a 	streq	r0, [r0, #-58]	; 0xffffffc6
    1d5c:	195c02d9 	ldmdbne	ip, {r0, r3, r4, r6, r7, r9}^
    1d60:	da050000 	ble	141d68 <_Min_Stack_Size+0x141968>
    1d64:	00819302 	addeq	r9, r1, r2, lsl #6
    1d68:	02db0500 	sbcseq	r0, fp, #0, 10
    1d6c:	00007e2f 	andeq	r7, r0, pc, lsr #28
    1d70:	fc02dc05 	stc2	12, cr13, [r2], {5}
    1d74:	05000049 	streq	r0, [r0, #-73]	; 0xffffffb7
    1d78:	4eb302dd 	mrcmi	2, 5, r0, cr3, cr13, {6}
    1d7c:	de050000 	cdple	0, 0, cr0, cr5, cr0, {0}
    1d80:	00749302 	rsbseq	r9, r4, r2, lsl #6
    1d84:	02df0500 	sbcseq	r0, pc, #0, 10
    1d88:	00004e00 	andeq	r4, r0, r0, lsl #28
    1d8c:	ec02e005 	stc	0, cr14, [r2], {5}
    1d90:	05000075 	streq	r0, [r0, #-117]	; 0xffffff8b
    1d94:	1f5e02e1 	svcne	0x005e02e1
    1d98:	e2050000 	and	r0, r5, #0
    1d9c:	002b9e02 	eoreq	r9, fp, r2, lsl #28
    1da0:	02e30500 	rsceq	r0, r3, #0, 10
    1da4:	00001260 	andeq	r1, r0, r0, ror #4
    1da8:	1302e405 	movwne	lr, #9221	; 0x2405
    1dac:	0500005d 	streq	r0, [r0, #-93]	; 0xffffffa3
    1db0:	9f5f02e5 	svcls	0x005f02e5
    1db4:	e6050000 	str	r0, [r5], -r0
    1db8:	00616202 	rsbeq	r6, r1, r2, lsl #4
    1dbc:	02e70500 	rsceq	r0, r7, #0, 10
    1dc0:	000094e9 	andeq	r9, r0, r9, ror #9
    1dc4:	cf02e805 	svcgt	0x0002e805
    1dc8:	05000056 	streq	r0, [r0, #-86]	; 0xffffffaa
    1dcc:	14b502e9 	ldrtne	r0, [r5], #745	; 0x2e9
    1dd0:	ea050000 	b	141dd8 <_Min_Stack_Size+0x1419d8>
    1dd4:	00013002 	andeq	r3, r1, r2
    1dd8:	02eb0500 	rsceq	r0, fp, #0, 10
    1ddc:	00001347 	andeq	r1, r0, r7, asr #6
    1de0:	e302ec05 	movw	lr, #11269	; 0x2c05
    1de4:	05000025 	streq	r0, [r0, #-37]	; 0xffffffdb
    1de8:	7a6102ed 	bvc	18429a4 <_Min_Stack_Size+0x18425a4>
    1dec:	ee050000 	cdp	0, 0, cr0, cr5, cr0, {0}
    1df0:	003b8c02 	eorseq	r8, fp, r2, lsl #24
    1df4:	02ef0500 	rsceq	r0, pc, #0, 10
    1df8:	000078ce 	andeq	r7, r0, lr, asr #17
    1dfc:	6c02f005 	stcvs	0, cr15, [r2], {5}
    1e00:	05000075 	streq	r0, [r0, #-117]	; 0xffffff8b
    1e04:	197a02f1 	ldmdbne	sl!, {r0, r4, r5, r6, r7, r9}^
    1e08:	f3050000 	vhadd.u8	d0, d5, d0
    1e0c:	00219f02 	eoreq	r9, r1, r2, lsl #30
    1e10:	02f40500 	rscseq	r0, r4, #0, 10
    1e14:	00009536 	andeq	r9, r0, r6, lsr r5
    1e18:	d102f505 	tstle	r2, r5, lsl #10	; <UNPREDICTABLE>
    1e1c:	050000a3 	streq	r0, [r0, #-163]	; 0xffffff5d
    1e20:	137c02f6 	cmnne	ip, #1610612751	; 0x6000000f
    1e24:	f7050000 			; <UNDEFINED> instruction: 0xf7050000
    1e28:	0030ec02 	eorseq	lr, r0, r2, lsl #24
    1e2c:	02f80500 	rscseq	r0, r8, #0, 10
    1e30:	000016bb 			; <UNDEFINED> instruction: 0x000016bb
    1e34:	7c02f905 			; <UNDEFINED> instruction: 0x7c02f905
    1e38:	05000053 	streq	r0, [r0, #-83]	; 0xffffffad
    1e3c:	55fe02fa 	ldrbpl	r0, [lr, #762]!	; 0x2fa
    1e40:	fb050000 	blx	141e4a <_Min_Stack_Size+0x141a4a>
    1e44:	00665c02 	rsbeq	r5, r6, r2, lsl #24
    1e48:	02fc0500 	rscseq	r0, ip, #0, 10
    1e4c:	000021f8 	strdeq	r2, [r0], -r8
    1e50:	b802fd05 	stmdalt	r2, {r0, r2, r8, sl, fp, ip, sp, lr, pc}
    1e54:	05000077 	streq	r0, [r0, #-119]	; 0xffffff89
    1e58:	19d102fe 	ldmibne	r1, {r1, r2, r3, r4, r5, r6, r7, r9}^
    1e5c:	ff050000 			; <UNDEFINED> instruction: 0xff050000
    1e60:	003b7402 	eorseq	r7, fp, r2, lsl #8
    1e64:	03800500 	orreq	r0, r0, #0, 10
    1e68:	00006547 	andeq	r6, r0, r7, asr #10
    1e6c:	a9038105 	stmdbge	r3, {r0, r2, r8, pc}
    1e70:	0500005e 	streq	r0, [r0, #-94]	; 0xffffffa2
    1e74:	7f070382 	svcvc	0x00070382
    1e78:	83050000 	movwhi	r0, #20480	; 0x5000
    1e7c:	00a72703 	adceq	r2, r7, r3, lsl #14
    1e80:	03840500 	orreq	r0, r4, #0, 10
    1e84:	00007455 	andeq	r7, r0, r5, asr r4
    1e88:	63038605 	movwvs	r8, #13829	; 0x3605
    1e8c:	05000047 	streq	r0, [r0, #-71]	; 0xffffffb9
    1e90:	26f60387 	ldrbtcs	r0, [r6], r7, lsl #7
    1e94:	88050000 	stmdahi	r5, {}	; <UNPREDICTABLE>
    1e98:	00490603 	subeq	r0, r9, r3, lsl #12
    1e9c:	03890500 	orreq	r0, r9, #0, 10
    1ea0:	00003071 	andeq	r3, r0, r1, ror r0
    1ea4:	63038b05 	movwvs	r8, #15109	; 0x3b05
    1ea8:	05000090 	streq	r0, [r0, #-144]	; 0xffffff70
    1eac:	39fd038c 	ldmibcc	sp!, {r2, r3, r7, r8, r9}^
    1eb0:	8d050000 	stchi	0, cr0, [r5, #-0]
    1eb4:	002d1303 	eoreq	r1, sp, r3, lsl #6
    1eb8:	038e0500 	orreq	r0, lr, #0, 10
    1ebc:	00008e15 	andeq	r8, r0, r5, lsl lr
    1ec0:	e2038f05 	and	r8, r3, #5, 30
    1ec4:	0500008a 	streq	r0, [r0, #-138]	; 0xffffff76
    1ec8:	97990390 			; <UNDEFINED> instruction: 0x97990390
    1ecc:	91050000 	mrsls	r0, (UNDEF: 5)
    1ed0:	007bc903 	rsbseq	ip, fp, r3, lsl #18
    1ed4:	03920500 	orrseq	r0, r2, #0, 10
    1ed8:	000061cc 	andeq	r6, r0, ip, asr #3
    1edc:	ec039305 	stc	3, cr9, [r3], {5}
    1ee0:	0500004a 	streq	r0, [r0, #-74]	; 0xffffffb6
    1ee4:	6ae70394 	bvs	ff9c2d3c <_estack+0xdf9bdd3c>
    1ee8:	95050000 	strls	r0, [r5, #-0]
    1eec:	00316b03 	eorseq	r6, r1, r3, lsl #22
    1ef0:	03960500 	orrseq	r0, r6, #0, 10
    1ef4:	00006d99 	muleq	r0, r9, sp
    1ef8:	f5039705 			; <UNDEFINED> instruction: 0xf5039705
    1efc:	05000054 	streq	r0, [r0, #-84]	; 0xffffffac
    1f00:	6d130398 	ldcvs	3, cr0, [r3, #-608]	; 0xfffffda0
    1f04:	99050000 	stmdbls	r5, {}	; <UNPREDICTABLE>
    1f08:	00627d03 	rsbeq	r7, r2, r3, lsl #26
    1f0c:	039a0500 	orrseq	r0, sl, #0, 10
    1f10:	0000738a 	andeq	r7, r0, sl, lsl #7
    1f14:	8c039b05 			; <UNDEFINED> instruction: 0x8c039b05
    1f18:	0500007e 	streq	r0, [r0, #-126]	; 0xffffff82
    1f1c:	92cd039c 	sbcls	r0, sp, #156, 6	; 0x70000002
    1f20:	9d050000 	stcls	0, cr0, [r5, #-0]
    1f24:	00365803 	eorseq	r5, r6, r3, lsl #16
    1f28:	039e0500 	orrseq	r0, lr, #0, 10
    1f2c:	00000d44 	andeq	r0, r0, r4, asr #26
    1f30:	14039f05 	strne	r9, [r3], #-3845	; 0xfffff0fb
    1f34:	05000084 	streq	r0, [r0, #-132]	; 0xffffff7c
    1f38:	18f403a0 	ldmne	r4!, {r5, r7, r8, r9}^
    1f3c:	a1050000 	mrsge	r0, (UNDEF: 5)
    1f40:	000f8203 	andeq	r8, pc, r3, lsl #4
    1f44:	03a20500 			; <UNDEFINED> instruction: 0x03a20500
    1f48:	0000114a 	andeq	r1, r0, sl, asr #2
    1f4c:	3f03a305 	svccc	0x0003a305
    1f50:	05000094 	streq	r0, [r0, #-148]	; 0xffffff6c
    1f54:	4fec03a4 	svcmi	0x00ec03a4
    1f58:	a5050000 	strge	r0, [r5, #-0]
    1f5c:	0005be03 	andeq	fp, r5, r3, lsl #28
    1f60:	03a60500 			; <UNDEFINED> instruction: 0x03a60500
    1f64:	0000a4dd 	ldrdeq	sl, [r0], -sp
    1f68:	a103a705 	tstge	r3, r5, lsl #14
    1f6c:	05000033 	streq	r0, [r0, #-51]	; 0xffffffcd
    1f70:	969e03a8 	ldrls	r0, [lr], r8, lsr #7
    1f74:	a9050000 	stmdbge	r5, {}	; <UNPREDICTABLE>
    1f78:	008b6803 	addeq	r6, fp, r3, lsl #16
    1f7c:	03aa0500 			; <UNDEFINED> instruction: 0x03aa0500
    1f80:	00004e5a 	andeq	r4, r0, sl, asr lr
    1f84:	2003ab05 	andcs	sl, r3, r5, lsl #22
    1f88:	05000041 	streq	r0, [r0, #-65]	; 0xffffffbf
    1f8c:	2bbc03ac 	blcs	fef02e44 <_estack+0xdeefde44>
    1f90:	ad050000 	stcge	0, cr0, [r5, #-0]
    1f94:	00912a03 	addseq	r2, r1, r3, lsl #20
    1f98:	03ae0500 			; <UNDEFINED> instruction: 0x03ae0500
    1f9c:	00006a2e 	andeq	r6, r0, lr, lsr #20
    1fa0:	0803af05 	stmdaeq	r3, {r0, r2, r8, r9, sl, fp, sp, pc}
    1fa4:	0500004b 	streq	r0, [r0, #-75]	; 0xffffffb5
    1fa8:	23d503b0 	bicscs	r0, r5, #176, 6	; 0xc0000002
    1fac:	b1050000 	mrslt	r0, (UNDEF: 5)
    1fb0:	0087ee03 	addeq	lr, r7, r3, lsl #28
    1fb4:	03b20500 			; <UNDEFINED> instruction: 0x03b20500
    1fb8:	000040ce 	andeq	r4, r0, lr, asr #1
    1fbc:	3e03b305 	cdpcc	3, 0, cr11, cr3, cr5, {0}
    1fc0:	05000009 	streq	r0, [r0, #-9]
    1fc4:	8da503b4 	stchi	3, cr0, [r5, #720]!	; 0x2d0
    1fc8:	b7050000 	strlt	r0, [r5, -r0]
    1fcc:	001cf403 	andseq	pc, ip, r3, lsl #8
    1fd0:	03b80500 			; <UNDEFINED> instruction: 0x03b80500
    1fd4:	00004ee8 	andeq	r4, r0, r8, ror #29
    1fd8:	1203b905 	andne	fp, r3, #81920	; 0x14000
    1fdc:	05000076 	streq	r0, [r0, #-118]	; 0xffffff8a
    1fe0:	9beb03ba 	blls	ffac2ed0 <_estack+0xdfabded0>
    1fe4:	bb050000 	bllt	141fec <_Min_Stack_Size+0x141bec>
    1fe8:	009a8403 	addseq	r8, sl, r3, lsl #8
    1fec:	03bc0500 			; <UNDEFINED> instruction: 0x03bc0500
    1ff0:	000040e9 	andeq	r4, r0, r9, ror #1
    1ff4:	e803bd05 	stmda	r3, {r0, r2, r8, sl, fp, ip, sp, pc}
    1ff8:	05000086 	streq	r0, [r0, #-134]	; 0xffffff7a
    1ffc:	837b03be 	cmnhi	fp, #-134217726	; 0xf8000002
    2000:	bf050000 	svclt	0x00050000
    2004:	00065903 	andeq	r5, r6, r3, lsl #18
    2008:	03c00500 	biceq	r0, r0, #0, 10
    200c:	00002590 	muleq	r0, r0, r5
    2010:	7a03c105 	bvc	f242c <_Min_Stack_Size+0xf202c>
    2014:	0500001e 	streq	r0, [r0, #-30]	; 0xffffffe2
    2018:	7c6f03c2 	stclvc	3, cr0, [pc], #-776	; 1d18 <_Min_Stack_Size+0x1918>
    201c:	c3050000 	movwgt	r0, #20480	; 0x5000
    2020:	004bf303 	subeq	pc, fp, r3, lsl #6
    2024:	03c40500 	biceq	r0, r4, #0, 10
    2028:	0000777f 	andeq	r7, r0, pc, ror r7
    202c:	b603c505 	strlt	ip, [r3], -r5, lsl #10
    2030:	05000093 	streq	r0, [r0, #-147]	; 0xffffff6d
    2034:	900a03c6 	andls	r0, sl, r6, asr #7
    2038:	c7050000 	strgt	r0, [r5, -r0]
    203c:	0052fd03 	subseq	pc, r2, r3, lsl #26
    2040:	03c80500 	biceq	r0, r8, #0, 10
    2044:	000064b5 			; <UNDEFINED> instruction: 0x000064b5
    2048:	0a03c905 	beq	f4464 <_Min_Stack_Size+0xf4064>
    204c:	0500009f 	streq	r0, [r0, #-159]	; 0xffffff61
    2050:	7b5c03ca 	blvc	1702f80 <_Min_Stack_Size+0x1702b80>
    2054:	cb050000 	blgt	14205c <_Min_Stack_Size+0x141c5c>
    2058:	002c1303 	eoreq	r1, ip, r3, lsl #6
    205c:	03cc0500 	biceq	r0, ip, #0, 10
    2060:	000037d3 	ldrdeq	r3, [r0], -r3	; <UNPREDICTABLE>
    2064:	7503cd05 	strvc	ip, [r3, #-3333]	; 0xfffff2fb
    2068:	050000a0 	streq	r0, [r0, #-160]	; 0xffffff60
    206c:	a84a03ce 	stmdage	sl, {r1, r2, r3, r6, r7, r8, r9}^
    2070:	04000000 	streq	r0, [r0], #-0
    2074:	09050000 	stmdbeq	r5, {}	; <UNPREDICTABLE>
    2078:	00004f8e 	andeq	r4, r0, lr, lsl #31
    207c:	71fc3005 	mvnsvc	r3, r5
    2080:	31050000 	mrscc	r0, (UNDEF: 5)
    2084:	000089ad 	andeq	r8, r0, sp, lsr #19
    2088:	68ef3205 	stmiavs	pc!, {r0, r2, r9, ip, sp}^	; <UNPREDICTABLE>
    208c:	33050000 	movwcc	r0, #20480	; 0x5000
    2090:	000060ad 	andeq	r6, r0, sp, lsr #1
    2094:	8c023405 	cfstrshi	mvf3, [r2], {5}
    2098:	35050000 	strcc	r0, [r5, #-0]
    209c:	0000a707 	andeq	sl, r0, r7, lsl #14
    20a0:	98eb3605 	stmials	fp!, {r0, r2, r9, sl, ip, sp}^
    20a4:	37050000 	strcc	r0, [r5, -r0]
    20a8:	00007654 	andeq	r7, r0, r4, asr r6
    20ac:	9e153805 	cdpls	8, 1, cr3, cr5, cr5, {0}
    20b0:	41050000 	mrsmi	r0, (UNDEF: 5)
    20b4:	000074ce 	andeq	r7, r0, lr, asr #9
    20b8:	aa324205 	bge	c928d4 <_Min_Stack_Size+0xc924d4>
    20bc:	43050000 	movwmi	r0, #20480	; 0x5000
    20c0:	000046b2 			; <UNDEFINED> instruction: 0x000046b2
    20c4:	046f4805 	strbteq	r4, [pc], #-2053	; 20cc <_Min_Stack_Size+0x1ccc>
    20c8:	49050000 	stmdbmi	r5, {}	; <UNPREDICTABLE>
    20cc:	00007a90 	muleq	r0, r0, sl
    20d0:	56314a05 	ldrtpl	r4, [r1], -r5, lsl #20
    20d4:	4b050000 	blmi	1420dc <_Min_Stack_Size+0x141cdc>
    20d8:	00002e54 	andeq	r2, r0, r4, asr lr
    20dc:	99704c05 	ldmdbls	r0!, {r0, r2, sl, fp, lr}^
    20e0:	4d050000 	stcmi	0, cr0, [r5, #-0]
    20e4:	00007bde 	ldrdeq	r7, [r0], -lr
    20e8:	998e4e05 	stmibls	lr, {r0, r2, r9, sl, fp, lr}
    20ec:	4f050000 	svcmi	0x00050000
    20f0:	000089f1 	strdeq	r8, [r0], -r1
    20f4:	13a55005 			; <UNDEFINED> instruction: 0x13a55005
    20f8:	51050000 	mrspl	r0, (UNDEF: 5)
    20fc:	00000b92 	muleq	r0, r2, fp
    2100:	5ac15205 	bpl	ff05691c <_estack+0xdf05191c>
    2104:	53050000 	movwpl	r0, #20480	; 0x5000
    2108:	0000a6d5 	ldrdeq	sl, [r0], -r5
    210c:	239f5405 	orrscs	r5, pc, #83886080	; 0x5000000
    2110:	55050000 	strpl	r0, [r5, #-0]
    2114:	000054a8 	andeq	r5, r0, r8, lsr #9
    2118:	8d4e5605 	stclhi	6, cr5, [lr, #-20]	; 0xffffffec
    211c:	57050000 	strpl	r0, [r5, -r0]
    2120:	00009498 	muleq	r0, r8, r4
    2124:	9a555805 	bls	1558140 <_Min_Stack_Size+0x1557d40>
    2128:	5a050000 	bpl	142130 <_Min_Stack_Size+0x141d30>
    212c:	0000311f 	andeq	r3, r0, pc, lsl r1
    2130:	2ae96105 	bcs	ffa5a54c <_estack+0xdfa5554c>
    2134:	62050000 	andvs	r0, r5, #0
    2138:	00005026 	andeq	r5, r0, r6, lsr #32
    213c:	4bee6705 	blmi	ffb9bd58 <_estack+0xdfb96d58>
    2140:	68050000 	stmdavs	r5, {}	; <UNPREDICTABLE>
    2144:	00007181 	andeq	r7, r0, r1, lsl #3
    2148:	00000400 	andeq	r0, r0, r0, lsl #8
    214c:	78672d05 	stmdavc	r7!, {r0, r2, r8, sl, fp, sp}^
    2150:	2e050000 	cdpcs	0, 0, cr0, cr5, cr0, {0}
    2154:	00008657 	andeq	r8, r0, r7, asr r6
    2158:	84c12f05 	strbhi	r2, [r1], #3845	; 0xf05
    215c:	30050000 	andcc	r0, r5, r0
    2160:	0000a546 	andeq	sl, r0, r6, asr #10
    2164:	71893105 	orrvc	r3, r9, r5, lsl #2
    2168:	32050000 	andcc	r0, r5, #0
    216c:	00003f45 	andeq	r3, r0, r5, asr #30
    2170:	653f3305 	ldrvs	r3, [pc, #-773]!	; 1e73 <_Min_Stack_Size+0x1a73>
    2174:	34050000 	strcc	r0, [r5], #-0
    2178:	00002989 	andeq	r2, r0, r9, lsl #19
    217c:	a6cd3505 	strbge	r3, [sp], r5, lsl #10
    2180:	36050000 	strcc	r0, [r5], -r0
    2184:	00001f0f 	andeq	r1, r0, pc, lsl #30
    2188:	10333705 	eorsne	r3, r3, r5, lsl #14
    218c:	38050000 	stmdacc	r5, {}	; <UNPREDICTABLE>
    2190:	00006a17 	andeq	r6, r0, r7, lsl sl
    2194:	117c3905 	cmnne	ip, r5, lsl #18
    2198:	3a050000 	bcc	1421a0 <_Min_Stack_Size+0x141da0>
    219c:	0000a5aa 	andeq	sl, r0, sl, lsr #11
    21a0:	12c33b05 	sbcne	r3, r3, #5120	; 0x1400
    21a4:	3c050000 	stccc	0, cr0, [r5], {-0}
    21a8:	00009ff2 	strdeq	r9, [r0], -r2
    21ac:	2c4c4805 	mcrrcs	8, 0, r4, ip, cr5
    21b0:	49050000 	stmdbmi	r5, {}	; <UNPREDICTABLE>
    21b4:	0000a93e 	andeq	sl, r0, lr, lsr r9
    21b8:	6bc94a05 	blvs	ff2549d4 <_estack+0xdf24f9d4>
    21bc:	4b050000 	blmi	1421c4 <_Min_Stack_Size+0x141dc4>
    21c0:	00002924 	andeq	r2, r0, r4, lsr #18
    21c4:	088c4f05 	stmeq	ip, {r0, r2, r8, r9, sl, fp, lr}
    21c8:	50050000 	andpl	r0, r5, r0
    21cc:	00009f8b 	andeq	r9, r0, fp, lsl #31
    21d0:	72f95105 	rscsvc	r5, r9, #1073741825	; 0x40000001
    21d4:	52050000 	andpl	r0, r5, #0
    21d8:	00009252 	andeq	r9, r0, r2, asr r2
    21dc:	37e85605 	strbcc	r5, [r8, r5, lsl #12]!
    21e0:	57050000 	strpl	r0, [r5, -r0]
    21e4:	00000359 	andeq	r0, r0, r9, asr r3
    21e8:	3c0f5805 	stccc	8, cr5, [pc], {5}
    21ec:	59050000 	stmdbpl	r5, {}	; <UNPREDICTABLE>
    21f0:	00006b82 	andeq	r6, r0, r2, lsl #23
    21f4:	24865d05 	strcs	r5, [r6], #3333	; 0xd05
    21f8:	5e050000 	cdppl	0, 0, cr0, cr5, cr0, {0}
    21fc:	00005057 	andeq	r5, r0, r7, asr r0
    2200:	728b5f05 	addvc	r5, fp, #5, 30
    2204:	60050000 	andvs	r0, r5, r0
    2208:	0000a63b 	andeq	sl, r0, fp, lsr r6
    220c:	a2686405 	rsbge	r6, r8, #83886080	; 0x5000000
    2210:	65050000 	strvs	r0, [r5, #-0]
    2214:	00001402 	andeq	r1, r0, r2, lsl #8
    2218:	0c056605 	stceq	6, cr6, [r5], {5}
    221c:	67050000 	strvs	r0, [r5, -r0]
    2220:	0000722d 	andeq	r7, r0, sp, lsr #4
    2224:	889b6b05 	ldmhi	fp, {r0, r2, r8, r9, fp, sp, lr}
    2228:	6c050000 	stcvs	0, cr0, [r5], {-0}
    222c:	00002289 	andeq	r2, r0, r9, lsl #5
    2230:	3efe6d05 	cdpcc	13, 15, cr6, cr14, cr5, {0}
    2234:	6e050000 	cdpvs	0, 0, cr0, cr5, cr0, {0}
    2238:	0000395e 	andeq	r3, r0, lr, asr r9
    223c:	824a7205 	subhi	r7, sl, #1342177280	; 0x50000000
    2240:	73050000 	movwvc	r0, #20480	; 0x5000
    2244:	0000517d 	andeq	r5, r0, sp, ror r1
    2248:	3b2d7405 	blcc	b5f264 <_Min_Stack_Size+0xb5ee64>
    224c:	75050000 	strvc	r0, [r5, #-0]
    2250:	00002a24 	andeq	r2, r0, r4, lsr #20
    2254:	374e7905 	strbcc	r7, [lr, -r5, lsl #18]
    2258:	7a050000 	bvc	142260 <_Min_Stack_Size+0x141e60>
    225c:	0000846c 	andeq	r8, r0, ip, ror #8
    2260:	5ed27b05 	vfnmspl.f64	d23, d2, d5
    2264:	7c050000 	stcvc	0, cr0, [r5], {-0}
    2268:	0000243f 	andeq	r2, r0, pc, lsr r4
    226c:	49018005 	stmdbmi	r1, {r0, r2, pc}
    2270:	0500006e 	streq	r0, [r0, #-110]	; 0xffffff92
    2274:	7c290181 	stfvcs	f0, [r9], #-516	; 0xfffffdfc
    2278:	82050000 	andhi	r0, r5, #0
    227c:	002b4701 	eoreq	r4, fp, r1, lsl #14
    2280:	01830500 	orreq	r0, r3, r0, lsl #10
    2284:	000052b6 			; <UNDEFINED> instruction: 0x000052b6
    2288:	e5018705 	str	r8, [r1, #-1797]	; 0xfffff8fb
    228c:	05000042 	streq	r0, [r0, #-66]	; 0xffffffbe
    2290:	29de0188 	ldmibcs	lr, {r3, r7, r8}^
    2294:	89050000 	stmdbhi	r5, {}	; <UNPREDICTABLE>
    2298:	0006d101 	andeq	sp, r6, r1, lsl #2
    229c:	018a0500 	orreq	r0, sl, r0, lsl #10
    22a0:	0000420c 	andeq	r4, r0, ip, lsl #4
    22a4:	94018e05 	strls	r8, [r1], #-3589	; 0xfffff1fb
    22a8:	05000018 	streq	r0, [r0, #-24]	; 0xffffffe8
    22ac:	8c7f018f 	ldfhie	f0, [pc], #-572	; 2078 <_Min_Stack_Size+0x1c78>
    22b0:	90050000 	andls	r0, r5, r0
    22b4:	00abf701 	adceq	pc, fp, r1, lsl #14
    22b8:	01910500 	orrseq	r0, r1, r0, lsl #10
    22bc:	000085f8 	strdeq	r8, [r0], -r8	; <UNPREDICTABLE>
    22c0:	ab019505 	blge	676dc <_Min_Stack_Size+0x672dc>
    22c4:	0500009c 	streq	r0, [r0, #-156]	; 0xffffff64
    22c8:	74e90196 	strbtvc	r0, [r9], #406	; 0x196
    22cc:	97050000 	strls	r0, [r5, -r0]
    22d0:	00604401 	rsbeq	r4, r0, r1, lsl #8
    22d4:	01980500 	orrseq	r0, r8, r0, lsl #10
    22d8:	0000781b 	andeq	r7, r0, fp, lsl r8
    22dc:	bb019c05 	bllt	692f8 <_Min_Stack_Size+0x68ef8>
    22e0:	05000076 	streq	r0, [r0, #-118]	; 0xffffff8a
    22e4:	4584019d 	strmi	r0, [r4, #413]	; 0x19d
    22e8:	9e050000 	cdpls	0, 0, cr0, cr5, cr0, {0}
    22ec:	00a21c01 	adceq	r1, r2, r1, lsl #24
    22f0:	019f0500 	orrseq	r0, pc, r0, lsl #10
    22f4:	0000868e 	andeq	r8, r0, lr, lsl #13
    22f8:	7901a305 	stmdbvc	r1, {r0, r2, r8, r9, sp, pc}
    22fc:	0500005f 	streq	r0, [r0, #-95]	; 0xffffffa1
    2300:	ac4301a4 	stfgee	f0, [r3], {164}	; 0xa4
    2304:	a5050000 	strge	r0, [r5, #-0]
    2308:	0051c301 	subseq	ip, r1, r1, lsl #6
    230c:	01a60500 			; <UNDEFINED> instruction: 0x01a60500
    2310:	000067ba 			; <UNDEFINED> instruction: 0x000067ba
    2314:	3001aa05 	andcc	sl, r1, r5, lsl #20
    2318:	05000053 	streq	r0, [r0, #-83]	; 0xffffffad
    231c:	1ded01ab 	stfnee	f0, [sp, #684]!	; 0x2ac
    2320:	ac050000 	stcge	0, cr0, [r5], {-0}
    2324:	005c3201 	subseq	r3, ip, r1, lsl #4
    2328:	01ad0500 			; <UNDEFINED> instruction: 0x01ad0500
    232c:	0000a45e 	andeq	sl, r0, lr, asr r4
    2330:	2901b105 	stmdbcs	r1, {r0, r2, r8, ip, sp, pc}
    2334:	05000027 	streq	r0, [r0, #-39]	; 0xffffffd9
    2338:	82fd01b2 	rscshi	r0, sp, #-2147483604	; 0x8000002c
    233c:	b3050000 	movwlt	r0, #20480	; 0x5000
    2340:	00ab9701 	adceq	r9, fp, r1, lsl #14
    2344:	01b40500 			; <UNDEFINED> instruction: 0x01b40500
    2348:	00001555 	andeq	r1, r0, r5, asr r5
    234c:	1101ba05 	tstne	r1, r5, lsl #20
    2350:	05000026 	streq	r0, [r0, #-38]	; 0xffffffda
    2354:	23be01bb 			; <UNDEFINED> instruction: 0x23be01bb
    2358:	bc050000 	stclt	0, cr0, [r5], {-0}
    235c:	0028a801 	eoreq	sl, r8, r1, lsl #16
    2360:	01bf0500 			; <UNDEFINED> instruction: 0x01bf0500
    2364:	00002669 	andeq	r2, r0, r9, ror #12
    2368:	ff01c005 			; <UNDEFINED> instruction: 0xff01c005
    236c:	00000017 	andeq	r0, r0, r7, lsl r0
    2370:	e1020004 	tst	r2, r4
    2374:	0700000a 	streq	r0, [r0, -sl]
    2378:	0000015b 	andeq	r0, r0, fp, asr r1
    237c:	03010003 	movweq	r0, #4099	; 0x1003
    2380:	09050507 	stmdbeq	r5, {r0, r1, r2, r8, sl}
    2384:	00004f8e 	andeq	r4, r0, lr, lsl #31
    2388:	05040c03 	streq	r0, [r4, #-3075]	; 0xfffff3fd
    238c:	005d4909 	subseq	r4, sp, r9, lsl #18
    2390:	060b0300 	streq	r0, [fp], -r0, lsl #6
    2394:	89cd0805 	stmibhi	sp, {r0, r2, fp}^
    2398:	0a030000 	beq	c23a0 <_Min_Stack_Size+0xc1fa0>
    239c:	0bfd0707 	bleq	fff43fc0 <_estack+0xdff3efc0>
    23a0:	03040000 	movweq	r0, #16384	; 0x4000
    23a4:	0805080b 	stmdaeq	r5, {r0, r1, r3, fp}
    23a8:	00006261 	andeq	r6, r0, r1, ror #4
    23ac:	05090a03 	streq	r0, [r9, #-2563]	; 0xfffff5fd
    23b0:	0015cc07 	andseq	ip, r5, r7, lsl #24
    23b4:	0a0a0300 	beq	282fbc <_Min_Stack_Size+0x282bbc>
    23b8:	000c2107 	andeq	r2, ip, r7, lsl #2
    23bc:	43070400 	movwmi	r0, #29696	; 0x7400
    23c0:	0400000c 	streq	r0, [r0], #-12
    23c4:	050b0b03 	streq	r0, [fp, #-2819]	; 0xfffff4fd
    23c8:	00940f02 	addseq	r0, r4, r2, lsl #30
    23cc:	07040300 	streq	r0, [r4, -r0, lsl #6]
    23d0:	0c050304 	stceq	3, cr0, [r5], {4}
    23d4:	000c9e07 	andeq	r9, ip, r7, lsl #28
    23d8:	32070400 	andcc	r0, r7, #0, 8
    23dc:	0400000d 	streq	r0, [r0], #-13
    23e0:	000d7507 	andeq	r7, sp, r7, lsl #10
    23e4:	a9070400 	stmdbge	r7, {sl}
    23e8:	0300000d 	movweq	r0, #13
    23ec:	bf070d10 	svclt	0x00070d10
    23f0:	0400000d 	streq	r0, [r0], #-13
    23f4:	050e1203 	streq	r1, [lr, #-515]	; 0xfffffdfd
    23f8:	00677c0b 	rsbeq	r7, r7, fp, lsl #24
    23fc:	080d0300 	stmdaeq	sp, {r8, r9}
    2400:	0d0e0304 	stceq	3, cr0, [lr, #-16]
    2404:	000ecd07 	andeq	ip, lr, r7, lsl #26
    2408:	0f030400 	svceq	0x00030400
    240c:	0f5a070f 	svceq	0x005a070f
    2410:	18030000 	stmdane	r3, {}	; <UNPREDICTABLE>
    2414:	0f70070d 	svceq	0x0070070d
    2418:	03040000 	movweq	r0, #16384	; 0x4000
    241c:	0605101b 			; <UNDEFINED> instruction: 0x0605101b
    2420:	00006cb6 			; <UNDEFINED> instruction: 0x00006cb6
    2424:	07020703 	streq	r0, [r2, -r3, lsl #14]
    2428:	00000fb3 			; <UNDEFINED> instruction: 0x00000fb3
    242c:	0a070404 	beq	1c3444 <_Min_Stack_Size+0x1c3044>
    2430:	04000010 	streq	r0, [r0], #-16
    2434:	00103e07 	andseq	r3, r0, r7, lsl #28
    2438:	11220300 			; <UNDEFINED> instruction: 0x11220300
    243c:	00104e07 	andseq	r4, r0, r7, lsl #28
    2440:	a6070400 	strge	r0, [r7], -r0, lsl #8
    2444:	03000010 	movweq	r0, #16
    2448:	071203ba 			; <UNDEFINED> instruction: 0x071203ba
    244c:	00001134 	andeq	r1, r0, r4, lsr r1
    2450:	11500704 	cmpne	r0, r4, lsl #14
    2454:	03040000 	movweq	r0, #16384	; 0x4000
    2458:	2b051313 	blcs	1470ac <_Min_Stack_Size+0x146cac>
    245c:	0000a4f2 	strdeq	sl, [r0], -r2
    2460:	040d2f03 	streq	r2, [sp], #-3843	; 0xfffff0fd
    2464:	0012c707 	andseq	ip, r2, r7, lsl #14
    2468:	14030400 	strne	r0, [r3], #-1024	; 0xfffffc00
    246c:	44020514 	strmi	r0, [r2], #-1300	; 0xfffffaec
    2470:	0400002e 	streq	r0, [r0], #-46	; 0xffffffd2
    2474:	07151603 	ldreq	r1, [r5, -r3, lsl #12]
    2478:	00001630 	andeq	r1, r0, r0, lsr r6
    247c:	16460704 	strbne	r0, [r6], -r4, lsl #14
    2480:	03040000 	movweq	r0, #16384	; 0x4000
    2484:	0903160c 	stmdbeq	r3, {r2, r3, r9, sl, ip}
    2488:	dc0a0517 	cfstr32le	mvfx0, [sl], {23}
    248c:	03000008 	movweq	r0, #8
    2490:	6f07180d 	svcvs	0x0007180d
    2494:	04000016 	streq	r0, [r0], #-22	; 0xffffffea
    2498:	07030e03 	streq	r0, [r3, -r3, lsl #28]
    249c:	00001772 	andeq	r1, r0, r2, ror r7
    24a0:	17dc0704 	ldrbne	r0, [ip, r4, lsl #14]
    24a4:	05040000 	streq	r0, [r4, #-0]
    24a8:	0008d30d 	andeq	sp, r8, sp, lsl #6
    24ac:	bb070400 	bllt	1c34b4 <_Min_Stack_Size+0x1c30b4>
    24b0:	04000019 	streq	r0, [r0], #-25	; 0xffffffe7
    24b4:	0024bc07 	eoreq	fp, r4, r7, lsl #24
    24b8:	00040400 	andeq	r0, r4, r0, lsl #8
    24bc:	05000004 	streq	r0, [r0, #-4]
    24c0:	0071fc30 	rsbseq	pc, r1, r0, lsr ip	; <UNPREDICTABLE>
    24c4:	ad310500 	cfldr32ge	mvfx0, [r1, #-0]
    24c8:	05000089 	streq	r0, [r0, #-137]	; 0xffffff77
    24cc:	0068ef32 	rsbeq	lr, r8, r2, lsr pc
    24d0:	ad330500 	cfldr32ge	mvfx0, [r3, #-0]
    24d4:	05000060 	streq	r0, [r0, #-96]	; 0xffffffa0
    24d8:	008c0234 	addeq	r0, ip, r4, lsr r2
    24dc:	07350500 	ldreq	r0, [r5, -r0, lsl #10]!
    24e0:	050000a7 	streq	r0, [r0, #-167]	; 0xffffff59
    24e4:	0098eb36 	addseq	lr, r8, r6, lsr fp
    24e8:	54370500 	ldrtpl	r0, [r7], #-1280	; 0xfffffb00
    24ec:	05000076 	streq	r0, [r0, #-118]	; 0xffffff8a
    24f0:	009e1538 	addseq	r1, lr, r8, lsr r5
    24f4:	ce410500 	cdpgt	5, 4, cr0, cr1, cr0, {0}
    24f8:	05000074 	streq	r0, [r0, #-116]	; 0xffffff8c
    24fc:	00aa3242 	adceq	r3, sl, r2, asr #4
    2500:	b2430500 	sublt	r0, r3, #0, 10
    2504:	05000046 	streq	r0, [r0, #-70]	; 0xffffffba
    2508:	00046f48 	andeq	r6, r4, r8, asr #30
    250c:	90490500 	subls	r0, r9, r0, lsl #10
    2510:	0500007a 	streq	r0, [r0, #-122]	; 0xffffff86
    2514:	0056314a 	subseq	r3, r6, sl, asr #2
    2518:	544b0500 	strbpl	r0, [fp], #-1280	; 0xfffffb00
    251c:	0500002e 	streq	r0, [r0, #-46]	; 0xffffffd2
    2520:	0099704c 	addseq	r7, r9, ip, asr #32
    2524:	de4d0500 	cdple	5, 4, cr0, cr13, cr0, {0}
    2528:	0500007b 	streq	r0, [r0, #-123]	; 0xffffff85
    252c:	00998e4e 	addseq	r8, r9, lr, asr #28
    2530:	f14f0500 			; <UNDEFINED> instruction: 0xf14f0500
    2534:	05000089 	streq	r0, [r0, #-137]	; 0xffffff77
    2538:	0013a550 	andseq	sl, r3, r0, asr r5
    253c:	92510500 	subsls	r0, r1, #0, 10
    2540:	0500000b 	streq	r0, [r0, #-11]
    2544:	005ac152 	subseq	ip, sl, r2, asr r1
    2548:	d5530500 	ldrble	r0, [r3, #-1280]	; 0xfffffb00
    254c:	050000a6 	streq	r0, [r0, #-166]	; 0xffffff5a
    2550:	00239f54 	eoreq	r9, r3, r4, asr pc
    2554:	a8550500 	ldmdage	r5, {r8, sl}^
    2558:	05000054 	streq	r0, [r0, #-84]	; 0xffffffac
    255c:	008d4e56 	addeq	r4, sp, r6, asr lr
    2560:	98570500 	ldmdals	r7, {r8, sl}^
    2564:	05000094 	streq	r0, [r0, #-148]	; 0xffffff6c
    2568:	009a5558 	addseq	r5, sl, r8, asr r5
    256c:	1f5a0500 	svcne	0x005a0500
    2570:	05000031 	streq	r0, [r0, #-49]	; 0xffffffcf
    2574:	002ae961 	eoreq	lr, sl, r1, ror #18
    2578:	26620500 	strbtcs	r0, [r2], -r0, lsl #10
    257c:	05000050 	streq	r0, [r0, #-80]	; 0xffffffb0
    2580:	004bee67 	subeq	lr, fp, r7, ror #28
    2584:	81680500 	cmnhi	r8, r0, lsl #10
    2588:	00000071 	andeq	r0, r0, r1, ror r0
    258c:	1c020004 	stcne	0, cr0, [r2], {4}
    2590:	07000014 	smladeq	r0, r4, r0, r0
    2594:	0000015b 	andeq	r0, r0, fp, asr r1
    2598:	03010003 	movweq	r0, #4099	; 0x1003
    259c:	09030613 	stmdbeq	r3, {r0, r1, r4, r9, sl}
    25a0:	dc0a0507 	cfstr32le	mvfx0, [sl], {7}
    25a4:	03000008 	movweq	r0, #8
    25a8:	0605020c 	streq	r0, [r5], -ip, lsl #4
    25ac:	000070b7 	strheq	r7, [r0], -r7	; <UNPREDICTABLE>
    25b0:	05080803 	streq	r0, [r8, #-2051]	; 0xfffff7fd
    25b4:	002ddc16 	eoreq	sp, sp, r6, lsl ip
    25b8:	091c0300 	ldmdbeq	ip, {r8, r9}
    25bc:	000c2107 	andeq	r2, ip, r7, lsl #2
    25c0:	09070400 	stmdbeq	r7, {sl}
    25c4:	04000027 	streq	r0, [r0], #-39	; 0xffffffd9
    25c8:	00279707 	eoreq	r9, r7, r7, lsl #14
    25cc:	0d030400 	cfstrseq	mvf0, [r3, #-0]
    25d0:	166f070a 	strbtne	r0, [pc], -sl, lsl #14
    25d4:	03040000 	movweq	r0, #16384	; 0x4000
    25d8:	7207030e 	andvc	r0, r7, #939524096	; 0x38000000
    25dc:	04000017 	streq	r0, [r0], #-23	; 0xffffffe9
    25e0:	0017dc07 	andseq	sp, r7, r7, lsl #24
    25e4:	0d050400 	cfstrseq	mvf0, [r5, #-0]
    25e8:	000008d3 	ldrdeq	r0, [r0], -r3
    25ec:	0b140304 	bleq	503204 <_Min_Stack_Size+0x502e04>
    25f0:	4f8e0905 	svcmi	0x008e0905
    25f4:	0c030000 	stceq	0, cr0, [r3], {-0}
    25f8:	49090504 	stmdbmi	r9, {r2, r8, sl}
    25fc:	0300005d 	movweq	r0, #93	; 0x5d
    2600:	08050c0b 	stmdaeq	r5, {r0, r1, r3, sl, fp}
    2604:	000089cd 	andeq	r8, r0, sp, asr #19
    2608:	070d0a03 	streq	r0, [sp, -r3, lsl #20]
    260c:	00000bfd 	strdeq	r0, [r0], -sp
    2610:	0e0b0304 	cdpeq	3, 0, cr0, cr11, cr4, {0}
    2614:	62610805 	rsbvs	r0, r1, #327680	; 0x50000
    2618:	0a030000 	beq	c2620 <_Min_Stack_Size+0xc2220>
    261c:	27e8070f 	strbcs	r0, [r8, pc, lsl #14]!
    2620:	03040000 	movweq	r0, #16384	; 0x4000
    2624:	0205100b 	andeq	r1, r5, #11
    2628:	0000940f 	andeq	r9, r0, pc, lsl #8
    262c:	040d0403 	streq	r0, [sp], #-1027	; 0xfffffbfd
    2630:	000d3207 	andeq	r3, sp, r7, lsl #4
    2634:	75070400 	strvc	r0, [r7, #-1024]	; 0xfffffc00
    2638:	0400000d 	streq	r0, [r0], #-13
    263c:	000da907 	andeq	sl, sp, r7, lsl #18
    2640:	11100300 	tstne	r0, r0, lsl #6
    2644:	000dbf07 	andeq	fp, sp, r7, lsl #30
    2648:	12030400 	andne	r0, r3, #0, 8
    264c:	7c0b0512 	cfstr32vc	mvfx0, [fp], {18}
    2650:	03000067 	movweq	r0, #103	; 0x67
    2654:	03040e0d 	movweq	r0, #19981	; 0x4e0d
    2658:	cd07110e 	stfgts	f1, [r7, #-56]	; 0xffffffc8
    265c:	0400000e 	streq	r0, [r0], #-14
    2660:	07130f03 	ldreq	r0, [r3, -r3, lsl #30]
    2664:	00000f5a 	andeq	r0, r0, sl, asr pc
    2668:	07111803 	ldreq	r1, [r1, -r3, lsl #16]
    266c:	00000f70 	andeq	r0, r0, r0, ror pc
    2670:	141b0304 	ldrne	r0, [fp], #-772	; 0xfffffcfc
    2674:	6cb60605 	ldcvs	6, cr0, [r6], #20
    2678:	07040000 	streq	r0, [r4, -r0]
    267c:	0000100a 	andeq	r1, r0, sl
    2680:	103e0704 	eorsne	r0, lr, r4, lsl #14
    2684:	22030000 	andcs	r0, r3, #0
    2688:	104e0715 	subne	r0, lr, r5, lsl r7
    268c:	07040000 	streq	r0, [r4, -r0]
    2690:	000010a6 	andeq	r1, r0, r6, lsr #1
    2694:	1603ba03 	strne	fp, [r3], -r3, lsl #20
    2698:	00113407 	andseq	r3, r1, r7, lsl #8
    269c:	50070400 	andpl	r0, r7, r0, lsl #8
    26a0:	04000011 	streq	r0, [r0], #-17	; 0xffffffef
    26a4:	05171303 	ldreq	r1, [r7, #-771]	; 0xfffffcfd
    26a8:	00a4f22b 	adceq	pc, r4, fp, lsr #4
    26ac:	112f0300 			; <UNDEFINED> instruction: 0x112f0300
    26b0:	12c70704 	sbcne	r0, r7, #4, 14	; 0x100000
    26b4:	03040000 	movweq	r0, #16384	; 0x4000
    26b8:	02051814 	andeq	r1, r5, #20, 16	; 0x140000
    26bc:	00002e44 	andeq	r2, r0, r4, asr #28
    26c0:	19160304 	ldmdbne	r6, {r2, r8, r9}
    26c4:	00163007 	andseq	r3, r6, r7
    26c8:	46070400 	strmi	r0, [r7], -r0, lsl #8
    26cc:	04000016 	streq	r0, [r0], #-22	; 0xffffffea
    26d0:	0019bb07 	andseq	fp, r9, r7, lsl #22
    26d4:	bc070400 	cfstrslt	mvf0, [r7], {-0}
    26d8:	04000024 	streq	r0, [r0], #-36	; 0xffffffdc
    26dc:	05051503 	streq	r1, [r5, #-1283]	; 0xfffffafd
    26e0:	00aced09 	adceq	lr, ip, r9, lsl #26
    26e4:	0b0c0300 	bleq	3032ec <_Min_Stack_Size+0x302eec>
    26e8:	21490704 	cmpcs	r9, r4, lsl #14
    26ec:	05040000 	streq	r0, [r4, #-0]
    26f0:	00aef82a 	adceq	pc, lr, sl, lsr #16
    26f4:	e02b0500 	eor	r0, fp, r0, lsl #10
    26f8:	050000af 	streq	r0, [r0, #-175]	; 0xffffff51
    26fc:	00ae872c 	adceq	r8, lr, ip, lsr #14
    2700:	522d0500 	eorpl	r0, sp, #0, 10
    2704:	040000ae 	streq	r0, [r0], #-174	; 0xffffff52
    2708:	00000400 	andeq	r0, r0, r0, lsl #8
    270c:	18122105 	ldmdane	r2, {r0, r2, r8, sp}
    2710:	28050000 	stmdacs	r5, {}	; <UNPREDICTABLE>
    2714:	00008ab5 			; <UNDEFINED> instruction: 0x00008ab5
    2718:	12018306 	andne	r8, r1, #402653184	; 0x18000000
    271c:	0500009b 	streq	r0, [r0, #-155]	; 0xffffff65
    2720:	4bdc0184 	blmi	ff702d38 <_estack+0xdf6fdd38>
    2724:	88060000 	stmdahi	r6, {}	; <UNPREDICTABLE>
    2728:	0048e401 	subeq	lr, r8, r1, lsl #8
    272c:	01890500 	orreq	r0, r9, r0, lsl #10
    2730:	00009dd5 	ldrdeq	r9, [r0], -r5
    2734:	09018a06 	stmdbeq	r1, {r1, r2, r9, fp, pc}
    2738:	050000ab 	streq	r0, [r0, #-171]	; 0xffffff55
    273c:	1f8b018b 	svcne	0x008b018b
    2740:	9e060000 	cdpls	0, 0, cr0, cr6, cr0, {0}
    2744:	0043d101 	subeq	sp, r3, r1, lsl #2
    2748:	019f0500 	orrseq	r0, pc, r0, lsl #10
    274c:	0000618a 	andeq	r6, r0, sl, lsl #3
    2750:	8601f705 	strhi	pc, [r1], -r5, lsl #14
    2754:	0500006d 	streq	r0, [r0, #-109]	; 0xffffff93
    2758:	5f1901fd 	svcpl	0x001901fd
    275c:	85050000 	strhi	r0, [r5, #-0]
    2760:	007b8b02 	rsbseq	r8, fp, r2, lsl #22
    2764:	028a0500 	addeq	r0, sl, #0, 10
    2768:	00006ff1 	strdeq	r6, [r0], -r1
    276c:	e2029505 	and	r9, r2, #20971520	; 0x1400000
    2770:	05000021 	streq	r0, [r0, #-33]	; 0xffffffdf
    2774:	76aa0299 	ssatvc	r0, #11, r9, lsl #5
    2778:	9f050000 	svcls	0x00050000
    277c:	00076f02 	andeq	r6, r7, r2, lsl #30
    2780:	02af0500 	adceq	r0, pc, #0, 10
    2784:	000000be 	strheq	r0, [r0], -lr
    2788:	1402bf05 	strne	fp, [r2], #-3845	; 0xfffff0fb
    278c:	05000095 	streq	r0, [r0, #-149]	; 0xffffff6b
    2790:	94b702cb 	ldrtls	r0, [r7], #715	; 0x2cb
    2794:	04000000 	streq	r0, [r0], #-0
    2798:	0f050000 	svceq	0x00050000
    279c:	000061b7 			; <UNDEFINED> instruction: 0x000061b7
    27a0:	7eee1a05 	vfmavc.f32	s3, s28, s10
    27a4:	21050000 	mrscs	r0, (UNDEF: 5)
    27a8:	0000933b 	andeq	r9, r0, fp, lsr r3
    27ac:	47e72f05 	strbmi	r2, [r7, r5, lsl #30]!
    27b0:	3d050000 	stccc	0, cr0, [r5, #-0]
    27b4:	00003363 	andeq	r3, r0, r3, ror #6
    27b8:	5dc05305 	stclpl	3, cr5, [r0, #20]
    27bc:	6d050000 	stcvs	0, cr0, [r5, #-0]
    27c0:	0000770d 	andeq	r7, r0, sp, lsl #14
    27c4:	50018c05 	andpl	r8, r1, r5, lsl #24
    27c8:	0500006a 	streq	r0, [r0, #-106]	; 0xffffff96
    27cc:	1c2a01a6 	stfnes	f0, [sl], #-664	; 0xfffffd68
    27d0:	bc050000 	stclt	0, cr0, [r5], {-0}
    27d4:	00427d01 	subeq	r7, r2, r1, lsl #26
    27d8:	01ce0500 	biceq	r0, lr, r0, lsl #10
    27dc:	00006029 	andeq	r6, r0, r9, lsr #32
    27e0:	0701f406 	streq	pc, [r1, -r6, lsl #8]
    27e4:	00000077 	andeq	r0, r0, r7, ror r0
    27e8:	05000004 	streq	r0, [r0, #-4]
    27ec:	0015cc07 	andseq	ip, r5, r7, lsl #24
    27f0:	a51b0500 	ldrge	r0, [fp, #-1280]	; 0xfffffb00
    27f4:	05000055 	streq	r0, [r0, #-85]	; 0xffffffab
    27f8:	005de627 	subseq	lr, sp, r7, lsr #12
    27fc:	832b0500 			; <UNDEFINED> instruction: 0x832b0500
    2800:	05000085 	streq	r0, [r0, #-133]	; 0xffffff7b
    2804:	0024d42e 	eoreq	sp, r4, lr, lsr #8
    2808:	02e30500 	rsceq	r0, r3, #0, 10
    280c:	00000e98 	muleq	r0, r8, lr
    2810:	5602e605 	strpl	lr, [r2], -r5, lsl #12
    2814:	05000090 	streq	r0, [r0, #-144]	; 0xffffff70
    2818:	34d802ec 	ldrbcc	r0, [r8], #748	; 0x2ec
    281c:	ef050000 	svc	0x00050000
    2820:	00aa4c02 	adceq	r4, sl, r2, lsl #24
    2824:	02f20500 	rscseq	r0, r2, #0, 10
    2828:	0000199a 	muleq	r0, sl, r9
    282c:	bf02f505 	svclt	0x0002f505
    2830:	0500009d 	streq	r0, [r0, #-157]	; 0xffffff63
    2834:	91d002f8 	ldrshls	r0, [r0, #40]	; 0x28
    2838:	91050000 	mrsls	r0, (UNDEF: 5)
    283c:	00609003 	rsbeq	r9, r0, r3
    2840:	039b0500 	orrseq	r0, fp, #0, 10
    2844:	00007922 	andeq	r7, r0, r2, lsr #18
	...

Disassembly of section .debug_line:

00000000 <.debug_line>:
       0:	00000add 	ldrdeq	r0, [r0], -sp
       4:	06b60003 	ldrteq	r0, [r6], r3
       8:	01020000 	mrseq	r0, (UNDEF: 2)
       c:	000d0efb 	strdeq	r0, [sp], -fp
      10:	01010101 	tsteq	r1, r1, lsl #2
      14:	01000000 	mrseq	r0, (UNDEF: 0)
      18:	2e010000 	cdpcs	0, 0, cr0, cr1, cr0, {0}
      1c:	434d2f2e 	movtmi	r2, #57134	; 0xdf2e
      20:	44004c41 	strmi	r4, [r0], #-3137	; 0xfffff3bf
      24:	54535c3a 	ldrbpl	r5, [r3], #-3130	; 0xfffff3c6
      28:	4332334d 	teqmi	r2, #872415233	; 0x34000001
      2c:	49656275 	stmdbmi	r5!, {r0, r2, r4, r5, r6, r9, sp, lr}^
      30:	315f4544 	cmpcc	pc, r4, asr #10
      34:	2e33312e 	rsfcssp	f3, f3, #0.5
      38:	54535c30 	ldrbpl	r5, [r3], #-3120	; 0xfffff3d0
      3c:	4332334d 	teqmi	r2, #872415233	; 0x34000001
      40:	49656275 	stmdbmi	r5!, {r0, r2, r4, r5, r6, r9, sp, lr}^
      44:	535c4544 	cmppl	ip, #68, 10	; 0x11000000
      48:	32334d54 	eorscc	r4, r3, #84, 26	; 0x1500
      4c:	65627543 	strbvs	r7, [r2, #-1347]!	; 0xfffffabd
      50:	5c454449 	cfstrdpl	mvd4, [r5], {73}	; 0x49
      54:	67756c70 			; <UNDEFINED> instruction: 0x67756c70
      58:	5c736e69 	ldclpl	14, cr6, [r3], #-420	; 0xfffffe5c
      5c:	2e6d6f63 	cdpcs	15, 6, cr6, cr13, cr3, {3}
      60:	732e7473 			; <UNDEFINED> instruction: 0x732e7473
      64:	32336d74 	eorscc	r6, r3, #116, 26	; 0x1d00
      68:	65627563 	strbvs	r7, [r2, #-1379]!	; 0xfffffa9d
      6c:	6564692e 	strbvs	r6, [r4, #-2350]!	; 0xfffff6d2
      70:	75636d2e 	strbvc	r6, [r3, #-3374]!	; 0xfffff2d2
      74:	7478652e 	ldrbtvc	r6, [r8], #-1326	; 0xfffffad2
      78:	616e7265 	cmnvs	lr, r5, ror #4
      7c:	6f6f746c 	svcvs	0x006f746c
      80:	672e736c 	strvs	r7, [lr, -ip, ror #6]!
      84:	742d756e 	strtvc	r7, [sp], #-1390	; 0xfffffa92
      88:	736c6f6f 	cmnvc	ip, #444	; 0x1bc
      8c:	726f662d 	rsbvc	r6, pc, #47185920	; 0x2d00000
      90:	6d74732d 	ldclvs	3, cr7, [r4, #-180]!	; 0xffffff4c
      94:	312e3233 			; <UNDEFINED> instruction: 0x312e3233
      98:	2e332e31 	mrccs	14, 1, r2, cr3, cr1, {1}
      9c:	316c6572 	smccc	50770	; 0xc652
      a0:	6e69772e 	cdpvs	7, 6, cr7, cr9, cr14, {1}
      a4:	315f3233 	cmpcc	pc, r3, lsr r2	; <UNPREDICTABLE>
      a8:	302e312e 	eorcc	r3, lr, lr, lsr #2
      ac:	3230322e 	eorscc	r3, r0, #-536870910	; 0xe0000002
      b0:	32353033 	eorscc	r3, r5, #51	; 0x33
      b4:	30353133 	eorscc	r3, r5, r3, lsr r1
      b8:	6f745c36 	svcvs	0x00745c36
      bc:	5c736c6f 	ldclpl	12, cr6, [r3], #-444	; 0xfffffe44
      c0:	2d6d7261 	sfmcs	f7, 2, [sp, #-388]!	; 0xfffffe7c
      c4:	656e6f6e 	strbvs	r6, [lr, #-3950]!	; 0xfffff092
      c8:	6261652d 	rsbvs	r6, r1, #188743680	; 0xb400000
      cc:	6e695c69 	cdpvs	12, 6, cr5, cr9, cr9, {3}
      d0:	64756c63 	ldrbtvs	r6, [r5], #-3171	; 0xfffff39d
      d4:	616d5c65 	cmnvs	sp, r5, ror #24
      d8:	6e696863 	cdpvs	8, 6, cr6, cr9, cr3, {3}
      dc:	3a440065 	bcc	1100278 <_Min_Stack_Size+0x10ffe78>
      e0:	4d54535c 	ldclmi	3, cr5, [r4, #-368]	; 0xfffffe90
      e4:	75433233 	strbvc	r3, [r3, #-563]	; 0xfffffdcd
      e8:	44496562 	strbmi	r6, [r9], #-1378	; 0xfffffa9e
      ec:	2e315f45 	cdpcs	15, 3, cr5, cr1, cr5, {2}
      f0:	302e3331 	eorcc	r3, lr, r1, lsr r3
      f4:	4d54535c 	ldclmi	3, cr5, [r4, #-368]	; 0xfffffe90
      f8:	75433233 	strbvc	r3, [r3, #-563]	; 0xfffffdcd
      fc:	44496562 	strbmi	r6, [r9], #-1378	; 0xfffffa9e
     100:	54535c45 	ldrbpl	r5, [r3], #-3141	; 0xfffff3bb
     104:	4332334d 	teqmi	r2, #872415233	; 0x34000001
     108:	49656275 	stmdbmi	r5!, {r0, r2, r4, r5, r6, r9, sp, lr}^
     10c:	705c4544 	subsvc	r4, ip, r4, asr #10
     110:	6967756c 	stmdbvs	r7!, {r2, r3, r5, r6, r8, sl, ip, sp, lr}^
     114:	635c736e 	cmpvs	ip, #-1207959551	; 0xb8000001
     118:	732e6d6f 			; <UNDEFINED> instruction: 0x732e6d6f
     11c:	74732e74 	ldrbtvc	r2, [r3], #-3700	; 0xfffff18c
     120:	6332336d 	teqvs	r2, #-1275068415	; 0xb4000001
     124:	2e656275 	mcrcs	2, 3, r6, cr5, cr5, {3}
     128:	2e656469 	cdpcs	4, 6, cr6, cr5, cr9, {3}
     12c:	2e75636d 	cdpcs	3, 7, cr6, cr5, cr13, {3}
     130:	65747865 	ldrbvs	r7, [r4, #-2149]!	; 0xfffff79b
     134:	6c616e72 	stclvs	14, cr6, [r1], #-456	; 0xfffffe38
     138:	6c6f6f74 	stclvs	15, cr6, [pc], #-464	; ffffff70 <_estack+0xdfffaf70>
     13c:	6e672e73 	mcrvs	14, 3, r2, cr7, cr3, {3}
     140:	6f742d75 	svcvs	0x00742d75
     144:	2d736c6f 	ldclcs	12, cr6, [r3, #-444]!	; 0xfffffe44
     148:	2d726f66 	ldclcs	15, cr6, [r2, #-408]!	; 0xfffffe68
     14c:	336d7473 	cmncc	sp, #1929379840	; 0x73000000
     150:	31312e32 	teqcc	r1, r2, lsr lr
     154:	722e332e 	eorvc	r3, lr, #-1207959552	; 0xb8000000
     158:	2e316c65 	cdpcs	12, 3, cr6, cr1, cr5, {3}
     15c:	336e6977 	cmncc	lr, #1949696	; 0x1dc000
     160:	2e315f32 	mrccs	15, 1, r5, cr1, cr2, {1}
     164:	2e302e31 	mrccs	14, 1, r2, cr0, cr1, {1}
     168:	33323032 	teqcc	r2, #50	; 0x32
     16c:	33323530 	teqcc	r2, #48, 10	; 0xc000000
     170:	36303531 			; <UNDEFINED> instruction: 0x36303531
     174:	6f6f745c 	svcvs	0x006f745c
     178:	625c736c 	subsvs	r7, ip, #108, 6	; 0xb0000001
     17c:	2e2f6e69 	cdpcs	14, 2, cr6, cr15, cr9, {3}
     180:	696c2f2e 	stmdbvs	ip!, {r1, r2, r3, r5, r8, r9, sl, fp, sp}^
     184:	63672f62 	cmnvs	r7, #392	; 0x188
     188:	72612f63 	rsbvc	r2, r1, #396	; 0x18c
     18c:	6f6e2d6d 	svcvs	0x006e2d6d
     190:	652d656e 	strvs	r6, [sp, #-1390]!	; 0xfffffa92
     194:	2f696261 	svccs	0x00696261
     198:	332e3131 			; <UNDEFINED> instruction: 0x332e3131
     19c:	2e2f312e 	sufcsep	f3, f7, #0.5
     1a0:	2e2e2f2e 	cdpcs	15, 2, cr2, cr14, cr14, {1}
     1a4:	2f2e2e2f 	svccs	0x002e2e2f
     1a8:	612f2e2e 			; <UNDEFINED> instruction: 0x612f2e2e
     1ac:	6e2d6d72 	mcrvs	13, 1, r6, cr13, cr2, {3}
     1b0:	2d656e6f 	stclcs	14, cr6, [r5, #-444]!	; 0xfffffe44
     1b4:	69626165 	stmdbvs	r2!, {r0, r2, r5, r6, r8, sp, lr}^
     1b8:	636e692f 	cmnvs	lr, #770048	; 0xbc000
     1bc:	6564756c 	strbvs	r7, [r4, #-1388]!	; 0xfffffa94
     1c0:	7379732f 	cmnvc	r9, #-1140850688	; 0xbc000000
     1c4:	2f3a4400 	svccs	0x003a4400
     1c8:	6520736b 	strvs	r7, [r0, #-875]!	; 0xfffffc95
     1cc:	6465626d 	strbtvs	r6, [r5], #-621	; 0xfffffd93
     1d0:	20646564 	rsbcs	r6, r4, r4, ror #10
     1d4:	74737973 	ldrbtvc	r7, [r3], #-2419	; 0xfffff68d
     1d8:	61206d65 			; <UNDEFINED> instruction: 0x61206d65
     1dc:	612f7373 			; <UNDEFINED> instruction: 0x612f7373
     1e0:	61206d72 			; <UNDEFINED> instruction: 0x61206d72
     1e4:	69686372 	stmdbvs	r8!, {r1, r4, r5, r6, r8, r9, sp, lr}^
     1e8:	74636574 	strbtvc	r6, [r3], #-1396	; 0xfffffa8c
     1ec:	20657275 	rsbcs	r7, r5, r5, ror r2
     1f0:	74696e75 	strbtvc	r6, [r9], #-3701	; 0xfffff18b
     1f4:	2f343120 	svccs	0x00343120
     1f8:	206d7261 	rsbcs	r7, sp, r1, ror #4
     1fc:	68637261 	stmdavs	r3!, {r0, r5, r6, r9, ip, sp, lr}^
     200:	63657469 	cmnvs	r5, #1761607680	; 0x69000000
     204:	65727574 	ldrbvs	r7, [r2, #-1396]!	; 0xfffffa8c
     208:	696e7520 	stmdbvs	lr!, {r5, r8, sl, ip, sp, lr}^
     20c:	2f343174 	svccs	0x00343174
     210:	7373656c 	cmnvc	r3, #108, 10	; 0x1b000000
     214:	20356e6f 	eorscs	r6, r5, pc, ror #28
     218:	2f62616c 	svccs	0x0062616c
     21c:	4c41434d 	mcrrmi	3, 4, r4, r1, cr13
     220:	636e692f 	cmnvs	lr, #770048	; 0xbc000
     224:	5c3a4400 	cfldrspl	mvf4, [sl], #-0
     228:	334d5453 	movtcc	r5, #54355	; 0xd453
     22c:	62754332 	rsbsvs	r4, r5, #-939524096	; 0xc8000000
     230:	45444965 	strbmi	r4, [r4, #-2405]	; 0xfffff69b
     234:	312e315f 			; <UNDEFINED> instruction: 0x312e315f
     238:	5c302e33 	ldcpl	14, cr2, [r0], #-204	; 0xffffff34
     23c:	334d5453 	movtcc	r5, #54355	; 0xd453
     240:	62754332 	rsbsvs	r4, r5, #-939524096	; 0xc8000000
     244:	45444965 	strbmi	r4, [r4, #-2405]	; 0xfffff69b
     248:	4d54535c 	ldclmi	3, cr5, [r4, #-368]	; 0xfffffe90
     24c:	75433233 	strbvc	r3, [r3, #-563]	; 0xfffffdcd
     250:	44496562 	strbmi	r6, [r9], #-1378	; 0xfffffa9e
     254:	6c705c45 	ldclvs	12, cr5, [r0], #-276	; 0xfffffeec
     258:	6e696775 	mcrvs	7, 3, r6, cr9, cr5, {3}
     25c:	6f635c73 	svcvs	0x00635c73
     260:	74732e6d 	ldrbtvc	r2, [r3], #-3693	; 0xfffff193
     264:	6d74732e 	ldclvs	3, cr7, [r4, #-184]!	; 0xffffff48
     268:	75633233 	strbvc	r3, [r3, #-563]!	; 0xfffffdcd
     26c:	692e6562 	stmdbvs	lr!, {r1, r5, r6, r8, sl, sp, lr}
     270:	6d2e6564 	cfstr32vs	mvfx6, [lr, #-400]!	; 0xfffffe70
     274:	652e7563 	strvs	r7, [lr, #-1379]!	; 0xfffffa9d
     278:	72657478 	rsbvc	r7, r5, #120, 8	; 0x78000000
     27c:	746c616e 	strbtvc	r6, [ip], #-366	; 0xfffffe92
     280:	736c6f6f 	cmnvc	ip, #444	; 0x1bc
     284:	756e672e 	strbvc	r6, [lr, #-1838]!	; 0xfffff8d2
     288:	6f6f742d 	svcvs	0x006f742d
     28c:	662d736c 	strtvs	r7, [sp], -ip, ror #6
     290:	732d726f 			; <UNDEFINED> instruction: 0x732d726f
     294:	32336d74 	eorscc	r6, r3, #116, 26	; 0x1d00
     298:	2e31312e 	rsfcssp	f3, f1, #0.5
     29c:	65722e33 	ldrbvs	r2, [r2, #-3635]!	; 0xfffff1cd
     2a0:	772e316c 	strvc	r3, [lr, -ip, ror #2]!
     2a4:	32336e69 	eorscc	r6, r3, #1680	; 0x690
     2a8:	312e315f 			; <UNDEFINED> instruction: 0x312e315f
     2ac:	322e302e 	eorcc	r3, lr, #46	; 0x2e
     2b0:	30333230 	eorscc	r3, r3, r0, lsr r2
     2b4:	31333235 	teqcc	r3, r5, lsr r2
     2b8:	5c363035 	ldcpl	0, cr3, [r6], #-212	; 0xffffff2c
     2bc:	6c6f6f74 	stclvs	15, cr6, [pc], #-464	; f4 <_Min_Heap_Size-0x10c>
     2c0:	69625c73 	stmdbvs	r2!, {r0, r1, r4, r5, r6, sl, fp, ip, lr}^
     2c4:	2e2e2f6e 	cdpcs	15, 2, cr2, cr14, cr14, {3}
     2c8:	62696c2f 	rsbvs	r6, r9, #12032	; 0x2f00
     2cc:	6363672f 	cmnvs	r3, #12320768	; 0xbc0000
     2d0:	6d72612f 	ldfvse	f6, [r2, #-188]!	; 0xffffff44
     2d4:	6e6f6e2d 	cdpvs	14, 6, cr6, cr15, cr13, {1}
     2d8:	61652d65 	cmnvs	r5, r5, ror #26
     2dc:	312f6962 			; <UNDEFINED> instruction: 0x312f6962
     2e0:	2e332e31 	mrccs	14, 1, r2, cr3, cr1, {1}
     2e4:	2e2e2f31 	mcrcs	15, 1, r2, cr14, cr1, {1}
     2e8:	2f2e2e2f 	svccs	0x002e2e2f
     2ec:	2e2f2e2e 	cdpcs	14, 2, cr2, cr15, cr14, {1}
     2f0:	72612f2e 	rsbvc	r2, r1, #46, 30	; 0xb8
     2f4:	6f6e2d6d 	svcvs	0x006e2d6d
     2f8:	652d656e 	strvs	r6, [sp, #-1390]!	; 0xfffffa92
     2fc:	2f696261 	svccs	0x00696261
     300:	6c636e69 	stclvs	14, cr6, [r3], #-420	; 0xfffffe5c
     304:	00656475 	rsbeq	r6, r5, r5, ror r4
     308:	535c3a44 	cmppl	ip, #68, 20	; 0x44000
     30c:	32334d54 	eorscc	r4, r3, #84, 26	; 0x1500
     310:	65627543 	strbvs	r7, [r2, #-1347]!	; 0xfffffabd
     314:	5f454449 	svcpl	0x00454449
     318:	33312e31 	teqcc	r1, #784	; 0x310
     31c:	535c302e 	cmppl	ip, #46	; 0x2e
     320:	32334d54 	eorscc	r4, r3, #84, 26	; 0x1500
     324:	65627543 	strbvs	r7, [r2, #-1347]!	; 0xfffffabd
     328:	5c454449 	cfstrdpl	mvd4, [r5], {73}	; 0x49
     32c:	334d5453 	movtcc	r5, #54355	; 0xd453
     330:	62754332 	rsbsvs	r4, r5, #-939524096	; 0xc8000000
     334:	45444965 	strbmi	r4, [r4, #-2405]	; 0xfffff69b
     338:	756c705c 	strbvc	r7, [ip, #-92]!	; 0xffffffa4
     33c:	736e6967 	cmnvc	lr, #1687552	; 0x19c000
     340:	6d6f635c 	stclvs	3, cr6, [pc, #-368]!	; 1d8 <_Min_Heap_Size-0x28>
     344:	2e74732e 	cdpcs	3, 7, cr7, cr4, cr14, {1}
     348:	336d7473 	cmncc	sp, #1929379840	; 0x73000000
     34c:	62756332 	rsbsvs	r6, r5, #-939524096	; 0xc8000000
     350:	64692e65 	strbtvs	r2, [r9], #-3685	; 0xfffff19b
     354:	636d2e65 	cmnvs	sp, #1616	; 0x650
     358:	78652e75 	stmdavc	r5!, {r0, r2, r4, r5, r6, r9, sl, fp, sp}^
     35c:	6e726574 	mrcvs	5, 3, r6, cr2, cr4, {3}
     360:	6f746c61 	svcvs	0x00746c61
     364:	2e736c6f 	cdpcs	12, 7, cr6, cr3, cr15, {3}
     368:	2d756e67 	ldclcs	14, cr6, [r5, #-412]!	; 0xfffffe64
     36c:	6c6f6f74 	stclvs	15, cr6, [pc], #-464	; 1a4 <_Min_Heap_Size-0x5c>
     370:	6f662d73 	svcvs	0x00662d73
     374:	74732d72 	ldrbtvc	r2, [r3], #-3442	; 0xfffff28e
     378:	2e32336d 	cdpcs	3, 3, cr3, cr2, cr13, {3}
     37c:	332e3131 			; <UNDEFINED> instruction: 0x332e3131
     380:	6c65722e 	sfmvs	f7, 2, [r5], #-184	; 0xffffff48
     384:	69772e31 	ldmdbvs	r7!, {r0, r4, r5, r9, sl, fp, sp}^
     388:	5f32336e 	svcpl	0x0032336e
     38c:	2e312e31 	mrccs	14, 1, r2, cr1, cr1, {1}
     390:	30322e30 	eorscc	r2, r2, r0, lsr lr
     394:	35303332 	ldrcc	r3, [r0, #-818]!	; 0xfffffcce
     398:	35313332 	ldrcc	r3, [r1, #-818]!	; 0xfffffcce
     39c:	745c3630 	ldrbvc	r3, [ip], #-1584	; 0xfffff9d0
     3a0:	736c6f6f 	cmnvc	ip, #444	; 0x1bc
     3a4:	6e69625c 	mcrvs	2, 3, r6, cr9, cr12, {2}
     3a8:	2f2e2e2f 	svccs	0x002e2e2f
     3ac:	2f62696c 	svccs	0x0062696c
     3b0:	2f636367 	svccs	0x00636367
     3b4:	2d6d7261 	sfmcs	f7, 2, [sp, #-388]!	; 0xfffffe7c
     3b8:	656e6f6e 	strbvs	r6, [lr, #-3950]!	; 0xfffff092
     3bc:	6261652d 	rsbvs	r6, r1, #188743680	; 0xb400000
     3c0:	31312f69 	teqcc	r1, r9, ror #30
     3c4:	312e332e 			; <UNDEFINED> instruction: 0x312e332e
     3c8:	2f2e2e2f 	svccs	0x002e2e2f
     3cc:	2e2f2e2e 	cdpcs	14, 2, cr2, cr15, cr14, {1}
     3d0:	2e2e2f2e 	cdpcs	15, 2, cr2, cr14, cr14, {1}
     3d4:	6d72612f 	ldfvse	f6, [r2, #-188]!	; 0xffffff44
     3d8:	6e6f6e2d 	cdpvs	14, 6, cr6, cr15, cr13, {1}
     3dc:	61652d65 	cmnvs	r5, r5, ror #26
     3e0:	692f6962 	stmdbvs	pc!, {r1, r5, r6, r8, fp, sp, lr}	; <UNPREDICTABLE>
     3e4:	756c636e 	strbvc	r6, [ip, #-878]!	; 0xfffffc92
     3e8:	6d2f6564 	cfstr32vs	mvfx6, [pc, #-400]!	; 260 <_Min_Heap_Size+0x60>
     3ec:	69686361 	stmdbvs	r8!, {r0, r5, r6, r8, r9, sp, lr}^
     3f0:	4400656e 	strmi	r6, [r0], #-1390	; 0xfffffa92
     3f4:	54535c3a 	ldrbpl	r5, [r3], #-3130	; 0xfffff3c6
     3f8:	4332334d 	teqmi	r2, #872415233	; 0x34000001
     3fc:	49656275 	stmdbmi	r5!, {r0, r2, r4, r5, r6, r9, sp, lr}^
     400:	315f4544 	cmpcc	pc, r4, asr #10
     404:	2e33312e 	rsfcssp	f3, f3, #0.5
     408:	54535c30 	ldrbpl	r5, [r3], #-3120	; 0xfffff3d0
     40c:	4332334d 	teqmi	r2, #872415233	; 0x34000001
     410:	49656275 	stmdbmi	r5!, {r0, r2, r4, r5, r6, r9, sp, lr}^
     414:	535c4544 	cmppl	ip, #68, 10	; 0x11000000
     418:	32334d54 	eorscc	r4, r3, #84, 26	; 0x1500
     41c:	65627543 	strbvs	r7, [r2, #-1347]!	; 0xfffffabd
     420:	5c454449 	cfstrdpl	mvd4, [r5], {73}	; 0x49
     424:	67756c70 			; <UNDEFINED> instruction: 0x67756c70
     428:	5c736e69 	ldclpl	14, cr6, [r3], #-420	; 0xfffffe5c
     42c:	2e6d6f63 	cdpcs	15, 6, cr6, cr13, cr3, {3}
     430:	732e7473 			; <UNDEFINED> instruction: 0x732e7473
     434:	32336d74 	eorscc	r6, r3, #116, 26	; 0x1d00
     438:	65627563 	strbvs	r7, [r2, #-1379]!	; 0xfffffa9d
     43c:	6564692e 	strbvs	r6, [r4, #-2350]!	; 0xfffff6d2
     440:	75636d2e 	strbvc	r6, [r3, #-3374]!	; 0xfffff2d2
     444:	7478652e 	ldrbtvc	r6, [r8], #-1326	; 0xfffffad2
     448:	616e7265 	cmnvs	lr, r5, ror #4
     44c:	6f6f746c 	svcvs	0x006f746c
     450:	672e736c 	strvs	r7, [lr, -ip, ror #6]!
     454:	742d756e 	strtvc	r7, [sp], #-1390	; 0xfffffa92
     458:	736c6f6f 	cmnvc	ip, #444	; 0x1bc
     45c:	726f662d 	rsbvc	r6, pc, #47185920	; 0x2d00000
     460:	6d74732d 	ldclvs	3, cr7, [r4, #-180]!	; 0xffffff4c
     464:	312e3233 			; <UNDEFINED> instruction: 0x312e3233
     468:	2e332e31 	mrccs	14, 1, r2, cr3, cr1, {1}
     46c:	316c6572 	smccc	50770	; 0xc652
     470:	6e69772e 	cdpvs	7, 6, cr7, cr9, cr14, {1}
     474:	315f3233 	cmpcc	pc, r3, lsr r2	; <UNPREDICTABLE>
     478:	302e312e 	eorcc	r3, lr, lr, lsr #2
     47c:	3230322e 	eorscc	r3, r0, #-536870910	; 0xe0000002
     480:	32353033 	eorscc	r3, r5, #51	; 0x33
     484:	30353133 	eorscc	r3, r5, r3, lsr r1
     488:	6f745c36 	svcvs	0x00745c36
     48c:	5c736c6f 	ldclpl	12, cr6, [r3], #-444	; 0xfffffe44
     490:	2f6e6962 	svccs	0x006e6962
     494:	612f2e2e 			; <UNDEFINED> instruction: 0x612f2e2e
     498:	6e2d6d72 	mcrvs	13, 1, r6, cr13, cr2, {3}
     49c:	2d656e6f 	stclcs	14, cr6, [r5, #-444]!	; 0xfffffe44
     4a0:	69626165 	stmdbvs	r2!, {r0, r2, r5, r6, r8, sp, lr}^
     4a4:	636e692f 	cmnvs	lr, #770048	; 0xbc000
     4a8:	6564756c 	strbvs	r7, [r4, #-1388]!	; 0xfffffa94
     4ac:	77656e2f 	strbvc	r6, [r5, -pc, lsr #28]!
     4b0:	2d62696c 			; <UNDEFINED> instruction: 0x2d62696c
     4b4:	6f6e616e 	svcvs	0x006e616e
     4b8:	5c3a4400 	cfldrspl	mvf4, [sl], #-0
     4bc:	334d5453 	movtcc	r5, #54355	; 0xd453
     4c0:	62754332 	rsbsvs	r4, r5, #-939524096	; 0xc8000000
     4c4:	45444965 	strbmi	r4, [r4, #-2405]	; 0xfffff69b
     4c8:	312e315f 			; <UNDEFINED> instruction: 0x312e315f
     4cc:	5c302e33 	ldcpl	14, cr2, [r0], #-204	; 0xffffff34
     4d0:	334d5453 	movtcc	r5, #54355	; 0xd453
     4d4:	62754332 	rsbsvs	r4, r5, #-939524096	; 0xc8000000
     4d8:	45444965 	strbmi	r4, [r4, #-2405]	; 0xfffff69b
     4dc:	4d54535c 	ldclmi	3, cr5, [r4, #-368]	; 0xfffffe90
     4e0:	75433233 	strbvc	r3, [r3, #-563]	; 0xfffffdcd
     4e4:	44496562 	strbmi	r6, [r9], #-1378	; 0xfffffa9e
     4e8:	6c705c45 	ldclvs	12, cr5, [r0], #-276	; 0xfffffeec
     4ec:	6e696775 	mcrvs	7, 3, r6, cr9, cr5, {3}
     4f0:	6f635c73 	svcvs	0x00635c73
     4f4:	74732e6d 	ldrbtvc	r2, [r3], #-3693	; 0xfffff193
     4f8:	6d74732e 	ldclvs	3, cr7, [r4, #-184]!	; 0xffffff48
     4fc:	75633233 	strbvc	r3, [r3, #-563]!	; 0xfffffdcd
     500:	692e6562 	stmdbvs	lr!, {r1, r5, r6, r8, sl, sp, lr}
     504:	6d2e6564 	cfstr32vs	mvfx6, [lr, #-400]!	; 0xfffffe70
     508:	652e7563 	strvs	r7, [lr, #-1379]!	; 0xfffffa9d
     50c:	72657478 	rsbvc	r7, r5, #120, 8	; 0x78000000
     510:	746c616e 	strbtvc	r6, [ip], #-366	; 0xfffffe92
     514:	736c6f6f 	cmnvc	ip, #444	; 0x1bc
     518:	756e672e 	strbvc	r6, [lr, #-1838]!	; 0xfffff8d2
     51c:	6f6f742d 	svcvs	0x006f742d
     520:	662d736c 	strtvs	r7, [sp], -ip, ror #6
     524:	732d726f 			; <UNDEFINED> instruction: 0x732d726f
     528:	32336d74 	eorscc	r6, r3, #116, 26	; 0x1d00
     52c:	2e31312e 	rsfcssp	f3, f1, #0.5
     530:	65722e33 	ldrbvs	r2, [r2, #-3635]!	; 0xfffff1cd
     534:	772e316c 	strvc	r3, [lr, -ip, ror #2]!
     538:	32336e69 	eorscc	r6, r3, #1680	; 0x690
     53c:	312e315f 			; <UNDEFINED> instruction: 0x312e315f
     540:	322e302e 	eorcc	r3, lr, #46	; 0x2e
     544:	30333230 	eorscc	r3, r3, r0, lsr r2
     548:	31333235 	teqcc	r3, r5, lsr r2
     54c:	5c363035 	ldcpl	0, cr3, [r6], #-212	; 0xffffff2c
     550:	6c6f6f74 	stclvs	15, cr6, [pc], #-464	; 388 <_Min_Heap_Size+0x188>
     554:	69625c73 	stmdbvs	r2!, {r0, r1, r4, r5, r6, sl, fp, ip, lr}^
     558:	2e2e2f6e 	cdpcs	15, 2, cr2, cr14, cr14, {3}
     55c:	62696c2f 	rsbvs	r6, r9, #12032	; 0x2f00
     560:	6363672f 	cmnvs	r3, #12320768	; 0xbc0000
     564:	6d72612f 	ldfvse	f6, [r2, #-188]!	; 0xffffff44
     568:	6e6f6e2d 	cdpvs	14, 6, cr6, cr15, cr13, {1}
     56c:	61652d65 	cmnvs	r5, r5, ror #26
     570:	312f6962 			; <UNDEFINED> instruction: 0x312f6962
     574:	2e332e31 	mrccs	14, 1, r2, cr3, cr1, {1}
     578:	6e692f31 	mcrvs	15, 3, r2, cr9, cr1, {1}
     57c:	64756c63 	ldrbtvs	r6, [r5], #-3171	; 0xfffff39d
     580:	45000065 	strmi	r0, [r0, #-101]	; 0xffffff9b
     584:	2e495458 	mcrcs	4, 2, r5, cr9, cr8, {2}
     588:	00010063 	andeq	r0, r1, r3, rrx
     58c:	65645f00 	strbvs	r5, [r4, #-3840]!	; 0xfffff100
     590:	6c756166 	ldfvse	f6, [r5], #-408	; 0xfffffe68
     594:	79745f74 	ldmdbvc	r4!, {r2, r4, r5, r6, r8, r9, sl, fp, ip, lr}^
     598:	2e736570 	mrccs	5, 3, r6, cr3, cr0, {3}
     59c:	00020068 	andeq	r0, r2, r8, rrx
     5a0:	74735f00 	ldrbtvc	r5, [r3], #-3840	; 0xfffff100
     5a4:	746e6964 	strbtvc	r6, [lr], #-2404	; 0xfffff69c
     5a8:	0300682e 	movweq	r6, #2094	; 0x82e
     5ac:	74730000 	ldrbtvc	r0, [r3], #-0
     5b0:	6632336d 	ldrtvs	r3, [r2], -sp, ror #6
     5b4:	78333031 	ldmdavc	r3!, {r0, r4, r5, ip, sp}
     5b8:	682e7878 	stmdavs	lr!, {r3, r4, r5, r6, fp, ip, sp, lr}
     5bc:	00000400 	andeq	r0, r0, r0, lsl #8
     5c0:	4f495047 	svcmi	0x00495047
     5c4:	0400682e 	streq	r6, [r0], #-2094	; 0xfffff7d2
     5c8:	58450000 	stmdapl	r5, {}^	; <UNPREDICTABLE>
     5cc:	682e4954 	stmdavs	lr!, {r2, r4, r6, r8, fp, lr}
     5d0:	00000400 	andeq	r0, r0, r0, lsl #8
     5d4:	6c647473 	cfstrdvs	mvd7, [r4], #-460	; 0xfffffe34
     5d8:	682e6269 	stmdavs	lr!, {r0, r3, r5, r6, r9, sp, lr}
     5dc:	00000500 	andeq	r0, r0, r0, lsl #10
     5e0:	65656569 	strbvs	r6, [r5, #-1385]!	; 0xfffffa97
     5e4:	682e7066 	stmdavs	lr!, {r1, r2, r5, r6, ip, sp, lr}
     5e8:	00000600 	andeq	r0, r0, r0, lsl #12
     5ec:	736e615f 	cmnvc	lr, #-1073741801	; 0xc0000017
     5f0:	00682e69 	rsbeq	r2, r8, r9, ror #28
     5f4:	6e000005 	cdpvs	0, 0, cr0, cr0, cr5, {0}
     5f8:	696c7765 	stmdbvs	ip!, {r0, r2, r5, r6, r8, r9, sl, ip, sp, lr}^
     5fc:	00682e62 	rsbeq	r2, r8, r2, ror #28
     600:	5f000007 	svcpl	0x00000007
     604:	6c77656e 	cfldr64vs	mvdx6, [r7], #-440	; 0xfffffe48
     608:	765f6269 	ldrbvc	r6, [pc], -r9, ror #4
     60c:	69737265 	ldmdbvs	r3!, {r0, r2, r5, r6, r9, ip, sp, lr}^
     610:	682e6e6f 	stmdavs	lr!, {r0, r1, r2, r3, r5, r6, r9, sl, fp, sp, lr}
     614:	00000500 	andeq	r0, r0, r0, lsl #10
     618:	666e6f63 	strbtvs	r6, [lr], -r3, ror #30
     61c:	682e6769 	stmdavs	lr!, {r0, r3, r5, r6, r8, r9, sl, sp, lr}
     620:	00000300 	andeq	r0, r0, r0, lsl #6
     624:	74616566 	strbtvc	r6, [r1], #-1382	; 0xfffffa9a
     628:	73657275 	cmnvc	r5, #1342177287	; 0x50000007
     62c:	0300682e 	movweq	r6, #2094	; 0x82e
     630:	74730000 	ldrbtvc	r0, [r3], #-0
     634:	66656464 	strbtvs	r6, [r5], -r4, ror #8
     638:	0800682e 	stmdaeq	r0, {r1, r2, r3, r5, fp, sp, lr}
     63c:	65720000 	ldrbvs	r0, [r2, #-0]!
     640:	2e746e65 	cdpcs	14, 7, cr6, cr4, cr5, {3}
     644:	00030068 	andeq	r0, r3, r8, rrx
     648:	79745f00 	ldmdbvc	r4!, {r8, r9, sl, fp, ip, lr}^
     64c:	2e736570 	mrccs	5, 3, r6, cr3, cr0, {3}
     650:	00030068 	andeq	r0, r3, r8, rrx
     654:	79745f00 	ldmdbvc	r4!, {r8, r9, sl, fp, ip, lr}^
     658:	2e736570 	mrccs	5, 3, r6, cr3, cr0, {3}
     65c:	00060068 	andeq	r0, r6, r8, rrx
     660:	636f6c00 	cmnvs	pc, #0, 24
     664:	00682e6b 	rsbeq	r2, r8, fp, ror #28
     668:	61000003 	tstvs	r0, r3
     66c:	72657373 	rsbvc	r7, r5, #-872415231	; 0xcc000001
     670:	00682e74 	rsbeq	r2, r8, r4, ror lr
     674:	63000005 	movwvs	r0, #5
     678:	73666564 	cmnvc	r6, #100, 10	; 0x19000000
     67c:	0300682e 	movweq	r6, #2094	; 0x82e
     680:	74730000 	ldrbtvc	r0, [r3], #-0
     684:	62696c64 	rsbvs	r6, r9, #100, 24	; 0x6400
     688:	0600682e 	streq	r6, [r0], -lr, lsr #16
     68c:	6c610000 	stclvs	0, cr0, [r1], #-0
     690:	61636f6c 	cmnvs	r3, ip, ror #30
     694:	0500682e 	streq	r6, [r0, #-2094]	; 0xfffff7d2
     698:	74730000 	ldrbtvc	r0, [r3], #-0
     69c:	746e6964 	strbtvc	r6, [lr], #-2404	; 0xfffff69c
     6a0:	0800682e 	stmdaeq	r0, {r1, r2, r3, r5, fp, sp, lr}
     6a4:	74730000 	ldrbtvc	r0, [r3], #-0
     6a8:	746e6964 	strbtvc	r6, [lr], #-2404	; 0xfffff69c
     6ac:	0500682e 	streq	r6, [r0, #-2094]	; 0xfffff7d2
     6b0:	695f0000 	ldmdbvs	pc, {}^	; <UNPREDICTABLE>
     6b4:	7573746e 	ldrbvc	r7, [r3, #-1134]!	; 0xfffffb92
     6b8:	00682e70 	rsbeq	r2, r8, r0, ror lr
     6bc:	00000003 	andeq	r0, r0, r3
     6c0:	05000105 	streq	r0, [r0, #-261]	; 0xfffffefb
     6c4:	00017002 	andeq	r7, r1, r2
     6c8:	01250308 			; <UNDEFINED> instruction: 0x01250308
     6cc:	05590205 	ldrbeq	r0, [r9, #-517]	; 0xfffffdfb
     6d0:	15270203 	strne	r0, [r7, #-515]!	; 0xfffffdfd
     6d4:	22672267 	rsbcs	r2, r7, #1879048198	; 0x70000006
     6d8:	22672267 	rsbcs	r2, r7, #1879048198	; 0x70000006
     6dc:	28672667 	stmdacs	r7!, {r0, r1, r2, r5, r6, r9, sl, sp}^
     6e0:	23010567 	movwcs	r0, #5479	; 0x1567
     6e4:	01000902 	tsteq	r0, r2, lsl #18
     6e8:	00010501 	andeq	r0, r1, r1, lsl #10
     6ec:	023c0205 	eorseq	r0, ip, #1342177280	; 0x50000000
     6f0:	cc030800 	stcgt	8, cr0, [r3], {-0}
     6f4:	02050100 	andeq	r0, r5, #0, 2
     6f8:	02040559 	andeq	r0, r4, #373293056	; 0x16400000
     6fc:	22671527 	rsbcs	r1, r7, #163577856	; 0x9c00000
     700:	22672267 	rsbcs	r2, r7, #1879048198	; 0x70000006
     704:	26672267 	strbtcs	r2, [r7], -r7, ror #4
     708:	05672867 	strbeq	r2, [r7, #-2151]!	; 0xfffff799
     70c:	09022401 	stmdbeq	r2, {r0, sl, sp}
     710:	05010100 	streq	r0, [r1, #-256]	; 0xffffff00
     714:	02050001 	andeq	r0, r5, #1
     718:	08000308 	stmdaeq	r0, {r3, r8, r9}
     71c:	0100f703 	tsteq	r0, r3, lsl #14	; <UNPREDICTABLE>
     720:	054f2f05 	strbeq	r2, [pc, #-3845]	; fffff823 <_estack+0xdfffa823>
     724:	13052e18 	movwne	r2, #24088	; 0x5e18
     728:	2f020521 	svccs	0x00020521
     72c:	05873405 	streq	r3, [r7, #1029]	; 0x405
     730:	36052e0b 	strcc	r2, [r5], -fp, lsl #28
     734:	2e0a053e 	mcrcs	5, 0, r0, cr10, cr14, {1}
     738:	05692305 	strbeq	r2, [r9, #-773]!	; 0xfffffcfb
     73c:	2605582c 	strcs	r5, [r5], -ip, lsr #16
     740:	2e23054a 	cfsh64cs	mvdx0, mvdx3, #42
     744:	58280568 	stmdapl	r8!, {r3, r5, r6, r8, sl}
     748:	052e6005 	streq	r6, [lr, #-5]!
     74c:	04020028 	streq	r0, [r2], #-40	; 0xffffffd8
     750:	60053c01 	andvs	r3, r5, r1, lsl #24
     754:	01040200 	mrseq	r0, R12_usr
     758:	0028052e 	eoreq	r0, r8, lr, lsr #10
     75c:	3c030402 	cfstrscc	mvf0, [r3], {2}
     760:	02006005 	andeq	r6, r0, #5
     764:	052e0304 	streq	r0, [lr, #-772]!	; 0xfffffcfc
     768:	04020028 	streq	r0, [r2], #-40	; 0xffffffd8
     76c:	60053c05 	andvs	r3, r5, r5, lsl #24
     770:	05040200 	streq	r0, [r4, #-512]	; 0xfffffe00
     774:	0402002e 	streq	r0, [r2], #-46	; 0xffffffd2
     778:	003c0607 	eorseq	r0, ip, r7, lsl #12
     77c:	2e080402 	cdpcs	4, 0, cr0, cr8, cr2, {0}
     780:	06040200 	streq	r0, [r4], -r0, lsl #4
     784:	0402002e 	streq	r0, [r2], #-46	; 0xffffffd2
     788:	02002e04 	andeq	r2, r0, #4, 28	; 0x40
     78c:	052e0204 	streq	r0, [lr, #-516]!	; 0xfffffdfc
     790:	04020066 	streq	r0, [r2], #-102	; 0xffffff9a
     794:	05200610 	streq	r0, [r0, #-1552]!	; 0xfffff9f0
     798:	04020023 	streq	r0, [r2], #-35	; 0xffffffdd
     79c:	0d053c10 	stceq	12, cr3, [r5, #-64]	; 0xffffffc0
     7a0:	10040200 	andne	r0, r4, r0, lsl #4
     7a4:	002b056b 	eoreq	r0, fp, fp, ror #10
     7a8:	2e100402 	cfmulscs	mvf0, mvf0, mvf2
     7ac:	02001305 	andeq	r1, r0, #335544320	; 0x14000000
     7b0:	053c1004 	ldreq	r1, [ip, #-4]!
     7b4:	04020010 	streq	r0, [r2], #-16
     7b8:	0d052e10 	stceq	14, cr2, [r5, #-64]	; 0xffffffc0
     7bc:	10040200 	andne	r0, r4, r0, lsl #4
     7c0:	0402002e 	streq	r0, [r2], #-46	; 0xffffffd2
     7c4:	2b053d10 	blcs	14fc0c <_Min_Stack_Size+0x14f80c>
     7c8:	10040200 	andne	r0, r4, r0, lsl #4
     7cc:	0013052e 	andseq	r0, r3, lr, lsr #10
     7d0:	3c100402 	cfldrscc	mvf0, [r0], {2}
     7d4:	02001005 	andeq	r1, r0, #5
     7d8:	052e1004 	streq	r1, [lr, #-4]!
     7dc:	0402000d 	streq	r0, [r2], #-13
     7e0:	11052e10 	tstne	r5, r0, lsl lr
     7e4:	10040200 	andne	r0, r4, r0, lsl #4
     7e8:	0005053e 	andeq	r0, r5, lr, lsr r5
     7ec:	2e100402 	cfmulscs	mvf0, mvf0, mvf2
     7f0:	05300e05 	ldreq	r0, [r0, #-3589]!	; 0xfffff1fb
     7f4:	14052e2c 	strne	r2, [r5], #-3628	; 0xfffff1d4
     7f8:	3c0e053c 	cfstr32cc	mvfx0, [lr], {60}	; 0x3c
     7fc:	054c1805 	strbeq	r1, [ip, #-2053]	; 0xfffff7fb
     800:	0e052e0c 	cdpeq	14, 0, cr2, cr5, cr12, {0}
     804:	2e2b0530 	mcrcs	5, 1, r0, cr11, cr0, {1}
     808:	053c1305 	ldreq	r1, [ip, #-773]!	; 0xfffffcfb
     80c:	18053c0e 	stmdane	r5, {r1, r2, r3, sl, fp, ip, sp}
     810:	2e0c054d 	cfsh32cs	mvfx0, mvfx12, #45
     814:	05300e05 	ldreq	r0, [r0, #-3589]!	; 0xfffff1fb
     818:	14052e2c 	strne	r2, [r5], #-3628	; 0xfffff1d4
     81c:	3c0e053c 	cfstr32cc	mvfx0, [lr], {60}	; 0x3c
     820:	2e2b053d 	mcrcs	5, 1, r0, cr11, cr13, {1}
     824:	053c1305 	ldreq	r1, [ip, #-773]!	; 0xfffffcfb
     828:	27053c0e 	strcs	r3, [r5, -lr, lsl #24]
     82c:	3c4a0542 	cfstr64cc	mvdx0, [sl], {66}	; 0x42
     830:	052e3d05 	streq	r3, [lr, #-3333]!	; 0xfffff2fb
     834:	05054011 	streq	r4, [r5, #-17]	; 0xffffffef
     838:	300d052e 	andcc	r0, sp, lr, lsr #10
     83c:	052e2a05 	streq	r2, [lr, #-2565]!	; 0xfffff5fb
     840:	0d053c12 	stceq	12, cr3, [r5, #-72]	; 0xffffffb8
     844:	3d03053c 	cfstr32cc	mvfx0, [r3, #-240]	; 0xffffff10
     848:	055e0105 	ldrbeq	r0, [lr, #-261]	; 0xfffffefb
     84c:	2b051d0d 	blcs	147c88 <_Min_Stack_Size+0x147888>
     850:	3c13052e 	cfldr32cc	mvfx0, [r3], {46}	; 0x2e
     854:	052e1005 	streq	r1, [lr, #-5]!
     858:	03052e0d 	movweq	r2, #24077	; 0x5e0d
     85c:	5a01053d 	bpl	41d58 <_Min_Stack_Size+0x41958>
     860:	01001202 	tsteq	r0, r2, lsl #4
     864:	00010501 	andeq	r0, r1, r1, lsl #10
     868:	00000205 	andeq	r0, r0, r5, lsl #4
     86c:	c1030000 	mrsgt	r0, (UNDEF: 3)
     870:	06050101 	streq	r0, [r5], -r1, lsl #2
     874:	200c052f 	andcs	r0, ip, pc, lsr #10
     878:	052f0605 	streq	r0, [pc, #-1541]!	; 27b <_Min_Heap_Size+0x7b>
     87c:	0605200c 	streq	r2, [r5], -ip
     880:	200d0530 	andcs	r0, sp, r0, lsr r5
     884:	05300605 	ldreq	r0, [r0, #-1541]!	; 0xfffff9fb
     888:	0605200d 	streq	r2, [r5], -sp
     88c:	200e052f 	andcs	r0, lr, pc, lsr #10
     890:	05310605 	ldreq	r0, [r1, #-1541]!	; 0xfffff9fb
     894:	0205200c 	andeq	r2, r5, #12
     898:	6767673f 			; <UNDEFINED> instruction: 0x6767673f
     89c:	05676767 	strbeq	r6, [r7, #-1895]!	; 0xfffff899
     8a0:	0b026801 	bleq	9a8ac <_Min_Stack_Size+0x9a4ac>
     8a4:	05010100 	streq	r0, [r1, #-256]	; 0xffffff00
     8a8:	02050001 	andeq	r0, r5, #1
     8ac:	080004e0 	stmdaeq	r0, {r5, r6, r7, sl}
     8b0:	0101e303 	tsteq	r1, r3, lsl #6
     8b4:	054b0205 	strbeq	r0, [fp, #-517]	; 0xfffffdfb
     8b8:	04023d01 	streq	r3, [r2], #-3329	; 0xfffff2ff
     8bc:	05010100 	streq	r0, [r1, #-256]	; 0xffffff00
     8c0:	02050001 	andeq	r0, r5, #1
     8c4:	00000000 	andeq	r0, r0, r0
     8c8:	0101f103 	tsteq	r1, r3, lsl #2	; <UNPREDICTABLE>
     8cc:	054b0205 	strbeq	r0, [fp, #-517]	; 0xfffffdfb
     8d0:	04023e01 	streq	r3, [r2], #-3585	; 0xfffff1ff
     8d4:	05010100 	streq	r0, [r1, #-256]	; 0xffffff00
     8d8:	02050001 	andeq	r0, r5, #1
     8dc:	080004f8 	stmdaeq	r0, {r3, r4, r5, r6, r7, sl}
     8e0:	01028003 	tsteq	r2, r3
     8e4:	05300b05 	ldreq	r0, [r0, #-2821]!	; 0xfffff4fb
     8e8:	02056811 	andeq	r6, r5, #1114112	; 0x110000
     8ec:	2101052e 	tstcs	r1, lr, lsr #10
     8f0:	01000702 	tsteq	r0, r2, lsl #14
     8f4:	001e0501 	andseq	r0, lr, r1, lsl #10
     8f8:	051c0205 	ldreq	r0, [ip, #-517]	; 0xfffffdfb
     8fc:	87030800 	strhi	r0, [r3, -r0, lsl #16]
     900:	0b050102 	bleq	140d10 <_Min_Stack_Size+0x140910>
     904:	6811052f 	ldmdavs	r1, {r0, r1, r2, r3, r5, r8, sl}
     908:	052e0205 	streq	r0, [lr, #-517]!	; 0xfffffdfb
     90c:	07022019 	smladeq	r2, r9, r0, r2
     910:	05010100 	streq	r0, [r1, #-256]	; 0xffffff00
     914:	0205001e 	andeq	r0, r5, #30
     918:	08000540 	stmdaeq	r0, {r6, r8, sl}
     91c:	01028d03 	tsteq	r2, r3, lsl #26
     920:	052f0b05 	streq	r0, [pc, #-2821]!	; fffffe23 <_estack+0xdfffae23>
     924:	02056811 	andeq	r6, r5, #1114112	; 0x110000
     928:	2019052e 	andscs	r0, r9, lr, lsr #10
     92c:	01000702 	tsteq	r0, r2, lsl #14
     930:	001e0501 	andseq	r0, lr, r1, lsl #10
     934:	05640205 	strbeq	r0, [r4, #-517]!	; 0xfffffdfb
     938:	93030800 	movwls	r0, #14336	; 0x3800
     93c:	0b050102 	bleq	140d4c <_Min_Stack_Size+0x14094c>
     940:	6811052f 	ldmdavs	r1, {r0, r1, r2, r3, r5, r8, sl}
     944:	052e0205 	streq	r0, [lr, #-517]!	; 0xfffffdfb
     948:	07022019 	smladeq	r2, r9, r0, r2
     94c:	05010100 	streq	r0, [r1, #-256]	; 0xffffff00
     950:	0205001e 	andeq	r0, r5, #30
     954:	08000588 	stmdaeq	r0, {r3, r7, r8, sl}
     958:	01029903 	tsteq	r2, r3, lsl #18
     95c:	052f0b05 	streq	r0, [pc, #-2821]!	; fffffe5f <_estack+0xdfffae5f>
     960:	02056711 	andeq	r6, r5, #4456448	; 0x440000
     964:	2019052e 	andscs	r0, r9, lr, lsr #10
     968:	01000702 	tsteq	r0, r2, lsl #14
     96c:	00010501 	andeq	r0, r1, r1, lsl #10
     970:	05ac0205 	streq	r0, [ip, #517]!	; 0x205
     974:	9f030800 	svcls	0x00030800
     978:	0a050102 	beq	140d88 <_Min_Stack_Size+0x140988>
     97c:	2e0f052f 	cfsh32cs	mvfx0, mvfx15, #31
     980:	052e0505 	streq	r0, [lr, #-1285]!	; 0xfffffafb
     984:	04020023 	streq	r0, [r2], #-35	; 0xffffffdd
     988:	42052e01 	andmi	r2, r5, #1, 28
     98c:	01040200 	mrseq	r0, R12_usr
     990:	00330566 	eorseq	r0, r3, r6, ror #10
     994:	2e010402 	cdpcs	4, 0, cr0, cr1, cr2, {0}
     998:	05210a05 	streq	r0, [r1, #-2565]!	; 0xfffff5fb
     99c:	05052e0f 	streq	r2, [r5, #-3599]	; 0xfffff1f1
     9a0:	0023052e 	eoreq	r0, r3, lr, lsr #10
     9a4:	2e010402 	cdpcs	4, 0, cr0, cr1, cr2, {0}
     9a8:	02004205 	andeq	r4, r0, #1342177280	; 0x50000000
     9ac:	05660104 	strbeq	r0, [r6, #-260]!	; 0xfffffefc
     9b0:	04020033 	streq	r0, [r2], #-51	; 0xffffffcd
     9b4:	0a052e01 	beq	14c1c0 <_Min_Stack_Size+0x14bdc0>
     9b8:	2e0f0521 	cfsh32cs	mvfx0, mvfx15, #17
     9bc:	052e0505 	streq	r0, [lr, #-1285]!	; 0xfffffafb
     9c0:	04020023 	streq	r0, [r2], #-35	; 0xffffffdd
     9c4:	42052e01 	andmi	r2, r5, #1, 28
     9c8:	01040200 	mrseq	r0, R12_usr
     9cc:	00330566 	eorseq	r0, r3, r6, ror #10
     9d0:	2e010402 	cdpcs	4, 0, cr0, cr1, cr2, {0}
     9d4:	05210a05 	streq	r0, [r1, #-2565]!	; 0xfffff5fb
     9d8:	05052e0f 	streq	r2, [r5, #-3599]	; 0xfffff1f1
     9dc:	0023052e 	eoreq	r0, r3, lr, lsr #10
     9e0:	2e010402 	cdpcs	4, 0, cr0, cr1, cr2, {0}
     9e4:	02004205 	andeq	r4, r0, #1342177280	; 0x50000000
     9e8:	05660104 	strbeq	r0, [r6, #-260]!	; 0xfffffefc
     9ec:	04020033 	streq	r0, [r2], #-51	; 0xffffffcd
     9f0:	0a052e01 	beq	14c1fc <_Min_Stack_Size+0x14bdfc>
     9f4:	2e0f0521 	cfsh32cs	mvfx0, mvfx15, #17
     9f8:	052e0505 	streq	r0, [lr, #-1285]!	; 0xfffffafb
     9fc:	04020023 	streq	r0, [r2], #-35	; 0xffffffdd
     a00:	42052e01 	andmi	r2, r5, #1, 28
     a04:	01040200 	mrseq	r0, R12_usr
     a08:	00330566 	eorseq	r0, r3, r6, ror #10
     a0c:	2e010402 	cdpcs	4, 0, cr0, cr1, cr2, {0}
     a10:	02220105 	eoreq	r0, r2, #1073741825	; 0x40000001
     a14:	01010007 	tsteq	r1, r7
     a18:	05000105 	streq	r0, [r0, #-261]	; 0xfffffefb
     a1c:	00065402 	andeq	r5, r6, r2, lsl #8
     a20:	02a80308 	adceq	r0, r8, #8, 6	; 0x20000000
     a24:	2f0a0501 	svccs	0x000a0501
     a28:	052e0f05 	streq	r0, [lr, #-3845]!	; 0xfffff0fb
     a2c:	24052e05 	strcs	r2, [r5], #-3589	; 0xfffff1fb
     a30:	01040200 	mrseq	r0, R12_usr
     a34:	0044052e 	subeq	r0, r4, lr, lsr #10
     a38:	66010402 	strvs	r0, [r1], -r2, lsl #8
     a3c:	02003505 	andeq	r3, r0, #20971520	; 0x1400000
     a40:	052e0104 	streq	r0, [lr, #-260]!	; 0xfffffefc
     a44:	0f05210a 	svceq	0x0005210a
     a48:	2e05052e 	cfsh32cs	mvfx0, mvfx5, #30
     a4c:	02002405 	andeq	r2, r0, #83886080	; 0x5000000
     a50:	052e0104 	streq	r0, [lr, #-260]!	; 0xfffffefc
     a54:	04020044 	streq	r0, [r2], #-68	; 0xffffffbc
     a58:	35056601 	strcc	r6, [r5, #-1537]	; 0xfffff9ff
     a5c:	01040200 	mrseq	r0, R12_usr
     a60:	210a052e 	tstcs	sl, lr, lsr #10
     a64:	052e0f05 	streq	r0, [lr, #-3845]!	; 0xfffff0fb
     a68:	24052e05 	strcs	r2, [r5], #-3589	; 0xfffff1fb
     a6c:	01040200 	mrseq	r0, R12_usr
     a70:	0044052e 	subeq	r0, r4, lr, lsr #10
     a74:	66010402 	strvs	r0, [r1], -r2, lsl #8
     a78:	02003505 	andeq	r3, r0, #20971520	; 0x1400000
     a7c:	052e0104 	streq	r0, [lr, #-260]!	; 0xfffffefc
     a80:	0f05210a 	svceq	0x0005210a
     a84:	2e05052e 	cfsh32cs	mvfx0, mvfx5, #30
     a88:	02002405 	andeq	r2, r0, #83886080	; 0x5000000
     a8c:	052e0104 	streq	r0, [lr, #-260]!	; 0xfffffefc
     a90:	04020044 	streq	r0, [r2], #-68	; 0xffffffbc
     a94:	35056601 	strcc	r6, [r5, #-1537]	; 0xfffff9ff
     a98:	01040200 	mrseq	r0, R12_usr
     a9c:	210a052e 	tstcs	sl, lr, lsr #10
     aa0:	052e0f05 	streq	r0, [lr, #-3845]!	; 0xfffff0fb
     aa4:	24052e05 	strcs	r2, [r5], #-3589	; 0xfffff1fb
     aa8:	01040200 	mrseq	r0, R12_usr
     aac:	0044052e 	subeq	r0, r4, lr, lsr #10
     ab0:	66010402 	strvs	r0, [r1], -r2, lsl #8
     ab4:	02003505 	andeq	r3, r0, #20971520	; 0x1400000
     ab8:	052e0104 	streq	r0, [lr, #-260]!	; 0xfffffefc
     abc:	0f05210a 	svceq	0x0005210a
     ac0:	2e05052e 	cfsh32cs	mvfx0, mvfx5, #30
     ac4:	02002405 	andeq	r2, r0, #83886080	; 0x5000000
     ac8:	052e0104 	streq	r0, [lr, #-260]!	; 0xfffffefc
     acc:	04020044 	streq	r0, [r2], #-68	; 0xffffffbc
     ad0:	35056601 	strcc	r6, [r5, #-1537]	; 0xfffff9ff
     ad4:	01040200 	mrseq	r0, R12_usr
     ad8:	2201052e 	andcs	r0, r1, #192937984	; 0xb800000
     adc:	01000602 	tsteq	r0, r2, lsl #12
     ae0:	00093701 	andeq	r3, r9, r1, lsl #14
     ae4:	ac000300 	stcge	3, cr0, [r0], {-0}
     ae8:	02000006 	andeq	r0, r0, #6
     aec:	0d0efb01 	vstreq	d15, [lr, #-4]
     af0:	01010100 	mrseq	r0, (UNDEF: 17)
     af4:	00000001 	andeq	r0, r0, r1
     af8:	01000001 	tsteq	r0, r1
     afc:	4d2f2e2e 	stcmi	14, cr2, [pc, #-184]!	; a4c <_Min_Stack_Size+0x64c>
     b00:	004c4143 	subeq	r4, ip, r3, asr #2
     b04:	535c3a44 	cmppl	ip, #68, 20	; 0x44000
     b08:	32334d54 	eorscc	r4, r3, #84, 26	; 0x1500
     b0c:	65627543 	strbvs	r7, [r2, #-1347]!	; 0xfffffabd
     b10:	5f454449 	svcpl	0x00454449
     b14:	33312e31 	teqcc	r1, #784	; 0x310
     b18:	535c302e 	cmppl	ip, #46	; 0x2e
     b1c:	32334d54 	eorscc	r4, r3, #84, 26	; 0x1500
     b20:	65627543 	strbvs	r7, [r2, #-1347]!	; 0xfffffabd
     b24:	5c454449 	cfstrdpl	mvd4, [r5], {73}	; 0x49
     b28:	334d5453 	movtcc	r5, #54355	; 0xd453
     b2c:	62754332 	rsbsvs	r4, r5, #-939524096	; 0xc8000000
     b30:	45444965 	strbmi	r4, [r4, #-2405]	; 0xfffff69b
     b34:	756c705c 	strbvc	r7, [ip, #-92]!	; 0xffffffa4
     b38:	736e6967 	cmnvc	lr, #1687552	; 0x19c000
     b3c:	6d6f635c 	stclvs	3, cr6, [pc, #-368]!	; 9d4 <_Min_Stack_Size+0x5d4>
     b40:	2e74732e 	cdpcs	3, 7, cr7, cr4, cr14, {1}
     b44:	336d7473 	cmncc	sp, #1929379840	; 0x73000000
     b48:	62756332 	rsbsvs	r6, r5, #-939524096	; 0xc8000000
     b4c:	64692e65 	strbtvs	r2, [r9], #-3685	; 0xfffff19b
     b50:	636d2e65 	cmnvs	sp, #1616	; 0x650
     b54:	78652e75 	stmdavc	r5!, {r0, r2, r4, r5, r6, r9, sl, fp, sp}^
     b58:	6e726574 	mrcvs	5, 3, r6, cr2, cr4, {3}
     b5c:	6f746c61 	svcvs	0x00746c61
     b60:	2e736c6f 	cdpcs	12, 7, cr6, cr3, cr15, {3}
     b64:	2d756e67 	ldclcs	14, cr6, [r5, #-412]!	; 0xfffffe64
     b68:	6c6f6f74 	stclvs	15, cr6, [pc], #-464	; 9a0 <_Min_Stack_Size+0x5a0>
     b6c:	6f662d73 	svcvs	0x00662d73
     b70:	74732d72 	ldrbtvc	r2, [r3], #-3442	; 0xfffff28e
     b74:	2e32336d 	cdpcs	3, 3, cr3, cr2, cr13, {3}
     b78:	332e3131 			; <UNDEFINED> instruction: 0x332e3131
     b7c:	6c65722e 	sfmvs	f7, 2, [r5], #-184	; 0xffffff48
     b80:	69772e31 	ldmdbvs	r7!, {r0, r4, r5, r9, sl, fp, sp}^
     b84:	5f32336e 	svcpl	0x0032336e
     b88:	2e312e31 	mrccs	14, 1, r2, cr1, cr1, {1}
     b8c:	30322e30 	eorscc	r2, r2, r0, lsr lr
     b90:	35303332 	ldrcc	r3, [r0, #-818]!	; 0xfffffcce
     b94:	35313332 	ldrcc	r3, [r1, #-818]!	; 0xfffffcce
     b98:	745c3630 	ldrbvc	r3, [ip], #-1584	; 0xfffff9d0
     b9c:	736c6f6f 	cmnvc	ip, #444	; 0x1bc
     ba0:	6d72615c 	ldfvse	f6, [r2, #-368]!	; 0xfffffe90
     ba4:	6e6f6e2d 	cdpvs	14, 6, cr6, cr15, cr13, {1}
     ba8:	61652d65 	cmnvs	r5, r5, ror #26
     bac:	695c6962 	ldmdbvs	ip, {r1, r5, r6, r8, fp, sp, lr}^
     bb0:	756c636e 	strbvc	r6, [ip, #-878]!	; 0xfffffc92
     bb4:	6d5c6564 	cfldr64vs	mvdx6, [ip, #-400]	; 0xfffffe70
     bb8:	69686361 	stmdbvs	r8!, {r0, r5, r6, r8, r9, sp, lr}^
     bbc:	4400656e 	strmi	r6, [r0], #-1390	; 0xfffffa92
     bc0:	54535c3a 	ldrbpl	r5, [r3], #-3130	; 0xfffff3c6
     bc4:	4332334d 	teqmi	r2, #872415233	; 0x34000001
     bc8:	49656275 	stmdbmi	r5!, {r0, r2, r4, r5, r6, r9, sp, lr}^
     bcc:	315f4544 	cmpcc	pc, r4, asr #10
     bd0:	2e33312e 	rsfcssp	f3, f3, #0.5
     bd4:	54535c30 	ldrbpl	r5, [r3], #-3120	; 0xfffff3d0
     bd8:	4332334d 	teqmi	r2, #872415233	; 0x34000001
     bdc:	49656275 	stmdbmi	r5!, {r0, r2, r4, r5, r6, r9, sp, lr}^
     be0:	535c4544 	cmppl	ip, #68, 10	; 0x11000000
     be4:	32334d54 	eorscc	r4, r3, #84, 26	; 0x1500
     be8:	65627543 	strbvs	r7, [r2, #-1347]!	; 0xfffffabd
     bec:	5c454449 	cfstrdpl	mvd4, [r5], {73}	; 0x49
     bf0:	67756c70 			; <UNDEFINED> instruction: 0x67756c70
     bf4:	5c736e69 	ldclpl	14, cr6, [r3], #-420	; 0xfffffe5c
     bf8:	2e6d6f63 	cdpcs	15, 6, cr6, cr13, cr3, {3}
     bfc:	732e7473 			; <UNDEFINED> instruction: 0x732e7473
     c00:	32336d74 	eorscc	r6, r3, #116, 26	; 0x1d00
     c04:	65627563 	strbvs	r7, [r2, #-1379]!	; 0xfffffa9d
     c08:	6564692e 	strbvs	r6, [r4, #-2350]!	; 0xfffff6d2
     c0c:	75636d2e 	strbvc	r6, [r3, #-3374]!	; 0xfffff2d2
     c10:	7478652e 	ldrbtvc	r6, [r8], #-1326	; 0xfffffad2
     c14:	616e7265 	cmnvs	lr, r5, ror #4
     c18:	6f6f746c 	svcvs	0x006f746c
     c1c:	672e736c 	strvs	r7, [lr, -ip, ror #6]!
     c20:	742d756e 	strtvc	r7, [sp], #-1390	; 0xfffffa92
     c24:	736c6f6f 	cmnvc	ip, #444	; 0x1bc
     c28:	726f662d 	rsbvc	r6, pc, #47185920	; 0x2d00000
     c2c:	6d74732d 	ldclvs	3, cr7, [r4, #-180]!	; 0xffffff4c
     c30:	312e3233 			; <UNDEFINED> instruction: 0x312e3233
     c34:	2e332e31 	mrccs	14, 1, r2, cr3, cr1, {1}
     c38:	316c6572 	smccc	50770	; 0xc652
     c3c:	6e69772e 	cdpvs	7, 6, cr7, cr9, cr14, {1}
     c40:	315f3233 	cmpcc	pc, r3, lsr r2	; <UNPREDICTABLE>
     c44:	302e312e 	eorcc	r3, lr, lr, lsr #2
     c48:	3230322e 	eorscc	r3, r0, #-536870910	; 0xe0000002
     c4c:	32353033 	eorscc	r3, r5, #51	; 0x33
     c50:	30353133 	eorscc	r3, r5, r3, lsr r1
     c54:	6f745c36 	svcvs	0x00745c36
     c58:	5c736c6f 	ldclpl	12, cr6, [r3], #-444	; 0xfffffe44
     c5c:	2f6e6962 	svccs	0x006e6962
     c60:	6c2f2e2e 	stcvs	14, cr2, [pc], #-184	; bb0 <_Min_Stack_Size+0x7b0>
     c64:	672f6269 	strvs	r6, [pc, -r9, ror #4]!
     c68:	612f6363 			; <UNDEFINED> instruction: 0x612f6363
     c6c:	6e2d6d72 	mcrvs	13, 1, r6, cr13, cr2, {3}
     c70:	2d656e6f 	stclcs	14, cr6, [r5, #-444]!	; 0xfffffe44
     c74:	69626165 	stmdbvs	r2!, {r0, r2, r5, r6, r8, sp, lr}^
     c78:	2e31312f 	rsfcssp	f3, f1, #10.0
     c7c:	2f312e33 	svccs	0x00312e33
     c80:	2e2f2e2e 	cdpcs	14, 2, cr2, cr15, cr14, {1}
     c84:	2e2e2f2e 	cdpcs	15, 2, cr2, cr14, cr14, {1}
     c88:	2f2e2e2f 	svccs	0x002e2e2f
     c8c:	2d6d7261 	sfmcs	f7, 2, [sp, #-388]!	; 0xfffffe7c
     c90:	656e6f6e 	strbvs	r6, [lr, #-3950]!	; 0xfffff092
     c94:	6261652d 	rsbvs	r6, r1, #188743680	; 0xb400000
     c98:	6e692f69 	cdpvs	15, 6, cr2, cr9, cr9, {3}
     c9c:	64756c63 	ldrbtvs	r6, [r5], #-3171	; 0xfffff39d
     ca0:	79732f65 	ldmdbvc	r3!, {r0, r2, r5, r6, r8, r9, sl, fp, sp}^
     ca4:	3a440073 	bcc	1100e78 <_Min_Stack_Size+0x1100a78>
     ca8:	20736b2f 	rsbscs	r6, r3, pc, lsr #22
     cac:	65626d65 	strbvs	r6, [r2, #-3429]!	; 0xfffff29b
     cb0:	64656464 	strbtvs	r6, [r5], #-1124	; 0xfffffb9c
     cb4:	73797320 	cmnvc	r9, #32, 6	; 0x80000000
     cb8:	206d6574 	rsbcs	r6, sp, r4, ror r5
     cbc:	2f737361 	svccs	0x00737361
     cc0:	206d7261 	rsbcs	r7, sp, r1, ror #4
     cc4:	68637261 	stmdavs	r3!, {r0, r5, r6, r9, ip, sp, lr}^
     cc8:	63657469 	cmnvs	r5, #1761607680	; 0x69000000
     ccc:	65727574 	ldrbvs	r7, [r2, #-1396]!	; 0xfffffa8c
     cd0:	696e7520 	stmdbvs	lr!, {r5, r8, sl, ip, sp, lr}^
     cd4:	34312074 	ldrtcc	r2, [r1], #-116	; 0xffffff8c
     cd8:	6d72612f 	ldfvse	f6, [r2, #-188]!	; 0xffffff44
     cdc:	63726120 	cmnvs	r2, #32, 2
     ce0:	65746968 	ldrbvs	r6, [r4, #-2408]!	; 0xfffff698
     ce4:	72757463 	rsbsvc	r7, r5, #1660944384	; 0x63000000
     ce8:	6e752065 	cdpvs	0, 7, cr2, cr5, cr5, {3}
     cec:	34317469 	ldrtcc	r7, [r1], #-1129	; 0xfffffb97
     cf0:	73656c2f 	cmnvc	r5, #12032	; 0x2f00
     cf4:	356e6f73 	strbcc	r6, [lr, #-3955]!	; 0xfffff08d
     cf8:	62616c20 	rsbvs	r6, r1, #32, 24	; 0x2000
     cfc:	41434d2f 	cmpmi	r3, pc, lsr #26
     d00:	6e692f4c 	cdpvs	15, 6, cr2, cr9, cr12, {2}
     d04:	3a440063 	bcc	1100e98 <_Min_Stack_Size+0x1100a98>
     d08:	4d54535c 	ldclmi	3, cr5, [r4, #-368]	; 0xfffffe90
     d0c:	75433233 	strbvc	r3, [r3, #-563]	; 0xfffffdcd
     d10:	44496562 	strbmi	r6, [r9], #-1378	; 0xfffffa9e
     d14:	2e315f45 	cdpcs	15, 3, cr5, cr1, cr5, {2}
     d18:	302e3331 	eorcc	r3, lr, r1, lsr r3
     d1c:	4d54535c 	ldclmi	3, cr5, [r4, #-368]	; 0xfffffe90
     d20:	75433233 	strbvc	r3, [r3, #-563]	; 0xfffffdcd
     d24:	44496562 	strbmi	r6, [r9], #-1378	; 0xfffffa9e
     d28:	54535c45 	ldrbpl	r5, [r3], #-3141	; 0xfffff3bb
     d2c:	4332334d 	teqmi	r2, #872415233	; 0x34000001
     d30:	49656275 	stmdbmi	r5!, {r0, r2, r4, r5, r6, r9, sp, lr}^
     d34:	705c4544 	subsvc	r4, ip, r4, asr #10
     d38:	6967756c 	stmdbvs	r7!, {r2, r3, r5, r6, r8, sl, ip, sp, lr}^
     d3c:	635c736e 	cmpvs	ip, #-1207959551	; 0xb8000001
     d40:	732e6d6f 			; <UNDEFINED> instruction: 0x732e6d6f
     d44:	74732e74 	ldrbtvc	r2, [r3], #-3700	; 0xfffff18c
     d48:	6332336d 	teqvs	r2, #-1275068415	; 0xb4000001
     d4c:	2e656275 	mcrcs	2, 3, r6, cr5, cr5, {3}
     d50:	2e656469 	cdpcs	4, 6, cr6, cr5, cr9, {3}
     d54:	2e75636d 	cdpcs	3, 7, cr6, cr5, cr13, {3}
     d58:	65747865 	ldrbvs	r7, [r4, #-2149]!	; 0xfffff79b
     d5c:	6c616e72 	stclvs	14, cr6, [r1], #-456	; 0xfffffe38
     d60:	6c6f6f74 	stclvs	15, cr6, [pc], #-464	; b98 <_Min_Stack_Size+0x798>
     d64:	6e672e73 	mcrvs	14, 3, r2, cr7, cr3, {3}
     d68:	6f742d75 	svcvs	0x00742d75
     d6c:	2d736c6f 	ldclcs	12, cr6, [r3, #-444]!	; 0xfffffe44
     d70:	2d726f66 	ldclcs	15, cr6, [r2, #-408]!	; 0xfffffe68
     d74:	336d7473 	cmncc	sp, #1929379840	; 0x73000000
     d78:	31312e32 	teqcc	r1, r2, lsr lr
     d7c:	722e332e 	eorvc	r3, lr, #-1207959552	; 0xb8000000
     d80:	2e316c65 	cdpcs	12, 3, cr6, cr1, cr5, {3}
     d84:	336e6977 	cmncc	lr, #1949696	; 0x1dc000
     d88:	2e315f32 	mrccs	15, 1, r5, cr1, cr2, {1}
     d8c:	2e302e31 	mrccs	14, 1, r2, cr0, cr1, {1}
     d90:	33323032 	teqcc	r2, #50	; 0x32
     d94:	33323530 	teqcc	r2, #48, 10	; 0xc000000
     d98:	36303531 			; <UNDEFINED> instruction: 0x36303531
     d9c:	6f6f745c 	svcvs	0x006f745c
     da0:	625c736c 	subsvs	r7, ip, #108, 6	; 0xb0000001
     da4:	2e2f6e69 	cdpcs	14, 2, cr6, cr15, cr9, {3}
     da8:	696c2f2e 	stmdbvs	ip!, {r1, r2, r3, r5, r8, r9, sl, fp, sp}^
     dac:	63672f62 	cmnvs	r7, #392	; 0x188
     db0:	72612f63 	rsbvc	r2, r1, #396	; 0x18c
     db4:	6f6e2d6d 	svcvs	0x006e2d6d
     db8:	652d656e 	strvs	r6, [sp, #-1390]!	; 0xfffffa92
     dbc:	2f696261 	svccs	0x00696261
     dc0:	332e3131 			; <UNDEFINED> instruction: 0x332e3131
     dc4:	2e2f312e 	sufcsep	f3, f7, #0.5
     dc8:	2e2e2f2e 	cdpcs	15, 2, cr2, cr14, cr14, {1}
     dcc:	2f2e2e2f 	svccs	0x002e2e2f
     dd0:	612f2e2e 			; <UNDEFINED> instruction: 0x612f2e2e
     dd4:	6e2d6d72 	mcrvs	13, 1, r6, cr13, cr2, {3}
     dd8:	2d656e6f 	stclcs	14, cr6, [r5, #-444]!	; 0xfffffe44
     ddc:	69626165 	stmdbvs	r2!, {r0, r2, r5, r6, r8, sp, lr}^
     de0:	636e692f 	cmnvs	lr, #770048	; 0xbc000
     de4:	6564756c 	strbvs	r7, [r4, #-1388]!	; 0xfffffa94
     de8:	5c3a4400 	cfldrspl	mvf4, [sl], #-0
     dec:	334d5453 	movtcc	r5, #54355	; 0xd453
     df0:	62754332 	rsbsvs	r4, r5, #-939524096	; 0xc8000000
     df4:	45444965 	strbmi	r4, [r4, #-2405]	; 0xfffff69b
     df8:	312e315f 			; <UNDEFINED> instruction: 0x312e315f
     dfc:	5c302e33 	ldcpl	14, cr2, [r0], #-204	; 0xffffff34
     e00:	334d5453 	movtcc	r5, #54355	; 0xd453
     e04:	62754332 	rsbsvs	r4, r5, #-939524096	; 0xc8000000
     e08:	45444965 	strbmi	r4, [r4, #-2405]	; 0xfffff69b
     e0c:	4d54535c 	ldclmi	3, cr5, [r4, #-368]	; 0xfffffe90
     e10:	75433233 	strbvc	r3, [r3, #-563]	; 0xfffffdcd
     e14:	44496562 	strbmi	r6, [r9], #-1378	; 0xfffffa9e
     e18:	6c705c45 	ldclvs	12, cr5, [r0], #-276	; 0xfffffeec
     e1c:	6e696775 	mcrvs	7, 3, r6, cr9, cr5, {3}
     e20:	6f635c73 	svcvs	0x00635c73
     e24:	74732e6d 	ldrbtvc	r2, [r3], #-3693	; 0xfffff193
     e28:	6d74732e 	ldclvs	3, cr7, [r4, #-184]!	; 0xffffff48
     e2c:	75633233 	strbvc	r3, [r3, #-563]!	; 0xfffffdcd
     e30:	692e6562 	stmdbvs	lr!, {r1, r5, r6, r8, sl, sp, lr}
     e34:	6d2e6564 	cfstr32vs	mvfx6, [lr, #-400]!	; 0xfffffe70
     e38:	652e7563 	strvs	r7, [lr, #-1379]!	; 0xfffffa9d
     e3c:	72657478 	rsbvc	r7, r5, #120, 8	; 0x78000000
     e40:	746c616e 	strbtvc	r6, [ip], #-366	; 0xfffffe92
     e44:	736c6f6f 	cmnvc	ip, #444	; 0x1bc
     e48:	756e672e 	strbvc	r6, [lr, #-1838]!	; 0xfffff8d2
     e4c:	6f6f742d 	svcvs	0x006f742d
     e50:	662d736c 	strtvs	r7, [sp], -ip, ror #6
     e54:	732d726f 			; <UNDEFINED> instruction: 0x732d726f
     e58:	32336d74 	eorscc	r6, r3, #116, 26	; 0x1d00
     e5c:	2e31312e 	rsfcssp	f3, f1, #0.5
     e60:	65722e33 	ldrbvs	r2, [r2, #-3635]!	; 0xfffff1cd
     e64:	772e316c 	strvc	r3, [lr, -ip, ror #2]!
     e68:	32336e69 	eorscc	r6, r3, #1680	; 0x690
     e6c:	312e315f 			; <UNDEFINED> instruction: 0x312e315f
     e70:	322e302e 	eorcc	r3, lr, #46	; 0x2e
     e74:	30333230 	eorscc	r3, r3, r0, lsr r2
     e78:	31333235 	teqcc	r3, r5, lsr r2
     e7c:	5c363035 	ldcpl	0, cr3, [r6], #-212	; 0xffffff2c
     e80:	6c6f6f74 	stclvs	15, cr6, [pc], #-464	; cb8 <_Min_Stack_Size+0x8b8>
     e84:	69625c73 	stmdbvs	r2!, {r0, r1, r4, r5, r6, sl, fp, ip, lr}^
     e88:	2e2e2f6e 	cdpcs	15, 2, cr2, cr14, cr14, {3}
     e8c:	62696c2f 	rsbvs	r6, r9, #12032	; 0x2f00
     e90:	6363672f 	cmnvs	r3, #12320768	; 0xbc0000
     e94:	6d72612f 	ldfvse	f6, [r2, #-188]!	; 0xffffff44
     e98:	6e6f6e2d 	cdpvs	14, 6, cr6, cr15, cr13, {1}
     e9c:	61652d65 	cmnvs	r5, r5, ror #26
     ea0:	312f6962 			; <UNDEFINED> instruction: 0x312f6962
     ea4:	2e332e31 	mrccs	14, 1, r2, cr3, cr1, {1}
     ea8:	2e2e2f31 	mcrcs	15, 1, r2, cr14, cr1, {1}
     eac:	2f2e2e2f 	svccs	0x002e2e2f
     eb0:	2e2f2e2e 	cdpcs	14, 2, cr2, cr15, cr14, {1}
     eb4:	72612f2e 	rsbvc	r2, r1, #46, 30	; 0xb8
     eb8:	6f6e2d6d 	svcvs	0x006e2d6d
     ebc:	652d656e 	strvs	r6, [sp, #-1390]!	; 0xfffffa92
     ec0:	2f696261 	svccs	0x00696261
     ec4:	6c636e69 	stclvs	14, cr6, [r3], #-420	; 0xfffffe5c
     ec8:	2f656475 	svccs	0x00656475
     ecc:	6863616d 	stmdavs	r3!, {r0, r2, r3, r5, r6, r8, sp, lr}^
     ed0:	00656e69 	rsbeq	r6, r5, r9, ror #28
     ed4:	535c3a44 	cmppl	ip, #68, 20	; 0x44000
     ed8:	32334d54 	eorscc	r4, r3, #84, 26	; 0x1500
     edc:	65627543 	strbvs	r7, [r2, #-1347]!	; 0xfffffabd
     ee0:	5f454449 	svcpl	0x00454449
     ee4:	33312e31 	teqcc	r1, #784	; 0x310
     ee8:	535c302e 	cmppl	ip, #46	; 0x2e
     eec:	32334d54 	eorscc	r4, r3, #84, 26	; 0x1500
     ef0:	65627543 	strbvs	r7, [r2, #-1347]!	; 0xfffffabd
     ef4:	5c454449 	cfstrdpl	mvd4, [r5], {73}	; 0x49
     ef8:	334d5453 	movtcc	r5, #54355	; 0xd453
     efc:	62754332 	rsbsvs	r4, r5, #-939524096	; 0xc8000000
     f00:	45444965 	strbmi	r4, [r4, #-2405]	; 0xfffff69b
     f04:	756c705c 	strbvc	r7, [ip, #-92]!	; 0xffffffa4
     f08:	736e6967 	cmnvc	lr, #1687552	; 0x19c000
     f0c:	6d6f635c 	stclvs	3, cr6, [pc, #-368]!	; da4 <_Min_Stack_Size+0x9a4>
     f10:	2e74732e 	cdpcs	3, 7, cr7, cr4, cr14, {1}
     f14:	336d7473 	cmncc	sp, #1929379840	; 0x73000000
     f18:	62756332 	rsbsvs	r6, r5, #-939524096	; 0xc8000000
     f1c:	64692e65 	strbtvs	r2, [r9], #-3685	; 0xfffff19b
     f20:	636d2e65 	cmnvs	sp, #1616	; 0x650
     f24:	78652e75 	stmdavc	r5!, {r0, r2, r4, r5, r6, r9, sl, fp, sp}^
     f28:	6e726574 	mrcvs	5, 3, r6, cr2, cr4, {3}
     f2c:	6f746c61 	svcvs	0x00746c61
     f30:	2e736c6f 	cdpcs	12, 7, cr6, cr3, cr15, {3}
     f34:	2d756e67 	ldclcs	14, cr6, [r5, #-412]!	; 0xfffffe64
     f38:	6c6f6f74 	stclvs	15, cr6, [pc], #-464	; d70 <_Min_Stack_Size+0x970>
     f3c:	6f662d73 	svcvs	0x00662d73
     f40:	74732d72 	ldrbtvc	r2, [r3], #-3442	; 0xfffff28e
     f44:	2e32336d 	cdpcs	3, 3, cr3, cr2, cr13, {3}
     f48:	332e3131 			; <UNDEFINED> instruction: 0x332e3131
     f4c:	6c65722e 	sfmvs	f7, 2, [r5], #-184	; 0xffffff48
     f50:	69772e31 	ldmdbvs	r7!, {r0, r4, r5, r9, sl, fp, sp}^
     f54:	5f32336e 	svcpl	0x0032336e
     f58:	2e312e31 	mrccs	14, 1, r2, cr1, cr1, {1}
     f5c:	30322e30 	eorscc	r2, r2, r0, lsr lr
     f60:	35303332 	ldrcc	r3, [r0, #-818]!	; 0xfffffcce
     f64:	35313332 	ldrcc	r3, [r1, #-818]!	; 0xfffffcce
     f68:	745c3630 	ldrbvc	r3, [ip], #-1584	; 0xfffff9d0
     f6c:	736c6f6f 	cmnvc	ip, #444	; 0x1bc
     f70:	6e69625c 	mcrvs	2, 3, r6, cr9, cr12, {2}
     f74:	2f2e2e2f 	svccs	0x002e2e2f
     f78:	2d6d7261 	sfmcs	f7, 2, [sp, #-388]!	; 0xfffffe7c
     f7c:	656e6f6e 	strbvs	r6, [lr, #-3950]!	; 0xfffff092
     f80:	6261652d 	rsbvs	r6, r1, #188743680	; 0xb400000
     f84:	6e692f69 	cdpvs	15, 6, cr2, cr9, cr9, {3}
     f88:	64756c63 	ldrbtvs	r6, [r5], #-3171	; 0xfffff39d
     f8c:	656e2f65 	strbvs	r2, [lr, #-3941]!	; 0xfffff09b
     f90:	62696c77 	rsbvs	r6, r9, #30464	; 0x7700
     f94:	6e616e2d 	cdpvs	14, 6, cr6, cr1, cr13, {1}
     f98:	3a44006f 	bcc	110115c <_Min_Stack_Size+0x1100d5c>
     f9c:	4d54535c 	ldclmi	3, cr5, [r4, #-368]	; 0xfffffe90
     fa0:	75433233 	strbvc	r3, [r3, #-563]	; 0xfffffdcd
     fa4:	44496562 	strbmi	r6, [r9], #-1378	; 0xfffffa9e
     fa8:	2e315f45 	cdpcs	15, 3, cr5, cr1, cr5, {2}
     fac:	302e3331 	eorcc	r3, lr, r1, lsr r3
     fb0:	4d54535c 	ldclmi	3, cr5, [r4, #-368]	; 0xfffffe90
     fb4:	75433233 	strbvc	r3, [r3, #-563]	; 0xfffffdcd
     fb8:	44496562 	strbmi	r6, [r9], #-1378	; 0xfffffa9e
     fbc:	54535c45 	ldrbpl	r5, [r3], #-3141	; 0xfffff3bb
     fc0:	4332334d 	teqmi	r2, #872415233	; 0x34000001
     fc4:	49656275 	stmdbmi	r5!, {r0, r2, r4, r5, r6, r9, sp, lr}^
     fc8:	705c4544 	subsvc	r4, ip, r4, asr #10
     fcc:	6967756c 	stmdbvs	r7!, {r2, r3, r5, r6, r8, sl, ip, sp, lr}^
     fd0:	635c736e 	cmpvs	ip, #-1207959551	; 0xb8000001
     fd4:	732e6d6f 			; <UNDEFINED> instruction: 0x732e6d6f
     fd8:	74732e74 	ldrbtvc	r2, [r3], #-3700	; 0xfffff18c
     fdc:	6332336d 	teqvs	r2, #-1275068415	; 0xb4000001
     fe0:	2e656275 	mcrcs	2, 3, r6, cr5, cr5, {3}
     fe4:	2e656469 	cdpcs	4, 6, cr6, cr5, cr9, {3}
     fe8:	2e75636d 	cdpcs	3, 7, cr6, cr5, cr13, {3}
     fec:	65747865 	ldrbvs	r7, [r4, #-2149]!	; 0xfffff79b
     ff0:	6c616e72 	stclvs	14, cr6, [r1], #-456	; 0xfffffe38
     ff4:	6c6f6f74 	stclvs	15, cr6, [pc], #-464	; e2c <_Min_Stack_Size+0xa2c>
     ff8:	6e672e73 	mcrvs	14, 3, r2, cr7, cr3, {3}
     ffc:	6f742d75 	svcvs	0x00742d75
    1000:	2d736c6f 	ldclcs	12, cr6, [r3, #-444]!	; 0xfffffe44
    1004:	2d726f66 	ldclcs	15, cr6, [r2, #-408]!	; 0xfffffe68
    1008:	336d7473 	cmncc	sp, #1929379840	; 0x73000000
    100c:	31312e32 	teqcc	r1, r2, lsr lr
    1010:	722e332e 	eorvc	r3, lr, #-1207959552	; 0xb8000000
    1014:	2e316c65 	cdpcs	12, 3, cr6, cr1, cr5, {3}
    1018:	336e6977 	cmncc	lr, #1949696	; 0x1dc000
    101c:	2e315f32 	mrccs	15, 1, r5, cr1, cr2, {1}
    1020:	2e302e31 	mrccs	14, 1, r2, cr0, cr1, {1}
    1024:	33323032 	teqcc	r2, #50	; 0x32
    1028:	33323530 	teqcc	r2, #48, 10	; 0xc000000
    102c:	36303531 			; <UNDEFINED> instruction: 0x36303531
    1030:	6f6f745c 	svcvs	0x006f745c
    1034:	625c736c 	subsvs	r7, ip, #108, 6	; 0xb0000001
    1038:	2e2f6e69 	cdpcs	14, 2, cr6, cr15, cr9, {3}
    103c:	696c2f2e 	stmdbvs	ip!, {r1, r2, r3, r5, r8, r9, sl, fp, sp}^
    1040:	63672f62 	cmnvs	r7, #392	; 0x188
    1044:	72612f63 	rsbvc	r2, r1, #396	; 0x18c
    1048:	6f6e2d6d 	svcvs	0x006e2d6d
    104c:	652d656e 	strvs	r6, [sp, #-1390]!	; 0xfffffa92
    1050:	2f696261 	svccs	0x00696261
    1054:	332e3131 			; <UNDEFINED> instruction: 0x332e3131
    1058:	692f312e 	stmdbvs	pc!, {r1, r2, r3, r5, r8, ip, sp}	; <UNPREDICTABLE>
    105c:	756c636e 	strbvc	r6, [ip, #-878]!	; 0xfffffc92
    1060:	00006564 	andeq	r6, r0, r4, ror #10
    1064:	4f495047 	svcmi	0x00495047
    1068:	0100632e 	tsteq	r0, lr, lsr #6
    106c:	645f0000 	ldrbvs	r0, [pc], #-0	; 1074 <_Min_Stack_Size+0xc74>
    1070:	75616665 	strbvc	r6, [r1, #-1637]!	; 0xfffff99b
    1074:	745f746c 	ldrbvc	r7, [pc], #-1132	; 107c <_Min_Stack_Size+0xc7c>
    1078:	73657079 	cmnvc	r5, #121	; 0x79
    107c:	0200682e 	andeq	r6, r0, #3014656	; 0x2e0000
    1080:	735f0000 	cmpvc	pc, #0
    1084:	6e696474 	mcrvs	4, 3, r6, cr9, cr4, {3}
    1088:	00682e74 	rsbeq	r2, r8, r4, ror lr
    108c:	73000003 	movwvc	r0, #3
    1090:	32336d74 	eorscc	r6, r3, #116, 26	; 0x1d00
    1094:	33303166 	teqcc	r0, #-2147483623	; 0x80000019
    1098:	2e787878 	mrccs	8, 3, r7, cr8, cr8, {3}
    109c:	00040068 	andeq	r0, r4, r8, rrx
    10a0:	49504700 	ldmdbmi	r0, {r8, r9, sl, lr}^
    10a4:	00682e4f 	rsbeq	r2, r8, pc, asr #28
    10a8:	73000004 	movwvc	r0, #4
    10ac:	696c6474 	stmdbvs	ip!, {r2, r4, r5, r6, sl, sp, lr}^
    10b0:	00682e62 	rsbeq	r2, r8, r2, ror #28
    10b4:	69000005 	stmdbvs	r0, {r0, r2}
    10b8:	66656565 	strbtvs	r6, [r5], -r5, ror #10
    10bc:	00682e70 	rsbeq	r2, r8, r0, ror lr
    10c0:	5f000006 	svcpl	0x00000006
    10c4:	69736e61 	ldmdbvs	r3!, {r0, r5, r6, r9, sl, fp, sp, lr}^
    10c8:	0500682e 	streq	r6, [r0, #-2094]	; 0xfffff7d2
    10cc:	656e0000 	strbvs	r0, [lr, #-0]!
    10d0:	62696c77 	rsbvs	r6, r9, #30464	; 0x7700
    10d4:	0700682e 	streq	r6, [r0, -lr, lsr #16]
    10d8:	6e5f0000 	cdpvs	0, 5, cr0, cr15, cr0, {0}
    10dc:	696c7765 	stmdbvs	ip!, {r0, r2, r5, r6, r8, r9, sl, ip, sp, lr}^
    10e0:	65765f62 	ldrbvs	r5, [r6, #-3938]!	; 0xfffff09e
    10e4:	6f697372 	svcvs	0x00697372
    10e8:	00682e6e 	rsbeq	r2, r8, lr, ror #28
    10ec:	63000005 	movwvs	r0, #5
    10f0:	69666e6f 	stmdbvs	r6!, {r0, r1, r2, r3, r5, r6, r9, sl, fp, sp, lr}^
    10f4:	00682e67 	rsbeq	r2, r8, r7, ror #28
    10f8:	66000003 	strvs	r0, [r0], -r3
    10fc:	75746165 	ldrbvc	r6, [r4, #-357]!	; 0xfffffe9b
    1100:	2e736572 	mrccs	5, 3, r6, cr3, cr2, {3}
    1104:	00030068 	andeq	r0, r3, r8, rrx
    1108:	64747300 	ldrbtvs	r7, [r4], #-768	; 0xfffffd00
    110c:	2e666564 	cdpcs	5, 6, cr6, cr6, cr4, {3}
    1110:	00080068 	andeq	r0, r8, r8, rrx
    1114:	65657200 	strbvs	r7, [r5, #-512]!	; 0xfffffe00
    1118:	682e746e 	stmdavs	lr!, {r1, r2, r3, r5, r6, sl, ip, sp, lr}
    111c:	00000300 	andeq	r0, r0, r0, lsl #6
    1120:	7079745f 	rsbsvc	r7, r9, pc, asr r4
    1124:	682e7365 	stmdavs	lr!, {r0, r2, r5, r6, r8, r9, ip, sp, lr}
    1128:	00000300 	andeq	r0, r0, r0, lsl #6
    112c:	7079745f 	rsbsvc	r7, r9, pc, asr r4
    1130:	682e7365 	stmdavs	lr!, {r0, r2, r5, r6, r8, r9, ip, sp, lr}
    1134:	00000600 	andeq	r0, r0, r0, lsl #12
    1138:	6b636f6c 	blvs	18dcef0 <_Min_Stack_Size+0x18dcaf0>
    113c:	0300682e 	movweq	r6, #2094	; 0x82e
    1140:	73610000 	cmnvc	r1, #0
    1144:	74726573 	ldrbtvc	r6, [r2], #-1395	; 0xfffffa8d
    1148:	0500682e 	streq	r6, [r0, #-2094]	; 0xfffff7d2
    114c:	64630000 	strbtvs	r0, [r3], #-0
    1150:	2e736665 	cdpcs	6, 7, cr6, cr3, cr5, {3}
    1154:	00030068 	andeq	r0, r3, r8, rrx
    1158:	64747300 	ldrbtvs	r7, [r4], #-768	; 0xfffffd00
    115c:	2e62696c 	vnmulcs.f16	s13, s4, s25	; <UNPREDICTABLE>
    1160:	00060068 	andeq	r0, r6, r8, rrx
    1164:	6c6c6100 	stfvse	f6, [ip], #-0
    1168:	2e61636f 	cdpcs	3, 6, cr6, cr1, cr15, {3}
    116c:	00050068 	andeq	r0, r5, r8, rrx
    1170:	64747300 	ldrbtvs	r7, [r4], #-768	; 0xfffffd00
    1174:	2e746e69 	cdpcs	14, 7, cr6, cr4, cr9, {3}
    1178:	00080068 	andeq	r0, r8, r8, rrx
    117c:	64747300 	ldrbtvs	r7, [r4], #-768	; 0xfffffd00
    1180:	2e746e69 	cdpcs	14, 7, cr6, cr4, cr9, {3}
    1184:	00050068 	andeq	r0, r5, r8, rrx
    1188:	6e695f00 	cdpvs	15, 6, cr5, cr9, cr0, {0}
    118c:	70757374 	rsbsvc	r7, r5, r4, ror r3
    1190:	0300682e 	movweq	r6, #2094	; 0x82e
    1194:	05000000 	streq	r0, [r0, #-0]
    1198:	02050001 	andeq	r0, r5, #1
    119c:	08000718 	stmdaeq	r0, {r3, r4, r8, r9, sl}
    11a0:	05011703 	streq	r1, [r1, #-1795]	; 0xfffff8fd
    11a4:	0a055902 	beq	1575b4 <_Min_Stack_Size+0x1571b4>
    11a8:	15018c02 	strne	r8, [r1, #-3074]	; 0xfffff3fe
    11ac:	32323231 	eorscc	r3, r2, #268435459	; 0x10000003
    11b0:	32323233 	eorscc	r3, r2, #805306371	; 0x30000003
    11b4:	32323231 	eorscc	r3, r2, #268435459	; 0x10000003
    11b8:	05323233 	ldreq	r3, [r2, #-563]!	; 0xfffffdcd
    11bc:	01053308 	tsteq	r5, r8, lsl #6
    11c0:	00050222 	andeq	r0, r5, r2, lsr #4
    11c4:	01050101 	tsteq	r5, r1, lsl #2
    11c8:	88020500 	stmdahi	r2, {r8, sl}
    11cc:	03080008 	movweq	r0, #32776	; 0x8008
    11d0:	050100f4 	streq	r0, [r1, #-244]	; 0xffffff0c
    11d4:	0a055915 	beq	157630 <_Min_Stack_Size+0x157230>
    11d8:	301d052f 	andscc	r0, sp, pc, lsr #10
    11dc:	002e4e05 	eoreq	r4, lr, r5, lsl #28
    11e0:	06010402 	streq	r0, [r1], -r2, lsl #8
    11e4:	0402002e 	streq	r0, [r2], #-46	; 0xffffffd2
    11e8:	11052e02 	tstne	r5, r2, lsl #28
    11ec:	04040200 	streq	r0, [r4], #-512	; 0xfffffe00
    11f0:	20052e06 	andcs	r2, r5, r6, lsl #28
    11f4:	04040200 	streq	r0, [r4], #-512	; 0xfffffe00
    11f8:	001d0523 	andseq	r0, sp, r3, lsr #10
    11fc:	74040402 	strvc	r0, [r4], #-1026	; 0xfffffbfe
    1200:	02001705 	andeq	r1, r0, #1310720	; 0x140000
    1204:	052e0404 	streq	r0, [lr, #-1028]!	; 0xfffffbfc
    1208:	04020014 	streq	r0, [r2], #-20	; 0xffffffec
    120c:	11052004 	tstne	r5, r4
    1210:	04040200 	streq	r0, [r4], #-512	; 0xfffffe00
    1214:	0005055b 	andeq	r0, r5, fp, asr r5
    1218:	2e040402 	cdpcs	4, 0, cr0, cr4, cr2, {0}
    121c:	02004405 	andeq	r4, r0, #83886080	; 0x5000000
    1220:	052e0104 	streq	r0, [lr, #-260]!	; 0xfffffefc
    1224:	04020036 	streq	r0, [r2], #-54	; 0xffffffca
    1228:	76052e01 	strvc	r2, [r5], -r1, lsl #28
    122c:	02040200 	andeq	r0, r4, #0, 4
    1230:	0069052e 	rsbeq	r0, r9, lr, lsr #10
    1234:	2e020402 	cdpcs	4, 0, cr0, cr2, cr2, {0}
    1238:	0001aa05 	andeq	sl, r1, r5, lsl #20
    123c:	2e030402 	cdpcs	4, 0, cr0, cr3, cr2, {0}
    1240:	00019e05 	andeq	r9, r1, r5, lsl #28
    1244:	2e030402 	cdpcs	4, 0, cr0, cr3, cr2, {0}
    1248:	05302305 	ldreq	r2, [r0, #-773]!	; 0xfffffcfb
    124c:	34052e2f 	strcc	r2, [r5], #-3631	; 0xfffff1d1
    1250:	203a0520 	eorscs	r0, sl, r0, lsr #10
    1254:	05204605 	streq	r4, [r0, #-1541]!	; 0xfffff9fb
    1258:	5e053c3a 	mcrpl	12, 0, r3, cr5, cr10, {1}
    125c:	200f052e 	andcs	r0, pc, lr, lsr #10
    1260:	053d2c05 	ldreq	r2, [sp, #-3077]!	; 0xfffff3fb
    1264:	2c052031 	stccs	0, cr2, [r5], {49}	; 0x31
    1268:	2e150566 	cfmsc32cs	mvfx0, mvfx5, mvfx6
    126c:	05580305 	ldrbeq	r0, [r8, #-773]	; 0xfffffcfb
    1270:	06052513 			; <UNDEFINED> instruction: 0x06052513
    1274:	0042052e 	subeq	r0, r2, lr, lsr #10
    1278:	2e010402 	cdpcs	4, 0, cr0, cr1, cr2, {0}
    127c:	02003505 	andeq	r3, r0, #20971520	; 0x1400000
    1280:	052e0104 	streq	r0, [lr, #-260]!	; 0xfffffefc
    1284:	35053023 	strcc	r3, [r5, #-35]	; 0xffffffdd
    1288:	2040052e 	subcs	r0, r0, lr, lsr #10
    128c:	05201005 	streq	r1, [r0, #-5]!
    1290:	32053d2d 	andcc	r3, r5, #2880	; 0xb40
    1294:	662d0520 	strtvs	r0, [sp], -r0, lsr #10
    1298:	052e1605 	streq	r1, [lr, #-1541]!	; 0xfffff9fb
    129c:	15055804 	strne	r5, [r5, #-2052]	; 0xfffff7fc
    12a0:	2e0b0522 	cfsh32cs	mvfx0, mvfx11, #18
    12a4:	05301005 	ldreq	r1, [r0, #-5]!
    12a8:	32052f2d 	andcc	r2, r5, #45, 30	; 0xb4
    12ac:	662d0520 	strtvs	r0, [sp], -r0, lsr #10
    12b0:	052e1605 	streq	r1, [lr, #-1541]!	; 0xfffff9fb
    12b4:	58160301 	ldmdapl	r6, {r0, r8, r9}
    12b8:	6f031005 	svcvs	0x00031005
    12bc:	2f2d0520 	svccs	0x002d0520
    12c0:	05203205 	streq	r3, [r0, #-517]!	; 0xfffffdfb
    12c4:	1605662d 	strne	r6, [r5], -sp, lsr #12
    12c8:	5a11052e 	bpl	442788 <_Min_Stack_Size+0x442388>
    12cc:	052e0705 	streq	r0, [lr, #-1797]!	; 0xfffff8fb
    12d0:	1c053110 	stfnes	f3, [r5], {16}
    12d4:	2e10052e 	cfmul64cs	mvdx0, mvdx0, mvdx14
    12d8:	0b030105 	bleq	c16f4 <_Min_Stack_Size+0xc12f4>
    12dc:	0310053c 	tsteq	r0, #60, 10	; 0xf000000
    12e0:	1e052079 	mcrne	0, 0, r2, cr5, cr9, {3}
    12e4:	2e13052e 	cfmul64cs	mvdx0, mvdx3, mvdx14
    12e8:	05201005 	streq	r1, [r0, #-5]!
    12ec:	05024301 	streq	r4, [r2, #-769]	; 0xfffffcff
    12f0:	05010100 	streq	r0, [r1, #-256]	; 0xffffff00
    12f4:	02050001 	andeq	r0, r5, #1
    12f8:	00000000 	andeq	r0, r0, r0
    12fc:	0101ae03 	tsteq	r1, r3, lsl #28
    1300:	0f030505 	svceq	0x00030505
    1304:	4c11054a 	cfldr32mi	mvfx0, [r1], {74}	; 0x4a
    1308:	03010567 	movweq	r0, #5479	; 0x1567
    130c:	0b056618 	bleq	15ab74 <_Min_Stack_Size+0x15a774>
    1310:	05206a03 	streq	r6, [r0, #-2563]!	; 0xfffff5fd
    1314:	05674c11 	strbeq	r4, [r7, #-3089]!	; 0xfffff3ef
    1318:	66130301 	ldrvs	r0, [r3], -r1, lsl #6
    131c:	6f030b05 	svcvs	0x00030b05
    1320:	4c110520 	cfldr32mi	mvfx0, [r1], {32}
    1324:	03010567 	movweq	r0, #5479	; 0x1567
    1328:	0b05660e 	bleq	15ab68 <_Min_Stack_Size+0x15a768>
    132c:	05207403 	streq	r7, [r0, #-1027]!	; 0xfffffbfd
    1330:	05674c11 	strbeq	r4, [r7, #-3089]!	; 0xfffff3ef
    1334:	66090301 	strvs	r0, [r9], -r1, lsl #6
    1338:	79030b05 	stmdbvc	r3, {r0, r2, r8, r9, fp}
    133c:	4c110520 	cfldr32mi	mvfx0, [r1], {32}
    1340:	6a010567 	bvs	428e4 <_Min_Stack_Size+0x424e4>
    1344:	01001202 	tsteq	r0, r2, lsl #4
    1348:	00010501 	andeq	r0, r1, r1, lsl #10
    134c:	00000205 	andeq	r0, r0, r5, lsl #4
    1350:	e3030000 	movw	r0, #12288	; 0x3000
    1354:	0c050101 	stfeqs	f0, [r5], {1}
    1358:	2e120568 	cfmsc32cs	mvfx0, mvfx2, mvfx8
    135c:	052e0505 	streq	r0, [lr, #-1285]!	; 0xfffffafb
    1360:	053f300d 	ldreq	r3, [pc, #-13]!	; 135b <_Min_Stack_Size+0xf5b>
    1364:	01053009 	tsteq	r5, r9
    1368:	00050221 	andeq	r0, r5, r1, lsr #4
    136c:	01050101 	tsteq	r5, r1, lsl #2
    1370:	00020500 	andeq	r0, r2, r0, lsl #10
    1374:	03000000 	movweq	r0, #0
    1378:	050101f7 	streq	r0, [r1, #-503]	; 0xfffffe09
    137c:	0d054c1f 	stceq	12, cr4, [r5, #-124]	; 0xffffff84
    1380:	2109052e 	tstcs	r9, lr, lsr #10
    1384:	02210105 	eoreq	r0, r1, #1073741825	; 0x40000001
    1388:	01010005 	tsteq	r1, r5
    138c:	05000105 	streq	r0, [r0, #-261]	; 0xfffffefb
    1390:	00000002 	andeq	r0, r0, r2
    1394:	02850300 	addeq	r0, r5, #0, 6
    1398:	680f0501 	stmdavs	pc, {r0, r8, sl}	; <UNPREDICTABLE>
    139c:	05200d05 	streq	r0, [r0, #-3333]!	; 0xfffff2fb
    13a0:	05022f01 	streq	r2, [r2, #-3841]	; 0xfffff0ff
    13a4:	05010100 	streq	r0, [r1, #-256]	; 0xffffff00
    13a8:	02050001 	andeq	r0, r5, #1
    13ac:	00000000 	andeq	r0, r0, r0
    13b0:	01029503 	tsteq	r2, r3, lsl #10
    13b4:	05830505 	streq	r0, [r3, #1285]	; 0x505
    13b8:	0105420f 	tsteq	r5, pc, lsl #4
    13bc:	053c1103 	ldreq	r1, [ip, #-259]!	; 0xfffffefd
    13c0:	207a0310 	rsbscs	r0, sl, r0, lsl r3
    13c4:	05200e05 	streq	r0, [r0, #-3589]!	; 0xfffff1fb
    13c8:	05023401 	streq	r3, [r2, #-1025]	; 0xfffffbff
    13cc:	05010100 	streq	r0, [r1, #-256]	; 0xffffff00
    13d0:	02050001 	andeq	r0, r5, #1
    13d4:	00000000 	andeq	r0, r0, r0
    13d8:	0102b903 	tsteq	r2, r3, lsl #18
    13dc:	05670d05 	strbeq	r0, [r7, #-3333]!	; 0xfffff2fb
    13e0:	05026701 	streq	r6, [r2, #-1793]	; 0xfffff8ff
    13e4:	05010100 	streq	r0, [r1, #-256]	; 0xffffff00
    13e8:	02050001 	andeq	r0, r5, #1
    13ec:	00000000 	andeq	r0, r0, r0
    13f0:	0102c603 	tsteq	r2, r3, lsl #12
    13f4:	1c031405 	cfstrsne	mvf1, [r3], {5}
    13f8:	3f060566 	svccc	0x00060566
    13fc:	3e4e0e05 	cdpcc	14, 4, cr0, cr14, cr5, {0}
    1400:	3f0d053f 	svccc	0x000d053f
    1404:	052e0605 	streq	r0, [lr, #-1541]!	; 0xfffff9fb
    1408:	06052316 			; <UNDEFINED> instruction: 0x06052316
    140c:	2e05052e 	cfsh32cs	mvfx0, mvfx5, #30
    1410:	32300b05 	eorscc	r0, r0, #5120	; 0x1400
    1414:	02220105 	eoreq	r0, r2, #1073741825	; 0x40000001
    1418:	01010005 	tsteq	r1, r5
    141c:	000007f7 	strdeq	r0, [r0], -r7
    1420:	06b50003 	ldrteq	r0, [r5], r3
    1424:	01020000 	mrseq	r0, (UNDEF: 2)
    1428:	000d0efb 	strdeq	r0, [sp], -fp
    142c:	01010101 	tsteq	r1, r1, lsl #2
    1430:	01000000 	mrseq	r0, (UNDEF: 0)
    1434:	2e010000 	cdpcs	0, 0, cr0, cr1, cr0, {0}
    1438:	72532f2e 	subsvc	r2, r3, #46, 30	; 0xb8
    143c:	3a440063 	bcc	11015d0 <_Min_Stack_Size+0x11011d0>
    1440:	4d54535c 	ldclmi	3, cr5, [r4, #-368]	; 0xfffffe90
    1444:	75433233 	strbvc	r3, [r3, #-563]	; 0xfffffdcd
    1448:	44496562 	strbmi	r6, [r9], #-1378	; 0xfffffa9e
    144c:	2e315f45 	cdpcs	15, 3, cr5, cr1, cr5, {2}
    1450:	302e3331 	eorcc	r3, lr, r1, lsr r3
    1454:	4d54535c 	ldclmi	3, cr5, [r4, #-368]	; 0xfffffe90
    1458:	75433233 	strbvc	r3, [r3, #-563]	; 0xfffffdcd
    145c:	44496562 	strbmi	r6, [r9], #-1378	; 0xfffffa9e
    1460:	54535c45 	ldrbpl	r5, [r3], #-3141	; 0xfffff3bb
    1464:	4332334d 	teqmi	r2, #872415233	; 0x34000001
    1468:	49656275 	stmdbmi	r5!, {r0, r2, r4, r5, r6, r9, sp, lr}^
    146c:	705c4544 	subsvc	r4, ip, r4, asr #10
    1470:	6967756c 	stmdbvs	r7!, {r2, r3, r5, r6, r8, sl, ip, sp, lr}^
    1474:	635c736e 	cmpvs	ip, #-1207959551	; 0xb8000001
    1478:	732e6d6f 			; <UNDEFINED> instruction: 0x732e6d6f
    147c:	74732e74 	ldrbtvc	r2, [r3], #-3700	; 0xfffff18c
    1480:	6332336d 	teqvs	r2, #-1275068415	; 0xb4000001
    1484:	2e656275 	mcrcs	2, 3, r6, cr5, cr5, {3}
    1488:	2e656469 	cdpcs	4, 6, cr6, cr5, cr9, {3}
    148c:	2e75636d 	cdpcs	3, 7, cr6, cr5, cr13, {3}
    1490:	65747865 	ldrbvs	r7, [r4, #-2149]!	; 0xfffff79b
    1494:	6c616e72 	stclvs	14, cr6, [r1], #-456	; 0xfffffe38
    1498:	6c6f6f74 	stclvs	15, cr6, [pc], #-464	; 12d0 <_Min_Stack_Size+0xed0>
    149c:	6e672e73 	mcrvs	14, 3, r2, cr7, cr3, {3}
    14a0:	6f742d75 	svcvs	0x00742d75
    14a4:	2d736c6f 	ldclcs	12, cr6, [r3, #-444]!	; 0xfffffe44
    14a8:	2d726f66 	ldclcs	15, cr6, [r2, #-408]!	; 0xfffffe68
    14ac:	336d7473 	cmncc	sp, #1929379840	; 0x73000000
    14b0:	31312e32 	teqcc	r1, r2, lsr lr
    14b4:	722e332e 	eorvc	r3, lr, #-1207959552	; 0xb8000000
    14b8:	2e316c65 	cdpcs	12, 3, cr6, cr1, cr5, {3}
    14bc:	336e6977 	cmncc	lr, #1949696	; 0x1dc000
    14c0:	2e315f32 	mrccs	15, 1, r5, cr1, cr2, {1}
    14c4:	2e302e31 	mrccs	14, 1, r2, cr0, cr1, {1}
    14c8:	33323032 	teqcc	r2, #50	; 0x32
    14cc:	33323530 	teqcc	r2, #48, 10	; 0xc000000
    14d0:	36303531 			; <UNDEFINED> instruction: 0x36303531
    14d4:	6f6f745c 	svcvs	0x006f745c
    14d8:	615c736c 	cmpvs	ip, ip, ror #6
    14dc:	6e2d6d72 	mcrvs	13, 1, r6, cr13, cr2, {3}
    14e0:	2d656e6f 	stclcs	14, cr6, [r5, #-444]!	; 0xfffffe44
    14e4:	69626165 	stmdbvs	r2!, {r0, r2, r5, r6, r8, sp, lr}^
    14e8:	636e695c 	cmnvs	lr, #92, 18	; 0x170000
    14ec:	6564756c 	strbvs	r7, [r4, #-1388]!	; 0xfffffa94
    14f0:	63616d5c 	cmnvs	r1, #92, 26	; 0x1700
    14f4:	656e6968 	strbvs	r6, [lr, #-2408]!	; 0xfffff698
    14f8:	5c3a4400 	cfldrspl	mvf4, [sl], #-0
    14fc:	334d5453 	movtcc	r5, #54355	; 0xd453
    1500:	62754332 	rsbsvs	r4, r5, #-939524096	; 0xc8000000
    1504:	45444965 	strbmi	r4, [r4, #-2405]	; 0xfffff69b
    1508:	312e315f 			; <UNDEFINED> instruction: 0x312e315f
    150c:	5c302e33 	ldcpl	14, cr2, [r0], #-204	; 0xffffff34
    1510:	334d5453 	movtcc	r5, #54355	; 0xd453
    1514:	62754332 	rsbsvs	r4, r5, #-939524096	; 0xc8000000
    1518:	45444965 	strbmi	r4, [r4, #-2405]	; 0xfffff69b
    151c:	4d54535c 	ldclmi	3, cr5, [r4, #-368]	; 0xfffffe90
    1520:	75433233 	strbvc	r3, [r3, #-563]	; 0xfffffdcd
    1524:	44496562 	strbmi	r6, [r9], #-1378	; 0xfffffa9e
    1528:	6c705c45 	ldclvs	12, cr5, [r0], #-276	; 0xfffffeec
    152c:	6e696775 	mcrvs	7, 3, r6, cr9, cr5, {3}
    1530:	6f635c73 	svcvs	0x00635c73
    1534:	74732e6d 	ldrbtvc	r2, [r3], #-3693	; 0xfffff193
    1538:	6d74732e 	ldclvs	3, cr7, [r4, #-184]!	; 0xffffff48
    153c:	75633233 	strbvc	r3, [r3, #-563]!	; 0xfffffdcd
    1540:	692e6562 	stmdbvs	lr!, {r1, r5, r6, r8, sl, sp, lr}
    1544:	6d2e6564 	cfstr32vs	mvfx6, [lr, #-400]!	; 0xfffffe70
    1548:	652e7563 	strvs	r7, [lr, #-1379]!	; 0xfffffa9d
    154c:	72657478 	rsbvc	r7, r5, #120, 8	; 0x78000000
    1550:	746c616e 	strbtvc	r6, [ip], #-366	; 0xfffffe92
    1554:	736c6f6f 	cmnvc	ip, #444	; 0x1bc
    1558:	756e672e 	strbvc	r6, [lr, #-1838]!	; 0xfffff8d2
    155c:	6f6f742d 	svcvs	0x006f742d
    1560:	662d736c 	strtvs	r7, [sp], -ip, ror #6
    1564:	732d726f 			; <UNDEFINED> instruction: 0x732d726f
    1568:	32336d74 	eorscc	r6, r3, #116, 26	; 0x1d00
    156c:	2e31312e 	rsfcssp	f3, f1, #0.5
    1570:	65722e33 	ldrbvs	r2, [r2, #-3635]!	; 0xfffff1cd
    1574:	772e316c 	strvc	r3, [lr, -ip, ror #2]!
    1578:	32336e69 	eorscc	r6, r3, #1680	; 0x690
    157c:	312e315f 			; <UNDEFINED> instruction: 0x312e315f
    1580:	322e302e 	eorcc	r3, lr, #46	; 0x2e
    1584:	30333230 	eorscc	r3, r3, r0, lsr r2
    1588:	31333235 	teqcc	r3, r5, lsr r2
    158c:	5c363035 	ldcpl	0, cr3, [r6], #-212	; 0xffffff2c
    1590:	6c6f6f74 	stclvs	15, cr6, [pc], #-464	; 13c8 <_Min_Stack_Size+0xfc8>
    1594:	69625c73 	stmdbvs	r2!, {r0, r1, r4, r5, r6, sl, fp, ip, lr}^
    1598:	2e2e2f6e 	cdpcs	15, 2, cr2, cr14, cr14, {3}
    159c:	62696c2f 	rsbvs	r6, r9, #12032	; 0x2f00
    15a0:	6363672f 	cmnvs	r3, #12320768	; 0xbc0000
    15a4:	6d72612f 	ldfvse	f6, [r2, #-188]!	; 0xffffff44
    15a8:	6e6f6e2d 	cdpvs	14, 6, cr6, cr15, cr13, {1}
    15ac:	61652d65 	cmnvs	r5, r5, ror #26
    15b0:	312f6962 			; <UNDEFINED> instruction: 0x312f6962
    15b4:	2e332e31 	mrccs	14, 1, r2, cr3, cr1, {1}
    15b8:	2e2e2f31 	mcrcs	15, 1, r2, cr14, cr1, {1}
    15bc:	2f2e2e2f 	svccs	0x002e2e2f
    15c0:	2e2f2e2e 	cdpcs	14, 2, cr2, cr15, cr14, {1}
    15c4:	72612f2e 	rsbvc	r2, r1, #46, 30	; 0xb8
    15c8:	6f6e2d6d 	svcvs	0x006e2d6d
    15cc:	652d656e 	strvs	r6, [sp, #-1390]!	; 0xfffffa92
    15d0:	2f696261 	svccs	0x00696261
    15d4:	6c636e69 	stclvs	14, cr6, [r3], #-420	; 0xfffffe5c
    15d8:	2f656475 	svccs	0x00656475
    15dc:	00737973 	rsbseq	r7, r3, r3, ror r9
    15e0:	6b2f3a44 	blvs	bcfef8 <_Min_Stack_Size+0xbcfaf8>
    15e4:	6d652073 	stclvs	0, cr2, [r5, #-460]!	; 0xfffffe34
    15e8:	64646562 	strbtvs	r6, [r4], #-1378	; 0xfffffa9e
    15ec:	73206465 			; <UNDEFINED> instruction: 0x73206465
    15f0:	65747379 	ldrbvs	r7, [r4, #-889]!	; 0xfffffc87
    15f4:	7361206d 	cmnvc	r1, #109	; 0x6d
    15f8:	72612f73 	rsbvc	r2, r1, #460	; 0x1cc
    15fc:	7261206d 	rsbvc	r2, r1, #109	; 0x6d
    1600:	74696863 	strbtvc	r6, [r9], #-2147	; 0xfffff79d
    1604:	75746365 	ldrbvc	r6, [r4, #-869]!	; 0xfffffc9b
    1608:	75206572 	strvc	r6, [r0, #-1394]!	; 0xfffffa8e
    160c:	2074696e 	rsbscs	r6, r4, lr, ror #18
    1610:	612f3431 			; <UNDEFINED> instruction: 0x612f3431
    1614:	61206d72 			; <UNDEFINED> instruction: 0x61206d72
    1618:	69686372 	stmdbvs	r8!, {r1, r4, r5, r6, r8, r9, sp, lr}^
    161c:	74636574 	strbtvc	r6, [r3], #-1396	; 0xfffffa8c
    1620:	20657275 	rsbcs	r7, r5, r5, ror r2
    1624:	74696e75 	strbtvc	r6, [r9], #-3701	; 0xfffff18b
    1628:	6c2f3431 	cfstrsvs	mvf3, [pc], #-196	; 156c <_Min_Stack_Size+0x116c>
    162c:	6f737365 	svcvs	0x00737365
    1630:	6c20356e 	cfstr32vs	mvfx3, [r0], #-440	; 0xfffffe48
    1634:	4d2f6261 	sfmmi	f6, 4, [pc, #-388]!	; 14b8 <_Min_Stack_Size+0x10b8>
    1638:	2f4c4143 	svccs	0x004c4143
    163c:	00636e69 	rsbeq	r6, r3, r9, ror #28
    1640:	535c3a44 	cmppl	ip, #68, 20	; 0x44000
    1644:	32334d54 	eorscc	r4, r3, #84, 26	; 0x1500
    1648:	65627543 	strbvs	r7, [r2, #-1347]!	; 0xfffffabd
    164c:	5f454449 	svcpl	0x00454449
    1650:	33312e31 	teqcc	r1, #784	; 0x310
    1654:	535c302e 	cmppl	ip, #46	; 0x2e
    1658:	32334d54 	eorscc	r4, r3, #84, 26	; 0x1500
    165c:	65627543 	strbvs	r7, [r2, #-1347]!	; 0xfffffabd
    1660:	5c454449 	cfstrdpl	mvd4, [r5], {73}	; 0x49
    1664:	334d5453 	movtcc	r5, #54355	; 0xd453
    1668:	62754332 	rsbsvs	r4, r5, #-939524096	; 0xc8000000
    166c:	45444965 	strbmi	r4, [r4, #-2405]	; 0xfffff69b
    1670:	756c705c 	strbvc	r7, [ip, #-92]!	; 0xffffffa4
    1674:	736e6967 	cmnvc	lr, #1687552	; 0x19c000
    1678:	6d6f635c 	stclvs	3, cr6, [pc, #-368]!	; 1510 <_Min_Stack_Size+0x1110>
    167c:	2e74732e 	cdpcs	3, 7, cr7, cr4, cr14, {1}
    1680:	336d7473 	cmncc	sp, #1929379840	; 0x73000000
    1684:	62756332 	rsbsvs	r6, r5, #-939524096	; 0xc8000000
    1688:	64692e65 	strbtvs	r2, [r9], #-3685	; 0xfffff19b
    168c:	636d2e65 	cmnvs	sp, #1616	; 0x650
    1690:	78652e75 	stmdavc	r5!, {r0, r2, r4, r5, r6, r9, sl, fp, sp}^
    1694:	6e726574 	mrcvs	5, 3, r6, cr2, cr4, {3}
    1698:	6f746c61 	svcvs	0x00746c61
    169c:	2e736c6f 	cdpcs	12, 7, cr6, cr3, cr15, {3}
    16a0:	2d756e67 	ldclcs	14, cr6, [r5, #-412]!	; 0xfffffe64
    16a4:	6c6f6f74 	stclvs	15, cr6, [pc], #-464	; 14dc <_Min_Stack_Size+0x10dc>
    16a8:	6f662d73 	svcvs	0x00662d73
    16ac:	74732d72 	ldrbtvc	r2, [r3], #-3442	; 0xfffff28e
    16b0:	2e32336d 	cdpcs	3, 3, cr3, cr2, cr13, {3}
    16b4:	332e3131 			; <UNDEFINED> instruction: 0x332e3131
    16b8:	6c65722e 	sfmvs	f7, 2, [r5], #-184	; 0xffffff48
    16bc:	69772e31 	ldmdbvs	r7!, {r0, r4, r5, r9, sl, fp, sp}^
    16c0:	5f32336e 	svcpl	0x0032336e
    16c4:	2e312e31 	mrccs	14, 1, r2, cr1, cr1, {1}
    16c8:	30322e30 	eorscc	r2, r2, r0, lsr lr
    16cc:	35303332 	ldrcc	r3, [r0, #-818]!	; 0xfffffcce
    16d0:	35313332 	ldrcc	r3, [r1, #-818]!	; 0xfffffcce
    16d4:	745c3630 	ldrbvc	r3, [ip], #-1584	; 0xfffff9d0
    16d8:	736c6f6f 	cmnvc	ip, #444	; 0x1bc
    16dc:	6e69625c 	mcrvs	2, 3, r6, cr9, cr12, {2}
    16e0:	2f2e2e2f 	svccs	0x002e2e2f
    16e4:	2f62696c 	svccs	0x0062696c
    16e8:	2f636367 	svccs	0x00636367
    16ec:	2d6d7261 	sfmcs	f7, 2, [sp, #-388]!	; 0xfffffe7c
    16f0:	656e6f6e 	strbvs	r6, [lr, #-3950]!	; 0xfffff092
    16f4:	6261652d 	rsbvs	r6, r1, #188743680	; 0xb400000
    16f8:	31312f69 	teqcc	r1, r9, ror #30
    16fc:	312e332e 			; <UNDEFINED> instruction: 0x312e332e
    1700:	636e692f 	cmnvs	lr, #770048	; 0xbc000
    1704:	6564756c 	strbvs	r7, [r4, #-1388]!	; 0xfffffa94
    1708:	5c3a4400 	cfldrspl	mvf4, [sl], #-0
    170c:	334d5453 	movtcc	r5, #54355	; 0xd453
    1710:	62754332 	rsbsvs	r4, r5, #-939524096	; 0xc8000000
    1714:	45444965 	strbmi	r4, [r4, #-2405]	; 0xfffff69b
    1718:	312e315f 			; <UNDEFINED> instruction: 0x312e315f
    171c:	5c302e33 	ldcpl	14, cr2, [r0], #-204	; 0xffffff34
    1720:	334d5453 	movtcc	r5, #54355	; 0xd453
    1724:	62754332 	rsbsvs	r4, r5, #-939524096	; 0xc8000000
    1728:	45444965 	strbmi	r4, [r4, #-2405]	; 0xfffff69b
    172c:	4d54535c 	ldclmi	3, cr5, [r4, #-368]	; 0xfffffe90
    1730:	75433233 	strbvc	r3, [r3, #-563]	; 0xfffffdcd
    1734:	44496562 	strbmi	r6, [r9], #-1378	; 0xfffffa9e
    1738:	6c705c45 	ldclvs	12, cr5, [r0], #-276	; 0xfffffeec
    173c:	6e696775 	mcrvs	7, 3, r6, cr9, cr5, {3}
    1740:	6f635c73 	svcvs	0x00635c73
    1744:	74732e6d 	ldrbtvc	r2, [r3], #-3693	; 0xfffff193
    1748:	6d74732e 	ldclvs	3, cr7, [r4, #-184]!	; 0xffffff48
    174c:	75633233 	strbvc	r3, [r3, #-563]!	; 0xfffffdcd
    1750:	692e6562 	stmdbvs	lr!, {r1, r5, r6, r8, sl, sp, lr}
    1754:	6d2e6564 	cfstr32vs	mvfx6, [lr, #-400]!	; 0xfffffe70
    1758:	652e7563 	strvs	r7, [lr, #-1379]!	; 0xfffffa9d
    175c:	72657478 	rsbvc	r7, r5, #120, 8	; 0x78000000
    1760:	746c616e 	strbtvc	r6, [ip], #-366	; 0xfffffe92
    1764:	736c6f6f 	cmnvc	ip, #444	; 0x1bc
    1768:	756e672e 	strbvc	r6, [lr, #-1838]!	; 0xfffff8d2
    176c:	6f6f742d 	svcvs	0x006f742d
    1770:	662d736c 	strtvs	r7, [sp], -ip, ror #6
    1774:	732d726f 			; <UNDEFINED> instruction: 0x732d726f
    1778:	32336d74 	eorscc	r6, r3, #116, 26	; 0x1d00
    177c:	2e31312e 	rsfcssp	f3, f1, #0.5
    1780:	65722e33 	ldrbvs	r2, [r2, #-3635]!	; 0xfffff1cd
    1784:	772e316c 	strvc	r3, [lr, -ip, ror #2]!
    1788:	32336e69 	eorscc	r6, r3, #1680	; 0x690
    178c:	312e315f 			; <UNDEFINED> instruction: 0x312e315f
    1790:	322e302e 	eorcc	r3, lr, #46	; 0x2e
    1794:	30333230 	eorscc	r3, r3, r0, lsr r2
    1798:	31333235 	teqcc	r3, r5, lsr r2
    179c:	5c363035 	ldcpl	0, cr3, [r6], #-212	; 0xffffff2c
    17a0:	6c6f6f74 	stclvs	15, cr6, [pc], #-464	; 15d8 <_Min_Stack_Size+0x11d8>
    17a4:	69625c73 	stmdbvs	r2!, {r0, r1, r4, r5, r6, sl, fp, ip, lr}^
    17a8:	2e2e2f6e 	cdpcs	15, 2, cr2, cr14, cr14, {3}
    17ac:	62696c2f 	rsbvs	r6, r9, #12032	; 0x2f00
    17b0:	6363672f 	cmnvs	r3, #12320768	; 0xbc0000
    17b4:	6d72612f 	ldfvse	f6, [r2, #-188]!	; 0xffffff44
    17b8:	6e6f6e2d 	cdpvs	14, 6, cr6, cr15, cr13, {1}
    17bc:	61652d65 	cmnvs	r5, r5, ror #26
    17c0:	312f6962 			; <UNDEFINED> instruction: 0x312f6962
    17c4:	2e332e31 	mrccs	14, 1, r2, cr3, cr1, {1}
    17c8:	2e2e2f31 	mcrcs	15, 1, r2, cr14, cr1, {1}
    17cc:	2f2e2e2f 	svccs	0x002e2e2f
    17d0:	2e2f2e2e 	cdpcs	14, 2, cr2, cr15, cr14, {1}
    17d4:	72612f2e 	rsbvc	r2, r1, #46, 30	; 0xb8
    17d8:	6f6e2d6d 	svcvs	0x006e2d6d
    17dc:	652d656e 	strvs	r6, [sp, #-1390]!	; 0xfffffa92
    17e0:	2f696261 	svccs	0x00696261
    17e4:	6c636e69 	stclvs	14, cr6, [r3], #-420	; 0xfffffe5c
    17e8:	00656475 	rsbeq	r6, r5, r5, ror r4
    17ec:	535c3a44 	cmppl	ip, #68, 20	; 0x44000
    17f0:	32334d54 	eorscc	r4, r3, #84, 26	; 0x1500
    17f4:	65627543 	strbvs	r7, [r2, #-1347]!	; 0xfffffabd
    17f8:	5f454449 	svcpl	0x00454449
    17fc:	33312e31 	teqcc	r1, #784	; 0x310
    1800:	535c302e 	cmppl	ip, #46	; 0x2e
    1804:	32334d54 	eorscc	r4, r3, #84, 26	; 0x1500
    1808:	65627543 	strbvs	r7, [r2, #-1347]!	; 0xfffffabd
    180c:	5c454449 	cfstrdpl	mvd4, [r5], {73}	; 0x49
    1810:	334d5453 	movtcc	r5, #54355	; 0xd453
    1814:	62754332 	rsbsvs	r4, r5, #-939524096	; 0xc8000000
    1818:	45444965 	strbmi	r4, [r4, #-2405]	; 0xfffff69b
    181c:	756c705c 	strbvc	r7, [ip, #-92]!	; 0xffffffa4
    1820:	736e6967 	cmnvc	lr, #1687552	; 0x19c000
    1824:	6d6f635c 	stclvs	3, cr6, [pc, #-368]!	; 16bc <_Min_Stack_Size+0x12bc>
    1828:	2e74732e 	cdpcs	3, 7, cr7, cr4, cr14, {1}
    182c:	336d7473 	cmncc	sp, #1929379840	; 0x73000000
    1830:	62756332 	rsbsvs	r6, r5, #-939524096	; 0xc8000000
    1834:	64692e65 	strbtvs	r2, [r9], #-3685	; 0xfffff19b
    1838:	636d2e65 	cmnvs	sp, #1616	; 0x650
    183c:	78652e75 	stmdavc	r5!, {r0, r2, r4, r5, r6, r9, sl, fp, sp}^
    1840:	6e726574 	mrcvs	5, 3, r6, cr2, cr4, {3}
    1844:	6f746c61 	svcvs	0x00746c61
    1848:	2e736c6f 	cdpcs	12, 7, cr6, cr3, cr15, {3}
    184c:	2d756e67 	ldclcs	14, cr6, [r5, #-412]!	; 0xfffffe64
    1850:	6c6f6f74 	stclvs	15, cr6, [pc], #-464	; 1688 <_Min_Stack_Size+0x1288>
    1854:	6f662d73 	svcvs	0x00662d73
    1858:	74732d72 	ldrbtvc	r2, [r3], #-3442	; 0xfffff28e
    185c:	2e32336d 	cdpcs	3, 3, cr3, cr2, cr13, {3}
    1860:	332e3131 			; <UNDEFINED> instruction: 0x332e3131
    1864:	6c65722e 	sfmvs	f7, 2, [r5], #-184	; 0xffffff48
    1868:	69772e31 	ldmdbvs	r7!, {r0, r4, r5, r9, sl, fp, sp}^
    186c:	5f32336e 	svcpl	0x0032336e
    1870:	2e312e31 	mrccs	14, 1, r2, cr1, cr1, {1}
    1874:	30322e30 	eorscc	r2, r2, r0, lsr lr
    1878:	35303332 	ldrcc	r3, [r0, #-818]!	; 0xfffffcce
    187c:	35313332 	ldrcc	r3, [r1, #-818]!	; 0xfffffcce
    1880:	745c3630 	ldrbvc	r3, [ip], #-1584	; 0xfffff9d0
    1884:	736c6f6f 	cmnvc	ip, #444	; 0x1bc
    1888:	6e69625c 	mcrvs	2, 3, r6, cr9, cr12, {2}
    188c:	2f2e2e2f 	svccs	0x002e2e2f
    1890:	2f62696c 	svccs	0x0062696c
    1894:	2f636367 	svccs	0x00636367
    1898:	2d6d7261 	sfmcs	f7, 2, [sp, #-388]!	; 0xfffffe7c
    189c:	656e6f6e 	strbvs	r6, [lr, #-3950]!	; 0xfffff092
    18a0:	6261652d 	rsbvs	r6, r1, #188743680	; 0xb400000
    18a4:	31312f69 	teqcc	r1, r9, ror #30
    18a8:	312e332e 			; <UNDEFINED> instruction: 0x312e332e
    18ac:	2f2e2e2f 	svccs	0x002e2e2f
    18b0:	2e2f2e2e 	cdpcs	14, 2, cr2, cr15, cr14, {1}
    18b4:	2e2e2f2e 	cdpcs	15, 2, cr2, cr14, cr14, {1}
    18b8:	6d72612f 	ldfvse	f6, [r2, #-188]!	; 0xffffff44
    18bc:	6e6f6e2d 	cdpvs	14, 6, cr6, cr15, cr13, {1}
    18c0:	61652d65 	cmnvs	r5, r5, ror #26
    18c4:	692f6962 	stmdbvs	pc!, {r1, r5, r6, r8, fp, sp, lr}	; <UNPREDICTABLE>
    18c8:	756c636e 	strbvc	r6, [ip, #-878]!	; 0xfffffc92
    18cc:	6d2f6564 	cfstr32vs	mvfx6, [pc, #-400]!	; 1744 <_Min_Stack_Size+0x1344>
    18d0:	69686361 	stmdbvs	r8!, {r0, r5, r6, r8, r9, sp, lr}^
    18d4:	4400656e 	strmi	r6, [r0], #-1390	; 0xfffffa92
    18d8:	54535c3a 	ldrbpl	r5, [r3], #-3130	; 0xfffff3c6
    18dc:	4332334d 	teqmi	r2, #872415233	; 0x34000001
    18e0:	49656275 	stmdbmi	r5!, {r0, r2, r4, r5, r6, r9, sp, lr}^
    18e4:	315f4544 	cmpcc	pc, r4, asr #10
    18e8:	2e33312e 	rsfcssp	f3, f3, #0.5
    18ec:	54535c30 	ldrbpl	r5, [r3], #-3120	; 0xfffff3d0
    18f0:	4332334d 	teqmi	r2, #872415233	; 0x34000001
    18f4:	49656275 	stmdbmi	r5!, {r0, r2, r4, r5, r6, r9, sp, lr}^
    18f8:	535c4544 	cmppl	ip, #68, 10	; 0x11000000
    18fc:	32334d54 	eorscc	r4, r3, #84, 26	; 0x1500
    1900:	65627543 	strbvs	r7, [r2, #-1347]!	; 0xfffffabd
    1904:	5c454449 	cfstrdpl	mvd4, [r5], {73}	; 0x49
    1908:	67756c70 			; <UNDEFINED> instruction: 0x67756c70
    190c:	5c736e69 	ldclpl	14, cr6, [r3], #-420	; 0xfffffe5c
    1910:	2e6d6f63 	cdpcs	15, 6, cr6, cr13, cr3, {3}
    1914:	732e7473 			; <UNDEFINED> instruction: 0x732e7473
    1918:	32336d74 	eorscc	r6, r3, #116, 26	; 0x1d00
    191c:	65627563 	strbvs	r7, [r2, #-1379]!	; 0xfffffa9d
    1920:	6564692e 	strbvs	r6, [r4, #-2350]!	; 0xfffff6d2
    1924:	75636d2e 	strbvc	r6, [r3, #-3374]!	; 0xfffff2d2
    1928:	7478652e 	ldrbtvc	r6, [r8], #-1326	; 0xfffffad2
    192c:	616e7265 	cmnvs	lr, r5, ror #4
    1930:	6f6f746c 	svcvs	0x006f746c
    1934:	672e736c 	strvs	r7, [lr, -ip, ror #6]!
    1938:	742d756e 	strtvc	r7, [sp], #-1390	; 0xfffffa92
    193c:	736c6f6f 	cmnvc	ip, #444	; 0x1bc
    1940:	726f662d 	rsbvc	r6, pc, #47185920	; 0x2d00000
    1944:	6d74732d 	ldclvs	3, cr7, [r4, #-180]!	; 0xffffff4c
    1948:	312e3233 			; <UNDEFINED> instruction: 0x312e3233
    194c:	2e332e31 	mrccs	14, 1, r2, cr3, cr1, {1}
    1950:	316c6572 	smccc	50770	; 0xc652
    1954:	6e69772e 	cdpvs	7, 6, cr7, cr9, cr14, {1}
    1958:	315f3233 	cmpcc	pc, r3, lsr r2	; <UNPREDICTABLE>
    195c:	302e312e 	eorcc	r3, lr, lr, lsr #2
    1960:	3230322e 	eorscc	r3, r0, #-536870910	; 0xe0000002
    1964:	32353033 	eorscc	r3, r5, #51	; 0x33
    1968:	30353133 	eorscc	r3, r5, r3, lsr r1
    196c:	6f745c36 	svcvs	0x00745c36
    1970:	5c736c6f 	ldclpl	12, cr6, [r3], #-444	; 0xfffffe44
    1974:	2f6e6962 	svccs	0x006e6962
    1978:	612f2e2e 			; <UNDEFINED> instruction: 0x612f2e2e
    197c:	6e2d6d72 	mcrvs	13, 1, r6, cr13, cr2, {3}
    1980:	2d656e6f 	stclcs	14, cr6, [r5, #-444]!	; 0xfffffe44
    1984:	69626165 	stmdbvs	r2!, {r0, r2, r5, r6, r8, sp, lr}^
    1988:	636e692f 	cmnvs	lr, #770048	; 0xbc000
    198c:	6564756c 	strbvs	r7, [r4, #-1388]!	; 0xfffffa94
    1990:	77656e2f 	strbvc	r6, [r5, -pc, lsr #28]!
    1994:	2d62696c 			; <UNDEFINED> instruction: 0x2d62696c
    1998:	6f6e616e 	svcvs	0x006e616e
    199c:	616d0000 	cmnvs	sp, r0
    19a0:	632e6e69 			; <UNDEFINED> instruction: 0x632e6e69
    19a4:	00000100 	andeq	r0, r0, r0, lsl #2
    19a8:	6665645f 			; <UNDEFINED> instruction: 0x6665645f
    19ac:	746c7561 	strbtvc	r7, [ip], #-1377	; 0xfffffa9f
    19b0:	7079745f 	rsbsvc	r7, r9, pc, asr r4
    19b4:	682e7365 	stmdavs	lr!, {r0, r2, r5, r6, r8, r9, ip, sp, lr}
    19b8:	00000200 	andeq	r0, r0, r0, lsl #4
    19bc:	6474735f 	ldrbtvs	r7, [r4], #-863	; 0xfffffca1
    19c0:	2e746e69 	cdpcs	14, 7, cr6, cr4, cr9, {3}
    19c4:	00030068 	andeq	r0, r3, r8, rrx
    19c8:	6d747300 	ldclvs	3, cr7, [r4, #-0]
    19cc:	31663233 	cmncc	r6, r3, lsr r2
    19d0:	78783330 	ldmdavc	r8!, {r4, r5, r8, r9, ip, sp}^
    19d4:	00682e78 	rsbeq	r2, r8, r8, ror lr
    19d8:	45000004 	strmi	r0, [r0, #-4]
    19dc:	2e495458 	mcrcs	4, 2, r5, cr9, cr8, {2}
    19e0:	00040068 	andeq	r0, r4, r8, rrx
    19e4:	64747300 	ldrbtvs	r7, [r4], #-768	; 0xfffffd00
    19e8:	2e746e69 	cdpcs	14, 7, cr6, cr4, cr9, {3}
    19ec:	00050068 	andeq	r0, r5, r8, rrx
    19f0:	64747300 	ldrbtvs	r7, [r4], #-768	; 0xfffffd00
    19f4:	2e746e69 	cdpcs	14, 7, cr6, cr4, cr9, {3}
    19f8:	00060068 	andeq	r0, r6, r8, rrx
    19fc:	61656600 	cmnvs	r5, r0, lsl #12
    1a00:	65727574 	ldrbvs	r7, [r2, #-1396]!	; 0xfffffa8c
    1a04:	00682e73 	rsbeq	r2, r8, r3, ror lr
    1a08:	5f000003 	svcpl	0x00000003
    1a0c:	6c77656e 	cfldr64vs	mvdx6, [r7], #-440	; 0xfffffe48
    1a10:	765f6269 	ldrbvc	r6, [pc], -r9, ror #4
    1a14:	69737265 	ldmdbvs	r3!, {r0, r2, r5, r6, r9, ip, sp, lr}^
    1a18:	682e6e6f 	stmdavs	lr!, {r0, r1, r2, r3, r5, r6, r9, sl, fp, sp, lr}
    1a1c:	00000600 	andeq	r0, r0, r0, lsl #12
    1a20:	746e695f 	strbtvc	r6, [lr], #-2399	; 0xfffff6a1
    1a24:	2e707573 	mrccs	5, 3, r7, cr0, cr3, {3}
    1a28:	00030068 	andeq	r0, r3, r8, rrx
    1a2c:	49504700 	ldmdbmi	r0, {r8, r9, sl, lr}^
    1a30:	00682e4f 	rsbeq	r2, r8, pc, asr #28
    1a34:	73000004 	movwvc	r0, #4
    1a38:	696c6474 	stmdbvs	ip!, {r2, r4, r5, r6, sl, sp, lr}^
    1a3c:	00682e62 	rsbeq	r2, r8, r2, ror #28
    1a40:	69000006 	stmdbvs	r0, {r1, r2}
    1a44:	66656565 	strbtvs	r6, [r5], -r5, ror #10
    1a48:	00682e70 	rsbeq	r2, r8, r0, ror lr
    1a4c:	5f000007 	svcpl	0x00000007
    1a50:	69736e61 	ldmdbvs	r3!, {r0, r5, r6, r9, sl, fp, sp, lr}^
    1a54:	0600682e 	streq	r6, [r0], -lr, lsr #16
    1a58:	656e0000 	strbvs	r0, [lr, #-0]!
    1a5c:	62696c77 	rsbvs	r6, r9, #30464	; 0x7700
    1a60:	0800682e 	stmdaeq	r0, {r1, r2, r3, r5, fp, sp, lr}
    1a64:	6f630000 	svcvs	0x00630000
    1a68:	6769666e 	strbvs	r6, [r9, -lr, ror #12]!
    1a6c:	0300682e 	movweq	r6, #2094	; 0x82e
    1a70:	74730000 	ldrbtvc	r0, [r3], #-0
    1a74:	66656464 	strbtvs	r6, [r5], -r4, ror #8
    1a78:	0500682e 	streq	r6, [r0, #-2094]	; 0xfffff7d2
    1a7c:	65720000 	ldrbvs	r0, [r2, #-0]!
    1a80:	2e746e65 	cdpcs	14, 7, cr6, cr4, cr5, {3}
    1a84:	00030068 	andeq	r0, r3, r8, rrx
    1a88:	79745f00 	ldmdbvc	r4!, {r8, r9, sl, fp, ip, lr}^
    1a8c:	2e736570 	mrccs	5, 3, r6, cr3, cr0, {3}
    1a90:	00030068 	andeq	r0, r3, r8, rrx
    1a94:	79745f00 	ldmdbvc	r4!, {r8, r9, sl, fp, ip, lr}^
    1a98:	2e736570 	mrccs	5, 3, r6, cr3, cr0, {3}
    1a9c:	00070068 	andeq	r0, r7, r8, rrx
    1aa0:	636f6c00 	cmnvs	pc, #0, 24
    1aa4:	00682e6b 	rsbeq	r2, r8, fp, ror #28
    1aa8:	61000003 	tstvs	r0, r3
    1aac:	72657373 	rsbvc	r7, r5, #-872415231	; 0xcc000001
    1ab0:	00682e74 	rsbeq	r2, r8, r4, ror lr
    1ab4:	63000006 	movwvs	r0, #6
    1ab8:	73666564 	cmnvc	r6, #100, 10	; 0x19000000
    1abc:	0300682e 	movweq	r6, #2094	; 0x82e
    1ac0:	74730000 	ldrbtvc	r0, [r3], #-0
    1ac4:	62696c64 	rsbvs	r6, r9, #100, 24	; 0x6400
    1ac8:	0700682e 	streq	r6, [r0, -lr, lsr #16]
    1acc:	6c610000 	stclvs	0, cr0, [r1], #-0
    1ad0:	61636f6c 	cmnvs	r3, ip, ror #30
    1ad4:	0600682e 	streq	r6, [r0], -lr, lsr #16
    1ad8:	05000000 	streq	r0, [r0, #-0]
    1adc:	0205002d 	andeq	r0, r5, #45	; 0x2d
    1ae0:	080009dc 	stmdaeq	r0, {r2, r3, r4, r6, r7, r8, fp}
    1ae4:	05013203 	streq	r3, [r1, #-515]	; 0xfffffdfd
    1ae8:	01055902 	tsteq	r5, r2, lsl #18
    1aec:	05581103 	ldrbeq	r1, [r8, #-259]	; 0xfffffefd
    1af0:	20720303 	rsbscs	r0, r2, r3, lsl #6
    1af4:	05692387 	strbeq	r2, [r9, #-903]!	; 0xfffffc79
    1af8:	05022301 	streq	r2, [r2, #-769]	; 0xfffffcff
    1afc:	05010100 	streq	r0, [r1, #-256]	; 0xffffff00
    1b00:	02050014 	andeq	r0, r5, #20
    1b04:	08000a1c 	stmdaeq	r0, {r2, r3, r4, r9, fp}
    1b08:	0100c603 	tsteq	r0, r3, lsl #12
    1b0c:	052f0205 	streq	r0, [pc, #-517]!	; 190f <_Min_Stack_Size+0x150f>
    1b10:	02023d01 	andeq	r3, r2, #1, 26	; 0x40
    1b14:	05010100 	streq	r0, [r1, #-256]	; 0xffffff00
    1b18:	02050011 	andeq	r0, r5, #17
    1b1c:	08000a2c 	stmdaeq	r0, {r2, r3, r5, r9, fp}
    1b20:	0100ca03 	tsteq	r0, r3, lsl #20
    1b24:	05320f05 	ldreq	r0, [r2, #-3845]!	; 0xfffff0fb
    1b28:	0e052e05 	cdpeq	14, 0, cr2, cr5, cr5, {0}
    1b2c:	0c053d2f 	stceq	13, cr3, [r5], {47}	; 0x2f
    1b30:	4401053d 	strmi	r0, [r1], #-1341	; 0xfffffac3
    1b34:	7a031605 	bvc	c7350 <_Min_Stack_Size+0xc6f50>
    1b38:	2e0c0520 	cfsh32cs	mvfx0, mvfx12, #16
    1b3c:	3d2f0e05 	stccc	14, cr0, [pc, #-20]!	; 1b30 <_Min_Stack_Size+0x1730>
    1b40:	053d0c05 	ldreq	r0, [sp, #-3077]!	; 0xfffff3fb
    1b44:	0b023f01 	bleq	91750 <_Min_Stack_Size+0x91350>
    1b48:	05010100 	streq	r0, [r1, #-256]	; 0xffffff00
    1b4c:	02050020 	andeq	r0, r5, #32
    1b50:	08000a7c 	stmdaeq	r0, {r2, r3, r4, r5, r6, r9, fp}
    1b54:	0100db03 	tsteq	r0, r3, lsl #22
    1b58:	05670b05 	strbeq	r0, [r7, #-2821]!	; 0xfffff4fb
    1b5c:	01053c0f 	tsteq	r5, pc, lsl #24
    1b60:	0005022f 	andeq	r0, r5, pc, lsr #4
    1b64:	27050101 	strcs	r0, [r5, -r1, lsl #2]
    1b68:	9c020500 	cfstr32ls	mvfx0, [r2], {-0}
    1b6c:	0308000a 	movweq	r0, #32778	; 0x800a
    1b70:	050100de 	streq	r0, [r1, #-222]	; 0xffffff22
    1b74:	0f05750b 	svceq	0x0005750b
    1b78:	2e13053c 	mrccs	5, 0, r0, cr3, cr12, {1}
    1b7c:	022f0105 	eoreq	r0, pc, #1073741825	; 0x40000001
    1b80:	01010005 	tsteq	r1, r5
    1b84:	05001005 	streq	r1, [r0, #-5]
    1b88:	000ac402 	andeq	ip, sl, r2, lsl #8
    1b8c:	00e20308 	rsceq	r0, r2, r8, lsl #6
    1b90:	2f120501 	svccs	0x00120501
    1b94:	054a0905 	strbeq	r0, [sl, #-2309]	; 0xfffff6fb
    1b98:	0f053018 	svceq	0x00053018
    1b9c:	2f1e053c 	svccs	0x001e053c
    1ba0:	053c0f05 	ldreq	r0, [ip, #-3845]!	; 0xfffff0fb
    1ba4:	0f05301e 	svceq	0x0005301e
    1ba8:	2f1e053c 	svccs	0x001e053c
    1bac:	053c0f05 	ldreq	r0, [ip, #-3845]!	; 0xfffff0fb
    1bb0:	12053503 	andne	r3, r5, #12582912	; 0xc00000
    1bb4:	2e060522 	cfsh32cs	mvfx0, mvfx6, #18
    1bb8:	5b300405 	blpl	c02bd4 <_Min_Stack_Size+0xc027d4>
    1bbc:	3e110585 	cdpcc	5, 1, cr0, cr1, cr5, {4}
    1bc0:	05660f05 	strbeq	r0, [r6, #-3845]!	; 0xfffff0fb
    1bc4:	05213e04 	streq	r3, [r1, #-3588]!	; 0xfffff1fc
    1bc8:	0d059219 	sfmeq	f1, 1, [r5, #-100]	; 0xffffff9c
    1bcc:	3004052e 	andcc	r0, r4, lr, lsr #10
    1bd0:	1105855b 	tstne	r5, fp, asr r5
    1bd4:	740f053d 	strvc	r0, [pc], #-1341	; 1bdc <_Min_Stack_Size+0x17dc>
    1bd8:	213e0405 	teqcs	lr, r5, lsl #8
    1bdc:	63030305 	movwvs	r0, #13061	; 0x3305
    1be0:	01000882 	smlabbeq	r0, r2, r8, r0
    1be4:	00100501 	andseq	r0, r0, r1, lsl #10
    1be8:	0bbc0205 	bleq	fef02404 <_estack+0xdeefd404>
    1bec:	94030800 	strls	r0, [r3], #-2048	; 0xfffff800
    1bf0:	02050101 	andeq	r0, r5, #1073741824	; 0x40000000
    1bf4:	1705673d 	smladxne	r5, sp, r7, r6
    1bf8:	6715056a 	ldrvs	r0, [r5, -sl, ror #10]
    1bfc:	052f1b05 	streq	r1, [pc, #-2821]!	; 10ff <_Min_Stack_Size+0xcff>
    1c00:	02052f1d 	andeq	r2, r5, #29, 30	; 0x74
    1c04:	07055d30 	smladxeq	r5, r0, sp, r5
    1c08:	2e060530 	cfmv64hrcs	mvdx6, r0
    1c0c:	052f0d05 	streq	r0, [pc, #-3333]!	; f0f <_Min_Stack_Size+0xb0f>
    1c10:	09023b06 	stmdbeq	r2, {r1, r2, r8, r9, fp, ip, sp}
    1c14:	80010100 	andhi	r0, r1, r0, lsl #2
    1c18:	03000000 	movweq	r0, #0
    1c1c:	00003900 	andeq	r3, r0, r0, lsl #18
    1c20:	fb010200 	blx	4242a <_Min_Stack_Size+0x4202a>
    1c24:	01000d0e 	tsteq	r0, lr, lsl #26
    1c28:	00010101 	andeq	r0, r1, r1, lsl #2
    1c2c:	00010000 	andeq	r0, r1, r0
    1c30:	2e2e0100 	sufcse	f0, f6, f0
    1c34:	6174532f 	cmnvs	r4, pc, lsr #6
    1c38:	70757472 	rsbsvc	r7, r5, r2, ror r4
    1c3c:	74730000 	ldrbtvc	r0, [r3], #-0
    1c40:	75747261 	ldrbvc	r7, [r4, #-609]!	; 0xfffffd9f
    1c44:	74735f70 	ldrbtvc	r5, [r3], #-3952	; 0xfffff090
    1c48:	6632336d 	ldrtvs	r3, [r2], -sp, ror #6
    1c4c:	63333031 	teqvs	r3, #49	; 0x31
    1c50:	2e787438 	mrccs	4, 3, r7, cr8, cr8, {1}
    1c54:	00010073 	andeq	r0, r1, r3, ror r0
    1c58:	05000000 	streq	r0, [r0, #-0]
    1c5c:	000c2002 	andeq	r2, ip, r2
    1c60:	01390308 	teqeq	r9, r8, lsl #6
    1c64:	21312221 	teqcs	r1, r1, lsr #4
    1c68:	23212121 			; <UNDEFINED> instruction: 0x23212121
    1c6c:	21232121 			; <UNDEFINED> instruction: 0x21232121
    1c70:	21212321 			; <UNDEFINED> instruction: 0x21212321
    1c74:	23212321 			; <UNDEFINED> instruction: 0x23212321
    1c78:	31302321 	teqcc	r0, r1, lsr #6
    1c7c:	34205603 	strtcc	r5, [r0], #-1539	; 0xfffff9fd
    1c80:	0f032f2f 	svceq	0x00032f2f
    1c84:	02022f2e 	andeq	r2, r2, #46, 30	; 0xb8
    1c88:	00010100 	andeq	r0, r1, r0, lsl #2
    1c8c:	0c700205 	lfmeq	f0, 2, [r0], #-20	; 0xffffffec
    1c90:	f2030800 	vadd.i8	d0, d3, d0
    1c94:	01020100 	mrseq	r0, (UNDEF: 18)
    1c98:	Address 0x0000000000001c98 is out of bounds.


Disassembly of section .debug_str:

00000000 <.debug_str>:
       0:	31433249 	cmpcc	r3, r9, asr #4
       4:	5f56455f 	svcpl	0x0056455f
       8:	20515249 	subscs	r5, r1, r9, asr #4
       c:	5f003133 	svcpl	0x00003133
      10:	554e475f 	strbpl	r4, [lr, #-1887]	; 0xfffff8a1
      14:	4b494c43 	blmi	1253128 <_Min_Stack_Size+0x1252d28>
      18:	5f5f5f45 	svcpl	0x005f5f45
      1c:	54434553 	strbpl	r4, [r3], #-1363	; 0xfffffaad
      20:	204e4f49 	subcs	r4, lr, r9, asr #30
      24:	4e5f0031 	mrcmi	0, 2, r0, cr15, cr1, {1}
      28:	494c5745 	stmdbmi	ip, {r0, r2, r6, r8, r9, sl, ip, lr}^
      2c:	45565f42 	ldrbmi	r5, [r6, #-3906]	; 0xfffff0be
      30:	4f495352 	svcmi	0x00495352
      34:	3422204e 	strtcc	r2, [r2], #-78	; 0xffffffb2
      38:	302e322e 	eorcc	r3, lr, lr, lsr #4
      3c:	49570022 	ldmdbmi	r7, {r1, r5}^
      40:	4d5f544e 	cfldrdmi	mvd5, [pc, #-312]	; ffffff10 <_estack+0xdfffaf10>
      44:	28204e49 	stmdacs	r0!, {r0, r3, r6, r9, sl, fp, lr}
      48:	49575f5f 	ldmdbmi	r7, {r0, r1, r2, r3, r4, r6, r8, r9, sl, fp, ip, lr}^
      4c:	4d5f544e 	cfldrdmi	mvd5, [pc, #-312]	; ffffff1c <_estack+0xdfffaf1c>
      50:	5f5f4e49 	svcpl	0x005f4e49
      54:	5f5f0029 	svcpl	0x005f0029
      58:	49434544 	stmdbmi	r3, {r2, r6, r8, sl, lr}^
      5c:	5f4c414d 	svcpl	0x004c414d
      60:	5f474944 	svcpl	0x00474944
      64:	3731205f 			; <UNDEFINED> instruction: 0x3731205f
      68:	625f5f00 	subsvs	r5, pc, #0, 30
      6c:	746c6975 	strbtvc	r6, [ip], #-2421	; 0xfffff68b
      70:	695f6e69 	ldmdbvs	pc, {r0, r3, r5, r6, r9, sl, fp, sp, lr}^	; <UNPREDICTABLE>
      74:	6c615f73 	stclvs	15, cr5, [r1], #-460	; 0xfffffe34
      78:	656e6769 	strbvs	r6, [lr, #-1897]!	; 0xfffff897
      7c:	2c782864 	ldclcs	8, cr2, [r8], #-400	; 0xfffffe70
      80:	67696c61 	strbvs	r6, [r9, -r1, ror #24]!
      84:	2820296e 	stmdacs	r0!, {r1, r2, r3, r5, r6, r8, fp, sp}
      88:	5f5f2828 	svcpl	0x005f2828
      8c:	746e6975 	strbtvc	r6, [lr], #-2421	; 0xfffff68b
      90:	5f727470 	svcpl	0x00727470
      94:	20782974 	rsbscs	r2, r8, r4, ror r9
      98:	28282026 	stmdacs	r8!, {r1, r2, r5, sp}
      9c:	67696c61 	strbvs	r6, [r9, -r1, ror #24]!
      a0:	2d20296e 			; <UNDEFINED> instruction: 0x2d20296e
      a4:	29293120 	stmdbcs	r9!, {r5, r8, ip, sp}
      a8:	203d3d20 	eorscs	r3, sp, r0, lsr #26
      ac:	5f002930 	svcpl	0x00002930
      b0:	4148555f 	cmpmi	r8, pc, asr r5
      b4:	4942465f 	stmdbmi	r2, {r0, r1, r2, r3, r4, r6, r9, sl, lr}^
      b8:	205f5f54 	subscs	r5, pc, r4, asr pc	; <UNPREDICTABLE>
      bc:	5f5f0038 	svcpl	0x005f0038
      c0:	44495653 	strbmi	r5, [r9], #-1619	; 0xfffff9ad
      c4:	5349565f 	movtpl	r5, #38495	; 0x965f
      c8:	454c4249 	strbmi	r4, [ip, #-585]	; 0xfffffdb7
      cc:	5f003120 	svcpl	0x00003120
      d0:	746e695f 	strbtvc	r6, [lr], #-2399	; 0xfffff6a1
      d4:	2b203032 	blcs	80c1a4 <_Min_Stack_Size+0x80bda4>
      d8:	434d0032 	movtmi	r0, #53298	; 0xd032
      dc:	475f4c41 	ldrbmi	r4, [pc, -r1, asr #24]
      e0:	5f4f4950 	svcpl	0x004f4950
      e4:	74696e49 	strbtvc	r6, [r9], #-3657	; 0xfffff1b7
      e8:	465f5f00 	ldrbmi	r5, [pc], -r0, lsl #30
      ec:	3436544c 	ldrtcc	r5, [r6], #-1100	; 0xfffffbb4
      f0:	4e45445f 	mcrmi	4, 2, r4, cr5, cr15, {2}
      f4:	5f4d524f 	svcpl	0x004d524f
      f8:	5f4e494d 	svcpl	0x004e494d
      fc:	2e34205f 	mrccs	0, 1, r2, cr4, cr15, {2}
     100:	36303439 			; <UNDEFINED> instruction: 0x36303439
     104:	35343635 	ldrcc	r3, [r4, #-1589]!	; 0xfffff9cb
     108:	32313438 	eorscc	r3, r1, #56, 8	; 0x38000000
     10c:	34353634 	ldrtcc	r3, [r5], #-1588	; 0xfffff9cc
     110:	32332d65 	eorscc	r2, r3, #6464	; 0x1940
     114:	34364634 	ldrtcc	r4, [r6], #-1588	; 0xfffff9cc
     118:	435f5f00 	cmpmi	pc, #0, 30
     11c:	55535f43 	ldrbpl	r5, [r3, #-3907]	; 0xfffff0bd
     120:	524f5050 	subpl	r5, pc, #80	; 0x50
     124:	495f5354 	ldmdbmi	pc, {r2, r4, r6, r8, r9, ip, lr}^	; <UNPREDICTABLE>
     128:	4e494c4e 	cdpmi	12, 4, cr4, cr9, cr14, {2}
     12c:	00312045 	eorseq	r2, r1, r5, asr #32
     130:	5f433249 	svcpl	0x00433249
     134:	5f315243 	svcpl	0x00315243
     138:	5f434550 	svcpl	0x00434550
     13c:	206b734d 	rsbcs	r7, fp, sp, asr #6
     140:	31783028 	cmncc	r8, r8, lsr #32
     144:	3c204c55 	stccc	12, cr4, [r0], #-340	; 0xfffffeac
     148:	3249203c 	subcc	r2, r9, #60	; 0x3c
     14c:	52435f43 	subpl	r5, r3, #268	; 0x10c
     150:	45505f31 	ldrbmi	r5, [r0, #-3889]	; 0xfffff0cf
     154:	6f505f43 	svcvs	0x00505f43
     158:	5f002973 	svcpl	0x00002973
     15c:	4343475f 	movtmi	r4, #14175	; 0x375f
     160:	4f54415f 	svcmi	0x0054415f
     164:	5f43494d 	svcpl	0x0043494d
     168:	41484357 	cmpmi	r8, r7, asr r3
     16c:	5f545f52 	svcpl	0x00545f52
     170:	4b434f4c 	blmi	10d3ea8 <_Min_Stack_Size+0x10d3aa8>
     174:	4552465f 	ldrbmi	r4, [r2, #-1631]	; 0xfffff9a1
     178:	00322045 	eorseq	r2, r2, r5, asr #32
     17c:	48435f5f 	stmdami	r3, {r0, r1, r2, r3, r4, r6, r8, r9, sl, fp, ip, lr}^
     180:	555f5241 	ldrbpl	r5, [pc, #-577]	; ffffff47 <_estack+0xdfffaf47>
     184:	4749534e 	strbmi	r5, [r9, -lr, asr #6]
     188:	5f44454e 	svcpl	0x0044454e
     18c:	0031205f 	eorseq	r2, r1, pc, asr r0
     190:	5f433249 	svcpl	0x00433249
     194:	5f315243 	svcpl	0x00315243
     198:	45504e45 	ldrbmi	r4, [r0, #-3653]	; 0xfffff1bb
     19c:	6f505f43 	svcvs	0x00505f43
     1a0:	35282073 	strcc	r2, [r8, #-115]!	; 0xffffff8d
     1a4:	4e002955 			; <UNDEFINED> instruction: 0x4e002955
     1a8:	5f434956 	svcpl	0x00434956
     1ac:	34515249 	ldrbcc	r5, [r1], #-585	; 0xfffffdb7
     1b0:	58455f30 	stmdapl	r5, {r4, r5, r8, r9, sl, fp, ip, lr}^
     1b4:	30314954 	eorscc	r4, r1, r4, asr r9
     1b8:	5f35315f 	svcpl	0x0035315f
     1bc:	61736944 	cmnvs	r3, r4, asr #18
     1c0:	20656c62 	rsbcs	r6, r5, r2, ror #24
     1c4:	49564e28 	ldmdbmi	r6, {r3, r5, r9, sl, fp, lr}^
     1c8:	43495f43 	movtmi	r5, #40771	; 0x9f43
     1cc:	20315245 	eorscs	r5, r1, r5, asr #4
     1d0:	31203d7c 			; <UNDEFINED> instruction: 0x31203d7c
     1d4:	29383c3c 	ldmdbcs	r8!, {r2, r3, r4, r5, sl, fp, ip, sp}
     1d8:	775f5f00 	ldrbvc	r5, [pc, -r0, lsl #30]
     1dc:	5f6b6165 	svcpl	0x006b6165
     1e0:	626d7973 	rsbvs	r7, sp, #1884160	; 0x1cc000
     1e4:	5f206c6f 	svcpl	0x00206c6f
     1e8:	7474615f 	ldrbtvc	r6, [r4], #-351	; 0xfffffea1
     1ec:	75626972 	strbvc	r6, [r2, #-2418]!	; 0xfffff68e
     1f0:	5f5f6574 	svcpl	0x005f6574
     1f4:	5f5f2828 	svcpl	0x005f2828
     1f8:	6b616577 	blvs	18597dc <_Min_Stack_Size+0x18593dc>
     1fc:	29295f5f 	stmdbcs	r9!, {r0, r1, r2, r3, r4, r6, r8, r9, sl, fp, ip, lr}
     200:	54584500 	ldrbpl	r4, [r8], #-1280	; 0xfffffb00
     204:	00524349 	subseq	r4, r2, r9, asr #6
     208:	4c465f5f 	mcrrmi	15, 5, r5, r6, cr15
     20c:	5f343654 	svcpl	0x00343654
     210:	5f534148 	svcpl	0x00534148
     214:	49464e49 	stmdbmi	r6, {r0, r3, r6, r9, sl, fp, lr}^
     218:	5954494e 	ldmdbpl	r4, {r1, r2, r3, r6, r8, fp, lr}^
     21c:	31205f5f 			; <UNDEFINED> instruction: 0x31205f5f
     220:	725f5f00 	subsvc	r5, pc, #0, 30
     224:	69757165 	ldmdbvs	r5!, {r0, r2, r5, r6, r8, ip, sp, lr}^
     228:	5f736572 	svcpl	0x00736572
     22c:	6c637865 	stclvs	8, cr7, [r3], #-404	; 0xfffffe6c
     230:	76697375 			; <UNDEFINED> instruction: 0x76697375
     234:	2e2e2865 	cdpcs	8, 2, cr2, cr14, cr5, {3}
     238:	5f20292e 	svcpl	0x0020292e
     23c:	636f6c5f 	cmnvs	pc, #24320	; 0x5f00
     240:	6e615f6b 	cdpvs	15, 6, cr5, cr1, cr11, {3}
     244:	61746f6e 	cmnvs	r4, lr, ror #30
     248:	65286574 	strvs	r6, [r8, #-1396]!	; 0xfffffa8c
     24c:	756c6378 	strbvc	r6, [ip, #-888]!	; 0xfffffc88
     250:	65766973 	ldrbvs	r6, [r6, #-2419]!	; 0xfffff68d
     254:	636f6c5f 	cmnvs	pc, #24320	; 0x5f00
     258:	725f736b 	subsvc	r7, pc, #-1409286143	; 0xac000001
     25c:	69757165 	ldmdbvs	r5!, {r0, r2, r5, r6, r8, ip, sp, lr}^
     260:	28646572 	stmdacs	r4!, {r1, r4, r5, r6, r8, sl, sp, lr}^
     264:	41565f5f 	cmpmi	r6, pc, asr pc
     268:	4752415f 			; <UNDEFINED> instruction: 0x4752415f
     26c:	295f5f53 	ldmdbcs	pc, {r0, r1, r4, r6, r8, r9, sl, fp, ip, lr}^	; <UNPREDICTABLE>
     270:	525f0029 	subspl	r0, pc, #41	; 0x29
     274:	544e4545 	strbpl	r4, [lr], #-1349	; 0xfffffabb
     278:	4e41525f 	mcrmi	2, 2, r5, cr1, cr15, {2}
     27c:	5f383444 	svcpl	0x00383444
     280:	28444441 	stmdacs	r4, {r0, r6, sl, lr}^
     284:	29727470 	ldmdbcs	r2!, {r4, r5, r6, sl, ip, sp, lr}^
     288:	70282820 	eorvc	r2, r8, r0, lsr #16
     28c:	2d297274 	sfmcs	f7, 4, [r9, #-464]!	; 0xfffffe30
     290:	34725f3e 	ldrbtcc	r5, [r2], #-3902	; 0xfffff0c2
     294:	5f3e2d38 	svcpl	0x003e2d38
     298:	29646461 	stmdbcs	r4!, {r0, r5, r6, sl, sp, lr}^
     29c:	544e4900 	strbpl	r4, [lr], #-2304	; 0xfffff700
     2a0:	4d5f3631 	ldclmi	6, cr3, [pc, #-196]	; 1e4 <_Min_Heap_Size-0x1c>
     2a4:	28204e49 	stmdacs	r0!, {r0, r3, r6, r9, sl, fp, lr}
     2a8:	495f5f2d 	ldmdbmi	pc, {r0, r2, r3, r5, r8, r9, sl, fp, ip, lr}^	; <UNPREDICTABLE>
     2ac:	3631544e 	ldrtcc	r5, [r1], -lr, asr #8
     2b0:	58414d5f 	stmdapl	r1, {r0, r1, r2, r3, r4, r6, r8, sl, fp, lr}^
     2b4:	2d205f5f 	stccs	15, cr5, [r0, #-380]!	; 0xfffffe84
     2b8:	00293120 	eoreq	r3, r9, r0, lsr #2
     2bc:	4c4c5f5f 	mcrrmi	15, 5, r5, ip, cr15
     2c0:	55434341 	strbpl	r4, [r3, #-833]	; 0xfffffcbf
     2c4:	494d5f4d 	stmdbmi	sp, {r0, r2, r3, r6, r8, r9, sl, fp, ip, lr}^
     2c8:	205f5f4e 	subscs	r5, pc, lr, asr #30
     2cc:	58302d28 	ldmdapl	r0!, {r3, r5, r8, sl, fp, sp}
     2d0:	31335031 	teqcc	r3, r1, lsr r0
     2d4:	2d4b4c4c 	stclcs	12, cr4, [fp, #-304]	; 0xfffffed0
     2d8:	50315830 	eorspl	r5, r1, r0, lsr r8
     2dc:	4c4c3133 	stfmie	f3, [ip], {51}	; 0x33
     2e0:	4700294b 	strmi	r2, [r0, -fp, asr #18]
     2e4:	5f4f4950 	svcpl	0x004f4950
     2e8:	7074754f 	rsbsvc	r7, r4, pc, asr #10
     2ec:	535f7475 	cmppl	pc, #1962934272	; 0x75000000
     2f0:	64656570 	strbtvs	r6, [r5], #-1392	; 0xfffffa90
     2f4:	4c5f5f00 	mrrcmi	15, 0, r5, pc, cr0	; <UNPREDICTABLE>
     2f8:	5f4b434f 	svcpl	0x004b434f
     2fc:	54494e49 	strbpl	r4, [r9], #-3657	; 0xfffff1b7
     300:	616c6328 	cmnvs	ip, r8, lsr #6
     304:	6c2c7373 	stcvs	3, cr7, [ip], #-460	; 0xfffffe34
     308:	296b636f 	stmdbcs	fp!, {r0, r1, r2, r3, r5, r6, r8, r9, sp, lr}^
     30c:	74786520 	ldrbtvc	r6, [r8], #-1312	; 0xfffffae0
     310:	206e7265 	rsbcs	r7, lr, r5, ror #4
     314:	75727473 	ldrbvc	r7, [r2, #-1139]!	; 0xfffffb8d
     318:	5f207463 	svcpl	0x00207463
     31c:	636f6c5f 	cmnvs	pc, #24320	; 0x5f00
     320:	5f5f206b 	svcpl	0x005f206b
     324:	6b636f6c 	blvs	18dc0dc <_Min_Stack_Size+0x18dbcdc>
     328:	2323205f 			; <UNDEFINED> instruction: 0x2323205f
     32c:	636f6c20 	cmnvs	pc, #32, 24	; 0x2000
     330:	63203b6b 			; <UNDEFINED> instruction: 0x63203b6b
     334:	7373616c 	cmnvc	r3, #108, 2
     338:	4f4c5f20 	svcmi	0x004c5f20
     33c:	545f4b43 	ldrbpl	r4, [pc], #-2883	; 344 <_Min_Heap_Size+0x144>
     340:	636f6c20 	cmnvs	pc, #32, 24	; 0x2000
     344:	203d206b 	eorscs	r2, sp, fp, rrx
     348:	6c5f5f26 	mrrcvs	15, 2, r5, pc, cr6	; <UNPREDICTABLE>
     34c:	5f6b636f 	svcpl	0x006b636f
     350:	20232320 	eorcs	r2, r3, r0, lsr #6
     354:	6b636f6c 	blvs	18dc10c <_Min_Stack_Size+0x18dbd0c>
     358:	54584500 	ldrbpl	r4, [r8], #-1280	; 0xfffffb00
     35c:	42503249 	subsmi	r3, r0, #-1879048188	; 0x90000004
     360:	45282032 	strmi	r2, [r8, #-50]!	; 0xffffffce
     364:	5f495458 	svcpl	0x00495458
     368:	4f495047 	svcmi	0x00495047
     36c:	70614d5f 	rsbvc	r4, r1, pc, asr sp
     370:	676e6970 			; <UNDEFINED> instruction: 0x676e6970
     374:	7b29745f 	blvc	a5d4f8 <_Min_Stack_Size+0xa5d0f8>
     378:	49545845 	ldmdbmi	r4, {r0, r2, r6, fp, ip, lr}^
     37c:	47202c32 			; <UNDEFINED> instruction: 0x47202c32
     380:	424f4950 	submi	r4, pc, #80, 18	; 0x140000
     384:	47202c20 	strmi	r2, [r0, -r0, lsr #24]!
     388:	5f4f4950 	svcpl	0x004f4950
     38c:	5f4e4950 	svcpl	0x004e4950
     390:	452c2032 	strmi	r2, [ip, #-50]!	; 0xffffffce
     394:	32495458 	subcc	r5, r9, #88, 8	; 0x58000000
     398:	5152495f 	cmppl	r2, pc, asr r9
     39c:	5f007d20 	svcpl	0x00007d20
     3a0:	5254505f 	subspl	r5, r4, #95	; 0x5f
     3a4:	46464944 	strbmi	r4, [r6], -r4, asr #18
     3a8:	58414d5f 	stmdapl	r1, {r0, r1, r2, r3, r4, r6, r8, sl, fp, lr}^
     3ac:	30205f5f 	eorcc	r5, r0, pc, asr pc
     3b0:	66663778 			; <UNDEFINED> instruction: 0x66663778
     3b4:	66666666 	strbtvs	r6, [r6], -r6, ror #12
     3b8:	4c5f0066 	mrrcmi	0, 6, r0, pc, cr6	; <UNPREDICTABLE>
     3bc:	5f474e4f 	svcpl	0x00474e4f
     3c0:	42554f44 	subsmi	r4, r5, #68, 30	; 0x110
     3c4:	6c20454c 	cfstr32vs	mvfx4, [r0], #-304	; 0xfffffed0
     3c8:	20676e6f 	rsbcs	r6, r7, pc, ror #28
     3cc:	62756f64 	rsbsvs	r6, r5, #100, 30	; 0x190
     3d0:	4500656c 	strmi	r6, [r0, #-1388]	; 0xfffffa94
     3d4:	39495458 	stmdbcc	r9, {r3, r4, r6, sl, ip, lr}^
     3d8:	5152495f 	cmppl	r2, pc, asr r9
     3dc:	00333220 	eorseq	r3, r3, r0, lsr #4
     3e0:	4e495f5f 	mcrmi	15, 2, r5, cr9, cr15, {2}
     3e4:	58414d54 	stmdapl	r1, {r2, r4, r6, r8, sl, fp, lr}^
     3e8:	6328435f 			; <UNDEFINED> instruction: 0x6328435f
     3ec:	20632029 	rsbcs	r2, r3, r9, lsr #32
     3f0:	4c202323 	stcmi	3, cr2, [r0], #-140	; 0xffffff74
     3f4:	555f004c 	ldrbpl	r0, [pc, #-76]	; 3b0 <_Min_Heap_Size+0x1b0>
     3f8:	33544e49 	cmpcc	r4, #1168	; 0x490
     3fc:	5f545f32 	svcpl	0x00545f32
     400:	4c434544 	cfstr64mi	mvdx4, [r3], {68}	; 0x44
     404:	44455241 	strbmi	r5, [r5], #-577	; 0xfffffdbf
     408:	43570020 	cmpmi	r7, #32
     40c:	5f524148 	svcpl	0x00524148
     410:	2058414d 	subscs	r4, r8, sp, asr #2
     414:	575f5f28 	ldrbpl	r5, [pc, -r8, lsr #30]
     418:	52414843 	subpl	r4, r1, #4390912	; 0x430000
     41c:	58414d5f 	stmdapl	r1, {r0, r1, r2, r3, r4, r6, r8, sl, fp, lr}^
     420:	00295f5f 	eoreq	r5, r9, pc, asr pc
     424:	4e495f5f 	mcrmi	15, 2, r5, cr9, cr15, {2}
     428:	58414d54 	stmdapl	r1, {r2, r4, r6, r8, sl, fp, lr}^
     42c:	58414d5f 	stmdapl	r1, {r0, r1, r2, r3, r4, r6, r8, sl, fp, lr}^
     430:	30205f5f 	eorcc	r5, r0, pc, asr pc
     434:	66663778 			; <UNDEFINED> instruction: 0x66663778
     438:	66666666 	strbtvs	r6, [r6], -r6, ror #12
     43c:	66666666 	strbtvs	r6, [r6], -r6, ror #12
     440:	66666666 	strbtvs	r6, [r6], -r6, ror #12
     444:	004c4c66 	subeq	r4, ip, r6, ror #24
     448:	51545f5f 	cmppl	r4, pc, asr pc
     44c:	4942495f 	stmdbmi	r2, {r0, r1, r2, r3, r4, r6, r8, fp, lr}^
     450:	205f5f54 	subscs	r5, pc, r4, asr pc	; <UNPREDICTABLE>
     454:	5f5f0030 	svcpl	0x005f0030
     458:	36544c46 	ldrbcc	r4, [r4], -r6, asr #24
     45c:	45445f34 	strbmi	r5, [r4, #-3892]	; 0xfffff0cc
     460:	414d4943 	cmpmi	sp, r3, asr #18
     464:	49445f4c 	stmdbmi	r4, {r2, r3, r6, r8, r9, sl, fp, ip, lr}^
     468:	205f5f47 	subscs	r5, pc, r7, asr #30
     46c:	47003731 	smladxmi	r0, r1, r7, r3
     470:	5f4f4950 	svcpl	0x004f4950
     474:	5f4e4950 	svcpl	0x004e4950
     478:	28282030 	stmdacs	r8!, {r4, r5, sp}
     47c:	746e6975 	strbtvc	r6, [lr], #-2421	; 0xfffff68b
     480:	745f3631 	ldrbvc	r3, [pc], #-1585	; 488 <_Min_Stack_Size+0x88>
     484:	30783029 	rsbscc	r3, r8, r9, lsr #32
     488:	29313030 	ldmdbcs	r1!, {r4, r5, ip, sp}
     48c:	54584500 	ldrbpl	r4, [r8], #-1280	; 0xfffffb00
     490:	28282049 	stmdacs	r8!, {r0, r3, r6, sp}
     494:	49545845 	ldmdbmi	r4, {r0, r2, r6, fp, ip, lr}^
     498:	7079545f 	rsbsvc	r5, r9, pc, asr r4
     49c:	66654465 	strbtvs	r4, [r5], -r5, ror #8
     4a0:	45292a20 	strmi	r2, [r9, #-2592]!	; 0xfffff5e0
     4a4:	5f495458 	svcpl	0x00495458
     4a8:	45534142 	ldrbmi	r4, [r3, #-322]	; 0xfffffebe
     4ac:	525f0029 	subspl	r0, pc, #41	; 0x29
     4b0:	544e4545 	strbpl	r4, [lr], #-1349	; 0xfffffabb
     4b4:	4749535f 	smlsldmi	r5, r9, pc, r3	; <UNPREDICTABLE>
     4b8:	5f4c414e 	svcpl	0x004c414e
     4bc:	455a4953 	ldrbmi	r4, [sl, #-2387]	; 0xfffff6ad
     4c0:	00343220 	eorseq	r3, r4, r0, lsr #4
     4c4:	616d4b5f 	cmnvs	sp, pc, asr fp
     4c8:	73282078 			; <UNDEFINED> instruction: 0x73282078
     4cc:	6f657a69 	svcvs	0x00657a69
     4d0:	73282066 			; <UNDEFINED> instruction: 0x73282066
     4d4:	5f657a69 	svcpl	0x00657a69
     4d8:	3c202974 			; <UNDEFINED> instruction: 0x3c202974
     4dc:	2933203c 	ldmdbcs	r3!, {r2, r3, r4, r5, sp}
     4e0:	45525f00 	ldrbmi	r5, [r2, #-3840]	; 0xfffff100
     4e4:	5f544e45 	svcpl	0x00544e45
     4e8:	43454843 	movtmi	r4, #22595	; 0x5843
     4ec:	49535f4b 	ldmdbmi	r3, {r0, r1, r3, r6, r8, r9, sl, fp, ip, lr}^
     4f0:	4c414e47 	mcrrmi	14, 4, r4, r1, cr7
     4f4:	4655425f 			; <UNDEFINED> instruction: 0x4655425f
     4f8:	72617628 	rsbvc	r7, r1, #40, 12	; 0x2800000
     4fc:	525f2029 	subspl	r2, pc, #41	; 0x29
     500:	544e4545 	strbpl	r4, [lr], #-1349	; 0xfffffabb
     504:	4548435f 	strbmi	r4, [r8, #-863]	; 0xfffffca1
     508:	76284b43 	strtvc	r4, [r8], -r3, asr #22
     50c:	202c7261 	eorcs	r7, ip, r1, ror #4
     510:	6769735f 			; <UNDEFINED> instruction: 0x6769735f
     514:	5f6c616e 	svcpl	0x006c616e
     518:	2c667562 	cfstr64cs	mvdx7, [r6], #-392	; 0xfffffe78
     51c:	61686320 	cmnvs	r8, r0, lsr #6
     520:	2c2a2072 	stccs	0, cr2, [sl], #-456	; 0xfffffe38
     524:	45525f20 	ldrbmi	r5, [r2, #-3872]	; 0xfffff0e0
     528:	5f544e45 	svcpl	0x00544e45
     52c:	4e474953 			; <UNDEFINED> instruction: 0x4e474953
     530:	535f4c41 	cmppl	pc, #16640	; 0x4100
     534:	2c455a49 	mcrrcs	10, 4, r5, r5, cr9
     538:	5f002920 	svcpl	0x00002920
     53c:	52464c5f 	subpl	r4, r6, #24320	; 0x5f00
     540:	5f544341 	svcpl	0x00544341
     544:	5f4e494d 	svcpl	0x004e494d
     548:	2d28205f 	stccs	0, cr2, [r8, #-380]!	; 0xfffffe84
     54c:	4c352e30 	ldcmi	14, cr2, [r5], #-192	; 0xffffff40
     550:	2e302d52 	mrccs	13, 1, r2, cr0, cr2, {2}
     554:	29524c35 	ldmdbcs	r2, {r0, r2, r4, r5, sl, fp, lr}^
     558:	575f5f00 	ldrbpl	r5, [pc, -r0, lsl #30]
     55c:	52414843 	subpl	r4, r1, #4390912	; 0x430000
     560:	58414d5f 	stmdapl	r1, {r0, r1, r2, r3, r4, r6, r8, sl, fp, lr}^
     564:	30205f5f 	eorcc	r5, r0, pc, asr pc
     568:	66666678 			; <UNDEFINED> instruction: 0x66666678
     56c:	66666666 	strbtvs	r6, [r6], -r6, ror #12
     570:	52005566 	andpl	r5, r0, #427819008	; 0x19800000
     574:	535f4343 	cmppl	pc, #201326593	; 0xc000001
     578:	5f314950 	svcpl	0x00314950
     57c:	65736552 	ldrbvs	r6, [r3, #-1362]!	; 0xfffffaae
     580:	20292874 	eorcs	r2, r9, r4, ror r8
     584:	43522028 	cmpmi	r2, #40	; 0x28
     588:	413e2d43 	teqmi	lr, r3, asr #26
     58c:	52324250 	eorspl	r4, r2, #80, 4
     590:	20525453 	subscs	r5, r2, r3, asr r4
     594:	28203d7c 	stmdacs	r0!, {r2, r3, r4, r5, r6, r8, sl, fp, ip, sp}
     598:	313c3c31 	teqcc	ip, r1, lsr ip
     59c:	29202932 	stmdbcs	r0!, {r1, r4, r5, r8, fp, sp}
     5a0:	435f5f00 	cmpmi	pc, #0, 30
     5a4:	41434e4f 	cmpmi	r3, pc, asr #28
     5a8:	2c782854 	ldclcs	8, cr2, [r8], #-336	; 0xfffffeb0
     5ac:	5f202979 	svcpl	0x00202979
     5b0:	4e4f435f 	mcrmi	3, 2, r4, cr15, cr15, {2}
     5b4:	31544143 	cmpcc	r4, r3, asr #2
     5b8:	792c7828 	stmdbvc	ip!, {r3, r5, fp, ip, sp, lr}
     5bc:	32490029 	subcc	r0, r9, #41	; 0x29
     5c0:	52535f43 	subspl	r5, r3, #268	; 0x10c
     5c4:	52415f31 	subpl	r5, r1, #49, 30	; 0xc4
     5c8:	49204f4c 	stmdbmi	r0!, {r2, r3, r6, r8, r9, sl, fp, lr}
     5cc:	535f4332 	cmppl	pc, #-939524096	; 0xc8000000
     5d0:	415f3152 	cmpmi	pc, r2, asr r1	; <UNPREDICTABLE>
     5d4:	5f4f4c52 	svcpl	0x004f4c52
     5d8:	006b734d 	rsbeq	r7, fp, sp, asr #6
     5dc:	5f434352 	svcpl	0x00434352
     5e0:	52415355 	subpl	r5, r1, #1409286145	; 0x54000001
     5e4:	435f3254 	cmpmi	pc, #84, 4	; 0x40000005
     5e8:	455f4b4c 	ldrbmi	r4, [pc, #-2892]	; fffffaa4 <_estack+0xdfffaaa4>
     5ec:	2029284e 	eorcs	r2, r9, lr, asr #16
     5f0:	43522028 	cmpmi	r2, #40	; 0x28
     5f4:	413e2d43 	teqmi	lr, r3, asr #26
     5f8:	45314250 	ldrmi	r4, [r1, #-592]!	; 0xfffffdb0
     5fc:	7c20524e 	sfmvc	f5, 4, [r0], #-312	; 0xfffffec8
     600:	3128203d 			; <UNDEFINED> instruction: 0x3128203d
     604:	37313c3c 			; <UNDEFINED> instruction: 0x37313c3c
     608:	00292029 	eoreq	r2, r9, r9, lsr #32
     60c:	4e475f5f 	mcrmi	15, 2, r5, cr7, cr15, {2}
     610:	494c4355 	stmdbmi	ip, {r0, r2, r4, r6, r8, r9, lr}^
     614:	5f5f454b 	svcpl	0x005f454b
     618:	5059545f 	subspl	r5, r9, pc, asr r4
     61c:	20464f45 	subcs	r4, r6, r5, asr #30
     620:	5f5f0031 	svcpl	0x005f0031
     624:	32746e69 	rsbscc	r6, r4, #1680	; 0x690
     628:	005f5f30 	subseq	r5, pc, r0, lsr pc	; <UNPREDICTABLE>
     62c:	4f495047 	svcmi	0x00495047
     630:	41425f44 	cmpmi	r2, r4, asr #30
     634:	28204553 	stmdacs	r0!, {r0, r1, r4, r6, r8, sl, lr}
     638:	69726550 	ldmdbvs	r2!, {r4, r6, r8, sl, sp, lr}^
     63c:	72656870 	rsbvc	r6, r5, #112, 16	; 0x700000
     640:	5f736c61 	svcpl	0x00736c61
     644:	45534142 	ldrbmi	r4, [r3, #-322]	; 0xfffffebe
     648:	30202b20 	eorcc	r2, r0, r0, lsr #22
     64c:	30303078 	eorscc	r3, r0, r8, ror r0
     650:	30343131 	eorscc	r3, r4, r1, lsr r1
     654:	294c5530 	stmdbcs	ip, {r4, r5, r8, sl, ip, lr}^
     658:	43324900 	teqmi	r2, #0, 18
     65c:	3252535f 	subscc	r5, r2, #2080374785	; 0x7c000001
     660:	4152545f 	cmpmi	r2, pc, asr r4
     664:	43324920 	teqmi	r2, #32, 18	; 0x80000
     668:	3252535f 	subscc	r5, r2, #2080374785	; 0x7c000001
     66c:	4152545f 	cmpmi	r2, pc, asr r4
     670:	6b734d5f 	blvs	1cd3bf4 <_Min_Stack_Size+0x1cd37f4>
     674:	535f5f00 	cmppl	pc, #0, 30
     678:	4f455a49 	svcmi	0x00455a49
     67c:	4f4c5f46 	svcmi	0x004c5f46
     680:	4c5f474e 	mrrcmi	7, 4, r4, pc, cr14	; <UNPREDICTABLE>
     684:	5f474e4f 	svcpl	0x00474e4f
     688:	0038205f 	eorseq	r2, r8, pc, asr r0
     68c:	5f434352 	svcpl	0x00434352
     690:	32495053 	subcc	r5, r9, #83	; 0x53
     694:	4b4c435f 	blmi	1311418 <_Min_Stack_Size+0x1311018>
     698:	284e455f 	stmdacs	lr, {r0, r1, r2, r3, r4, r6, r8, sl, lr}^
     69c:	20282029 	eorcs	r2, r8, r9, lsr #32
     6a0:	2d434352 	stclcs	3, cr4, [r3, #-328]	; 0xfffffeb8
     6a4:	4250413e 	subsmi	r4, r0, #-2147483633	; 0x8000000f
     6a8:	524e4531 	subpl	r4, lr, #205520896	; 0xc400000
     6ac:	203d7c20 	eorscs	r7, sp, r0, lsr #24
     6b0:	3c3c3128 	ldfccs	f3, [ip], #-160	; 0xffffff60
     6b4:	20293431 	eorcs	r3, r9, r1, lsr r4
     6b8:	5f5f0029 	svcpl	0x005f0029
     6bc:	5f4c4244 	svcpl	0x004c4244
     6c0:	5f58414d 	svcpl	0x0058414d
     6c4:	455f3031 	ldrbmi	r3, [pc, #-49]	; 69b <_Min_Stack_Size+0x29b>
     6c8:	5f5f5058 	svcpl	0x005f5058
     6cc:	38303320 	ldmdacc	r0!, {r5, r8, r9, ip, sp}
     6d0:	54584500 	ldrbpl	r4, [r8], #-1280	; 0xfffffb00
     6d4:	43503949 	cmpmi	r0, #1196032	; 0x124000
     6d8:	45282039 	strmi	r2, [r8, #-57]!	; 0xffffffc7
     6dc:	5f495458 	svcpl	0x00495458
     6e0:	4f495047 	svcmi	0x00495047
     6e4:	70614d5f 	rsbvc	r4, r1, pc, asr sp
     6e8:	676e6970 			; <UNDEFINED> instruction: 0x676e6970
     6ec:	7b29745f 	blvc	a5d870 <_Min_Stack_Size+0xa5d470>
     6f0:	49545845 	ldmdbmi	r4, {r0, r2, r6, fp, ip, lr}^
     6f4:	202c2039 	eorcs	r2, ip, r9, lsr r0
     6f8:	4f495047 	svcmi	0x00495047
     6fc:	202c2043 	eorcs	r2, ip, r3, asr #32
     700:	4f495047 	svcmi	0x00495047
     704:	4e49505f 	mcrmi	0, 2, r5, cr9, cr15, {2}
     708:	2c20395f 			; <UNDEFINED> instruction: 0x2c20395f
     70c:	49545845 	ldmdbmi	r4, {r0, r2, r6, fp, ip, lr}^
     710:	52495f39 	subpl	r5, r9, #57, 30	; 0xe4
     714:	007d2051 	rsbseq	r2, sp, r1, asr r0
     718:	4c465f5f 	mcrrmi	15, 5, r5, r6, cr15
     71c:	5f343654 	svcpl	0x00343654
     720:	544e414d 	strbpl	r4, [lr], #-333	; 0xfffffeb3
     724:	4749445f 	smlsldmi	r4, r9, pc, r4	; <UNPREDICTABLE>
     728:	35205f5f 	strcc	r5, [r0, #-3935]!	; 0xfffff0a1
     72c:	5f5f0033 	svcpl	0x005f0033
     730:	43415246 	movtmi	r5, #4678	; 0x1246
     734:	494d5f54 	stmdbmi	sp, {r2, r4, r6, r8, r9, sl, fp, ip, lr}^
     738:	205f5f4e 	subscs	r5, pc, lr, asr #30
     73c:	2e302d28 	cdpcs	13, 3, cr2, cr0, cr8, {1}
     740:	302d5235 	eorcc	r5, sp, r5, lsr r2
     744:	2952352e 	ldmdbcs	r2, {r1, r2, r3, r5, r8, sl, ip, sp}^
     748:	41535500 	cmpmi	r3, r0, lsl #10
     74c:	20335452 	eorscs	r5, r3, r2, asr r4
     750:	53552828 	cmppl	r5, #40, 16	; 0x280000
     754:	5f545241 	svcpl	0x00545241
     758:	65707954 	ldrbvs	r7, [r0, #-2388]!	; 0xfffff6ac
     75c:	20666544 	rsbcs	r6, r6, r4, asr #10
     760:	5355292a 	cmppl	r5, #688128	; 0xa8000
     764:	33545241 	cmpcc	r4, #268435460	; 0x10000004
     768:	5341425f 	movtpl	r4, #4703	; 0x125f
     76c:	5f002945 	svcpl	0x00002945
     770:	534f505f 	movtpl	r5, #61535	; 0xf05f
     774:	565f5849 	ldrbpl	r5, [pc], -r9, asr #16
     778:	42495349 	submi	r5, r9, #603979777	; 0x24000001
     77c:	3220454c 	eorcc	r4, r0, #76, 10	; 0x13000000
     780:	30383030 	eorscc	r3, r8, r0, lsr r0
     784:	43520039 	cmpmi	r2, #57	; 0x39
     788:	28282043 	stmdacs	r8!, {r0, r1, r6, sp}
     78c:	5f434352 	svcpl	0x00434352
     790:	65707954 	ldrbvs	r7, [r0, #-2388]!	; 0xfffff6ac
     794:	20666544 	rsbcs	r6, r6, r4, asr #10
     798:	4352292a 	cmpmi	r2, #688128	; 0xa8000
     79c:	41425f43 	cmpmi	r2, r3, asr #30
     7a0:	00294553 	eoreq	r4, r9, r3, asr r5
     7a4:	53555f5f 	cmppl	r5, #380	; 0x17c
     7a8:	55434341 	strbpl	r4, [r3, #-833]	; 0xfffffcbf
     7ac:	414d5f4d 	cmpmi	sp, sp, asr #30
     7b0:	205f5f58 	subscs	r5, pc, r8, asr pc	; <UNPREDICTABLE>
     7b4:	46465830 			; <UNDEFINED> instruction: 0x46465830
     7b8:	2d504646 	ldclcs	6, cr4, [r0, #-280]	; 0xfffffee8
     7bc:	4b485538 	blmi	1215ca4 <_Min_Stack_Size+0x12158a4>
     7c0:	535f5f00 	cmppl	pc, #0, 30
     7c4:	43415246 	movtmi	r5, #4678	; 0x1246
     7c8:	42465f54 	submi	r5, r6, #84, 30	; 0x150
     7cc:	5f5f5449 	svcpl	0x005f5449
     7d0:	5f003720 	svcpl	0x00003720
     7d4:	544e495f 	strbpl	r4, [lr], #-2399	; 0xfffff6a1
     7d8:	5f58414d 	svcpl	0x0058414d
     7dc:	54444957 	strbpl	r4, [r4], #-2391	; 0xfffff6a9
     7e0:	205f5f48 	subscs	r5, pc, r8, asr #30
     7e4:	5f003436 	svcpl	0x00003436
     7e8:	4e454552 	mcrmi	5, 2, r4, cr5, cr2, {2}
     7ec:	424d5f54 	submi	r5, sp, #84, 30	; 0x150
     7f0:	4f545253 	svcmi	0x00545253
     7f4:	5f534357 	svcpl	0x00534357
     7f8:	54415453 	strbpl	r5, [r1], #-1107	; 0xfffffbad
     7fc:	74702845 	ldrbtvc	r2, [r0], #-2117	; 0xfffff7bb
     800:	28202972 	stmdacs	r0!, {r1, r4, r5, r6, r8, fp, sp}
     804:	72747028 	rsbsvc	r7, r4, #40	; 0x28
     808:	5f3e2d29 	svcpl	0x003e2d29
     80c:	6373696d 	cmnvs	r3, #1785856	; 0x1b4000
     810:	6d5f3e2d 	ldclvs	14, cr3, [pc, #-180]	; 764 <_Min_Stack_Size+0x364>
     814:	74727362 	ldrbtvc	r7, [r2], #-866	; 0xfffffc9e
     818:	7363776f 	cmnvc	r3, #29097984	; 0x1bc0000
     81c:	6174735f 	cmnvs	r4, pc, asr r3
     820:	00296574 	eoreq	r6, r9, r4, ror r5
     824:	52415f5f 	subpl	r5, r1, #380	; 0x17c
     828:	45465f4d 	strbmi	r5, [r6, #-3917]	; 0xfffff0b3
     82c:	52555441 	subspl	r5, r5, #1090519040	; 0x41000000
     830:	46425f45 	strbmi	r5, [r2], -r5, asr #30
     834:	535f3631 	cmppl	pc, #51380224	; 0x3100000
     838:	414c4143 	cmpmi	ip, r3, asr #2
     83c:	52415f52 	subpl	r5, r1, #328	; 0x148
     840:	4d485449 	cfstrdmi	mvd5, [r8, #-292]	; 0xfffffedc
     844:	43495445 	movtmi	r5, #37957	; 0x9445
     848:	535f5f00 	cmppl	pc, #0, 30
     84c:	42495f51 	submi	r5, r9, #324	; 0x144
     850:	5f5f5449 	svcpl	0x005f5449
     854:	5f003020 	svcpl	0x00003020
     858:	44524f5f 	ldrbmi	r4, [r2], #-3935	; 0xfffff0a1
     85c:	505f5245 	subspl	r5, pc, r5, asr #4
     860:	455f5044 	ldrbmi	r5, [pc, #-68]	; 824 <_Min_Stack_Size+0x424>
     864:	4149444e 	cmpmi	r9, lr, asr #8
     868:	205f5f4e 	subscs	r5, pc, lr, asr #30
     86c:	32313433 	eorscc	r3, r1, #855638016	; 0x33000000
     870:	535f5f00 	cmppl	pc, #0, 30
     874:	5f455a49 	svcpl	0x00455a49
     878:	45505954 	ldrbmi	r5, [r0, #-2388]	; 0xfffff6ac
     87c:	75205f5f 	strvc	r5, [r0, #-3935]!	; 0xfffff0a1
     880:	6769736e 	strbvs	r7, [r9, -lr, ror #6]!
     884:	2064656e 	rsbcs	r6, r4, lr, ror #10
     888:	00746e69 	rsbseq	r6, r4, r9, ror #28
     88c:	49545845 	ldmdbmi	r4, {r0, r2, r6, fp, ip, lr}^
     890:	31415031 	cmpcc	r1, r1, lsr r0
     894:	58452820 	stmdapl	r5, {r5, fp, sp}^
     898:	475f4954 			; <UNDEFINED> instruction: 0x475f4954
     89c:	5f4f4950 	svcpl	0x004f4950
     8a0:	7070614d 	rsbsvc	r6, r0, sp, asr #2
     8a4:	5f676e69 	svcpl	0x00676e69
     8a8:	457b2974 	ldrbmi	r2, [fp, #-2420]!	; 0xfffff68c
     8ac:	31495458 	cmpcc	r9, r8, asr r4
     8b0:	5047202c 	subpl	r2, r7, ip, lsr #32
     8b4:	20414f49 	subcs	r4, r1, r9, asr #30
     8b8:	5047202c 	subpl	r2, r7, ip, lsr #32
     8bc:	505f4f49 	subspl	r4, pc, r9, asr #30
     8c0:	315f4e49 	cmpcc	pc, r9, asr #28
     8c4:	45202c20 	strmi	r2, [r0, #-3104]!	; 0xfffff3e0
     8c8:	31495458 	cmpcc	r9, r8, asr r4
     8cc:	5152495f 	cmppl	r2, pc, asr r9
     8d0:	5f007d20 	svcpl	0x00007d20
     8d4:	5f434347 	svcpl	0x00434347
     8d8:	50415257 	subpl	r5, r1, r7, asr r2
     8dc:	4454535f 	ldrbmi	r5, [r4], #-863	; 0xfffffca1
     8e0:	5f544e49 	svcpl	0x00544e49
     8e4:	5f002048 	svcpl	0x00002048
     8e8:	544c465f 	strbpl	r4, [ip], #-1631	; 0xfffff9a1
     8ec:	5341485f 	movtpl	r4, #6239	; 0x185f
     8f0:	4e45445f 	mcrmi	4, 2, r4, cr5, cr15, {2}
     8f4:	5f4d524f 	svcpl	0x004d524f
     8f8:	0031205f 	eorseq	r2, r1, pc, asr r0
     8fc:	4e495f5f 	mcrmi	15, 2, r5, cr9, cr15, {2}
     900:	545f3854 	ldrbpl	r3, [pc], #-2132	; 908 <_Min_Stack_Size+0x508>
     904:	5f455059 	svcpl	0x00455059
     908:	6973205f 	ldmdbvs	r3!, {r0, r1, r2, r3, r4, r6, sp}^
     90c:	64656e67 	strbtvs	r6, [r5], #-3687	; 0xfffff199
     910:	61686320 	cmnvs	r8, r0, lsr #6
     914:	5f5f0072 	svcpl	0x005f0072
     918:	33544c46 	cmpcc	r4, #17920	; 0x4600
     91c:	494d5f32 	stmdbmi	sp, {r1, r4, r5, r8, r9, sl, fp, ip, lr}^
     920:	205f5f4e 	subscs	r5, pc, lr, asr #30
     924:	37312e31 			; <UNDEFINED> instruction: 0x37312e31
     928:	34393435 	ldrtcc	r3, [r9], #-1077	; 0xfffffbcb
     92c:	38303533 	ldmdacc	r0!, {r0, r1, r4, r5, r8, sl, ip, sp}
     930:	38323232 	ldmdacc	r2!, {r1, r4, r5, r9, ip, sp}
     934:	2d653537 	cfstr64cs	mvdx3, [r5, #-220]!	; 0xffffff24
     938:	33463833 	movtcc	r3, #26675	; 0x6833
     93c:	32490032 	subcc	r0, r9, #50	; 0x32
     940:	52535f43 	subspl	r5, r3, #268	; 0x10c
     944:	4d535f31 	ldclmi	15, cr5, [r3, #-196]	; 0xffffff3c
     948:	454c4142 	strbmi	r4, [ip, #-322]	; 0xfffffebe
     94c:	4d5f5452 	cfldrdmi	mvd5, [pc, #-328]	; 80c <_Min_Stack_Size+0x40c>
     950:	28206b73 	stmdacs	r0!, {r0, r1, r4, r5, r6, r8, r9, fp, sp, lr}
     954:	55317830 	ldrpl	r7, [r1, #-2096]!	; 0xfffff7d0
     958:	3c3c204c 	ldccc	0, cr2, [ip], #-304	; 0xfffffed0
     95c:	43324920 	teqmi	r2, #32, 18	; 0x80000
     960:	3152535f 	cmpcc	r2, pc, asr r3
     964:	424d535f 	submi	r5, sp, #2080374785	; 0x7c000001
     968:	52454c41 	subpl	r4, r5, #16640	; 0x4100
     96c:	6f505f54 	svcvs	0x00505f54
     970:	5f002973 	svcpl	0x00002973
     974:	4153555f 	cmpmi	r3, pc, asr r5
     978:	4d554343 	ldclmi	3, cr4, [r5, #-268]	; 0xfffffef4
     97c:	4e494d5f 	mcrmi	13, 2, r4, cr9, cr15, {2}
     980:	30205f5f 	eorcc	r5, r0, pc, asr pc
     984:	4855302e 	ldmdami	r5, {r1, r2, r3, r5, ip, sp}^
     988:	5f5f004b 	svcpl	0x005f004b
     98c:	33544c46 	cmpcc	r4, #17920	; 0x4600
     990:	45445f32 	strbmi	r5, [r4, #-3890]	; 0xfffff0ce
     994:	414d4943 	cmpmi	sp, r3, asr #18
     998:	49445f4c 	stmdbmi	r4, {r2, r3, r6, r8, r9, sl, fp, ip, lr}^
     99c:	205f5f47 	subscs	r5, pc, r7, asr #30
     9a0:	50530039 	subspl	r0, r3, r9, lsr r0
     9a4:	28203149 	stmdacs	r0!, {r0, r3, r6, r8, ip, sp}
     9a8:	49505328 	ldmdbmi	r0, {r3, r5, r8, r9, ip, lr}^
     9ac:	7079545f 	rsbsvc	r5, r9, pc, asr r4
     9b0:	66654465 	strbtvs	r4, [r5], -r5, ror #8
     9b4:	53292a20 			; <UNDEFINED> instruction: 0x53292a20
     9b8:	5f314950 	svcpl	0x00314950
     9bc:	45534142 	ldrbmi	r4, [r3, #-322]	; 0xfffffebe
     9c0:	5f5f0029 	svcpl	0x005f0029
     9c4:	5f434347 	svcpl	0x00434347
     9c8:	4d4f5441 	cfstrdmi	mvd5, [pc, #-260]	; 8cc <_Min_Stack_Size+0x4cc>
     9cc:	4c5f4349 	mrrcmi	3, 4, r4, pc, cr9	; <UNPREDICTABLE>
     9d0:	474e4f4c 	strbmi	r4, [lr, -ip, asr #30]
     9d4:	434f4c5f 	movtmi	r4, #64607	; 0xfc5f
     9d8:	52465f4b 	subpl	r5, r6, #300	; 0x12c
     9dc:	31204545 			; <UNDEFINED> instruction: 0x31204545
     9e0:	4c5f5f00 	mrrcmi	15, 0, r5, pc, cr0	; <UNPREDICTABLE>
     9e4:	5f4c4244 	svcpl	0x004c4244
     9e8:	5f4e494d 	svcpl	0x004e494d
     9ec:	5f505845 	svcpl	0x00505845
     9f0:	2d28205f 	stccs	0, cr2, [r8, #-380]!	; 0xfffffe84
     9f4:	31323031 	teqcc	r2, r1, lsr r0
     9f8:	525f0029 	subspl	r0, pc, #41	; 0x29
     9fc:	544e4545 	strbpl	r4, [lr], #-1349	; 0xfffffabb
     a00:	494e495f 	stmdbmi	lr, {r0, r1, r2, r3, r4, r6, r8, fp, lr}^
     a04:	41525f54 	cmpmi	r2, r4, asr pc
     a08:	3834444e 	ldmdacc	r4!, {r1, r2, r3, r6, sl, lr}
     a0c:	72617628 	rsbvc	r7, r1, #40, 12	; 0x2800000
     a10:	6f642029 	svcvs	0x00642029
     a14:	73207b20 			; <UNDEFINED> instruction: 0x73207b20
     a18:	63757274 	cmnvs	r5, #116, 4	; 0x40000007
     a1c:	725f2074 	subsvc	r2, pc, #116	; 0x74
     a20:	746e6565 	strbtvc	r6, [lr], #-1381	; 0xfffffa9b
     a24:	725f2a20 	subsvc	r2, pc, #32, 20	; 0x20000
     a28:	28203d20 	stmdacs	r0!, {r5, r8, sl, fp, ip, sp}
     a2c:	29726176 	ldmdbcs	r2!, {r1, r2, r4, r5, r6, r8, sp, lr}^
     a30:	725f203b 	subsvc	r2, pc, #59	; 0x3b
     a34:	725f3e2d 	subsvc	r3, pc, #720	; 0x2d0
     a38:	3e2d3834 	mcrcc	8, 1, r3, cr13, cr4, {1}
     a3c:	6565735f 	strbvs	r7, [r5, #-863]!	; 0xfffffca1
     a40:	5d305b64 	vldmdbpl	r0!, {d5-<overflow reg d54>}
     a44:	5f203d20 	svcpl	0x00203d20
     a48:	444e4152 	strbmi	r4, [lr], #-338	; 0xfffffeae
     a4c:	535f3834 	cmppl	pc, #52, 16	; 0x340000
     a50:	5f444545 	svcpl	0x00444545
     a54:	5f203b30 	svcpl	0x00203b30
     a58:	5f3e2d72 	svcpl	0x003e2d72
     a5c:	2d383472 	cfldrscs	mvf3, [r8, #-456]!	; 0xfffffe38
     a60:	65735f3e 	ldrbvs	r5, [r3, #-3902]!	; 0xfffff0c2
     a64:	315b6465 	cmpcc	fp, r5, ror #8
     a68:	203d205d 	eorscs	r2, sp, sp, asr r0
     a6c:	4e41525f 	mcrmi	2, 2, r5, cr1, cr15, {2}
     a70:	5f383444 	svcpl	0x00383444
     a74:	44454553 	strbmi	r4, [r5], #-1363	; 0xfffffaad
     a78:	203b315f 	eorscs	r3, fp, pc, asr r1
     a7c:	3e2d725f 	mcrcc	2, 1, r7, cr13, cr15, {2}
     a80:	3834725f 	ldmdacc	r4!, {r0, r1, r2, r3, r4, r6, r9, ip, sp, lr}
     a84:	735f3e2d 	cmpvc	pc, #720	; 0x2d0
     a88:	5b646565 	blpl	191a024 <_Min_Stack_Size+0x1919c24>
     a8c:	3d205d32 	stccc	13, cr5, [r0, #-200]!	; 0xffffff38
     a90:	41525f20 	cmpmi	r2, r0, lsr #30
     a94:	3834444e 	ldmdacc	r4!, {r1, r2, r3, r6, sl, lr}
     a98:	4545535f 	strbmi	r5, [r5, #-863]	; 0xfffffca1
     a9c:	3b325f44 	blcc	c987b4 <_Min_Stack_Size+0xc983b4>
     aa0:	2d725f20 	ldclcs	15, cr5, [r2, #-128]!	; 0xffffff80
     aa4:	34725f3e 	ldrbtcc	r5, [r2], #-3902	; 0xfffff0c2
     aa8:	5f3e2d38 	svcpl	0x003e2d38
     aac:	746c756d 	strbtvc	r7, [ip], #-1389	; 0xfffffa93
     ab0:	205d305b 	subscs	r3, sp, fp, asr r0
     ab4:	525f203d 	subspl	r2, pc, #61	; 0x3d
     ab8:	34444e41 	strbcc	r4, [r4], #-3649	; 0xfffff1bf
     abc:	554d5f38 	strbpl	r5, [sp, #-3896]	; 0xfffff0c8
     ac0:	305f544c 	subscc	r5, pc, ip, asr #8
     ac4:	725f203b 	subsvc	r2, pc, #59	; 0x3b
     ac8:	725f3e2d 	subsvc	r3, pc, #720	; 0x2d0
     acc:	3e2d3834 	mcrcc	8, 1, r3, cr13, cr4, {1}
     ad0:	6c756d5f 	ldclvs	13, cr6, [r5], #-380	; 0xfffffe84
     ad4:	5d315b74 	vldmdbpl	r1!, {d5-<overflow reg d62>}
     ad8:	5f203d20 	svcpl	0x00203d20
     adc:	444e4152 	strbmi	r4, [lr], #-338	; 0xfffffeae
     ae0:	4d5f3834 	ldclmi	8, cr3, [pc, #-208]	; a18 <_Min_Stack_Size+0x618>
     ae4:	5f544c55 	svcpl	0x00544c55
     ae8:	5f203b31 	svcpl	0x00203b31
     aec:	5f3e2d72 	svcpl	0x003e2d72
     af0:	2d383472 	cfldrscs	mvf3, [r8, #-456]!	; 0xfffffe38
     af4:	756d5f3e 	strbvc	r5, [sp, #-3902]!	; 0xfffff0c2
     af8:	325b746c 	subscc	r7, fp, #108, 8	; 0x6c000000
     afc:	203d205d 	eorscs	r2, sp, sp, asr r0
     b00:	4e41525f 	mcrmi	2, 2, r5, cr1, cr15, {2}
     b04:	5f383444 	svcpl	0x00383444
     b08:	544c554d 	strbpl	r5, [ip], #-1357	; 0xfffffab3
     b0c:	203b325f 	eorscs	r3, fp, pc, asr r2
     b10:	3e2d725f 	mcrcc	2, 1, r7, cr13, cr15, {2}
     b14:	3834725f 	ldmdacc	r4!, {r0, r1, r2, r3, r4, r6, r9, ip, sp, lr}
     b18:	615f3e2d 	cmpvs	pc, sp, lsr #28
     b1c:	3d206464 	cfstrscc	mvf6, [r0, #-400]!	; 0xfffffe70
     b20:	41525f20 	cmpmi	r2, r0, lsr #30
     b24:	3834444e 	ldmdacc	r4!, {r1, r2, r3, r6, sl, lr}
     b28:	4444415f 	strbmi	r4, [r4], #-351	; 0xfffffea1
     b2c:	725f203b 	subsvc	r2, pc, #59	; 0x3b
     b30:	725f3e2d 	subsvc	r3, pc, #720	; 0x2d0
     b34:	3e2d3834 	mcrcc	8, 1, r3, cr13, cr4, {1}
     b38:	6e61725f 	mcrvs	2, 3, r7, cr1, cr15, {2}
     b3c:	656e5f64 	strbvs	r5, [lr, #-3940]!	; 0xfffff09c
     b40:	3d207478 	cfstrscc	mvf7, [r0, #-480]!	; 0xfffffe20
     b44:	203b3120 	eorscs	r3, fp, r0, lsr #2
     b48:	6877207d 	ldmdavs	r7!, {r0, r2, r3, r4, r5, r6, sp}^
     b4c:	20656c69 	rsbcs	r6, r5, r9, ror #24
     b50:	00293028 	eoreq	r3, r9, r8, lsr #32
     b54:	444c5f5f 	strbmi	r5, [ip], #-3935	; 0xfffff0a1
     b58:	4d5f4c42 	ldclmi	12, cr4, [pc, #-264]	; a58 <_Min_Stack_Size+0x658>
     b5c:	5f544e41 	svcpl	0x00544e41
     b60:	5f474944 	svcpl	0x00474944
     b64:	3335205f 	teqcc	r5, #95	; 0x5f
     b68:	544e4900 	strbpl	r4, [lr], #-2304	; 0xfffff700
     b6c:	5341465f 	movtpl	r4, #5727	; 0x165f
     b70:	5f363154 	svcpl	0x00363154
     b74:	204e494d 	subcs	r4, lr, sp, asr #18
     b78:	5f5f2d28 	svcpl	0x005f2d28
     b7c:	5f544e49 	svcpl	0x00544e49
     b80:	54534146 	ldrbpl	r4, [r3], #-326	; 0xfffffeba
     b84:	4d5f3631 	ldclmi	6, cr3, [pc, #-196]	; ac8 <_Min_Stack_Size+0x6c8>
     b88:	5f5f5841 	svcpl	0x005f5841
     b8c:	31202d20 			; <UNDEFINED> instruction: 0x31202d20
     b90:	50470029 	subpl	r0, r7, r9, lsr #32
     b94:	505f4f49 	subspl	r4, pc, r9, asr #30
     b98:	395f4e49 	ldmdbcc	pc, {r0, r3, r6, r9, sl, fp, lr}^	; <UNPREDICTABLE>
     b9c:	75282820 	strvc	r2, [r8, #-2080]!	; 0xfffff7e0
     ba0:	31746e69 	cmncc	r4, r9, ror #28
     ba4:	29745f36 	ldmdbcs	r4!, {r1, r2, r4, r5, r8, r9, sl, fp, ip, lr}^
     ba8:	32307830 	eorscc	r7, r0, #48, 16	; 0x300000
     bac:	00293030 	eoreq	r3, r9, r0, lsr r0
     bb0:	49555f5f 	ldmdbmi	r5, {r0, r1, r2, r3, r4, r6, r8, r9, sl, fp, ip, lr}^
     bb4:	5f38544e 	svcpl	0x0038544e
     bb8:	29632843 	stmdbcs	r3!, {r0, r1, r6, fp, sp}^
     bbc:	5f006320 	svcpl	0x00006320
     bc0:	544e495f 	strbpl	r4, [lr], #-2399	; 0xfffff6a1
     bc4:	545f3631 	ldrbpl	r3, [pc], #-1585	; bcc <_Min_Stack_Size+0x7cc>
     bc8:	5f455059 	svcpl	0x00455059
     bcc:	6873205f 	ldmdavs	r3!, {r0, r1, r2, r3, r4, r6, sp}^
     bd0:	2074726f 	rsbscs	r7, r4, pc, ror #4
     bd4:	00746e69 	rsbseq	r6, r4, r9, ror #28
     bd8:	6c615f5f 	stclvs	15, cr5, [r1], #-380	; 0xfffffe84
     bdc:	656e6769 	strbvs	r6, [lr, #-1897]!	; 0xfffff897
     be0:	29782864 	ldmdbcs	r8!, {r2, r5, r6, fp, sp}^
     be4:	615f5f20 	cmpvs	pc, r0, lsr #30
     be8:	69727474 	ldmdbvs	r2!, {r2, r4, r5, r6, sl, ip, sp, lr}^
     bec:	65747562 	ldrbvs	r7, [r4, #-1378]!	; 0xfffffa9e
     bf0:	28285f5f 	stmdacs	r8!, {r0, r1, r2, r3, r4, r6, r8, r9, sl, fp, ip, lr}
     bf4:	6c615f5f 	stclvs	15, cr5, [r1], #-380	; 0xfffffe84
     bf8:	656e6769 	strbvs	r6, [lr, #-1897]!	; 0xfffff897
     bfc:	285f5f64 	ldmdacs	pc, {r2, r5, r6, r8, r9, sl, fp, ip, lr}^	; <UNPREDICTABLE>
     c00:	29292978 	stmdbcs	r9!, {r3, r4, r5, r6, r8, fp, sp}
     c04:	54584500 	ldrbpl	r4, [r8], #-1280	; 0xfffffb00
     c08:	43503449 	cmpmi	r0, #1224736768	; 0x49000000
     c0c:	45282034 	strmi	r2, [r8, #-52]!	; 0xffffffcc
     c10:	5f495458 	svcpl	0x00495458
     c14:	4f495047 	svcmi	0x00495047
     c18:	70614d5f 	rsbvc	r4, r1, pc, asr sp
     c1c:	676e6970 			; <UNDEFINED> instruction: 0x676e6970
     c20:	7b29745f 	blvc	a5dda4 <_Min_Stack_Size+0xa5d9a4>
     c24:	49545845 	ldmdbmi	r4, {r0, r2, r6, fp, ip, lr}^
     c28:	202c2034 	eorcs	r2, ip, r4, lsr r0
     c2c:	4f495047 	svcmi	0x00495047
     c30:	202c2043 	eorcs	r2, ip, r3, asr #32
     c34:	4f495047 	svcmi	0x00495047
     c38:	4e49505f 	mcrmi	0, 2, r5, cr9, cr15, {2}
     c3c:	2c20345f 	cfstrscs	mvf3, [r0], #-380	; 0xfffffe84
     c40:	49545845 	ldmdbmi	r4, {r0, r2, r6, fp, ip, lr}^
     c44:	52495f34 	subpl	r5, r9, #52, 30	; 0xd0
     c48:	007d2051 	rsbseq	r2, sp, r1, asr r0
     c4c:	4c465f5f 	mcrrmi	15, 5, r5, r6, cr15
     c50:	5f343654 	svcpl	0x00343654
     c54:	5f58414d 	svcpl	0x0058414d
     c58:	2e31205f 	mrccs	0, 1, r2, cr1, cr15, {2}
     c5c:	36373937 			; <UNDEFINED> instruction: 0x36373937
     c60:	33313339 	teqcc	r1, #-469762048	; 0xe4000000
     c64:	32363834 	eorscc	r3, r6, #52, 16	; 0x340000
     c68:	37353133 			; <UNDEFINED> instruction: 0x37353133
     c6c:	30332b65 	eorscc	r2, r3, r5, ror #22
     c70:	34364638 	ldrtcc	r4, [r6], #-1592	; 0xfffff9c8
     c74:	43435200 	movtmi	r5, #12800	; 0x3200
     c78:	4153555f 	cmpmi	r3, pc, asr r5
     c7c:	5f315452 	svcpl	0x00315452
     c80:	65736552 	ldrbvs	r6, [r3, #-1362]!	; 0xfffffaae
     c84:	20292874 	eorcs	r2, r9, r4, ror r8
     c88:	43522028 	cmpmi	r2, #40	; 0x28
     c8c:	413e2d43 	teqmi	lr, r3, asr #26
     c90:	52324250 	eorspl	r4, r2, #80, 4
     c94:	20525453 	subscs	r5, r2, r3, asr r4
     c98:	28203d7c 	stmdacs	r0!, {r2, r3, r4, r5, r6, r8, sl, fp, ip, sp}
     c9c:	313c3c31 	teqcc	ip, r1, lsr ip
     ca0:	29202934 	stmdbcs	r0!, {r2, r4, r5, r8, fp, sp}
     ca4:	43324900 	teqmi	r2, #0, 18
     ca8:	3152435f 	cmpcc	r2, pc, asr r3
     cac:	424d535f 	submi	r5, sp, #2080374785	; 0x7c000001
     cb0:	45505954 	ldrbmi	r5, [r0, #-2388]	; 0xfffff6ac
     cb4:	6b734d5f 	blvs	1cd4238 <_Min_Stack_Size+0x1cd3e38>
     cb8:	78302820 	ldmdavc	r0!, {r5, fp, sp}
     cbc:	204c5531 	subcs	r5, ip, r1, lsr r5
     cc0:	49203c3c 	stmdbmi	r0!, {r2, r3, r4, r5, sl, fp, ip, sp}
     cc4:	435f4332 	cmpmi	pc, #-939524096	; 0xc8000000
     cc8:	535f3152 	cmppl	pc, #-2147483628	; 0x80000014
     ccc:	5954424d 	ldmdbpl	r4, {r0, r2, r3, r6, r9, lr}^
     cd0:	505f4550 	subspl	r4, pc, r0, asr r5	; <UNPREDICTABLE>
     cd4:	0029736f 	eoreq	r7, r9, pc, ror #6
     cd8:	4349564e 	movtmi	r5, #38478	; 0x964e
     cdc:	5152495f 	cmppl	r2, pc, asr r9
     ce0:	455f3031 	ldrbmi	r3, [pc, #-49]	; cb7 <_Min_Stack_Size+0x8b7>
     ce4:	34495458 	strbcc	r5, [r9], #-1112	; 0xfffffba8
     ce8:	7369445f 	cmnvc	r9, #1593835520	; 0x5f000000
     cec:	656c6261 	strbvs	r6, [ip, #-609]!	; 0xfffffd9f
     cf0:	564e2820 	strbpl	r2, [lr], -r0, lsr #16
     cf4:	495f4349 	ldmdbmi	pc, {r0, r3, r6, r8, r9, lr}^	; <UNPREDICTABLE>
     cf8:	30524543 	subscc	r4, r2, r3, asr #10
     cfc:	203d7c20 	eorscs	r7, sp, r0, lsr #24
     d00:	313c3c31 	teqcc	ip, r1, lsr ip
     d04:	5f002930 	svcpl	0x00002930
     d08:	4e454552 	mcrmi	5, 2, r4, cr5, cr2, {2}
     d0c:	43575f54 	cmpmi	r7, #84, 30	; 0x150
     d10:	4f545253 	svcmi	0x00545253
     d14:	5f53424d 	svcpl	0x0053424d
     d18:	54415453 	strbpl	r5, [r1], #-1107	; 0xfffffbad
     d1c:	74702845 	ldrbtvc	r2, [r0], #-2117	; 0xfffff7bb
     d20:	28202972 	stmdacs	r0!, {r1, r4, r5, r6, r8, fp, sp}
     d24:	72747028 	rsbsvc	r7, r4, #40	; 0x28
     d28:	5f3e2d29 	svcpl	0x003e2d29
     d2c:	6373696d 	cmnvs	r3, #1785856	; 0x1b4000
     d30:	775f3e2d 	ldrbvc	r3, [pc, -sp, lsr #28]
     d34:	74727363 	ldrbtvc	r7, [r2], #-867	; 0xfffffc9d
     d38:	73626d6f 	cmnvc	r2, #7104	; 0x1bc0
     d3c:	6174735f 	cmnvs	r4, pc, asr r3
     d40:	00296574 	eoreq	r6, r9, r4, ror r5
     d44:	5f433249 	svcpl	0x00433249
     d48:	5f315253 	svcpl	0x00315253
     d4c:	5f455854 	svcpl	0x00455854
     d50:	206b734d 	rsbcs	r7, fp, sp, asr #6
     d54:	31783028 	cmncc	r8, r8, lsr #32
     d58:	3c204c55 	stccc	12, cr4, [r0], #-340	; 0xfffffeac
     d5c:	3249203c 	subcc	r2, r9, #60	; 0x3c
     d60:	52535f43 	subspl	r5, r3, #268	; 0x10c
     d64:	58545f31 	ldmdapl	r4, {r0, r4, r5, r8, r9, sl, fp, ip, lr}^
     d68:	6f505f45 	svcvs	0x00505f45
     d6c:	5f002973 	svcpl	0x00002973
     d70:	626e755f 	rsbvs	r7, lr, #398458880	; 0x17c00000
     d74:	646e756f 	strbtvs	r7, [lr], #-1391	; 0xfffffa91
     d78:	00206465 	eoreq	r6, r0, r5, ror #8
     d7c:	4e495f5f 	mcrmi	15, 2, r5, cr9, cr15, {2}
     d80:	22203854 	eorcs	r3, r0, #84, 16	; 0x540000
     d84:	00226868 	eoreq	r6, r2, r8, ror #16
     d88:	5f434352 	svcpl	0x00434352
     d8c:	4f495047 	svcmi	0x00495047
     d90:	4c435f45 	mcrrmi	15, 4, r5, r3, cr5
     d94:	4e455f4b 	cdpmi	15, 4, cr5, cr5, cr11, {2}
     d98:	28202928 	stmdacs	r0!, {r3, r5, r8, fp, sp}
     d9c:	43435220 	movtmi	r5, #12832	; 0x3220
     da0:	50413e2d 	subpl	r3, r1, sp, lsr #28
     da4:	4e453242 	cdpmi	2, 4, cr3, cr5, cr2, {2}
     da8:	3d7c2052 	ldclcc	0, cr2, [ip, #-328]!	; 0xfffffeb8
     dac:	3c312820 	ldccc	8, cr2, [r1], #-128	; 0xffffff80
     db0:	2029363c 	eorcs	r3, r9, ip, lsr r6
     db4:	564e0029 	strbpl	r0, [lr], -r9, lsr #32
     db8:	495f4349 	ldmdbmi	pc, {r0, r3, r6, r8, r9, lr}^	; <UNPREDICTABLE>
     dbc:	5f385152 	svcpl	0x00385152
     dc0:	49545845 	ldmdbmi	r4, {r0, r2, r6, fp, ip, lr}^
     dc4:	6e455f32 	mcrvs	15, 2, r5, cr5, cr2, {1}
     dc8:	656c6261 	strbvs	r6, [ip, #-609]!	; 0xfffffd9f
     dcc:	564e2820 	strbpl	r2, [lr], -r0, lsr #16
     dd0:	495f4349 	ldmdbmi	pc, {r0, r3, r6, r8, r9, lr}^	; <UNPREDICTABLE>
     dd4:	30524553 	subscc	r4, r2, r3, asr r5
     dd8:	203d7c20 	eorscs	r7, sp, r0, lsr #24
     ddc:	383c3c31 	ldmdacc	ip!, {r0, r4, r5, sl, fp, ip, sp}
     de0:	5f5f0029 	svcpl	0x005f0029
     de4:	5f434347 	svcpl	0x00434347
     de8:	45564148 	ldrbmi	r4, [r6, #-328]	; 0xfffffeb8
     dec:	4e59535f 	mrcmi	3, 2, r5, cr9, cr15, {2}
     df0:	4f435f43 	svcmi	0x00435f43
     df4:	5241504d 	subpl	r5, r1, #77	; 0x4d
     df8:	4e415f45 	cdpmi	15, 4, cr5, cr1, cr5, {2}
     dfc:	57535f44 	ldrbpl	r5, [r3, -r4, asr #30]
     e00:	315f5041 	cmpcc	pc, r1, asr #32
     e04:	49003120 	stmdbmi	r0, {r5, r8, ip, sp}
     e08:	4c5f544e 	cfldrdmi	mvd5, [pc], {78}	; 0x4e
     e0c:	54534145 	ldrbpl	r4, [r3], #-325	; 0xfffffebb
     e10:	4d5f3631 	ldclmi	6, cr3, [pc, #-196]	; d54 <_Min_Stack_Size+0x954>
     e14:	28205841 	stmdacs	r0!, {r0, r6, fp, ip, lr}
     e18:	4e495f5f 	mcrmi	15, 2, r5, cr9, cr15, {2}
     e1c:	454c5f54 	strbmi	r5, [ip, #-3924]	; 0xfffff0ac
     e20:	31545341 	cmpcc	r4, r1, asr #6
     e24:	414d5f36 	cmpmi	sp, r6, lsr pc
     e28:	295f5f58 	ldmdbcs	pc, {r3, r4, r6, r8, r9, sl, fp, ip, lr}^	; <UNPREDICTABLE>
     e2c:	625f5f00 	subsvs	r5, pc, #0, 30
     e30:	746c6975 	strbtvc	r6, [ip], #-2421	; 0xfffff68b
     e34:	615f6e69 	cmpvs	pc, r9, ror #28
     e38:	6e67696c 	vnmulvs.f16	s13, s14, s25	; <UNPREDICTABLE>
     e3c:	776f645f 			; <UNDEFINED> instruction: 0x776f645f
     e40:	2c78286e 	ldclcs	8, cr2, [r8], #-440	; 0xfffffe48
     e44:	67696c61 	strbvs	r6, [r9, -r1, ror #24]!
     e48:	2820296e 	stmdacs	r0!, {r1, r2, r3, r5, r6, r8, fp, sp}
     e4c:	745f5f28 	ldrbvc	r5, [pc], #-3880	; e54 <_Min_Stack_Size+0xa54>
     e50:	6f657079 	svcvs	0x00657079
     e54:	285f5f66 	ldmdacs	pc, {r1, r2, r5, r6, r8, r9, sl, fp, ip, lr}^	; <UNPREDICTABLE>
     e58:	28292978 	stmdacs	r9!, {r3, r4, r5, r6, r8, fp, sp}
     e5c:	26297828 	strtcs	r7, [r9], -r8, lsr #16
     e60:	28287e28 	stmdacs	r8!, {r3, r5, r9, sl, fp, ip, sp, lr}
     e64:	67696c61 	strbvs	r6, [r9, -r1, ror #24]!
     e68:	312d296e 			; <UNDEFINED> instruction: 0x312d296e
     e6c:	29292929 	stmdbcs	r9!, {r0, r3, r5, r8, fp, sp}
     e70:	535f5f00 	cmppl	pc, #0, 30
     e74:	5f434454 	svcpl	0x00434454
     e78:	54534f48 	ldrbpl	r4, [r3], #-3912	; 0xfffff0b8
     e7c:	5f5f4445 	svcpl	0x005f4445
     e80:	5f003120 	svcpl	0x00003120
     e84:	4c4c555f 	cfstr64mi	mvdx5, [ip], {95}	; 0x5f
     e88:	43415246 	movtmi	r5, #4678	; 0x1246
     e8c:	42465f54 	submi	r5, r6, #84, 30	; 0x150
     e90:	5f5f5449 	svcpl	0x005f5449
     e94:	00343620 	eorseq	r3, r4, r0, lsr #12
     e98:	42444c5f 	submi	r4, r4, #24320	; 0x5f00
     e9c:	51455f4c 	cmppl	r5, ip, asr #30
     ea0:	4c42445f 	cfstrdmi	mvd4, [r2], {95}	; 0x5f
     ea4:	5f003120 	svcpl	0x00003120
     ea8:	544e495f 	strbpl	r4, [lr], #-2399	; 0xfffff6a1
     eac:	5341465f 	movtpl	r4, #5727	; 0x165f
     eb0:	5f343654 	svcpl	0x00343654
     eb4:	45505954 	ldrbmi	r5, [r0, #-2388]	; 0xfffff6ac
     eb8:	6c205f5f 	stcvs	15, cr5, [r0], #-380	; 0xfffffe84
     ebc:	20676e6f 	rsbcs	r6, r7, pc, ror #28
     ec0:	676e6f6c 	strbvs	r6, [lr, -ip, ror #30]!
     ec4:	746e6920 	strbtvc	r6, [lr], #-2336	; 0xfffff6e0
     ec8:	575f5f00 	ldrbpl	r5, [pc, -r0, lsl #30]
     ecc:	5f544e49 	svcpl	0x00544e49
     ed0:	45505954 	ldrbmi	r5, [r0, #-2388]	; 0xfffff6ac
     ed4:	75205f5f 	strvc	r5, [r0, #-3935]!	; 0xfffff0a1
     ed8:	6769736e 	strbvs	r7, [r9, -lr, ror #6]!
     edc:	2064656e 	rsbcs	r6, r4, lr, ror #10
     ee0:	00746e69 	rsbseq	r6, r4, r9, ror #28
     ee4:	54415f5f 	strbpl	r5, [r1], #-3935	; 0xfffff0a1
     ee8:	42495254 	submi	r5, r9, #84, 4	; 0x40000005
     eec:	5f455455 	svcpl	0x00455455
     ef0:	55504d49 	ldrbpl	r4, [r0, #-3401]	; 0xfffff2b7
     ef4:	505f4552 	subspl	r4, pc, r2, asr r5	; <UNPREDICTABLE>
     ef8:	5f5f5254 	svcpl	0x005f5254
     efc:	4e490020 	cdpmi	0, 4, cr0, cr9, cr0, {1}
     f00:	4d5f3854 	ldclmi	8, cr3, [pc, #-336]	; db8 <_Min_Stack_Size+0x9b8>
     f04:	28205841 	stmdacs	r0!, {r0, r6, fp, ip, lr}
     f08:	4e495f5f 	mcrmi	15, 2, r5, cr9, cr15, {2}
     f0c:	4d5f3854 	ldclmi	8, cr3, [pc, #-336]	; dc4 <_Min_Stack_Size+0x9c4>
     f10:	5f5f5841 	svcpl	0x005f5841
     f14:	5f5f0029 	svcpl	0x005f0029
     f18:	33544c46 	cmpcc	r4, #17920	; 0x4600
     f1c:	485f5832 	ldmdami	pc, {r1, r4, r5, fp, ip, lr}^	; <UNPREDICTABLE>
     f20:	515f5341 	cmppl	pc, r1, asr #6
     f24:	54454955 	strbpl	r4, [r5], #-2389	; 0xfffff6ab
     f28:	4e414e5f 	mcrmi	14, 2, r4, cr1, cr15, {2}
     f2c:	31205f5f 			; <UNDEFINED> instruction: 0x31205f5f
     f30:	535f5f00 	cmppl	pc, #0, 30
     f34:	5f455a49 	svcpl	0x00455a49
     f38:	205f5f54 	subscs	r5, pc, r4, asr pc	; <UNPREDICTABLE>
     f3c:	52545000 	subspl	r5, r4, #0
     f40:	46464944 	strbmi	r4, [r6], -r4, asr #18
     f44:	58414d5f 	stmdapl	r1, {r0, r1, r2, r3, r4, r6, r8, sl, fp, lr}^
     f48:	5f5f2820 	svcpl	0x005f2820
     f4c:	44525450 	ldrbmi	r5, [r2], #-1104	; 0xfffffbb0
     f50:	5f464649 	svcpl	0x00464649
     f54:	5f58414d 	svcpl	0x0058414d
     f58:	5f00295f 	svcpl	0x0000295f
     f5c:	544c465f 	strbpl	r4, [ip], #-1631	; 0xfffff9a1
     f60:	4d5f3233 	lfmmi	f3, 2, [pc, #-204]	; e9c <_Min_Stack_Size+0xa9c>
     f64:	315f5841 	cmpcc	pc, r1, asr #16
     f68:	58455f30 	stmdapl	r5, {r4, r5, r8, r9, sl, fp, ip, lr}^
     f6c:	205f5f50 	subscs	r5, pc, r0, asr pc	; <UNPREDICTABLE>
     f70:	5f003833 	svcpl	0x00003833
     f74:	5151555f 	cmppl	r1, pc, asr r5
     f78:	4942465f 	stmdbmi	r2, {r0, r1, r2, r3, r4, r6, r9, sl, lr}^
     f7c:	205f5f54 	subscs	r5, pc, r4, asr pc	; <UNPREDICTABLE>
     f80:	32490038 	subcc	r0, r9, #56	; 0x38
     f84:	52535f43 	subspl	r5, r3, #268	; 0x10c
     f88:	45425f31 	strbmi	r5, [r2, #-3889]	; 0xfffff0cf
     f8c:	4d5f5252 	lfmmi	f5, 2, [pc, #-328]	; e4c <_Min_Stack_Size+0xa4c>
     f90:	28206b73 	stmdacs	r0!, {r0, r1, r4, r5, r6, r8, r9, fp, sp, lr}
     f94:	55317830 	ldrpl	r7, [r1, #-2096]!	; 0xfffff7d0
     f98:	3c3c204c 	ldccc	0, cr2, [ip], #-304	; 0xfffffed0
     f9c:	43324920 	teqmi	r2, #32, 18	; 0x80000
     fa0:	3152535f 	cmpcc	r2, pc, asr r3
     fa4:	5245425f 	subpl	r4, r5, #-268435451	; 0xf0000005
     fa8:	6f505f52 	svcvs	0x00505f52
     fac:	5f002973 	svcpl	0x00002973
     fb0:	4e454552 	mcrmi	5, 2, r4, cr5, cr2, {2}
     fb4:	48435f54 	stmdami	r3, {r2, r4, r6, r8, r9, sl, fp, ip, lr}^
     fb8:	5f4b4345 	svcpl	0x004b4345
     fbc:	76284d54 			; <UNDEFINED> instruction: 0x76284d54
     fc0:	20297261 	eorcs	r7, r9, r1, ror #4
     fc4:	4545525f 	strbmi	r5, [r5, #-607]	; 0xfffffda1
     fc8:	435f544e 	cmpmi	pc, #1308622848	; 0x4e000000
     fcc:	4b434548 	blmi	10d24f4 <_Min_Stack_Size+0x10d20f4>
     fd0:	72617628 	rsbvc	r7, r1, #40, 12	; 0x2800000
     fd4:	6c5f202c 	mrrcvs	0, 2, r2, pc, cr12	; <UNPREDICTABLE>
     fd8:	6c61636f 	stclvs	3, cr6, [r1], #-444	; 0xfffffe44
     fdc:	656d6974 	strbvs	r6, [sp, #-2420]!	; 0xfffff68c
     fe0:	6675625f 			; <UNDEFINED> instruction: 0x6675625f
     fe4:	7473202c 	ldrbtvc	r2, [r3], #-44	; 0xffffffd4
     fe8:	74637572 	strbtvc	r7, [r3], #-1394	; 0xfffffa8e
     fec:	745f5f20 	ldrbvc	r5, [pc], #-3872	; ff4 <_Min_Stack_Size+0xbf4>
     ff0:	2c2a206d 	stccs	0, cr2, [sl], #-436	; 0xfffffe4c
     ff4:	7a697320 	bvc	1a5dc7c <_Min_Stack_Size+0x1a5d87c>
     ff8:	20666f65 	rsbcs	r6, r6, r5, ror #30
     ffc:	7628282a 	strtvc	r2, [r8], -sl, lsr #16
    1000:	2d297261 	sfmcs	f7, 4, [r9, #-388]!	; 0xfffffe7c
    1004:	6f6c5f3e 	svcvs	0x006c5f3e
    1008:	746c6163 	strbtvc	r6, [ip], #-355	; 0xfffffe9d
    100c:	5f656d69 	svcpl	0x00656d69
    1010:	29667562 	stmdbcs	r6!, {r1, r5, r6, r8, sl, ip, sp, lr}^
    1014:	0029202c 	eoreq	r2, r9, ip, lsr #32
    1018:	53555f5f 	cmppl	r5, #380	; 0x17c
    101c:	43415246 	movtmi	r5, #4678	; 0x1246
    1020:	414d5f54 	cmpmi	sp, r4, asr pc
    1024:	205f5f58 	subscs	r5, pc, r8, asr pc	; <UNPREDICTABLE>
    1028:	46465830 			; <UNDEFINED> instruction: 0x46465830
    102c:	55382d50 	ldrpl	r2, [r8, #-3408]!	; 0xfffff2b0
    1030:	45005248 	strmi	r5, [r0, #-584]	; 0xfffffdb8
    1034:	31495458 	cmpcc	r9, r8, asr r4
    1038:	30312030 	eorscc	r2, r1, r0, lsr r0
    103c:	555f5f00 	ldrbpl	r5, [pc, #-3840]	; 144 <_Min_Heap_Size-0xbc>
    1040:	50544e49 	subspl	r4, r4, r9, asr #28
    1044:	4d5f5254 	lfmmi	f5, 2, [pc, #-336]	; efc <_Min_Stack_Size+0xafc>
    1048:	5f5f5841 	svcpl	0x005f5841
    104c:	66783020 	ldrbtvs	r3, [r8], -r0, lsr #32
    1050:	66666666 	strbtvs	r6, [r6], -r6, ror #12
    1054:	55666666 	strbpl	r6, [r6, #-1638]!	; 0xfffff99a
    1058:	6e5f5f00 	cdpvs	15, 5, cr5, cr15, cr0, {0}
    105c:	5f646565 	svcpl	0x00646565
    1060:	61686377 	smcvs	34359	; 0x8637
    1064:	00745f72 	rsbseq	r5, r4, r2, ror pc
    1068:	4c465f5f 	mcrrmi	15, 5, r5, r6, cr15
    106c:	5f323354 	svcpl	0x00323354
    1070:	5f4e494d 	svcpl	0x004e494d
    1074:	5f505845 	svcpl	0x00505845
    1078:	2d28205f 	stccs	0, cr2, [r8, #-380]!	; 0xfffffe84
    107c:	29353231 	ldmdbcs	r5!, {r0, r4, r5, r9, ip, sp}
    1080:	725f5f00 	subsvc	r5, pc, #0, 30
    1084:	6c757365 	ldclvs	3, cr7, [r5], #-404	; 0xfffffe6c
    1088:	73755f74 	cmnvc	r5, #116, 30	; 0x1d0
    108c:	68635f65 	stmdavs	r3!, {r0, r2, r5, r6, r8, r9, sl, fp, ip, lr}^
    1090:	206b6365 	rsbcs	r6, fp, r5, ror #6
    1094:	74615f5f 	strbtvc	r5, [r1], #-3935	; 0xfffff0a1
    1098:	62697274 	rsbvs	r7, r9, #116, 4	; 0x40000007
    109c:	5f657475 	svcpl	0x00657475
    10a0:	5f28285f 	svcpl	0x0028285f
    10a4:	7261775f 	rsbvc	r7, r1, #24903680	; 0x17c0000
    10a8:	6e755f6e 	cdpvs	15, 7, cr5, cr5, cr14, {3}
    10ac:	64657375 	strbtvs	r7, [r5], #-885	; 0xfffffc8b
    10b0:	7365725f 	cmnvc	r5, #-268435451	; 0xf0000005
    10b4:	5f746c75 	svcpl	0x00746c75
    10b8:	0029295f 	eoreq	r2, r9, pc, asr r9
    10bc:	6c615f5f 	stclvs	15, cr5, [r1], #-380	; 0xfffffe84
    10c0:	5f6e6769 	svcpl	0x006e6769
    10c4:	6e776f64 	cdpvs	15, 7, cr6, cr7, cr4, {3}
    10c8:	792c7828 	stmdbvc	ip!, {r3, r5, fp, ip, sp, lr}
    10cc:	5f5f2029 	svcpl	0x005f2029
    10d0:	6c697562 	cfstr64vs	mvdx7, [r9], #-392	; 0xfffffe78
    10d4:	5f6e6974 	svcpl	0x006e6974
    10d8:	67696c61 	strbvs	r6, [r9, -r1, ror #24]!
    10dc:	6f645f6e 	svcvs	0x00645f6e
    10e0:	78286e77 	stmdavc	r8!, {r0, r1, r2, r4, r5, r6, r9, sl, fp, sp, lr}
    10e4:	2979202c 	ldmdbcs	r9!, {r2, r3, r5, sp}^
    10e8:	41434d00 	cmpmi	r3, r0, lsl #26
    10ec:	58455f4c 	stmdapl	r5, {r2, r3, r6, r8, r9, sl, fp, ip, lr}^
    10f0:	475f4954 			; <UNDEFINED> instruction: 0x475f4954
    10f4:	5f4f4950 	svcpl	0x004f4950
    10f8:	61647055 	qdsubvs	r7, r5, r4
    10fc:	5f006574 	svcpl	0x00006574
    1100:	5343525f 	movtpl	r5, #12895	; 0x325f
    1104:	535f4449 	cmppl	pc, #1224736768	; 0x49000000
    1108:	4352554f 	cmpmi	r2, #331350016	; 0x13c00000
    110c:	29732845 	ldmdbcs	r3!, {r0, r2, r6, fp, sp}^
    1110:	72747320 	rsbsvc	r7, r4, #32, 6	; 0x80000000
    1114:	20746375 	rsbscs	r6, r4, r5, ror r3
    1118:	61685f5f 	cmnvs	r8, pc, asr pc
    111c:	5f006b63 	svcpl	0x00006b63
    1120:	5f445342 	svcpl	0x00445342
    1124:	44525450 	ldrbmi	r5, [r2], #-1104	; 0xfffffbb0
    1128:	5f464649 	svcpl	0x00464649
    112c:	00205f54 	eoreq	r5, r0, r4, asr pc
    1130:	31544e49 	cmpcc	r4, r9, asr #28
    1134:	414d5f36 	cmpmi	sp, r6, lsr pc
    1138:	5f282058 	svcpl	0x00282058
    113c:	544e495f 	strbpl	r4, [lr], #-2399	; 0xfffff6a1
    1140:	4d5f3631 	ldclmi	6, cr3, [pc, #-196]	; 1084 <_Min_Stack_Size+0xc84>
    1144:	5f5f5841 	svcpl	0x005f5841
    1148:	32490029 	subcc	r0, r9, #41	; 0x29
    114c:	52535f43 	subspl	r5, r3, #268	; 0x10c
    1150:	45425f31 	strbmi	r5, [r2, #-3889]	; 0xfffff0cf
    1154:	49205252 	stmdbmi	r0!, {r1, r4, r6, r9, ip, lr}
    1158:	535f4332 	cmppl	pc, #-939524096	; 0xc8000000
    115c:	425f3152 	subsmi	r3, pc, #-2147483628	; 0x80000014
    1160:	5f525245 	svcpl	0x00525245
    1164:	006b734d 	rsbeq	r7, fp, sp, asr #6
    1168:	4c555f5f 	mrrcmi	15, 5, r5, r5, cr15	; <UNPREDICTABLE>
    116c:	43415246 	movtmi	r5, #4678	; 0x1246
    1170:	42465f54 	submi	r5, r6, #84, 30	; 0x150
    1174:	5f5f5449 	svcpl	0x005f5449
    1178:	00323320 	eorseq	r3, r2, r0, lsr #6
    117c:	49545845 	ldmdbmi	r4, {r0, r2, r6, fp, ip, lr}^
    1180:	31203231 			; <UNDEFINED> instruction: 0x31203231
    1184:	5f5f0032 	svcpl	0x005f0032
    1188:	36544c46 	ldrbcc	r4, [r4], -r6, asr #24
    118c:	494d5f34 	stmdbmi	sp, {r2, r4, r5, r8, r9, sl, fp, ip, lr}^
    1190:	30315f4e 	eorscc	r5, r1, lr, asr #30
    1194:	5058455f 	subspl	r4, r8, pc, asr r5
    1198:	28205f5f 	stmdacs	r0!, {r0, r1, r2, r3, r4, r6, r8, r9, sl, fp, ip, lr}
    119c:	3730332d 	ldrcc	r3, [r0, -sp, lsr #6]!
    11a0:	5f5f0029 	svcpl	0x005f0029
    11a4:	657a6973 	ldrbvs	r6, [sl, #-2419]!	; 0xfffff68d
    11a8:	0020745f 	eoreq	r7, r0, pc, asr r4
    11ac:	6f625f5f 	svcvs	0x00625f5f
    11b0:	65646e75 	strbvs	r6, [r4, #-3701]!	; 0xfffff18b
    11b4:	5f002064 	svcpl	0x00002064
    11b8:	746e695f 	strbtvc	r6, [lr], #-2399	; 0xfffff6a1
    11bc:	7361665f 	cmnvc	r1, #99614720	; 0x5f00000
    11c0:	5f323374 	svcpl	0x00323374
    11c4:	65645f74 	strbvs	r5, [r4, #-3956]!	; 0xfffff08c
    11c8:	656e6966 	strbvs	r6, [lr, #-2406]!	; 0xfffff69a
    11cc:	00312064 	eorseq	r2, r1, r4, rrx
    11d0:	4e495f5f 	mcrmi	15, 2, r5, cr9, cr15, {2}
    11d4:	41465f54 	cmpmi	r6, r4, asr pc
    11d8:	34365453 	ldrtcc	r5, [r6], #-1107	; 0xfffffbad
    11dc:	4449575f 	strbmi	r5, [r9], #-1887	; 0xfffff8a1
    11e0:	5f5f4854 	svcpl	0x005f4854
    11e4:	00343620 	eorseq	r3, r4, r0, lsr #12
    11e8:	52415355 	subpl	r5, r1, #1409286145	; 0x54000001
    11ec:	425f3254 	subsmi	r3, pc, #84, 4	; 0x40000005
    11f0:	20455341 	subcs	r5, r5, r1, asr #6
    11f4:	72655028 	rsbvc	r5, r5, #40	; 0x28
    11f8:	65687069 	strbvs	r7, [r8, #-105]!	; 0xffffff97
    11fc:	736c6172 	cmnvc	ip, #-2147483620	; 0x8000001c
    1200:	5341425f 	movtpl	r4, #4703	; 0x125f
    1204:	202b2045 	eorcs	r2, fp, r5, asr #32
    1208:	30307830 	eorscc	r7, r0, r0, lsr r8
    120c:	34343030 	ldrtcc	r3, [r4], #-48	; 0xffffffd0
    1210:	4c553030 	mrrcmi	0, 3, r3, r5, cr0
    1214:	4e490029 	cdpmi	0, 4, cr0, cr9, cr9, {1}
    1218:	5f363154 	svcpl	0x00363154
    121c:	29782843 	ldmdbcs	r8!, {r0, r1, r6, fp, sp}^
    1220:	495f5f20 	ldmdbmi	pc, {r5, r8, r9, sl, fp, ip, lr}^	; <UNPREDICTABLE>
    1224:	3631544e 	ldrtcc	r5, [r1], -lr, asr #8
    1228:	7828435f 	stmdavc	r8!, {r0, r1, r2, r3, r4, r6, r8, r9, lr}
    122c:	5f5f0029 	svcpl	0x005f0029
    1230:	41524653 	cmpmi	r2, r3, asr r6
    1234:	455f5443 	ldrbmi	r5, [pc, #-1091]	; df9 <_Min_Stack_Size+0x9f9>
    1238:	4c495350 	mcrrmi	3, 5, r5, r9, cr0
    123c:	5f5f4e4f 	svcpl	0x005f4e4f
    1240:	31783020 	cmncc	r8, r0, lsr #32
    1244:	48372d50 	ldmdami	r7!, {r4, r6, r8, sl, fp, sp}
    1248:	5f5f0052 	svcpl	0x005f0052
    124c:	434e4f43 	movtmi	r4, #61251	; 0xef43
    1250:	28315441 	ldmdacs	r1!, {r0, r6, sl, ip, lr}
    1254:	29792c78 	ldmdbcs	r9!, {r3, r4, r5, r6, sl, fp, sp}^
    1258:	23207820 			; <UNDEFINED> instruction: 0x23207820
    125c:	00792023 	rsbseq	r2, r9, r3, lsr #32
    1260:	5f433249 	svcpl	0x00433249
    1264:	5f315243 	svcpl	0x00315243
    1268:	5f4b4341 	svcpl	0x004b4341
    126c:	20736f50 	rsbscs	r6, r3, r0, asr pc
    1270:	55303128 	ldrpl	r3, [r0, #-296]!	; 0xfffffed8
    1274:	545f0029 	ldrbpl	r0, [pc], #-41	; 127c <_Min_Stack_Size+0xe7c>
    1278:	5a49535f 	bpl	1255ffc <_Min_Stack_Size+0x1255bfc>
    127c:	5f002045 	svcpl	0x00002045
    1280:	4c42445f 	cfstrdmi	mvd4, [r2], {95}	; 0x5f
    1284:	4e494d5f 	mcrmi	13, 2, r4, cr9, cr15, {2}
    1288:	5f30315f 	svcpl	0x0030315f
    128c:	5f505845 	svcpl	0x00505845
    1290:	2d28205f 	stccs	0, cr2, [r8, #-380]!	; 0xfffffe84
    1294:	29373033 	ldmdbcs	r7!, {r0, r1, r4, r5, ip, sp}
    1298:	555f5f00 	ldrbpl	r5, [pc, #-3840]	; 3a0 <_Min_Heap_Size+0x1a0>
    129c:	465f5153 			; <UNDEFINED> instruction: 0x465f5153
    12a0:	5f544942 	svcpl	0x00544942
    12a4:	3233205f 	eorscc	r2, r3, #95	; 0x5f
    12a8:	4f5f5f00 	svcmi	0x005f5f00
    12ac:	52454452 	subpl	r4, r5, #1375731712	; 0x52000000
    12b0:	4749425f 	smlsldmi	r4, r9, pc, r2	; <UNPREDICTABLE>
    12b4:	444e455f 	strbmi	r4, [lr], #-1375	; 0xfffffaa1
    12b8:	5f4e4149 	svcpl	0x004e4149
    12bc:	3334205f 	teqcc	r4, #95	; 0x5f
    12c0:	45003132 	strmi	r3, [r0, #-306]	; 0xfffffece
    12c4:	31495458 	cmpcc	r9, r8, asr r4
    12c8:	34312034 	ldrtcc	r2, [r1], #-52	; 0xffffffcc
    12cc:	555f5f00 	ldrbpl	r5, [pc, #-3840]	; 3d4 <_Min_Heap_Size+0x1d4>
    12d0:	50544e49 	subspl	r4, r4, r9, asr #28
    12d4:	545f5254 	ldrbpl	r5, [pc], #-596	; 12dc <_Min_Stack_Size+0xedc>
    12d8:	5f455059 	svcpl	0x00455059
    12dc:	6e75205f 	mrcvs	0, 3, r2, cr5, cr15, {2}
    12e0:	6e676973 			; <UNDEFINED> instruction: 0x6e676973
    12e4:	69206465 	stmdbvs	r0!, {r0, r2, r5, r6, sl, sp, lr}
    12e8:	5f00746e 	svcpl	0x0000746e
    12ec:	5f51535f 	svcpl	0x0051535f
    12f0:	54494246 	strbpl	r4, [r9], #-582	; 0xfffffdba
    12f4:	33205f5f 			; <UNDEFINED> instruction: 0x33205f5f
    12f8:	43520031 	cmpmi	r2, #49	; 0x31
    12fc:	32495f43 	subcc	r5, r9, #268	; 0x10c
    1300:	435f3243 	cmpmi	pc, #805306372	; 0x30000004
    1304:	455f4b4c 	ldrbmi	r4, [pc, #-2892]	; 7c0 <_Min_Stack_Size+0x3c0>
    1308:	2029284e 	eorcs	r2, r9, lr, asr #16
    130c:	43435228 	movtmi	r5, #12840	; 0x3228
    1310:	50413e2d 	subpl	r3, r1, sp, lsr #28
    1314:	4e453142 	dvfmism	f3, f5, f2
    1318:	3d7c2052 	ldclcc	0, cr2, [ip, #-328]!	; 0xfffffeb8
    131c:	3c3c3120 	ldfccs	f3, [ip], #-128	; 0xffffff80
    1320:	00293232 	eoreq	r3, r9, r2, lsr r2
    1324:	494c455f 	stmdbmi	ip, {r0, r1, r2, r3, r4, r6, r8, sl, lr}^
    1328:	4c424144 	stfmie	f4, [r2], {68}	; 0x44
    132c:	4e495f45 	cdpmi	15, 4, cr5, cr9, cr5, {2}
    1330:	454e494c 	strbmi	r4, [lr, #-2380]	; 0xfffff6b4
    1334:	61747320 	cmnvs	r4, r0, lsr #6
    1338:	20636974 	rsbcs	r6, r3, r4, ror r9
    133c:	6e695f5f 	mcrvs	15, 3, r5, cr9, cr15, {2}
    1340:	656e696c 	strbvs	r6, [lr, #-2412]!	; 0xfffff694
    1344:	49005f5f 	stmdbmi	r0, {r0, r1, r2, r3, r4, r6, r8, r9, sl, fp, ip, lr}
    1348:	435f4332 	cmpmi	pc, #-939524096	; 0xc8000000
    134c:	505f3152 	subspl	r3, pc, r2, asr r1	; <UNPREDICTABLE>
    1350:	49204345 	stmdbmi	r0!, {r0, r2, r6, r8, r9, lr}
    1354:	435f4332 	cmpmi	pc, #-939524096	; 0xc8000000
    1358:	505f3152 	subspl	r3, pc, r2, asr r1	; <UNPREDICTABLE>
    135c:	4d5f4345 	ldclmi	3, cr4, [pc, #-276]	; 1250 <_Min_Stack_Size+0xe50>
    1360:	5f006b73 	svcpl	0x00006b73
    1364:	544e4955 	strbpl	r4, [lr], #-2389	; 0xfffff6ab
    1368:	545f3631 	ldrbpl	r3, [pc], #-1585	; 1370 <_Min_Stack_Size+0xf70>
    136c:	4345445f 	movtmi	r4, #21599	; 0x545f
    1370:	4552414c 	ldrbmi	r4, [r2, #-332]	; 0xfffffeb4
    1374:	46002044 	strmi	r2, [r0], -r4, asr #32
    1378:	00525354 	subseq	r5, r2, r4, asr r3
    137c:	5f433249 	svcpl	0x00433249
    1380:	5f325243 	svcpl	0x00325243
    1384:	52455449 	subpl	r5, r5, #1224736768	; 0x49000000
    1388:	5f4e4552 	svcpl	0x004e4552
    138c:	20736f50 	rsbscs	r6, r3, r0, asr pc
    1390:	29553828 	ldmdbcs	r5, {r3, r5, fp, ip, sp}^
    1394:	555f5f00 	ldrbpl	r5, [pc, #-3840]	; 49c <_Min_Stack_Size+0x9c>
    1398:	465f5148 	ldrbmi	r5, [pc], -r8, asr #2
    139c:	5f544942 	svcpl	0x00544942
    13a0:	3631205f 			; <UNDEFINED> instruction: 0x3631205f
    13a4:	49504700 	ldmdbmi	r0, {r8, r9, sl, lr}^
    13a8:	49505f4f 	ldmdbmi	r0, {r0, r1, r2, r3, r6, r8, r9, sl, fp, ip, lr}^
    13ac:	20385f4e 	eorscs	r5, r8, lr, asr #30
    13b0:	69752828 	ldmdbvs	r5!, {r3, r5, fp, sp}^
    13b4:	3631746e 	ldrtcc	r7, [r1], -lr, ror #8
    13b8:	3029745f 	eorcc	r7, r9, pc, asr r4
    13bc:	30313078 	eorscc	r3, r1, r8, ror r0
    13c0:	49002930 	stmdbmi	r0, {r4, r5, r8, fp, sp}
    13c4:	4c5f544e 	cfldrdmi	mvd5, [pc], {78}	; 0x4e
    13c8:	54534145 	ldrbpl	r4, [r3], #-325	; 0xfffffebb
    13cc:	4d5f3436 	cfldrdmi	mvd3, [pc, #-216]	; 12fc <_Min_Stack_Size+0xefc>
    13d0:	28205841 	stmdacs	r0!, {r0, r6, fp, ip, lr}
    13d4:	4e495f5f 	mcrmi	15, 2, r5, cr9, cr15, {2}
    13d8:	454c5f54 	strbmi	r5, [ip, #-3924]	; 0xfffff0ac
    13dc:	36545341 	ldrbcc	r5, [r4], -r1, asr #6
    13e0:	414d5f34 	cmpmi	sp, r4, lsr pc
    13e4:	295f5f58 	ldmdbcs	pc, {r3, r4, r6, r8, r9, sl, fp, ip, lr}^	; <UNPREDICTABLE>
    13e8:	45525f00 	ldrbmi	r5, [r2, #-3840]	; 0xfffff100
    13ec:	5f544e45 	svcpl	0x00544e45
    13f0:	52454d45 	subpl	r4, r5, #4416	; 0x1140
    13f4:	434e4547 	movtmi	r4, #58695	; 0xe547
    13f8:	49535f59 	ldmdbmi	r3, {r0, r3, r4, r6, r8, r9, sl, fp, ip, lr}^
    13fc:	3220455a 	eorcc	r4, r0, #377487360	; 0x16800000
    1400:	58450035 	stmdapl	r5, {r0, r2, r4, r5}^
    1404:	50344954 	eorspl	r4, r4, r4, asr r9
    1408:	28203442 	stmdacs	r0!, {r1, r6, sl, ip, sp}
    140c:	49545845 	ldmdbmi	r4, {r0, r2, r6, fp, ip, lr}^
    1410:	4950475f 	ldmdbmi	r0, {r0, r1, r2, r3, r4, r6, r8, r9, sl, lr}^
    1414:	614d5f4f 	cmpvs	sp, pc, asr #30
    1418:	6e697070 	mcrvs	0, 3, r7, cr9, cr0, {3}
    141c:	29745f67 	ldmdbcs	r4!, {r0, r1, r2, r5, r6, r8, r9, sl, fp, ip, lr}^
    1420:	5458457b 	ldrbpl	r4, [r8], #-1403	; 0xfffffa85
    1424:	202c3449 	eorcs	r3, ip, r9, asr #8
    1428:	4f495047 	svcmi	0x00495047
    142c:	202c2042 	eorcs	r2, ip, r2, asr #32
    1430:	4f495047 	svcmi	0x00495047
    1434:	4e49505f 	mcrmi	0, 2, r5, cr9, cr15, {2}
    1438:	2c20345f 	cfstrscs	mvf3, [r0], #-380	; 0xfffffe84
    143c:	49545845 	ldmdbmi	r4, {r0, r2, r6, fp, ip, lr}^
    1440:	52495f34 	subpl	r5, r9, #52, 30	; 0xd0
    1444:	007d2051 	rsbseq	r2, sp, r1, asr r0
    1448:	54505f5f 	ldrbpl	r5, [r0], #-3935	; 0xfffff0a1
    144c:	46494452 			; <UNDEFINED> instruction: 0x46494452
    1450:	49575f46 	ldmdbmi	r7, {r1, r2, r6, r8, r9, sl, fp, ip, lr}^
    1454:	5f485444 	svcpl	0x00485444
    1458:	3233205f 	eorscc	r2, r3, #95	; 0x5f
    145c:	775f5f00 	ldrbvc	r5, [pc, -r0, lsl #30]
    1460:	5f6b6165 	svcpl	0x006b6165
    1464:	65666572 	strbvs	r6, [r6, #-1394]!	; 0xfffffa8e
    1468:	636e6572 	cmnvs	lr, #478150656	; 0x1c800000
    146c:	79732865 	ldmdbvc	r3!, {r0, r2, r5, r6, fp, sp}^
    1470:	6c612c6d 	stclvs	12, cr2, [r1], #-436	; 0xfffffe4c
    1474:	29736169 	ldmdbcs	r3!, {r0, r3, r5, r6, r8, sp, lr}^
    1478:	615f5f20 	cmpvs	pc, r0, lsr #30
    147c:	5f5f6d73 	svcpl	0x005f6d73
    1480:	772e2228 	strvc	r2, [lr, -r8, lsr #4]!
    1484:	206b6165 	rsbcs	r6, fp, r5, ror #2
    1488:	61232022 			; <UNDEFINED> instruction: 0x61232022
    148c:	7361696c 	cmnvc	r1, #108, 18	; 0x1b0000
    1490:	5f203b29 	svcpl	0x00203b29
    1494:	6d73615f 	ldfvse	f6, [r3, #-380]!	; 0xfffffe84
    1498:	22285f5f 	eorcs	r5, r8, #380	; 0x17c
    149c:	7571652e 	ldrbvc	r6, [r1, #-1326]!	; 0xfffffad2
    14a0:	23202220 			; <UNDEFINED> instruction: 0x23202220
    14a4:	61696c61 	cmnvs	r9, r1, ror #24
    14a8:	2c222073 	stccs	0, cr2, [r2], #-460	; 0xfffffe34
    14ac:	23202220 			; <UNDEFINED> instruction: 0x23202220
    14b0:	296d7973 	stmdbcs	sp!, {r0, r1, r4, r5, r6, r8, fp, ip, sp, lr}^
    14b4:	43324900 	teqmi	r2, #0, 18
    14b8:	3152435f 	cmpcc	r2, pc, asr r3
    14bc:	4345505f 	movtmi	r5, #20575	; 0x505f
    14c0:	736f505f 	cmnvc	pc, #95	; 0x5f
    14c4:	32312820 	eorscc	r2, r1, #32, 16	; 0x200000
    14c8:	55002955 	strpl	r2, [r0, #-2389]	; 0xfffff6ab
    14cc:	54524153 	ldrbpl	r4, [r2], #-339	; 0xfffffead
    14d0:	41425f33 	cmpmi	r2, r3, lsr pc
    14d4:	28204553 	stmdacs	r0!, {r0, r1, r4, r6, r8, sl, lr}
    14d8:	69726550 	ldmdbvs	r2!, {r4, r6, r8, sl, sp, lr}^
    14dc:	72656870 	rsbvc	r6, r5, #112, 16	; 0x700000
    14e0:	5f736c61 	svcpl	0x00736c61
    14e4:	45534142 	ldrbmi	r4, [r3, #-322]	; 0xfffffebe
    14e8:	30202b20 	eorcc	r2, r0, r0, lsr #22
    14ec:	30303078 	eorscc	r3, r0, r8, ror r0
    14f0:	30383430 	eorscc	r3, r8, r0, lsr r4
    14f4:	294c5530 	stmdbcs	ip, {r4, r5, r8, sl, ip, lr}^
    14f8:	555f5f00 	ldrbpl	r5, [pc, #-3840]	; 600 <_Min_Stack_Size+0x200>
    14fc:	5f544e49 	svcpl	0x00544e49
    1500:	54534146 	ldrbpl	r4, [r3], #-326	; 0xfffffeba
    1504:	414d5f38 	cmpmi	sp, r8, lsr pc
    1508:	205f5f58 	subscs	r5, pc, r8, asr pc	; <UNPREDICTABLE>
    150c:	66667830 			; <UNDEFINED> instruction: 0x66667830
    1510:	66666666 	strbtvs	r6, [r6], -r6, ror #12
    1514:	00556666 	subseq	r6, r5, r6, ror #12
    1518:	33544e49 	cmpcc	r4, #1168	; 0x490
    151c:	494d5f32 	stmdbmi	sp, {r1, r4, r5, r8, r9, sl, fp, ip, lr}^
    1520:	2d28204e 	stccs	0, cr2, [r8, #-312]!	; 0xfffffec8
    1524:	4e495f5f 	mcrmi	15, 2, r5, cr9, cr15, {2}
    1528:	5f323354 	svcpl	0x00323354
    152c:	5f58414d 	svcpl	0x0058414d
    1530:	202d205f 	eorcs	r2, sp, pc, asr r0
    1534:	5f002931 	svcpl	0x00002931
    1538:	7361685f 	cmnvc	r1, #6225920	; 0x5f0000
    153c:	7478655f 	ldrbtvc	r6, [r8], #-1375	; 0xfffffaa1
    1540:	69736e65 	ldmdbvs	r3!, {r0, r2, r5, r6, r9, sl, fp, sp, lr}^
    1544:	5f206e6f 	svcpl	0x00206e6f
    1548:	7361685f 	cmnvc	r1, #6225920	; 0x5f0000
    154c:	6165665f 	cmnvs	r5, pc, asr r6
    1550:	65727574 	ldrbvs	r7, [r2, #-1396]!	; 0xfffffa8c
    1554:	54584500 	ldrbpl	r4, [r8], #-1280	; 0xfffffb00
    1558:	50353149 	eorspl	r3, r5, r9, asr #2
    155c:	20353144 	eorscs	r3, r5, r4, asr #2
    1560:	54584528 	ldrbpl	r4, [r8], #-1320	; 0xfffffad8
    1564:	50475f49 	subpl	r5, r7, r9, asr #30
    1568:	4d5f4f49 	ldclmi	15, cr4, [pc, #-292]	; 144c <_Min_Stack_Size+0x104c>
    156c:	69707061 	ldmdbvs	r0!, {r0, r5, r6, ip, sp, lr}^
    1570:	745f676e 	ldrbvc	r6, [pc], #-1902	; 1578 <_Min_Stack_Size+0x1178>
    1574:	58457b29 	stmdapl	r5, {r0, r3, r5, r8, r9, fp, ip, sp, lr}^
    1578:	35314954 	ldrcc	r4, [r1, #-2388]!	; 0xfffff6ac
    157c:	47202c20 	strmi	r2, [r0, -r0, lsr #24]!
    1580:	444f4950 	strbmi	r4, [pc], #-2384	; 1588 <_Min_Stack_Size+0x1188>
    1584:	47202c20 	strmi	r2, [r0, -r0, lsr #24]!
    1588:	5f4f4950 	svcpl	0x004f4950
    158c:	5f4e4950 	svcpl	0x004e4950
    1590:	2c203531 	cfstr32cs	mvfx3, [r0], #-196	; 0xffffff3c
    1594:	54584520 	ldrbpl	r4, [r8], #-1312	; 0xfffffae0
    1598:	5f353149 	svcpl	0x00353149
    159c:	7d515249 	lfmvc	f5, 2, [r1, #-292]	; 0xfffffedc
    15a0:	4c5f5f00 	mrrcmi	15, 0, r5, pc, cr0	; <UNPREDICTABLE>
    15a4:	55434341 	strbpl	r4, [r3, #-833]	; 0xfffffcbf
    15a8:	42495f4d 	submi	r5, r9, #308	; 0x134
    15ac:	5f5f5449 	svcpl	0x005f5449
    15b0:	00323320 	eorseq	r3, r2, r0, lsr #6
    15b4:	69755f5f 	ldmdbvs	r5!, {r0, r1, r2, r3, r4, r6, r8, r9, sl, fp, ip, lr}^
    15b8:	5f38746e 	svcpl	0x0038746e
    15bc:	5f5f0074 	svcpl	0x005f0074
    15c0:	495f4148 	ldmdbmi	pc, {r3, r6, r8, lr}^	; <UNPREDICTABLE>
    15c4:	5f544942 	svcpl	0x00544942
    15c8:	0038205f 	eorseq	r2, r8, pc, asr r0
    15cc:	454e5f5f 	strbmi	r5, [lr, #-3935]	; 0xfffff0a1
    15d0:	42494c57 	submi	r4, r9, #22272	; 0x5700
    15d4:	5f5f485f 	svcpl	0x005f485f
    15d8:	5f003120 	svcpl	0x00003120
    15dc:	544e495f 	strbpl	r4, [lr], #-2399	; 0xfffff6a1
    15e0:	5341465f 	movtpl	r4, #5727	; 0x165f
    15e4:	5f363154 	svcpl	0x00363154
    15e8:	54444957 	strbpl	r4, [r4], #-2391	; 0xfffff6a9
    15ec:	205f5f48 	subscs	r5, pc, r8, asr #30
    15f0:	52003233 	andpl	r3, r0, #805306371	; 0x30000003
    15f4:	555f4343 	ldrbpl	r4, [pc, #-835]	; 12b9 <_Min_Stack_Size+0xeb9>
    15f8:	54524153 	ldrbpl	r4, [r2], #-339	; 0xfffffead
    15fc:	65525f32 	ldrbvs	r5, [r2, #-3890]	; 0xfffff0ce
    1600:	28746573 	ldmdacs	r4!, {r0, r1, r4, r5, r6, r8, sl, sp, lr}^
    1604:	20282029 	eorcs	r2, r8, r9, lsr #32
    1608:	2d434352 	stclcs	3, cr4, [r3, #-328]	; 0xfffffeb8
    160c:	4250413e 	subsmi	r4, r0, #-2147483633	; 0x8000000f
    1610:	54535231 	ldrbpl	r5, [r3], #-561	; 0xfffffdcf
    1614:	3d7c2052 	ldclcc	0, cr2, [ip, #-328]!	; 0xfffffeb8
    1618:	3c312820 	ldccc	8, cr2, [r1], #-128	; 0xffffff80
    161c:	2937313c 	ldmdbcs	r7!, {r2, r3, r4, r5, r8, ip, sp}
    1620:	5f002920 	svcpl	0x00002920
    1624:	4e454552 	mcrmi	5, 2, r4, cr5, cr2, {2}
    1628:	424d5f54 	submi	r5, sp, #84, 30	; 0x150
    162c:	574f5452 	smlsldpl	r5, pc, r2, r4	; <UNPREDICTABLE>
    1630:	54535f43 	ldrbpl	r5, [r3], #-3907	; 0xfffff0bd
    1634:	28455441 	stmdacs	r5, {r0, r6, sl, ip, lr}^
    1638:	29727470 	ldmdbcs	r2!, {r4, r5, r6, sl, ip, sp, lr}^
    163c:	70282820 	eorvc	r2, r8, r0, lsr #16
    1640:	2d297274 	sfmcs	f7, 4, [r9, #-464]!	; 0xfffffe30
    1644:	696d5f3e 	stmdbvs	sp!, {r1, r2, r3, r4, r5, r8, r9, sl, fp, ip, lr}^
    1648:	3e2d6373 	mcrcc	3, 1, r6, cr13, cr3, {3}
    164c:	72626d5f 	rsbvc	r6, r2, #6080	; 0x17c0
    1650:	63776f74 	cmnvs	r7, #116, 30	; 0x1d0
    1654:	6174735f 	cmnvs	r4, pc, asr r3
    1658:	00296574 	eoreq	r6, r9, r4, ror r5
    165c:	454c5f5f 	strbmi	r5, [ip, #-3935]	; 0xfffff0a1
    1660:	33545341 	cmpcc	r4, #67108865	; 0x4000001
    1664:	6c222032 	stcvs	0, cr2, [r2], #-200	; 0xffffff38
    1668:	5f5f0022 	svcpl	0x005f0022
    166c:	52464c4c 	subpl	r4, r6, #76, 24	; 0x4c00
    1670:	5f544341 	svcpl	0x00544341
    1674:	5f4e494d 	svcpl	0x004e494d
    1678:	2d28205f 	stccs	0, cr2, [r8, #-380]!	; 0xfffffe84
    167c:	4c352e30 	ldcmi	14, cr2, [r5], #-192	; 0xffffff40
    1680:	302d524c 	eorcc	r5, sp, ip, asr #4
    1684:	4c4c352e 	cfstr64mi	mvdx3, [ip], {46}	; 0x2e
    1688:	5f002952 	svcpl	0x00002952
    168c:	544e495f 	strbpl	r4, [lr], #-2399	; 0xfffff6a1
    1690:	5f525450 	svcpl	0x00525450
    1694:	5f58414d 	svcpl	0x0058414d
    1698:	7830205f 	ldmdavc	r0!, {r0, r1, r2, r3, r4, r6, sp}
    169c:	66666637 			; <UNDEFINED> instruction: 0x66666637
    16a0:	66666666 	strbtvs	r6, [r6], -r6, ror #12
    16a4:	525f5f00 	subspl	r5, pc, #0, 30
    16a8:	5f444e41 	svcpl	0x00444e41
    16ac:	2058414d 	subscs	r4, r8, sp, asr #2
    16b0:	66377830 			; <UNDEFINED> instruction: 0x66377830
    16b4:	66666666 	strbtvs	r6, [r6], -r6, ror #12
    16b8:	49006666 	stmdbmi	r0, {r1, r2, r5, r6, r9, sl, sp, lr}
    16bc:	435f4332 	cmpmi	pc, #-939524096	; 0xc8000000
    16c0:	495f3252 	ldmdbmi	pc, {r1, r4, r6, r9, ip, sp}^	; <UNPREDICTABLE>
    16c4:	52524554 	subspl	r4, r2, #84, 10	; 0x15000000
    16c8:	49204e45 	stmdbmi	r0!, {r0, r2, r6, r9, sl, fp, lr}
    16cc:	435f4332 	cmpmi	pc, #-939524096	; 0xc8000000
    16d0:	495f3252 	ldmdbmi	pc, {r1, r4, r6, r9, ip, sp}^	; <UNPREDICTABLE>
    16d4:	52524554 	subspl	r4, r2, #84, 10	; 0x15000000
    16d8:	4d5f4e45 	ldclmi	14, cr4, [pc, #-276]	; 15cc <_Min_Stack_Size+0x11cc>
    16dc:	5f006b73 	svcpl	0x00006b73
    16e0:	4e49555f 	mcrmi	5, 2, r5, cr9, cr15, {2}
    16e4:	41465f54 	cmpmi	r6, r4, asr pc
    16e8:	36315453 			; <UNDEFINED> instruction: 0x36315453
    16ec:	58414d5f 	stmdapl	r1, {r0, r1, r2, r3, r4, r6, r8, sl, fp, lr}^
    16f0:	30205f5f 	eorcc	r5, r0, pc, asr pc
    16f4:	66666678 			; <UNDEFINED> instruction: 0x66666678
    16f8:	66666666 	strbtvs	r6, [r6], -r6, ror #12
    16fc:	49005566 	stmdbmi	r0, {r1, r2, r5, r6, r8, sl, ip, lr}
    1700:	4c5f544e 	cfldrdmi	mvd5, [pc], {78}	; 0x4e
    1704:	54534145 	ldrbpl	r4, [r3], #-325	; 0xfffffebb
    1708:	4d5f3436 	cfldrdmi	mvd3, [pc, #-216]	; 1638 <_Min_Stack_Size+0x1238>
    170c:	28204e49 	stmdacs	r0!, {r0, r3, r6, r9, sl, fp, lr}
    1710:	495f5f2d 	ldmdbmi	pc, {r0, r2, r3, r5, r8, r9, sl, fp, ip, lr}^	; <UNPREDICTABLE>
    1714:	4c5f544e 	cfldrdmi	mvd5, [pc], {78}	; 0x4e
    1718:	54534145 	ldrbpl	r4, [r3], #-325	; 0xfffffebb
    171c:	4d5f3436 	cfldrdmi	mvd3, [pc, #-216]	; 164c <_Min_Stack_Size+0x124c>
    1720:	5f5f5841 	svcpl	0x005f5841
    1724:	31202d20 			; <UNDEFINED> instruction: 0x31202d20
    1728:	5f5f0029 	svcpl	0x005f0029
    172c:	43554e47 	cmpmi	r5, #1136	; 0x470
    1730:	454b494c 	strbmi	r4, [fp, #-2380]	; 0xfffff6b4
    1734:	4955425f 	ldmdbmi	r5, {r0, r1, r2, r3, r4, r6, r9, lr}^
    1738:	4e49544c 	cdpmi	4, 4, cr5, cr9, cr12, {2}
    173c:	4e4f435f 	mcrmi	3, 2, r4, cr15, cr15, {2}
    1740:	4e415453 	mcrmi	4, 2, r5, cr1, cr3, {2}
    1744:	20505f54 	subscs	r5, r0, r4, asr pc
    1748:	525f0031 	subspl	r0, pc, #49	; 0x31
    174c:	544e4545 	strbpl	r4, [lr], #-1349	; 0xfffffabb
    1750:	4548435f 	strbmi	r4, [r8, #-863]	; 0xfffffca1
    1754:	76284b43 	strtvc	r4, [r8], -r3, asr #22
    1758:	772c7261 	strvc	r7, [ip, -r1, ror #4]!
    175c:	2c746168 	ldfcse	f6, [r4], #-416	; 0xfffffe60
    1760:	65707974 	ldrbvs	r7, [r0, #-2420]!	; 0xfffff68c
    1764:	7a69732c 	bvc	1a5e41c <_Min_Stack_Size+0x1a5e01c>
    1768:	6e692c65 	cdpvs	12, 6, cr2, cr9, cr5, {3}
    176c:	20297469 	eorcs	r7, r9, r9, ror #8
    1770:	7b206f64 	blvc	81d508 <_Min_Stack_Size+0x81d108>
    1774:	72747320 	rsbsvc	r7, r4, #32, 6	; 0x80000000
    1778:	20746375 	rsbscs	r6, r4, r5, ror r3
    177c:	6565725f 	strbvs	r7, [r5, #-607]!	; 0xfffffda1
    1780:	2a20746e 	bcs	81e940 <_Min_Stack_Size+0x81e540>
    1784:	3d20725f 	sfmcc	f7, 4, [r0, #-380]!	; 0xfffffe84
    1788:	61762820 	cmnvs	r6, r0, lsr #16
    178c:	203b2972 	eorscs	r2, fp, r2, ror r9
    1790:	28206669 	stmdacs	r0!, {r0, r3, r5, r6, r9, sl, sp, lr}
    1794:	3e2d725f 	mcrcc	2, 1, r7, cr13, cr15, {2}
    1798:	74616877 	strbtvc	r6, [r1], #-2167	; 0xfffff789
    179c:	203d3d20 	eorscs	r3, sp, r0, lsr #26
    17a0:	4c4c554e 	cfstr64mi	mvdx5, [ip], {78}	; 0x4e
    17a4:	207b2029 	rsbscs	r2, fp, r9, lsr #32
    17a8:	3e2d725f 	mcrcc	2, 1, r7, cr13, cr15, {2}
    17ac:	74616877 	strbtvc	r6, [r1], #-2167	; 0xfffff789
    17b0:	28203d20 	stmdacs	r0!, {r5, r8, sl, fp, ip, sp}
    17b4:	65707974 	ldrbvs	r7, [r0, #-2420]!	; 0xfffff68c
    17b8:	6c616d29 	stclvs	13, cr6, [r1], #-164	; 0xffffff5c
    17bc:	28636f6c 	stmdacs	r3!, {r2, r3, r5, r6, r8, r9, sl, fp, sp, lr}^
    17c0:	657a6973 	ldrbvs	r6, [sl, #-2419]!	; 0xfffff68d
    17c4:	5f203b29 	svcpl	0x00203b29
    17c8:	6565725f 	strbvs	r7, [r5, #-607]!	; 0xfffffda1
    17cc:	615f746e 	cmpvs	pc, lr, ror #8
    17d0:	72657373 	rsbvc	r7, r5, #-872415231	; 0xcc000001
    17d4:	725f2874 	subsvc	r2, pc, #116, 16	; 0x740000
    17d8:	68773e2d 	ldmdavs	r7!, {r0, r2, r3, r5, r9, sl, fp, ip, sp}^
    17dc:	3b297461 	blcc	a5e968 <_Min_Stack_Size+0xa5e568>
    17e0:	696e6920 	stmdbvs	lr!, {r5, r8, fp, sp, lr}^
    17e4:	7d203b74 	vstmdbvc	r0!, {d3-<overflow reg d60>}
    17e8:	77207d20 	strvc	r7, [r0, -r0, lsr #26]!
    17ec:	656c6968 	strbvs	r6, [ip, #-2408]!	; 0xfffff698
    17f0:	29302820 	ldmdbcs	r0!, {r5, fp, sp}
    17f4:	6f4e5f00 	svcvs	0x004e5f00
    17f8:	6c756e6e 	ldclvs	14, cr6, [r5], #-440	; 0xfffffe48
    17fc:	4500206c 	strmi	r2, [r0, #-108]	; 0xffffff94
    1800:	5f495458 	svcpl	0x00495458
    1804:	5f515249 	svcpl	0x00515249
    1808:	61736944 	cmnvs	r3, r4, asr #18
    180c:	20656c62 	rsbcs	r6, r5, r2, ror #24
    1810:	5f5f0030 	svcpl	0x005f0030
    1814:	43554e47 	cmpmi	r5, #1136	; 0x470
    1818:	4552505f 	ldrbmi	r5, [r2, #-95]	; 0xffffffa1
    181c:	28514552 	ldmdacs	r1, {r1, r4, r6, r8, sl, lr}^
    1820:	2c6a616d 	stfcse	f6, [sl], #-436	; 0xfffffe4c
    1824:	296e696d 	stmdbcs	lr!, {r0, r2, r3, r5, r6, r8, fp, sp, lr}^
    1828:	5f282820 	svcpl	0x00282820
    182c:	554e475f 	strbpl	r4, [lr, #-1887]	; 0xfffff8a1
    1830:	205f5f43 	subscs	r5, pc, r3, asr #30
    1834:	31203c3c 			; <UNDEFINED> instruction: 0x31203c3c
    1838:	2b202936 	blcs	80bd18 <_Min_Stack_Size+0x80b918>
    183c:	475f5f20 	ldrbmi	r5, [pc, -r0, lsr #30]
    1840:	5f43554e 	svcpl	0x0043554e
    1844:	4f4e494d 	svcmi	0x004e494d
    1848:	205f5f52 	subscs	r5, pc, r2, asr pc	; <UNPREDICTABLE>
    184c:	28203d3e 	stmdacs	r0!, {r1, r2, r3, r4, r5, r8, sl, fp, ip, sp}
    1850:	6a616d28 	bvs	185ccf8 <_Min_Stack_Size+0x185c8f8>
    1854:	3c3c2029 	ldccc	0, cr2, [ip], #-164	; 0xffffff5c
    1858:	29363120 	ldmdbcs	r6!, {r5, r8, ip, sp}
    185c:	28202b20 	stmdacs	r0!, {r5, r8, r9, fp, sp}
    1860:	296e696d 	stmdbcs	lr!, {r0, r2, r3, r5, r6, r8, fp, sp, lr}^
    1864:	5f5f0029 	svcpl	0x005f0029
    1868:	41524655 	cmpmi	r2, r5, asr r6
    186c:	4d5f5443 	cfldrdmi	mvd5, [pc, #-268]	; 1768 <_Min_Stack_Size+0x1368>
    1870:	5f5f4e49 	svcpl	0x005f4e49
    1874:	302e3020 	eorcc	r3, lr, r0, lsr #32
    1878:	5f005255 	svcpl	0x00005255
    187c:	42444c5f 	submi	r4, r4, #24320	; 0x5f00
    1880:	41485f4c 	cmpmi	r8, ip, asr #30
    1884:	55515f53 	ldrbpl	r5, [r1, #-3923]	; 0xfffff0ad
    1888:	5f544549 	svcpl	0x00544549
    188c:	5f4e414e 	svcpl	0x004e414e
    1890:	0031205f 	eorseq	r2, r1, pc, asr r0
    1894:	49545845 	ldmdbmi	r4, {r0, r2, r6, fp, ip, lr}^
    1898:	41503031 	cmpmi	r0, r1, lsr r0
    189c:	28203031 	stmdacs	r0!, {r0, r4, r5, ip, sp}
    18a0:	49545845 	ldmdbmi	r4, {r0, r2, r6, fp, ip, lr}^
    18a4:	4950475f 	ldmdbmi	r0, {r0, r1, r2, r3, r4, r6, r8, r9, sl, lr}^
    18a8:	614d5f4f 	cmpvs	sp, pc, asr #30
    18ac:	6e697070 	mcrvs	0, 3, r7, cr9, cr0, {3}
    18b0:	29745f67 	ldmdbcs	r4!, {r0, r1, r2, r5, r6, r8, r9, sl, fp, ip, lr}^
    18b4:	5458457b 	ldrbpl	r4, [r8], #-1403	; 0xfffffa85
    18b8:	2c303149 	ldfcss	f3, [r0], #-292	; 0xfffffedc
    18bc:	49504720 	ldmdbmi	r0, {r5, r8, r9, sl, lr}^
    18c0:	2c20414f 	stfcss	f4, [r0], #-316	; 0xfffffec4
    18c4:	49504720 	ldmdbmi	r0, {r5, r8, r9, sl, lr}^
    18c8:	49505f4f 	ldmdbmi	r0, {r0, r1, r2, r3, r6, r8, r9, sl, fp, ip, lr}^
    18cc:	30315f4e 	eorscc	r5, r1, lr, asr #30
    18d0:	45202c20 	strmi	r2, [r0, #-3104]!	; 0xfffff3e0
    18d4:	31495458 	cmpcc	r9, r8, asr r4
    18d8:	52495f30 	subpl	r5, r9, #48, 30	; 0xc0
    18dc:	007d2051 	rsbseq	r2, sp, r1, asr r0
    18e0:	544e495f 	strbpl	r4, [lr], #-2399	; 0xfffff6a1
    18e4:	5f525450 	svcpl	0x00525450
    18e8:	45445f54 	strbmi	r5, [r4, #-3924]	; 0xfffff0ac
    18ec:	52414c43 	subpl	r4, r1, #17152	; 0x4300
    18f0:	00204445 	eoreq	r4, r0, r5, asr #8
    18f4:	5f433249 	svcpl	0x00433249
    18f8:	5f315253 	svcpl	0x00315253
    18fc:	52524542 	subspl	r4, r2, #276824064	; 0x10800000
    1900:	736f505f 	cmnvc	pc, #95	; 0x5f
    1904:	55382820 	ldrpl	r2, [r8, #-2080]!	; 0xfffff7e0
    1908:	5f5f0029 	svcpl	0x005f0029
    190c:	33544c46 	cmpcc	r4, #17920	; 0x4600
    1910:	485f5832 	ldmdami	pc, {r1, r4, r5, fp, ip, lr}^	; <UNPREDICTABLE>
    1914:	495f5341 	ldmdbmi	pc, {r0, r6, r8, r9, ip, lr}^	; <UNPREDICTABLE>
    1918:	4e49464e 	cdpmi	6, 4, cr4, cr9, cr14, {2}
    191c:	5f595449 	svcpl	0x00595449
    1920:	0031205f 	eorseq	r2, r1, pc, asr r0
    1924:	5f544e49 	svcpl	0x00544e49
    1928:	54534146 	ldrbpl	r4, [r3], #-326	; 0xfffffeba
    192c:	4d5f3233 	lfmmi	f3, 2, [pc, #-204]	; 1868 <_Min_Stack_Size+0x1468>
    1930:	28204e49 	stmdacs	r0!, {r0, r3, r6, r9, sl, fp, lr}
    1934:	495f5f2d 	ldmdbmi	pc, {r0, r2, r3, r5, r8, r9, sl, fp, ip, lr}^	; <UNPREDICTABLE>
    1938:	465f544e 	ldrbmi	r5, [pc], -lr, asr #8
    193c:	33545341 	cmpcc	r4, #67108865	; 0x4000001
    1940:	414d5f32 	cmpmi	sp, r2, lsr pc
    1944:	205f5f58 	subscs	r5, pc, r8, asr pc	; <UNPREDICTABLE>
    1948:	2931202d 	ldmdbcs	r1!, {r0, r2, r3, r5, sp}
    194c:	59535f00 	ldmdbpl	r3, {r8, r9, sl, fp, ip, lr}^
    1950:	49535f53 	ldmdbmi	r3, {r0, r1, r4, r6, r8, r9, sl, fp, ip, lr}^
    1954:	545f455a 	ldrbpl	r4, [pc], #-1370	; 195c <_Min_Stack_Size+0x155c>
    1958:	0020485f 	eoreq	r4, r0, pc, asr r8
    195c:	5f433249 	svcpl	0x00433249
    1960:	5f315243 	svcpl	0x00315243
    1964:	43474e45 	movtmi	r4, #32325	; 0x7e45
    1968:	43324920 	teqmi	r2, #32, 18	; 0x80000
    196c:	3152435f 	cmpcc	r2, pc, asr r3
    1970:	474e455f 	smlsldmi	r4, lr, pc, r5	; <UNPREDICTABLE>
    1974:	734d5f43 	movtvc	r5, #57155	; 0xdf43
    1978:	3249006b 	subcc	r0, r9, #107	; 0x6b
    197c:	52435f43 	subpl	r5, r3, #268	; 0x10c
    1980:	57535f31 	smmlarpl	r3, r1, pc, r5	; <UNPREDICTABLE>
    1984:	20545352 	subscs	r5, r4, r2, asr r3
    1988:	5f433249 	svcpl	0x00433249
    198c:	5f315243 	svcpl	0x00315243
    1990:	53525753 	cmppl	r2, #21757952	; 0x14c0000
    1994:	734d5f54 	movtvc	r5, #57172	; 0xdf54
    1998:	4e5f006b 	cdpmi	0, 5, cr0, cr15, cr11, {3}
    199c:	5f4f4e41 	svcpl	0x004f4e41
    19a0:	4c4c414d 	stfmie	f4, [ip], {77}	; 0x4d
    19a4:	3120434f 			; <UNDEFINED> instruction: 0x3120434f
    19a8:	43324900 	teqmi	r2, #0, 18
    19ac:	3152435f 	cmpcc	r2, pc, asr r3
    19b0:	424d535f 	submi	r5, sp, #2080374785	; 0x7c000001
    19b4:	49205355 	stmdbmi	r0!, {r0, r2, r4, r6, r8, r9, ip, lr}
    19b8:	435f4332 	cmpmi	pc, #-939524096	; 0xc8000000
    19bc:	535f3152 	cmppl	pc, #-2147483628	; 0x80000014
    19c0:	5355424d 	cmppl	r5, #-805306364	; 0xd0000004
    19c4:	6b734d5f 	blvs	1cd4f48 <_Min_Stack_Size+0x1cd4b48>
    19c8:	42454400 	submi	r4, r5, #0, 8
    19cc:	31204755 			; <UNDEFINED> instruction: 0x31204755
    19d0:	43324900 	teqmi	r2, #0, 18
    19d4:	3252435f 	subscc	r4, r2, #2080374785	; 0x7c000001
    19d8:	4254495f 	subsmi	r4, r4, #1556480	; 0x17c000
    19dc:	4e454655 	mcrmi	6, 2, r4, cr5, cr5, {2}
    19e0:	43324920 	teqmi	r2, #32, 18	; 0x80000
    19e4:	3252435f 	subscc	r4, r2, #2080374785	; 0x7c000001
    19e8:	4254495f 	subsmi	r4, r4, #1556480	; 0x17c000
    19ec:	4e454655 	mcrmi	6, 2, r4, cr5, cr5, {2}
    19f0:	6b734d5f 	blvs	1cd4f74 <_Min_Stack_Size+0x1cd4b74>
    19f4:	6c5f5f00 	mrrcvs	15, 0, r5, pc, cr0	; <UNPREDICTABLE>
    19f8:	736b636f 	cmnvc	fp, #-1140850687	; 0xbc000001
    19fc:	6378655f 	cmnvs	r8, #398458880	; 0x17c00000
    1a00:	6973756c 	ldmdbvs	r3!, {r2, r3, r5, r6, r8, sl, ip, sp, lr}^
    1a04:	2e286576 	mcrcs	5, 1, r6, cr8, cr6, {3}
    1a08:	20292e2e 	eorcs	r2, r9, lr, lsr #28
    1a0c:	6f6c5f5f 	svcvs	0x006c5f5f
    1a10:	615f6b63 	cmpvs	pc, r3, ror #22
    1a14:	746f6e6e 	strbtvc	r6, [pc], #-3694	; 1a1c <_Min_Stack_Size+0x161c>
    1a18:	28657461 	stmdacs	r5!, {r0, r5, r6, sl, ip, sp, lr}^
    1a1c:	6c637865 	stclvs	8, cr7, [r3], #-404	; 0xfffffe6c
    1a20:	76697375 			; <UNDEFINED> instruction: 0x76697375
    1a24:	6f6c5f65 	svcvs	0x006c5f65
    1a28:	665f6b63 	ldrbvs	r6, [pc], -r3, ror #22
    1a2c:	74636e75 	strbtvc	r6, [r3], #-3701	; 0xfffff18b
    1a30:	286e6f69 	stmdacs	lr!, {r0, r3, r5, r6, r8, r9, sl, fp, sp, lr}^
    1a34:	41565f5f 	cmpmi	r6, pc, asr pc
    1a38:	4752415f 			; <UNDEFINED> instruction: 0x4752415f
    1a3c:	295f5f53 	ldmdbcs	pc, {r0, r1, r4, r6, r8, r9, sl, fp, ip, lr}^	; <UNPREDICTABLE>
    1a40:	5f5f0029 	svcpl	0x005f0029
    1a44:	55434341 	strbpl	r4, [r3, #-833]	; 0xfffffcbf
    1a48:	42465f4d 	submi	r5, r6, #308	; 0x134
    1a4c:	5f5f5449 	svcpl	0x005f5449
    1a50:	00353120 	eorseq	r3, r5, r0, lsr #2
    1a54:	6f6c5f5f 	svcvs	0x006c5f5f
    1a58:	725f6b63 	subsvc	r6, pc, #101376	; 0x18c00
    1a5c:	61656c65 	cmnvs	r5, r5, ror #24
    1a60:	6c286573 	cfstr32vs	mvfx6, [r8], #-460	; 0xfffffe34
    1a64:	296b636f 	stmdbcs	fp!, {r0, r1, r2, r3, r5, r6, r8, r9, sp, lr}^
    1a68:	725f5f20 	subsvc	r5, pc, #32, 30	; 0x80
    1a6c:	72617465 	rsbvc	r7, r1, #1694498816	; 0x65000000
    1a70:	5f746567 	svcpl	0x00746567
    1a74:	6b636f6c 	blvs	18dd82c <_Min_Stack_Size+0x18dd42c>
    1a78:	6c65725f 	sfmvs	f7, 2, [r5], #-380	; 0xfffffe84
    1a7c:	65736165 	ldrbvs	r6, [r3, #-357]!	; 0xfffffe9b
    1a80:	636f6c28 	cmnvs	pc, #40, 24	; 0x2800
    1a84:	5f00296b 	svcpl	0x0000296b
    1a88:	4341555f 	movtmi	r5, #5471	; 0x155f
    1a8c:	5f4d5543 	svcpl	0x004d5543
    1a90:	54494249 	strbpl	r4, [r9], #-585	; 0xfffffdb7
    1a94:	31205f5f 			; <UNDEFINED> instruction: 0x31205f5f
    1a98:	5f5f0036 	svcpl	0x005f0036
    1a9c:	6b636f6c 	blvs	18dd854 <_Min_Stack_Size+0x18dd454>
    1aa0:	696e695f 	stmdbvs	lr!, {r0, r1, r2, r3, r4, r6, r8, fp, sp, lr}^
    1aa4:	6f6c2874 	svcvs	0x006c2874
    1aa8:	20296b63 	eorcs	r6, r9, r3, ror #22
    1aac:	65725f5f 	ldrbvs	r5, [r2, #-3935]!	; 0xfffff0a1
    1ab0:	67726174 			; <UNDEFINED> instruction: 0x67726174
    1ab4:	6c5f7465 	cfldrdvs	mvd7, [pc], {101}	; 0x65
    1ab8:	5f6b636f 	svcpl	0x006b636f
    1abc:	74696e69 	strbtvc	r6, [r9], #-3689	; 0xfffff197
    1ac0:	6f6c2628 	svcvs	0x006c2628
    1ac4:	00296b63 	eoreq	r6, r9, r3, ror #22
    1ac8:	4e495f5f 	mcrmi	15, 2, r5, cr9, cr15, {2}
    1acc:	41465f54 	cmpmi	r6, r4, asr pc
    1ad0:	34365453 	ldrtcc	r5, [r6], #-1107	; 0xfffffbad
    1ad4:	58414d5f 	stmdapl	r1, {r0, r1, r2, r3, r4, r6, r8, sl, fp, lr}^
    1ad8:	30205f5f 	eorcc	r5, r0, pc, asr pc
    1adc:	66663778 			; <UNDEFINED> instruction: 0x66663778
    1ae0:	66666666 	strbtvs	r6, [r6], -r6, ror #12
    1ae4:	66666666 	strbtvs	r6, [r6], -r6, ror #12
    1ae8:	66666666 	strbtvs	r6, [r6], -r6, ror #12
    1aec:	004c4c66 	subeq	r4, ip, r6, ror #24
    1af0:	4c465f5f 	mcrrmi	15, 5, r5, r6, cr15
    1af4:	58323354 	ldmdapl	r2!, {r2, r4, r6, r8, r9, ip, sp}
    1af8:	4345445f 	movtmi	r4, #21599	; 0x545f
    1afc:	4c414d49 	mcrrmi	13, 4, r4, r1, cr9
    1b00:	4749445f 	smlsldmi	r4, r9, pc, r4	; <UNPREDICTABLE>
    1b04:	31205f5f 			; <UNDEFINED> instruction: 0x31205f5f
    1b08:	5f5f0037 	svcpl	0x005f0037
    1b0c:	5f4c4244 	svcpl	0x004c4244
    1b10:	5f4e494d 	svcpl	0x004e494d
    1b14:	2828205f 	stmdacs	r8!, {r0, r1, r2, r3, r4, r6, sp}
    1b18:	62756f64 	rsbsvs	r6, r5, #100, 30	; 0x190
    1b1c:	3229656c 	eorcc	r6, r9, #108, 10	; 0x1b000000
    1b20:	3532322e 	ldrcc	r3, [r2, #-558]!	; 0xfffffdd2
    1b24:	38333730 	ldmdacc	r3!, {r4, r5, r8, r9, sl, ip, sp}
    1b28:	30353835 	eorscc	r3, r5, r5, lsr r8
    1b2c:	31303237 	teqcc	r0, r7, lsr r2
    1b30:	332d6534 			; <UNDEFINED> instruction: 0x332d6534
    1b34:	294c3830 	stmdbcs	ip, {r4, r5, fp, ip, sp}^
    1b38:	554e4700 	strbpl	r4, [lr, #-1792]	; 0xfffff900
    1b3c:	31314320 	teqcc	r1, r0, lsr #6
    1b40:	2e313120 	rsfcssp	f3, f1, f0
    1b44:	20312e33 	eorscs	r2, r1, r3, lsr lr
    1b48:	32323032 	eorscc	r3, r2, #50	; 0x32
    1b4c:	32313730 	eorscc	r3, r1, #48, 14	; 0xc00000
    1b50:	636d2d20 	cmnvs	sp, #32, 26	; 0x800
    1b54:	633d7570 	teqvs	sp, #112, 10	; 0x1c000000
    1b58:	6574726f 	ldrbvs	r7, [r4, #-623]!	; 0xfffffd91
    1b5c:	336d2d78 	cmncc	sp, #120, 26	; 0x1e00
    1b60:	666d2d20 	strbtvs	r2, [sp], -r0, lsr #26
    1b64:	74616f6c 	strbtvc	r6, [r1], #-3948	; 0xfffff094
    1b68:	6962612d 	stmdbvs	r2!, {r0, r2, r3, r5, r8, sp, lr}^
    1b6c:	666f733d 			; <UNDEFINED> instruction: 0x666f733d
    1b70:	6d2d2074 	stcvs	0, cr2, [sp, #-464]!	; 0xfffffe30
    1b74:	6d756874 	ldclvs	8, cr6, [r5, #-464]!	; 0xfffffe30
    1b78:	6d2d2062 	stcvs	0, cr2, [sp, #-392]!	; 0xfffffe78
    1b7c:	68637261 	stmdavs	r3!, {r0, r5, r6, r9, ip, sp, lr}^
    1b80:	6d72613d 	ldfvse	f6, [r2, #-244]!	; 0xffffff0c
    1b84:	6d2d3776 	stcvs	7, cr3, [sp, #-472]!	; 0xfffffe28
    1b88:	64672d20 	strbtvs	r2, [r7], #-3360	; 0xfffff2e0
    1b8c:	66726177 			; <UNDEFINED> instruction: 0x66726177
    1b90:	2d20322d 	sfmcs	f3, 4, [r0, #-180]!	; 0xffffff4c
    1b94:	2d203367 	stccs	3, cr3, [r0, #-412]!	; 0xfffffe64
    1b98:	2d20304f 	stccs	0, cr3, [r0, #-316]!	; 0xfffffec4
    1b9c:	3d647473 	cfstrdcc	mvd7, [r4, #-460]!	; 0xfffffe34
    1ba0:	31756e67 	cmncc	r5, r7, ror #28
    1ba4:	662d2031 			; <UNDEFINED> instruction: 0x662d2031
    1ba8:	636e7566 	cmnvs	lr, #427819008	; 0x19800000
    1bac:	6e6f6974 			; <UNDEFINED> instruction: 0x6e6f6974
    1bb0:	6365732d 	cmnvs	r5, #-1275068416	; 0xb4000000
    1bb4:	6e6f6974 			; <UNDEFINED> instruction: 0x6e6f6974
    1bb8:	662d2073 			; <UNDEFINED> instruction: 0x662d2073
    1bbc:	61746164 	cmnvs	r4, r4, ror #2
    1bc0:	6365732d 	cmnvs	r5, #-1275068416	; 0xb4000000
    1bc4:	6e6f6974 			; <UNDEFINED> instruction: 0x6e6f6974
    1bc8:	662d2073 			; <UNDEFINED> instruction: 0x662d2073
    1bcc:	63617473 	cmnvs	r1, #1929379840	; 0x73000000
    1bd0:	73752d6b 	cmnvc	r5, #6848	; 0x1ac0
    1bd4:	20656761 	rsbcs	r6, r5, r1, ror #14
    1bd8:	7963662d 	stmdbvc	r3!, {r0, r2, r3, r5, r9, sl, sp, lr}^
    1bdc:	6d6f6c63 	stclvs	12, cr6, [pc, #-396]!	; 1a58 <_Min_Stack_Size+0x1658>
    1be0:	63697461 	cmnvs	r9, #1627389952	; 0x61000000
    1be4:	6d6f632d 	stclvs	3, cr6, [pc, #-180]!	; 1b38 <_Min_Stack_Size+0x1738>
    1be8:	78656c70 	stmdavc	r5!, {r4, r5, r6, sl, fp, sp, lr}^
    1bec:	00797469 	rsbseq	r7, r9, r9, ror #8
    1bf0:	61647055 	qdsubvs	r7, r5, r4
    1bf4:	455f6574 	ldrbmi	r6, [pc, #-1396]	; 1688 <_Min_Stack_Size+0x1288>
    1bf8:	00495458 	subeq	r5, r9, r8, asr r4
    1bfc:	4c465f5f 	mcrrmi	15, 5, r5, r6, cr15
    1c00:	58323354 	ldmdapl	r2!, {r2, r4, r6, r8, r9, ip, sp}
    1c04:	5350455f 	cmppl	r0, #398458880	; 0x17c00000
    1c08:	4e4f4c49 	cdpmi	12, 4, cr4, cr15, cr9, {2}
    1c0c:	32205f5f 	eorcc	r5, r0, #380	; 0x17c
    1c10:	3032322e 	eorscc	r3, r2, lr, lsr #4
    1c14:	30363434 	eorscc	r3, r6, r4, lsr r4
    1c18:	35323934 	ldrcc	r3, [r2, #-2356]!	; 0xfffff6cc
    1c1c:	33313330 	teqcc	r1, #48, 6	; 0xc0000000
    1c20:	312d6531 			; <UNDEFINED> instruction: 0x312d6531
    1c24:	32334636 	eorscc	r4, r3, #56623104	; 0x3600000
    1c28:	5f5f0078 	svcpl	0x005f0078
    1c2c:	746e695f 	strbtvc	r6, [lr], #-2399	; 0xfffff6a1
    1c30:	61656c5f 	cmnvs	r5, pc, asr ip
    1c34:	36317473 			; <UNDEFINED> instruction: 0x36317473
    1c38:	645f745f 	ldrbvs	r7, [pc], #-1119	; 1c40 <_Min_Stack_Size+0x1840>
    1c3c:	6e696665 	cdpvs	6, 6, cr6, cr9, cr5, {3}
    1c40:	31206465 			; <UNDEFINED> instruction: 0x31206465
    1c44:	415f5f00 	cmpmi	pc, r0, lsl #30
    1c48:	415f4d52 	cmpmi	pc, r2, asr sp	; <UNPREDICTABLE>
    1c4c:	5f484352 	svcpl	0x00484352
    1c50:	5f5f4d37 	svcpl	0x005f4d37
    1c54:	5f003120 	svcpl	0x00003120
    1c58:	6c6c754e 	cfstr64vs	mvdx7, [ip], #-312	; 0xfffffec8
    1c5c:	656c6261 	strbvs	r6, [ip, #-609]!	; 0xfffffd9f
    1c60:	5f5f0020 	svcpl	0x005f0020
    1c64:	5f544e49 	svcpl	0x00544e49
    1c68:	54534146 	ldrbpl	r4, [r3], #-326	; 0xfffffeba
    1c6c:	59545f38 	ldmdbpl	r4, {r3, r4, r5, r8, r9, sl, fp, ip, lr}^
    1c70:	5f5f4550 	svcpl	0x005f4550
    1c74:	746e6920 	strbtvc	r6, [lr], #-2336	; 0xfffff6e0
    1c78:	4f4e5f00 	svcmi	0x004e5f00
    1c7c:	494c4e49 	stmdbmi	ip, {r0, r3, r6, r9, sl, fp, lr}^
    1c80:	5f20454e 	svcpl	0x0020454e
    1c84:	7474615f 	ldrbtvc	r6, [r4], #-351	; 0xfffffea1
    1c88:	75626972 	strbvc	r6, [r2, #-2418]!	; 0xfffff68e
    1c8c:	5f5f6574 	svcpl	0x005f6574
    1c90:	5f282820 	svcpl	0x00282820
    1c94:	696f6e5f 	stmdbvs	pc!, {r0, r1, r2, r3, r4, r6, r9, sl, fp, sp, lr}^	; <UNPREDICTABLE>
    1c98:	6e696c6e 	cdpvs	12, 6, cr6, cr9, cr14, {3}
    1c9c:	295f5f65 	ldmdbcs	pc, {r0, r2, r5, r6, r8, r9, sl, fp, ip, lr}^	; <UNPREDICTABLE>
    1ca0:	5f5f0029 	svcpl	0x005f0029
    1ca4:	5f414455 	svcpl	0x00414455
    1ca8:	54494246 	strbpl	r4, [r9], #-582	; 0xfffffdba
    1cac:	33205f5f 			; <UNDEFINED> instruction: 0x33205f5f
    1cb0:	5f5f0032 	svcpl	0x005f0032
    1cb4:	657a6973 	ldrbvs	r6, [sl, #-2419]!	; 0xfffff68d
    1cb8:	5f5f745f 	svcpl	0x005f745f
    1cbc:	5f5f0020 	svcpl	0x005f0020
    1cc0:	43415355 	movtmi	r5, #4949	; 0x1355
    1cc4:	5f4d5543 	svcpl	0x004d5543
    1cc8:	49535045 	ldmdbmi	r3, {r0, r2, r6, ip, lr}^
    1ccc:	5f4e4f4c 	svcpl	0x004e4f4c
    1cd0:	7830205f 	ldmdavc	r0!, {r0, r1, r2, r3, r4, r6, sp}
    1cd4:	382d5031 	stmdacc	sp!, {r0, r4, r5, ip, lr}
    1cd8:	004b4855 	subeq	r4, fp, r5, asr r8
    1cdc:	49555f5f 	ldmdbmi	r5, {r0, r1, r2, r3, r4, r6, r8, r9, sl, fp, ip, lr}^
    1ce0:	414d544e 	cmpmi	sp, lr, asr #8
    1ce4:	28435f58 	stmdacs	r3, {r3, r4, r6, r8, r9, sl, fp, ip, lr}^
    1ce8:	63202963 			; <UNDEFINED> instruction: 0x63202963
    1cec:	20232320 	eorcs	r2, r3, r0, lsr #6
    1cf0:	004c4c55 	subeq	r4, ip, r5, asr ip
    1cf4:	5f433249 	svcpl	0x00433249
    1cf8:	5f325253 	svcpl	0x00325253
    1cfc:	5f4c534d 	svcpl	0x004c534d
    1d00:	20736f50 	rsbscs	r6, r3, r0, asr pc
    1d04:	29553028 	ldmdbcs	r5, {r3, r5, ip, sp}^
    1d08:	535f5f00 	cmppl	pc, #0, 30
    1d0c:	4f455a49 	svcmi	0x00455a49
    1d10:	4f505f46 	svcmi	0x00505f46
    1d14:	45544e49 	ldrbmi	r4, [r4, #-3657]	; 0xfffff1b7
    1d18:	205f5f52 	subscs	r5, pc, r2, asr pc	; <UNPREDICTABLE>
    1d1c:	5f5f0034 	svcpl	0x005f0034
    1d20:	5f544e49 	svcpl	0x00544e49
    1d24:	5341454c 	movtpl	r4, #5452	; 0x154c
    1d28:	545f3854 	ldrbpl	r3, [pc], #-2132	; 1d30 <_Min_Stack_Size+0x1930>
    1d2c:	5f455059 	svcpl	0x00455059
    1d30:	6973205f 	ldmdbvs	r3!, {r0, r1, r2, r3, r4, r6, sp}^
    1d34:	64656e67 	strbtvs	r6, [r5], #-3687	; 0xfffff199
    1d38:	61686320 	cmnvs	r8, r0, lsr #6
    1d3c:	5f5f0072 	svcpl	0x005f0072
    1d40:	5f434347 	svcpl	0x00434347
    1d44:	4d4f5441 	cfstrdmi	mvd5, [pc, #-260]	; 1c48 <_Min_Stack_Size+0x1848>
    1d48:	425f4349 	subsmi	r4, pc, #603979777	; 0x24000001
    1d4c:	5f4c4f4f 	svcpl	0x004c4f4f
    1d50:	4b434f4c 	blmi	10d5a88 <_Min_Stack_Size+0x10d5688>
    1d54:	4552465f 	ldrbmi	r4, [r2, #-1631]	; 0xfffff9a1
    1d58:	00322045 	eorseq	r2, r2, r5, asr #32
    1d5c:	49545845 	ldmdbmi	r4, {r0, r2, r6, fp, ip, lr}^
    1d60:	4950475f 	ldmdbmi	r0, {r0, r1, r2, r3, r4, r6, r8, r9, sl, lr}^
    1d64:	614d5f4f 	cmpvs	sp, pc, asr #30
    1d68:	6e697070 	mcrvs	0, 3, r7, cr9, cr0, {3}
    1d6c:	00745f67 	rsbseq	r5, r4, r7, ror #30
    1d70:	4349564e 	movtmi	r5, #38478	; 0x964e
    1d74:	5152495f 	cmppl	r2, pc, asr r9
    1d78:	535f3633 	cmppl	pc, #53477376	; 0x3300000
    1d7c:	5f324950 	svcpl	0x00324950
    1d80:	62616e45 	rsbvs	r6, r1, #1104	; 0x450
    1d84:	2820656c 	stmdacs	r0!, {r2, r3, r5, r6, r8, sl, sp, lr}
    1d88:	4349564e 	movtmi	r5, #38478	; 0x964e
    1d8c:	4553495f 	ldrbmi	r4, [r3, #-2399]	; 0xfffff6a1
    1d90:	7c203152 	stfvcs	f3, [r0], #-328	; 0xfffffeb8
    1d94:	3c31203d 	ldccc	0, cr2, [r1], #-244	; 0xffffff0c
    1d98:	5320283c 			; <UNDEFINED> instruction: 0x5320283c
    1d9c:	5f324950 	svcpl	0x00324950
    1da0:	20515249 	subscs	r5, r1, r9, asr #4
    1da4:	3233202d 	eorscc	r2, r3, #45	; 0x2d
    1da8:	00292920 	eoreq	r2, r9, r0, lsr #18
    1dac:	52415f5f 	subpl	r5, r1, #380	; 0x17c
    1db0:	454e5f4d 	strbmi	r5, [lr, #-3917]	; 0xfffff0b3
    1db4:	5f5f4e4f 	svcpl	0x005f4e4f
    1db8:	4e495500 	cdpmi	5, 4, cr5, cr9, cr0, {0}
    1dbc:	52545054 	subspl	r5, r4, #84	; 0x54
    1dc0:	58414d5f 	stmdapl	r1, {r0, r1, r2, r3, r4, r6, r8, sl, fp, lr}^
    1dc4:	5f5f2820 	svcpl	0x005f2820
    1dc8:	544e4955 	strbpl	r4, [lr], #-2389	; 0xfffff6ab
    1dcc:	5f525450 	svcpl	0x00525450
    1dd0:	5f58414d 	svcpl	0x0058414d
    1dd4:	5f00295f 	svcpl	0x0000295f
    1dd8:	544c465f 	strbpl	r4, [ip], #-1631	; 0xfffff9a1
    1ddc:	4d5f3233 	lfmmi	f3, 2, [pc, #-204]	; 1d18 <_Min_Stack_Size+0x1918>
    1de0:	455f5841 	ldrbmi	r5, [pc, #-2113]	; 15a7 <_Min_Stack_Size+0x11a7>
    1de4:	5f5f5058 	svcpl	0x005f5058
    1de8:	38323120 	ldmdacc	r2!, {r5, r8, ip, sp}
    1dec:	54584500 	ldrbpl	r4, [r8], #-1280	; 0xfffffb00
    1df0:	50343149 	eorspl	r3, r4, r9, asr #2
    1df4:	20343142 	eorscs	r3, r4, r2, asr #2
    1df8:	54584528 	ldrbpl	r4, [r8], #-1320	; 0xfffffad8
    1dfc:	50475f49 	subpl	r5, r7, r9, asr #30
    1e00:	4d5f4f49 	ldclmi	15, cr4, [pc, #-292]	; 1ce4 <_Min_Stack_Size+0x18e4>
    1e04:	69707061 	ldmdbvs	r0!, {r0, r5, r6, ip, sp, lr}^
    1e08:	745f676e 	ldrbvc	r6, [pc], #-1902	; 1e10 <_Min_Stack_Size+0x1a10>
    1e0c:	58457b29 	stmdapl	r5, {r0, r3, r5, r8, r9, fp, ip, sp, lr}^
    1e10:	34314954 	ldrtcc	r4, [r1], #-2388	; 0xfffff6ac
    1e14:	5047202c 	subpl	r2, r7, ip, lsr #32
    1e18:	20424f49 	subcs	r4, r2, r9, asr #30
    1e1c:	5047202c 	subpl	r2, r7, ip, lsr #32
    1e20:	505f4f49 	subspl	r4, pc, r9, asr #30
    1e24:	315f4e49 	cmpcc	pc, r9, asr #28
    1e28:	452c2034 	strmi	r2, [ip, #-52]!	; 0xffffffcc
    1e2c:	31495458 	cmpcc	r9, r8, asr r4
    1e30:	52495f34 	subpl	r5, r9, #52, 30	; 0xd0
    1e34:	007d2051 	rsbseq	r2, sp, r1, asr r0
    1e38:	48545f5f 	ldmdami	r4, {r0, r1, r2, r3, r4, r6, r8, r9, sl, fp, ip, lr}^
    1e3c:	5f424d55 	svcpl	0x00424d55
    1e40:	45544e49 	ldrbmi	r4, [r4, #-3657]	; 0xfffff1b7
    1e44:	524f5752 	subpl	r5, pc, #21495808	; 0x1480000
    1e48:	205f5f4b 	subscs	r5, pc, fp, asr #30
    1e4c:	5f5f0031 	svcpl	0x005f0031
    1e50:	464c4c55 			; <UNDEFINED> instruction: 0x464c4c55
    1e54:	54434152 	strbpl	r4, [r3], #-338	; 0xfffffeae
    1e58:	58414d5f 	stmdapl	r1, {r0, r1, r2, r3, r4, r6, r8, sl, fp, lr}^
    1e5c:	30205f5f 	eorcc	r5, r0, pc, asr pc
    1e60:	46464658 			; <UNDEFINED> instruction: 0x46464658
    1e64:	46464646 	strbmi	r4, [r6], -r6, asr #12
    1e68:	46464646 	strbmi	r4, [r6], -r6, asr #12
    1e6c:	46464646 	strbmi	r4, [r6], -r6, asr #12
    1e70:	362d5046 	strtcc	r5, [sp], -r6, asr #32
    1e74:	4c4c5534 	cfstr64mi	mvdx5, [ip], {52}	; 0x34
    1e78:	32490052 	subcc	r0, r9, #82	; 0x52
    1e7c:	52535f43 	subspl	r5, r3, #268	; 0x10c
    1e80:	45475f32 	strbmi	r5, [r7, #-3890]	; 0xfffff0ce
    1e84:	4c41434e 	mcrrmi	3, 4, r4, r1, cr14
    1e88:	734d5f4c 	movtvc	r5, #57164	; 0xdf4c
    1e8c:	3028206b 	eorcc	r2, r8, fp, rrx
    1e90:	4c553178 	ldfmie	f3, [r5], {120}	; 0x78
    1e94:	203c3c20 	eorscs	r3, ip, r0, lsr #24
    1e98:	5f433249 	svcpl	0x00433249
    1e9c:	5f325253 	svcpl	0x00325253
    1ea0:	434e4547 	movtmi	r4, #58695	; 0xe547
    1ea4:	5f4c4c41 	svcpl	0x004c4c41
    1ea8:	29736f50 	ldmdbcs	r3!, {r4, r6, r8, r9, sl, fp, sp, lr}^
    1eac:	53545200 	cmppl	r4, #0, 4
    1eb0:	5f5f0052 	svcpl	0x005f0052
    1eb4:	43554e47 	cmpmi	r5, #1136	; 0x470
    1eb8:	4449575f 	strbmi	r5, [r9], #-1887	; 0xfffff8a1
    1ebc:	58455f45 	stmdapl	r5, {r0, r2, r6, r8, r9, sl, fp, ip, lr}^
    1ec0:	54554345 	ldrbpl	r4, [r5], #-837	; 0xfffffcbb
    1ec4:	5f4e4f49 	svcpl	0x004e4f49
    1ec8:	52414843 	subpl	r4, r1, #4390912	; 0x430000
    1ecc:	5f544553 	svcpl	0x00544553
    1ed0:	454d414e 	strbmi	r4, [sp, #-334]	; 0xfffffeb2
    1ed4:	54552220 	ldrbpl	r2, [r5], #-544	; 0xfffffde0
    1ed8:	32332d46 	eorscc	r2, r3, #4480	; 0x1180
    1edc:	0022454c 	eoreq	r4, r2, ip, asr #10
    1ee0:	4c465f5f 	mcrrmi	15, 5, r5, r6, cr15
    1ee4:	58323354 	ldmdapl	r2!, {r2, r4, r6, r8, r9, ip, sp}
    1ee8:	4e494d5f 	mcrmi	13, 2, r4, cr9, cr15, {2}
    1eec:	5f30315f 	svcpl	0x0030315f
    1ef0:	5f505845 	svcpl	0x00505845
    1ef4:	2d28205f 	stccs	0, cr2, [r8, #-380]!	; 0xfffffe84
    1ef8:	29373033 	ldmdbcs	r7!, {r0, r1, r4, r5, ip, sp}
    1efc:	49535f00 	ldmdbmi	r3, {r8, r9, sl, fp, ip, lr}^
    1f00:	545f455a 	ldrbpl	r4, [pc], #-1370	; 1f08 <_Min_Stack_Size+0x1b08>
    1f04:	4345445f 	movtmi	r4, #21599	; 0x545f
    1f08:	4552414c 	ldrbmi	r4, [r2, #-332]	; 0xfffffeb4
    1f0c:	45002044 	strmi	r2, [r0, #-68]	; 0xffffffbc
    1f10:	39495458 	stmdbcc	r9, {r3, r4, r6, sl, ip, lr}^
    1f14:	5f003920 	svcpl	0x00003920
    1f18:	4148435f 	cmpmi	r8, pc, asr r3
    1f1c:	5f323352 	svcpl	0x00323352
    1f20:	45505954 	ldrbmi	r5, [r0, #-2388]	; 0xfffff6ac
    1f24:	6c205f5f 	stcvs	15, cr5, [r0], #-380	; 0xfffffe84
    1f28:	20676e6f 	rsbcs	r6, r7, pc, ror #28
    1f2c:	69736e75 	ldmdbvs	r3!, {r0, r2, r4, r5, r6, r9, sl, fp, sp, lr}^
    1f30:	64656e67 	strbtvs	r6, [r5], #-3687	; 0xfffff199
    1f34:	746e6920 	strbtvc	r6, [lr], #-2336	; 0xfffff6e0
    1f38:	415f5f00 	cmpmi	pc, r0, lsl #30
    1f3c:	465f4d52 			; <UNDEFINED> instruction: 0x465f4d52
    1f40:	55544145 	ldrbpl	r4, [r4, #-325]	; 0xfffffebb
    1f44:	465f4552 			; <UNDEFINED> instruction: 0x465f4552
    1f48:	5f363150 	svcpl	0x00363150
    1f4c:	54434556 	strbpl	r4, [r3], #-1366	; 0xfffffaaa
    1f50:	415f524f 	cmpmi	pc, pc, asr #4
    1f54:	48544952 	ldmdami	r4, {r1, r4, r6, r8, fp, lr}^
    1f58:	4954454d 	ldmdbmi	r4, {r0, r2, r3, r6, r8, sl, lr}^
    1f5c:	32490043 	subcc	r0, r9, #67	; 0x43
    1f60:	52435f43 	subpl	r5, r3, #268	; 0x10c
    1f64:	54535f31 	ldrbpl	r5, [r3], #-3889	; 0xfffff0cf
    1f68:	4d5f504f 	ldclmi	0, cr5, [pc, #-316]	; 1e34 <_Min_Stack_Size+0x1a34>
    1f6c:	28206b73 	stmdacs	r0!, {r0, r1, r4, r5, r6, r8, r9, fp, sp, lr}
    1f70:	55317830 	ldrpl	r7, [r1, #-2096]!	; 0xfffff7d0
    1f74:	3c3c204c 	ldccc	0, cr2, [ip], #-304	; 0xfffffed0
    1f78:	43324920 	teqmi	r2, #32, 18	; 0x80000
    1f7c:	3152435f 	cmpcc	r2, pc, asr r3
    1f80:	4f54535f 	svcmi	0x0054535f
    1f84:	6f505f50 	svcvs	0x00505f50
    1f88:	5f002973 	svcpl	0x00002973
    1f8c:	49534f50 	ldmdbmi	r3, {r4, r6, r8, r9, sl, fp, lr}^
    1f90:	5f435f58 	svcpl	0x00435f58
    1f94:	52554f53 	subspl	r4, r5, #332	; 0x14c
    1f98:	32204543 	eorcc	r4, r0, #281018368	; 0x10c00000
    1f9c:	30383030 	eorscc	r3, r8, r0, lsr r0
    1fa0:	5f004c39 	svcpl	0x00004c39
    1fa4:	5f43435f 	svcpl	0x0043435f
    1fa8:	50505553 	subspl	r5, r0, r3, asr r5
    1fac:	5354524f 	cmppl	r4, #-268435452	; 0xf0000004
    1fb0:	4e59445f 	mrcmi	4, 2, r4, cr9, cr15, {2}
    1fb4:	43494d41 	movtmi	r4, #40257	; 0x9d41
    1fb8:	5252415f 	subspl	r4, r2, #-1073741801	; 0xc0000017
    1fbc:	495f5941 	ldmdbmi	pc, {r0, r6, r8, fp, ip, lr}^	; <UNPREDICTABLE>
    1fc0:	2054494e 	subscs	r4, r4, lr, asr #18
    1fc4:	5f5f0031 	svcpl	0x005f0031
    1fc8:	5f4c4244 	svcpl	0x004c4244
    1fcc:	495f5349 	ldmdbmi	pc, {r0, r3, r6, r8, r9, ip, lr}^	; <UNPREDICTABLE>
    1fd0:	365f4345 	ldrbcc	r4, [pc], -r5, asr #6
    1fd4:	39353530 	ldmdbcc	r5!, {r4, r5, r8, sl, ip, sp}
    1fd8:	32205f5f 	eorcc	r5, r0, #380	; 0x17c
    1fdc:	555f5f00 	ldrbpl	r5, [pc, #-3840]	; 10e4 <_Min_Stack_Size+0xce4>
    1fe0:	5f544e49 	svcpl	0x00544e49
    1fe4:	54534146 	ldrbpl	r4, [r3], #-326	; 0xfffffeba
    1fe8:	4d5f3233 	lfmmi	f3, 2, [pc, #-204]	; 1f24 <_Min_Stack_Size+0x1b24>
    1fec:	5f5f5841 	svcpl	0x005f5841
    1ff0:	66783020 	ldrbtvs	r3, [r8], -r0, lsr #32
    1ff4:	66666666 	strbtvs	r6, [r6], -r6, ror #12
    1ff8:	55666666 	strbpl	r6, [r6, #-1638]!	; 0xfffff99a
    1ffc:	465f5f00 	ldrbmi	r5, [pc], -r0, lsl #30
    2000:	4d5f544c 	cfldrdmi	mvd5, [pc, #-304]	; 1ed8 <_Min_Stack_Size+0x1ad8>
    2004:	455f5841 	ldrbmi	r5, [pc, #-2113]	; 17cb <_Min_Stack_Size+0x13cb>
    2008:	5f5f5058 	svcpl	0x005f5058
    200c:	38323120 	ldmdacc	r2!, {r5, r8, ip, sp}
    2010:	535f5f00 	cmppl	pc, #0, 30
    2014:	4f455a49 	svcmi	0x00455a49
    2018:	4f4c5f46 	svcmi	0x004c5f46
    201c:	5f5f474e 	svcpl	0x005f474e
    2020:	5f003420 	svcpl	0x00003420
    2024:	7028505f 	eorvc	r5, r8, pc, asr r0
    2028:	6f746f72 	svcvs	0x00746f72
    202c:	70202973 	eorvc	r2, r0, r3, ror r9
    2030:	6f746f72 	svcvs	0x00746f72
    2034:	564e0073 			; <UNDEFINED> instruction: 0x564e0073
    2038:	495f4349 	ldmdbmi	pc, {r0, r3, r6, r8, r9, lr}^	; <UNPREDICTABLE>
    203c:	31335152 	teqcc	r3, r2, asr r1
    2040:	4332495f 	teqmi	r2, #1556480	; 0x17c000
    2044:	56455f31 			; <UNDEFINED> instruction: 0x56455f31
    2048:	616e455f 	cmnvs	lr, pc, asr r5
    204c:	20656c62 	rsbcs	r6, r5, r2, ror #24
    2050:	49564e28 	ldmdbmi	r6, {r3, r5, r9, sl, fp, lr}^
    2054:	53495f43 	movtpl	r5, #40771	; 0x9f43
    2058:	20305245 	eorscs	r5, r0, r5, asr #4
    205c:	31203d7c 			; <UNDEFINED> instruction: 0x31203d7c
    2060:	20283c3c 	eorcs	r3, r8, ip, lsr ip
    2064:	31433249 	cmpcc	r3, r9, asr #4
    2068:	5f56455f 	svcpl	0x0056455f
    206c:	20515249 	subscs	r5, r1, r9, asr #4
    2070:	5f002929 	svcpl	0x00002929
    2074:	7274735f 	rsbsvc	r7, r4, #2080374785	; 0x7c000001
    2078:	6e6f6d66 	cdpvs	13, 6, cr6, cr15, cr6, {3}
    207c:	656b696c 	strbvs	r6, [fp, #-2412]!	; 0xfffff694
    2080:	746d6628 	strbtvc	r6, [sp], #-1576	; 0xfffff9d8
    2084:	2c677261 	sfmcs	f7, 2, [r7], #-388	; 0xfffffe7c
    2088:	73726966 	cmnvc	r2, #1671168	; 0x198000
    208c:	72617674 	rsbvc	r7, r1, #116, 12	; 0x7400000
    2090:	29677261 	stmdbcs	r7!, {r0, r5, r6, r9, ip, sp, lr}^
    2094:	615f5f20 	cmpvs	pc, r0, lsr #30
    2098:	69727474 	ldmdbvs	r2!, {r2, r4, r5, r6, sl, ip, sp, lr}^
    209c:	65747562 	ldrbvs	r7, [r4, #-1378]!	; 0xfffffa9e
    20a0:	28285f5f 	stmdacs	r8!, {r0, r1, r2, r3, r4, r6, r8, r9, sl, fp, ip, lr}
    20a4:	6f665f5f 	svcvs	0x00665f5f
    20a8:	74616d72 	strbtvc	r6, [r1], #-3442	; 0xfffff28e
    20ac:	28205f5f 	stmdacs	r0!, {r0, r1, r2, r3, r4, r6, r8, r9, sl, fp, ip, lr}
    20b0:	74735f5f 	ldrbtvc	r5, [r3], #-3935	; 0xfffff0a1
    20b4:	6f6d6672 	svcvs	0x006d6672
    20b8:	2c5f5f6e 	mrrccs	15, 6, r5, pc, cr14	; <UNPREDICTABLE>
    20bc:	746d6620 	strbtvc	r6, [sp], #-1568	; 0xfffff9e0
    20c0:	2c677261 	sfmcs	f7, 2, [r7], #-388	; 0xfffffe7c
    20c4:	72696620 	rsbvc	r6, r9, #32, 12	; 0x2000000
    20c8:	61767473 	cmnvs	r6, r3, ror r4
    20cc:	67726172 			; <UNDEFINED> instruction: 0x67726172
    20d0:	00292929 	eoreq	r2, r9, r9, lsr #18
    20d4:	4f495047 	svcmi	0x00495047
    20d8:	28282043 	stmdacs	r8!, {r0, r1, r6, sp}
    20dc:	4f495047 	svcmi	0x00495047
    20e0:	7079545f 	rsbsvc	r5, r9, pc, asr r4
    20e4:	66654465 	strbtvs	r4, [r5], -r5, ror #8
    20e8:	47292a20 	strmi	r2, [r9, -r0, lsr #20]!
    20ec:	434f4950 	movtmi	r4, #63824	; 0xf950
    20f0:	5341425f 	movtpl	r4, #4703	; 0x125f
    20f4:	5f002945 	svcpl	0x00002945
    20f8:	4e454552 	mcrmi	5, 2, r4, cr5, cr2, {2}
    20fc:	504d5f54 	subpl	r5, sp, r4, asr pc
    2100:	5345525f 	movtpl	r5, #21087	; 0x525f
    2104:	5f544c55 	svcpl	0x00544c55
    2108:	7470284b 	ldrbtvc	r2, [r0], #-2123	; 0xfffff7b5
    210c:	28202972 	stmdacs	r0!, {r1, r4, r5, r6, r8, fp, sp}
    2110:	72747028 	rsbsvc	r7, r4, #40	; 0x28
    2114:	5f3e2d29 	svcpl	0x003e2d29
    2118:	3e2d706d 	cdpcc	0, 2, cr7, cr13, cr13, {3}
    211c:	7365725f 	cmnvc	r5, #-268435451	; 0xf0000005
    2120:	5f746c75 	svcpl	0x00746c75
    2124:	5f00296b 	svcpl	0x0000296b
    2128:	5a49535f 	bpl	1256eac <_Min_Stack_Size+0x1256aac>
    212c:	5f464f45 	svcpl	0x00464f45
    2130:	42554f44 	subsmi	r4, r5, #68, 30	; 0x110
    2134:	5f5f454c 	svcpl	0x005f454c
    2138:	5f003820 	svcpl	0x00003820
    213c:	544e495f 	strbpl	r4, [lr], #-2399	; 0xfffff6a1
    2140:	41454c5f 	cmpmi	r5, pc, asr ip
    2144:	32335453 	eorscc	r5, r3, #1392508928	; 0x53000000
    2148:	4449575f 	strbmi	r5, [r9], #-1887	; 0xfffff8a1
    214c:	5f5f4854 	svcpl	0x005f4854
    2150:	00323320 	eorseq	r3, r2, r0, lsr #6
    2154:	4f4c435f 	svcmi	0x004c435f
    2158:	545f4b43 	ldrbpl	r4, [pc], #-2883	; 2160 <_Min_Stack_Size+0x1d60>
    215c:	6e75205f 	mrcvs	0, 3, r2, cr5, cr15, {2}
    2160:	6e676973 			; <UNDEFINED> instruction: 0x6e676973
    2164:	6c206465 	cfstrsvs	mvf6, [r0], #-404	; 0xfffffe6c
    2168:	00676e6f 	rsbeq	r6, r7, pc, ror #28
    216c:	4d49545f 	cfstrdmi	mvd5, [r9, #-380]	; 0xfffffe84
    2170:	5f545f45 	svcpl	0x00545f45
    2174:	695f5f20 	ldmdbvs	pc, {r5, r8, r9, sl, fp, ip, lr}^	; <UNPREDICTABLE>
    2178:	6c5f746e 	cfldrdvs	mvd7, [pc], {110}	; 0x6e
    217c:	74736165 	ldrbtvc	r6, [r3], #-357	; 0xfffffe9b
    2180:	745f3436 	ldrbvc	r3, [pc], #-1078	; 2188 <_Min_Stack_Size+0x1d88>
    2184:	59535f00 	ldmdbpl	r3, {r8, r9, sl, fp, ip, lr}^
    2188:	495f5f53 	ldmdbmi	pc, {r0, r1, r4, r6, r8, r9, sl, fp, ip, lr}^	; <UNPREDICTABLE>
    218c:	5553544e 	ldrbpl	r5, [r3, #-1102]	; 0xfffffbb2
    2190:	20485f50 	subcs	r5, r8, r0, asr pc
    2194:	465f5f00 	ldrbmi	r5, [pc], -r0, lsl #30
    2198:	31545341 	cmpcc	r4, r1, asr #6
    219c:	49002036 	stmdbmi	r0, {r1, r2, r4, r5, sp}
    21a0:	435f4332 	cmpmi	pc, #-939524096	; 0xc8000000
    21a4:	465f3252 			; <UNDEFINED> instruction: 0x465f3252
    21a8:	5f514552 	svcpl	0x00514552
    21ac:	20736f50 	rsbscs	r6, r3, r0, asr pc
    21b0:	29553028 	ldmdbcs	r5, {r3, r5, ip, sp}^
    21b4:	45525f00 	ldrbmi	r5, [r2, #-3840]	; 0xfffff100
    21b8:	5f544e45 	svcpl	0x00544e45
    21bc:	444e4152 	strbmi	r4, [lr], #-338	; 0xfffffeae
    21c0:	535f3834 	cmppl	pc, #52, 16	; 0x340000
    21c4:	28444545 	stmdacs	r4, {r0, r2, r6, r8, sl, lr}^
    21c8:	29727470 	ldmdbcs	r2!, {r4, r5, r6, sl, ip, sp, lr}^
    21cc:	70282820 	eorvc	r2, r8, r0, lsr #16
    21d0:	2d297274 	sfmcs	f7, 4, [r9, #-464]!	; 0xfffffe30
    21d4:	34725f3e 	ldrbtcc	r5, [r2], #-3902	; 0xfffff0c2
    21d8:	5f3e2d38 	svcpl	0x003e2d38
    21dc:	64656573 	strbtvs	r6, [r5], #-1395	; 0xfffffa8d
    21e0:	5f5f0029 	svcpl	0x005f0029
    21e4:	4752414c 	ldrbmi	r4, [r2, -ip, asr #2]
    21e8:	4c494645 	mcrrmi	6, 4, r4, r9, cr5
    21ec:	49565f45 	ldmdbmi	r6, {r0, r2, r6, r8, r9, sl, fp, ip, lr}^
    21f0:	4c424953 	mcrrmi	9, 5, r4, r2, cr3	; <UNPREDICTABLE>
    21f4:	00302045 	eorseq	r2, r0, r5, asr #32
    21f8:	5f433249 	svcpl	0x00433249
    21fc:	5f325243 	svcpl	0x00325243
    2200:	55425449 	strbpl	r5, [r2, #-1097]	; 0xfffffbb7
    2204:	5f4e4546 	svcpl	0x004e4546
    2208:	20736f50 	rsbscs	r6, r3, r0, asr pc
    220c:	55303128 	ldrpl	r3, [r0, #-296]!	; 0xfffffed8
    2210:	5f5f0029 	svcpl	0x005f0029
    2214:	5f746e69 	svcpl	0x00746e69
    2218:	74736166 	ldrbtvc	r6, [r3], #-358	; 0xfffffe9a
    221c:	5f745f38 	svcpl	0x00745f38
    2220:	69666564 	stmdbvs	r6!, {r2, r5, r6, r8, sl, sp, lr}^
    2224:	2064656e 	rsbcs	r6, r4, lr, ror #10
    2228:	5f5f0031 	svcpl	0x005f0031
    222c:	4c57454e 	cfldr64mi	mvdx4, [r7], {78}	; 0x4e
    2230:	5f5f4249 	svcpl	0x005f4249
    2234:	5f003420 	svcpl	0x00003420
    2238:	554e475f 	strbpl	r4, [lr, #-1887]	; 0xfffff8a1
    223c:	58455f43 	stmdapl	r5, {r0, r1, r6, r8, r9, sl, fp, ip, lr}^
    2240:	54554345 	ldrbpl	r4, [r5], #-837	; 0xfffffcbb
    2244:	5f4e4f49 	svcpl	0x004e4f49
    2248:	52414843 	subpl	r4, r1, #4390912	; 0x430000
    224c:	5f544553 	svcpl	0x00544553
    2250:	454d414e 	strbmi	r4, [sp, #-334]	; 0xfffffeb2
    2254:	54552220 	ldrbpl	r2, [r5], #-544	; 0xfffffde0
    2258:	22382d46 	eorscs	r2, r8, #4480	; 0x1180
    225c:	49584500 	ldmdbmi	r8, {r8, sl, lr}^
    2260:	55535f54 	ldrbpl	r5, [r3, #-3924]	; 0xfffff0ac
    2264:	53454343 	movtpl	r4, #21315	; 0x5343
    2268:	00302053 	eorseq	r2, r0, r3, asr r0
    226c:	49545845 	ldmdbmi	r4, {r0, r2, r6, fp, ip, lr}^
    2270:	52495f36 	subpl	r5, r9, #54, 30	; 0xd8
    2274:	33322051 	teqcc	r2, #81	; 0x51
    2278:	555f5f00 	ldrbpl	r5, [pc, #-3840]	; 1380 <_Min_Stack_Size+0xf80>
    227c:	465f4154 			; <UNDEFINED> instruction: 0x465f4154
    2280:	5f544942 	svcpl	0x00544942
    2284:	3436205f 	ldrtcc	r2, [r6], #-95	; 0xffffffa1
    2288:	54584500 	ldrbpl	r4, [r8], #-1280	; 0xfffffb00
    228c:	42503549 	subsmi	r3, r0, #306184192	; 0x12400000
    2290:	45282035 	strmi	r2, [r8, #-53]!	; 0xffffffcb
    2294:	5f495458 	svcpl	0x00495458
    2298:	4f495047 	svcmi	0x00495047
    229c:	70614d5f 	rsbvc	r4, r1, pc, asr sp
    22a0:	676e6970 			; <UNDEFINED> instruction: 0x676e6970
    22a4:	7b29745f 	blvc	a5f428 <_Min_Stack_Size+0xa5f028>
    22a8:	49545845 	ldmdbmi	r4, {r0, r2, r6, fp, ip, lr}^
    22ac:	47202c35 			; <UNDEFINED> instruction: 0x47202c35
    22b0:	424f4950 	submi	r4, pc, #80, 18	; 0x140000
    22b4:	47202c20 	strmi	r2, [r0, -r0, lsr #24]!
    22b8:	5f4f4950 	svcpl	0x004f4950
    22bc:	5f4e4950 	svcpl	0x004e4950
    22c0:	452c2035 	strmi	r2, [ip, #-53]!	; 0xffffffcb
    22c4:	35495458 	strbcc	r5, [r9, #-1112]	; 0xfffffba8
    22c8:	5152495f 	cmppl	r2, pc, asr r9
    22cc:	45007d20 	strmi	r7, [r0, #-3360]	; 0xfffff2e0
    22d0:	31495458 	cmpcc	r9, r8, asr r4
    22d4:	52495f33 	subpl	r5, r9, #51, 30	; 0xcc
    22d8:	30342051 	eorscc	r2, r4, r1, asr r0
    22dc:	465f5f00 	ldrbmi	r5, [pc], -r0, lsl #30
    22e0:	445f544c 	ldrbmi	r5, [pc], #-1100	; 22e8 <_Min_Stack_Size+0x1ee8>
    22e4:	4d494345 	stclmi	3, cr4, [r9, #-276]	; 0xfffffeec
    22e8:	445f4c41 	ldrbmi	r4, [pc], #-3137	; 22f0 <_Min_Stack_Size+0x1ef0>
    22ec:	5f5f4749 	svcpl	0x005f4749
    22f0:	5f003920 	svcpl	0x00003920
    22f4:	696c615f 	stmdbvs	ip!, {r0, r1, r2, r3, r4, r6, r8, sp, lr}^
    22f8:	755f6e67 	ldrbvc	r6, [pc, #-3687]	; 1499 <_Min_Stack_Size+0x1099>
    22fc:	2c782870 	ldclcs	8, cr2, [r8], #-448	; 0xfffffe40
    2300:	5f202979 	svcpl	0x00202979
    2304:	6975625f 	ldmdbvs	r5!, {r0, r1, r2, r3, r4, r6, r9, sp, lr}^
    2308:	6e69746c 	cdpvs	4, 6, cr7, cr9, cr12, {3}
    230c:	696c615f 	stmdbvs	ip!, {r0, r1, r2, r3, r4, r6, r8, sp, lr}^
    2310:	755f6e67 	ldrbvc	r6, [pc, #-3687]	; 14b1 <_Min_Stack_Size+0x10b1>
    2314:	2c782870 	ldclcs	8, cr2, [r8], #-448	; 0xfffffe40
    2318:	00297920 	eoreq	r7, r9, r0, lsr #18
    231c:	68745f5f 	ldmdavs	r4!, {r0, r1, r2, r3, r4, r6, r8, r9, sl, fp, ip, lr}^
    2320:	5f626d75 	svcpl	0x00626d75
    2324:	0031205f 	eorseq	r2, r1, pc, asr r0
    2328:	4f494641 	svcmi	0x00494641
    232c:	4950475f 	ldmdbmi	r0, {r0, r1, r2, r3, r4, r6, r8, r9, sl, lr}^
    2330:	58455f4f 	stmdapl	r5, {r0, r1, r2, r3, r6, r8, r9, sl, fp, ip, lr}^
    2334:	4d5f4954 	vldrmi.16	s9, [pc, #-168]	; 2294 <_Min_Stack_Size+0x1e94>	; <UNPREDICTABLE>
    2338:	69707061 	ldmdbvs	r0!, {r0, r5, r6, ip, sp, lr}^
    233c:	7828676e 	stmdavc	r8!, {r1, r2, r3, r5, r6, r8, r9, sl, sp, lr}
    2340:	20282029 	eorcs	r2, r8, r9, lsr #32
    2344:	3d3d7828 	ldccc	8, cr7, [sp, #-160]!	; 0xffffff60
    2348:	4f495047 	svcmi	0x00495047
    234c:	303f2941 	eorscc	r2, pc, r1, asr #18
    2350:	7828203a 	stmdavc	r8!, {r1, r3, r4, r5, sp}
    2354:	50473d3d 	subpl	r3, r7, sp, lsr sp
    2358:	29424f49 	stmdbcs	r2, {r0, r3, r6, r8, r9, sl, fp, lr}^
    235c:	203a313f 	eorscs	r3, sl, pc, lsr r1
    2360:	3d3d7828 	ldccc	8, cr7, [sp, #-160]!	; 0xffffff60
    2364:	4f495047 	svcmi	0x00495047
    2368:	323f2943 	eorscc	r2, pc, #1097728	; 0x10c000
    236c:	7828203a 	stmdavc	r8!, {r1, r3, r4, r5, sp}
    2370:	50473d3d 	subpl	r3, r7, sp, lsr sp
    2374:	29444f49 	stmdbcs	r4, {r0, r3, r6, r8, r9, sl, fp, lr}^
    2378:	303a333f 	eorscc	r3, sl, pc, lsr r3
    237c:	5f002920 	svcpl	0x00002920
    2380:	544e495f 	strbpl	r4, [lr], #-2399	; 0xfffff6a1
    2384:	41454c5f 	cmpmi	r5, pc, asr ip
    2388:	32335453 	eorscc	r5, r3, #1392508928	; 0x53000000
    238c:	58414d5f 	stmdapl	r1, {r0, r1, r2, r3, r4, r6, r8, sl, fp, lr}^
    2390:	30205f5f 	eorcc	r5, r0, pc, asr pc
    2394:	66663778 			; <UNDEFINED> instruction: 0x66663778
    2398:	66666666 	strbtvs	r6, [r6], -r6, ror #12
    239c:	47004c66 	strmi	r4, [r0, -r6, ror #24]
    23a0:	5f4f4950 	svcpl	0x004f4950
    23a4:	5f4e4950 	svcpl	0x004e4950
    23a8:	28203231 	stmdacs	r0!, {r0, r4, r5, r9, ip, sp}
    23ac:	6e697528 	cdpvs	5, 6, cr7, cr9, cr8, {1}
    23b0:	5f363174 	svcpl	0x00363174
    23b4:	78302974 	ldmdavc	r0!, {r2, r4, r5, r6, r8, fp, sp}
    23b8:	30303031 	eorscc	r3, r0, r1, lsr r0
    23bc:	58450029 	stmdapl	r5, {r0, r3, r5}^
    23c0:	545f4954 	ldrbpl	r4, [pc], #-2388	; 23c8 <_Min_Stack_Size+0x1fc8>
    23c4:	67676972 			; <UNDEFINED> instruction: 0x67676972
    23c8:	465f7265 	ldrbmi	r7, [pc], -r5, ror #4
    23cc:	494c4c41 	stmdbmi	ip, {r0, r6, sl, fp, lr}^
    23d0:	3120474e 			; <UNDEFINED> instruction: 0x3120474e
    23d4:	43324900 	teqmi	r2, #0, 18
    23d8:	3152535f 	cmpcc	r2, pc, asr r3
    23dc:	4d49545f 	cfstrdmi	mvd5, [r9, #-380]	; 0xfffffe84
    23e0:	54554f45 	ldrbpl	r4, [r5], #-3909	; 0xfffff0bb
    23e4:	6b734d5f 	blvs	1cd5968 <_Min_Stack_Size+0x1cd5568>
    23e8:	78302820 	ldmdavc	r0!, {r5, fp, sp}
    23ec:	204c5531 	subcs	r5, ip, r1, lsr r5
    23f0:	49203c3c 	stmdbmi	r0!, {r2, r3, r4, r5, sl, fp, ip, sp}
    23f4:	535f4332 	cmppl	pc, #-939524096	; 0xc8000000
    23f8:	545f3152 	ldrbpl	r3, [pc], #-338	; 2400 <_Min_Stack_Size+0x2000>
    23fc:	4f454d49 	svcmi	0x00454d49
    2400:	505f5455 	subspl	r5, pc, r5, asr r4	; <UNPREDICTABLE>
    2404:	0029736f 	eoreq	r7, r9, pc, ror #6
    2408:	434f4c5f 	movtmi	r4, #64607	; 0xfc5f
    240c:	45525f4b 	ldrbmi	r5, [r2, #-3915]	; 0xfffff0b5
    2410:	53525543 	cmppl	r2, #281018368	; 0x10c00000
    2414:	5f455649 	svcpl	0x00455649
    2418:	4c5f2054 	mrrcmi	0, 5, r2, pc, cr4	; <UNPREDICTABLE>
    241c:	5f4b434f 	svcpl	0x004b434f
    2420:	4e490054 	mcrmi	0, 2, r0, cr9, cr4, {2}
    2424:	58414d54 	stmdapl	r1, {r2, r4, r6, r8, sl, fp, lr}^
    2428:	4e494d5f 	mcrmi	13, 2, r4, cr9, cr15, {2}
    242c:	492d2820 	pushmi	{r5, fp, sp}
    2430:	414d544e 	cmpmi	sp, lr, asr #8
    2434:	414d5f58 	cmpmi	sp, r8, asr pc
    2438:	202d2058 	eorcs	r2, sp, r8, asr r0
    243c:	45002931 	strmi	r2, [r0, #-2353]	; 0xfffff6cf
    2440:	37495458 	smlsldcc	r5, r9, r8, r4
    2444:	20374450 	eorscs	r4, r7, r0, asr r4
    2448:	54584528 	ldrbpl	r4, [r8], #-1320	; 0xfffffad8
    244c:	50475f49 	subpl	r5, r7, r9, asr #30
    2450:	4d5f4f49 	ldclmi	15, cr4, [pc, #-292]	; 2334 <_Min_Stack_Size+0x1f34>
    2454:	69707061 	ldmdbvs	r0!, {r0, r5, r6, ip, sp, lr}^
    2458:	745f676e 	ldrbvc	r6, [pc], #-1902	; 2460 <_Min_Stack_Size+0x2060>
    245c:	58457b29 	stmdapl	r5, {r0, r3, r5, r8, r9, fp, ip, sp, lr}^
    2460:	20374954 	eorscs	r4, r7, r4, asr r9
    2464:	5047202c 	subpl	r2, r7, ip, lsr #32
    2468:	20444f49 	subcs	r4, r4, r9, asr #30
    246c:	5047202c 	subpl	r2, r7, ip, lsr #32
    2470:	505f4f49 	subspl	r4, pc, r9, asr #30
    2474:	375f4e49 	ldrbcc	r4, [pc, -r9, asr #28]
    2478:	45202c20 	strmi	r2, [r0, #-3104]!	; 0xfffff3e0
    247c:	37495458 	smlsldcc	r5, r9, r8, r4
    2480:	5152495f 	cmppl	r2, pc, asr r9
    2484:	5845007d 	stmdapl	r5, {r0, r2, r3, r4, r5, r6}^
    2488:	50334954 	eorspl	r4, r3, r4, asr r9
    248c:	28203341 	stmdacs	r0!, {r0, r6, r8, r9, ip, sp}
    2490:	49545845 	ldmdbmi	r4, {r0, r2, r6, fp, ip, lr}^
    2494:	4950475f 	ldmdbmi	r0, {r0, r1, r2, r3, r4, r6, r8, r9, sl, lr}^
    2498:	614d5f4f 	cmpvs	sp, pc, asr #30
    249c:	6e697070 	mcrvs	0, 3, r7, cr9, cr0, {3}
    24a0:	29745f67 	ldmdbcs	r4!, {r0, r1, r2, r5, r6, r8, r9, sl, fp, ip, lr}^
    24a4:	5458457b 	ldrbpl	r4, [r8], #-1403	; 0xfffffa85
    24a8:	202c3349 	eorcs	r3, ip, r9, asr #6
    24ac:	4f495047 	svcmi	0x00495047
    24b0:	202c2041 	eorcs	r2, ip, r1, asr #32
    24b4:	4f495047 	svcmi	0x00495047
    24b8:	4e49505f 	mcrmi	0, 2, r5, cr9, cr15, {2}
    24bc:	2c20335f 	stccs	3, cr3, [r0], #-380	; 0xfffffe84
    24c0:	54584520 	ldrbpl	r4, [r8], #-1312	; 0xfffffae0
    24c4:	495f3349 	ldmdbmi	pc, {r0, r3, r6, r8, r9, ip, sp}^	; <UNPREDICTABLE>
    24c8:	7d205152 	stfvcs	f5, [r0, #-328]!	; 0xfffffeb8
    24cc:	6e695000 	cdpvs	0, 6, cr5, cr9, cr0, {0}
    24d0:	00676643 	rsbeq	r6, r7, r3, asr #12
    24d4:	5641485f 			; <UNDEFINED> instruction: 0x5641485f
    24d8:	4f4c5f45 	svcmi	0x004c5f45
    24dc:	445f474e 	ldrbmi	r4, [pc], #-1870	; 24e4 <_Min_Stack_Size+0x20e4>
    24e0:	4c42554f 	cfstr64mi	mvdx5, [r2], {79}	; 0x4f
    24e4:	00312045 	eorseq	r2, r1, r5, asr #32
    24e8:	4f495047 	svcmi	0x00495047
    24ec:	444f4d5f 	strbmi	r4, [pc], #-3423	; 24f4 <_Min_Stack_Size+0x20f4>
    24f0:	5f5f0045 	svcpl	0x005f0045
    24f4:	43415246 	movtmi	r5, #4678	; 0x1246
    24f8:	42465f54 	submi	r5, r6, #84, 30	; 0x150
    24fc:	5f5f5449 	svcpl	0x005f5449
    2500:	00353120 	eorseq	r3, r5, r0, lsr #2
    2504:	4c4c5f5f 	mcrrmi	15, 5, r5, ip, cr15
    2508:	55434341 	strbpl	r4, [r3, #-833]	; 0xfffffcbf
    250c:	50455f4d 	subpl	r5, r5, sp, asr #30
    2510:	4f4c4953 	svcmi	0x004c4953
    2514:	205f5f4e 	subscs	r5, pc, lr, asr #30
    2518:	50317830 	eorspl	r7, r1, r0, lsr r8
    251c:	4c31332d 	ldcmi	3, cr3, [r1], #-180	; 0xffffff4c
    2520:	5f004b4c 	svcpl	0x00004b4c
    2524:	554e475f 	strbpl	r4, [lr, #-1887]	; 0xfffff8a1
    2528:	41505f43 	cmpmi	r0, r3, asr #30
    252c:	4c484354 	mcrrmi	3, 5, r4, r8, cr4
    2530:	4c455645 	mcrrmi	6, 4, r5, r5, cr5
    2534:	31205f5f 			; <UNDEFINED> instruction: 0x31205f5f
    2538:	475f5f00 	ldrbmi	r5, [pc, -r0, lsl #30]
    253c:	415f4343 	cmpmi	pc, r3, asr #6
    2540:	494d4f54 	stmdbmi	sp, {r2, r4, r6, r8, r9, sl, fp, lr}^
    2544:	48435f43 	stmdami	r3, {r0, r1, r6, r8, r9, sl, fp, ip, lr}^
    2548:	32335241 	eorscc	r5, r3, #268435460	; 0x10000004
    254c:	4c5f545f 	cfldrdmi	mvd5, [pc], {95}	; 0x5f
    2550:	5f4b434f 	svcpl	0x004b434f
    2554:	45455246 	strbmi	r5, [r5, #-582]	; 0xfffffdba
    2558:	5f003220 	svcpl	0x00003220
    255c:	6c6c615f 	stfvse	f6, [ip], #-380	; 0xfffffe84
    2560:	615f636f 	cmpvs	pc, pc, ror #6
    2564:	6e67696c 	vnmulvs.f16	s13, s14, s25	; <UNPREDICTABLE>
    2568:	20297828 	eorcs	r7, r9, r8, lsr #16
    256c:	74615f5f 	strbtvc	r5, [r1], #-3935	; 0xfffff0a1
    2570:	62697274 	rsbvs	r7, r9, #116, 4	; 0x40000007
    2574:	5f657475 	svcpl	0x00657475
    2578:	5f28285f 	svcpl	0x0028285f
    257c:	6c6c615f 	stfvse	f6, [ip], #-380	; 0xfffffe84
    2580:	615f636f 	cmpvs	pc, pc, ror #6
    2584:	6e67696c 	vnmulvs.f16	s13, s14, s25	; <UNPREDICTABLE>
    2588:	78285f5f 	stmdavc	r8!, {r0, r1, r2, r3, r4, r6, r8, r9, sl, fp, ip, lr}
    258c:	00292929 	eoreq	r2, r9, r9, lsr #18
    2590:	5f433249 	svcpl	0x00433249
    2594:	5f325253 	svcpl	0x00325253
    2598:	434e4547 	movtmi	r4, #58695	; 0xe547
    259c:	5f4c4c41 	svcpl	0x004c4c41
    25a0:	20736f50 	rsbscs	r6, r3, r0, asr pc
    25a4:	29553428 	ldmdbcs	r5, {r3, r5, sl, ip, sp}^
    25a8:	555f5f00 	ldrbpl	r5, [pc, #-3840]	; 16b0 <_Min_Stack_Size+0x12b0>
    25ac:	5f544e49 	svcpl	0x00544e49
    25b0:	5341454c 	movtpl	r4, #5452	; 0x154c
    25b4:	5f363154 	svcpl	0x00363154
    25b8:	5f58414d 	svcpl	0x0058414d
    25bc:	7830205f 	ldmdavc	r0!, {r0, r1, r2, r3, r4, r6, sp}
    25c0:	66666666 	strbtvs	r6, [r6], -r6, ror #12
    25c4:	565f5f00 	ldrbpl	r5, [pc], -r0, lsl #30
    25c8:	49535245 	ldmdbmi	r3, {r0, r2, r6, r9, ip, lr}^
    25cc:	5f5f4e4f 	svcpl	0x005f4e4f
    25d0:	31312220 	teqcc	r1, r0, lsr #4
    25d4:	312e332e 			; <UNDEFINED> instruction: 0x312e332e
    25d8:	32303220 	eorscc	r3, r0, #32, 4
    25dc:	31373032 	teqcc	r7, r2, lsr r0
    25e0:	49002232 	stmdbmi	r0, {r1, r4, r5, r9, sp}
    25e4:	435f4332 	cmpmi	pc, #-939524096	; 0xc8000000
    25e8:	415f3152 	cmpmi	pc, r2, asr r1	; <UNPREDICTABLE>
    25ec:	5452454c 	ldrbpl	r4, [r2], #-1356	; 0xfffffab4
    25f0:	736f505f 	cmnvc	pc, #95	; 0x5f
    25f4:	33312820 	teqcc	r1, #32, 16	; 0x200000
    25f8:	5f002955 	svcpl	0x00002955
    25fc:	4d52415f 	ldfmie	f4, [r2, #-380]	; 0xfffffe84
    2600:	4352415f 	cmpmi	r2, #-1073741801	; 0xc0000017
    2604:	52505f48 	subspl	r5, r0, #72, 30	; 0x120
    2608:	4c49464f 	mcrrmi	6, 4, r4, r9, cr15
    260c:	37372045 	ldrcc	r2, [r7, -r5, asr #32]!
    2610:	54584500 	ldrbpl	r4, [r8], #-1280	; 0xfffffb00
    2614:	72545f49 	subsvc	r5, r4, #292	; 0x124
    2618:	65676769 	strbvs	r6, [r7, #-1897]!	; 0xfffff897
    261c:	49525f72 	ldmdbmi	r2, {r1, r4, r5, r6, r8, r9, sl, fp, ip, lr}^
    2620:	474e4953 	smlsldmi	r4, lr, r3, r9
    2624:	5f003020 	svcpl	0x00003020
    2628:	43414c5f 	movtmi	r4, #7263	; 0x1c5f
    262c:	5f4d5543 	svcpl	0x004d5543
    2630:	54494246 	strbpl	r4, [r9], #-582	; 0xfffffdba
    2634:	33205f5f 			; <UNDEFINED> instruction: 0x33205f5f
    2638:	5f5f0031 	svcpl	0x005f0031
    263c:	64657270 	strbtvs	r7, [r5], #-624	; 0xfffffd90
    2640:	5f746369 	svcpl	0x00746369
    2644:	65757274 	ldrbvs	r7, [r5, #-628]!	; 0xfffffd8c
    2648:	70786528 	rsbsvc	r6, r8, r8, lsr #10
    264c:	5f5f2029 	svcpl	0x005f2029
    2650:	6c697562 	cfstr64vs	mvdx7, [r9], #-392	; 0xfffffe78
    2654:	5f6e6974 	svcpl	0x006e6974
    2658:	65707865 	ldrbvs	r7, [r0, #-2149]!	; 0xfffff79b
    265c:	28287463 	stmdacs	r8!, {r0, r1, r5, r6, sl, ip, sp, lr}
    2660:	29707865 	ldmdbcs	r0!, {r0, r2, r5, r6, fp, ip, sp, lr}^
    2664:	2931202c 	ldmdbcs	r1!, {r2, r3, r5, sp}
    2668:	54584500 	ldrbpl	r4, [r8], #-1280	; 0xfffffb00
    266c:	52495f49 	subpl	r5, r9, #292	; 0x124
    2670:	6e455f51 	mcrvs	15, 2, r5, cr5, cr1, {2}
    2674:	656c6261 	strbvs	r6, [ip, #-609]!	; 0xfffffd9f
    2678:	5f003120 	svcpl	0x00003120
    267c:	4341535f 	movtmi	r5, #4959	; 0x135f
    2680:	5f4d5543 	svcpl	0x004d5543
    2684:	5f58414d 	svcpl	0x0058414d
    2688:	5830205f 	ldmdapl	r0!, {r0, r1, r2, r3, r4, r6, sp}
    268c:	46464637 			; <UNDEFINED> instruction: 0x46464637
    2690:	48372d50 	ldmdami	r7!, {r4, r6, r8, sl, fp, sp}
    2694:	5f5f004b 	svcpl	0x005f004b
    2698:	6b636f6c 	blvs	18de450 <_Min_Stack_Size+0x18de050>
    269c:	6c65725f 	sfmvs	f7, 2, [r5], #-380	; 0xfffffe84
    26a0:	65736165 	ldrbvs	r6, [r3, #-357]!	; 0xfffffe9b
    26a4:	6365725f 	cmnvs	r5, #-268435451	; 0xf0000005
    26a8:	69737275 	ldmdbvs	r3!, {r0, r2, r4, r5, r6, r9, ip, sp, lr}^
    26ac:	6c286576 	cfstr32vs	mvfx6, [r8], #-472	; 0xfffffe28
    26b0:	296b636f 	stmdbcs	fp!, {r0, r1, r2, r3, r5, r6, r8, r9, sp, lr}^
    26b4:	725f5f20 	subsvc	r5, pc, #32, 30	; 0x80
    26b8:	72617465 	rsbvc	r7, r1, #1694498816	; 0x65000000
    26bc:	5f746567 	svcpl	0x00746567
    26c0:	6b636f6c 	blvs	18de478 <_Min_Stack_Size+0x18de078>
    26c4:	6c65725f 	sfmvs	f7, 2, [r5], #-380	; 0xfffffe84
    26c8:	65736165 	ldrbvs	r6, [r3, #-357]!	; 0xfffffe9b
    26cc:	6365725f 	cmnvs	r5, #-268435451	; 0xf0000005
    26d0:	69737275 	ldmdbvs	r3!, {r0, r2, r4, r5, r6, r9, ip, sp, lr}^
    26d4:	6c286576 	cfstr32vs	mvfx6, [r8], #-472	; 0xfffffe28
    26d8:	296b636f 	stmdbcs	fp!, {r0, r1, r2, r3, r5, r6, r8, r9, sp, lr}^
    26dc:	465f5f00 	ldrbmi	r5, [pc], -r0, lsl #30
    26e0:	3436544c 	ldrtcc	r5, [r6], #-1100	; 0xfffffbb4
    26e4:	58414d5f 	stmdapl	r1, {r0, r1, r2, r3, r4, r6, r8, sl, fp, lr}^
    26e8:	5f30315f 	svcpl	0x0030315f
    26ec:	5f505845 	svcpl	0x00505845
    26f0:	3033205f 	eorscc	r2, r3, pc, asr r0
    26f4:	32490038 	subcc	r0, r9, #56	; 0x38
    26f8:	414f5f43 	cmpmi	pc, r3, asr #30
    26fc:	455f3252 	ldrbmi	r3, [pc, #-594]	; 24b2 <_Min_Stack_Size+0x20b2>
    2700:	4155444e 	cmpmi	r5, lr, asr #8
    2704:	734d5f4c 	movtvc	r5, #57164	; 0xdf4c
    2708:	3028206b 	eorcc	r2, r8, fp, rrx
    270c:	4c553178 	ldfmie	f3, [r5], {120}	; 0x78
    2710:	203c3c20 	eorscs	r3, ip, r0, lsr #24
    2714:	5f433249 	svcpl	0x00433249
    2718:	3252414f 	subscc	r4, r2, #-1073741805	; 0xc0000013
    271c:	444e455f 	strbmi	r4, [lr], #-1375	; 0xfffffaa1
    2720:	5f4c4155 	svcpl	0x004c4155
    2724:	29736f50 	ldmdbcs	r3!, {r4, r6, r8, r9, sl, fp, sp, lr}^
    2728:	54584500 	ldrbpl	r4, [r8], #-1280	; 0xfffffb00
    272c:	50353149 	eorspl	r3, r5, r9, asr #2
    2730:	20353141 	eorscs	r3, r5, r1, asr #2
    2734:	54584528 	ldrbpl	r4, [r8], #-1320	; 0xfffffad8
    2738:	50475f49 	subpl	r5, r7, r9, asr #30
    273c:	4d5f4f49 	ldclmi	15, cr4, [pc, #-292]	; 2620 <_Min_Stack_Size+0x2220>
    2740:	69707061 	ldmdbvs	r0!, {r0, r5, r6, ip, sp, lr}^
    2744:	745f676e 	ldrbvc	r6, [pc], #-1902	; 274c <_Min_Stack_Size+0x234c>
    2748:	58457b29 	stmdapl	r5, {r0, r3, r5, r8, r9, fp, ip, sp, lr}^
    274c:	35314954 	ldrcc	r4, [r1, #-2388]!	; 0xfffff6ac
    2750:	5047202c 	subpl	r2, r7, ip, lsr #32
    2754:	20414f49 	subcs	r4, r1, r9, asr #30
    2758:	5047202c 	subpl	r2, r7, ip, lsr #32
    275c:	505f4f49 	subspl	r4, pc, r9, asr #30
    2760:	315f4e49 	cmpcc	pc, r9, asr #28
    2764:	202c2035 	eorcs	r2, ip, r5, lsr r0
    2768:	49545845 	ldmdbmi	r4, {r0, r2, r6, fp, ip, lr}^
    276c:	495f3531 	ldmdbmi	pc, {r0, r4, r5, r8, sl, ip, sp}^	; <UNPREDICTABLE>
    2770:	7d205152 	stfvcs	f5, [r0, #-328]!	; 0xfffffeb8
    2774:	495f5f00 	ldmdbmi	pc, {r8, r9, sl, fp, ip, lr}^	; <UNPREDICTABLE>
    2778:	465f544e 	ldrbmi	r5, [pc], -lr, asr #8
    277c:	33545341 	cmpcc	r4, #67108865	; 0x4000001
    2780:	49575f32 	ldmdbmi	r7, {r1, r4, r5, r8, r9, sl, fp, ip, lr}^
    2784:	5f485444 	svcpl	0x00485444
    2788:	3233205f 	eorscc	r2, r3, #95	; 0x5f
    278c:	615f5f00 	cmpvs	pc, r0, lsl #30
    2790:	69727474 	ldmdbvs	r2!, {r2, r4, r5, r6, sl, ip, sp, lr}^
    2794:	65747562 	ldrbvs	r7, [r4, #-1378]!	; 0xfffffa9e
    2798:	726f665f 	rsbvc	r6, pc, #99614720	; 0x5f00000
    279c:	5f74616d 	svcpl	0x0074616d
    27a0:	66727473 			; <UNDEFINED> instruction: 0x66727473
    27a4:	5f6e6f6d 	svcpl	0x006e6f6d
    27a8:	2c61285f 	stclcs	8, cr2, [r1], #-380	; 0xfffffe84
    27ac:	00202962 	eoreq	r2, r0, r2, ror #18
    27b0:	4453425f 	ldrbmi	r4, [r3], #-607	; 0xfffffda1
    27b4:	5a49535f 	bpl	1257538 <_Min_Stack_Size+0x1257138>
    27b8:	5f545f45 	svcpl	0x00545f45
    27bc:	49464544 	stmdbmi	r6, {r2, r6, r8, sl, lr}^
    27c0:	5f44454e 	svcpl	0x0044454e
    27c4:	45520020 	ldrbmi	r0, [r2, #-32]	; 0xffffffe0
    27c8:	56524553 			; <UNDEFINED> instruction: 0x56524553
    27cc:	00304445 	eorseq	r4, r0, r5, asr #8
    27d0:	49555f5f 	ldmdbmi	r5, {r0, r1, r2, r3, r4, r6, r8, r9, sl, fp, ip, lr}^
    27d4:	465f544e 	ldrbmi	r5, [pc], -lr, asr #8
    27d8:	33545341 	cmpcc	r4, #67108865	; 0x4000001
    27dc:	59545f32 	ldmdbpl	r4, {r1, r4, r5, r8, r9, sl, fp, ip, lr}^
    27e0:	5f5f4550 	svcpl	0x005f4550
    27e4:	736e7520 	cmnvc	lr, #32, 10	; 0x8000000
    27e8:	656e6769 	strbvs	r6, [lr, #-1897]!	; 0xfffff897
    27ec:	6e692064 	cdpvs	0, 6, cr2, cr9, cr4, {3}
    27f0:	5f5f0074 	svcpl	0x005f0074
    27f4:	746e695f 	strbtvc	r6, [lr], #-2399	; 0xfffff6a1
    27f8:	7a69735f 	bvc	1a5f57c <_Min_Stack_Size+0x1a5f17c>
    27fc:	5f745f65 	svcpl	0x00745f65
    2800:	5f002068 	svcpl	0x00002068
    2804:	4454535f 	ldrbmi	r5, [r4], #-863	; 0xfffffca1
    2808:	54555f43 	ldrbpl	r5, [r5], #-3907	; 0xfffff0bd
    280c:	32335f46 	eorscc	r5, r3, #280	; 0x118
    2810:	31205f5f 			; <UNDEFINED> instruction: 0x31205f5f
    2814:	535f5f00 	cmppl	pc, #0, 30
    2818:	4f455a49 	svcmi	0x00455a49
    281c:	4c465f46 	mcrrmi	15, 4, r5, r6, cr6
    2820:	5f54414f 	svcpl	0x0054414f
    2824:	0034205f 	eorseq	r2, r4, pc, asr r0
    2828:	4c465f5f 	mcrrmi	15, 5, r5, r6, cr15
    282c:	58323354 	ldmdapl	r2!, {r2, r4, r6, r8, r9, ip, sp}
    2830:	4e45445f 	mcrmi	4, 2, r4, cr5, cr15, {2}
    2834:	5f4d524f 	svcpl	0x004d524f
    2838:	5f4e494d 	svcpl	0x004e494d
    283c:	2e34205f 	mrccs	0, 1, r2, cr4, cr15, {2}
    2840:	36303439 			; <UNDEFINED> instruction: 0x36303439
    2844:	35343635 	ldrcc	r3, [r4, #-1589]!	; 0xfffff9cb
    2848:	32313438 	eorscc	r3, r1, #56, 8	; 0x38000000
    284c:	34353634 	ldrtcc	r3, [r5], #-1588	; 0xfffff9cc
    2850:	32332d65 	eorscc	r2, r3, #6464	; 0x1940
    2854:	32334634 	eorscc	r4, r3, #52, 12	; 0x3400000
    2858:	5f5f0078 	svcpl	0x005f0078
    285c:	43554e47 	cmpmi	r5, #1136	; 0x470
    2860:	454b494c 	strbmi	r4, [fp, #-2380]	; 0xfffff6b4
    2864:	54414d5f 	strbpl	r4, [r1], #-3423	; 0xfffff2a1
    2868:	55425f48 	strbpl	r5, [r2, #-3912]	; 0xfffff0b8
    286c:	49544c49 	ldmdbmi	r4, {r0, r3, r6, sl, fp, lr}^
    2870:	45525f4e 	ldrbmi	r5, [r2, #-3918]	; 0xfffff0b2
    2874:	53504f4c 	cmppl	r0, #76, 30	; 0x130
    2878:	5f5f0020 	svcpl	0x005f0020
    287c:	5f544c46 	svcpl	0x00544c46
    2880:	5f58414d 	svcpl	0x0058414d
    2884:	455f3031 	ldrbmi	r3, [pc, #-49]	; 285b <_Min_Stack_Size+0x245b>
    2888:	5f5f5058 	svcpl	0x005f5058
    288c:	00383320 	eorseq	r3, r8, r0, lsr #6
    2890:	49535f5f 	ldmdbmi	r3, {r0, r1, r2, r3, r4, r6, r8, r9, sl, fp, ip, lr}^
    2894:	54415f47 	strbpl	r5, [r1], #-3911	; 0xfffff0b9
    2898:	43494d4f 	movtmi	r4, #40271	; 0x9d4f
    289c:	5059545f 	subspl	r5, r9, pc, asr r4
    28a0:	205f5f45 	subscs	r5, pc, r5, asr #30
    28a4:	00746e69 	rsbseq	r6, r4, r9, ror #28
    28a8:	49545845 	ldmdbmi	r4, {r0, r2, r6, fp, ip, lr}^
    28ac:	6972545f 	ldmdbvs	r2!, {r0, r1, r2, r3, r4, r6, sl, ip, lr}^
    28b0:	72656767 	rsbvc	r6, r5, #27000832	; 0x19c0000
    28b4:	7369525f 	cmnvc	r9, #-268435451	; 0xf0000005
    28b8:	41676e69 	cmnmi	r7, r9, ror #28
    28bc:	6146646e 	cmpvs	r6, lr, ror #8
    28c0:	6e696c6c 	cdpvs	12, 6, cr6, cr9, cr12, {3}
    28c4:	00322067 	eorseq	r2, r2, r7, rrx
    28c8:	52465f5f 	subpl	r5, r6, #380	; 0x17c
    28cc:	5f544341 	svcpl	0x00544341
    28d0:	5f58414d 	svcpl	0x0058414d
    28d4:	5830205f 	ldmdapl	r0!, {r0, r1, r2, r3, r4, r6, sp}
    28d8:	46464637 			; <UNDEFINED> instruction: 0x46464637
    28dc:	35312d50 	ldrcc	r2, [r1, #-3408]!	; 0xfffff2b0
    28e0:	564e0052 			; <UNDEFINED> instruction: 0x564e0052
    28e4:	495f4349 	ldmdbmi	pc, {r0, r3, r6, r8, r9, lr}^	; <UNPREDICTABLE>
    28e8:	33335152 	teqcc	r3, #-2147483628	; 0x80000014
    28ec:	4332495f 	teqmi	r2, #1556480	; 0x17c000
    28f0:	56455f32 			; <UNDEFINED> instruction: 0x56455f32
    28f4:	616e455f 	cmnvs	lr, pc, asr r5
    28f8:	20656c62 	rsbcs	r6, r5, r2, ror #24
    28fc:	49564e28 	ldmdbmi	r6, {r3, r5, r9, sl, fp, lr}^
    2900:	53495f43 	movtpl	r5, #40771	; 0x9f43
    2904:	20315245 	eorscs	r5, r1, r5, asr #4
    2908:	31203d7c 			; <UNDEFINED> instruction: 0x31203d7c
    290c:	20283c3c 	eorcs	r3, r8, ip, lsr ip
    2910:	32433249 	subcc	r3, r3, #-1879048188	; 0x90000004
    2914:	5f56455f 	svcpl	0x0056455f
    2918:	20515249 	subscs	r5, r1, r9, asr #4
    291c:	3233202d 	eorscc	r2, r3, #45	; 0x2d
    2920:	00292920 	eoreq	r2, r9, r0, lsr #18
    2924:	49545845 	ldmdbmi	r4, {r0, r2, r6, fp, ip, lr}^
    2928:	30445030 	subcc	r5, r4, r0, lsr r0
    292c:	58452820 	stmdapl	r5, {r5, fp, sp}^
    2930:	475f4954 			; <UNDEFINED> instruction: 0x475f4954
    2934:	5f4f4950 	svcpl	0x004f4950
    2938:	7070614d 	rsbsvc	r6, r0, sp, asr #2
    293c:	5f676e69 	svcpl	0x00676e69
    2940:	457b2974 	ldrbmi	r2, [fp, #-2420]!	; 0xfffff68c
    2944:	30495458 	subcc	r5, r9, r8, asr r4
    2948:	47202c20 	strmi	r2, [r0, -r0, lsr #24]!
    294c:	444f4950 	strbmi	r4, [pc], #-2384	; 2954 <_Min_Stack_Size+0x2554>
    2950:	47202c20 	strmi	r2, [r0, -r0, lsr #24]!
    2954:	5f4f4950 	svcpl	0x004f4950
    2958:	5f4e4950 	svcpl	0x004e4950
    295c:	202c2030 	eorcs	r2, ip, r0, lsr r0
    2960:	49545845 	ldmdbmi	r4, {r0, r2, r6, fp, ip, lr}^
    2964:	52495f30 	subpl	r5, r9, #48, 30	; 0xc0
    2968:	5f007d51 	svcpl	0x00007d51
    296c:	4e454552 	mcrmi	5, 2, r4, cr5, cr2, {2}
    2970:	4d535f54 	ldclmi	15, cr5, [r3, #-336]	; 0xfffffeb0
    2974:	5f4c4c41 	svcpl	0x004c4c41
    2978:	43454843 	movtmi	r4, #22595	; 0x5843
    297c:	4e495f4b 	cdpmi	15, 4, cr5, cr9, cr11, {2}
    2980:	70285449 	eorvc	r5, r8, r9, asr #8
    2984:	20297274 	eorcs	r7, r9, r4, ror r2
    2988:	54584500 	ldrbpl	r4, [r8], #-1280	; 0xfffffb00
    298c:	37203749 	strcc	r3, [r0, -r9, asr #14]!
    2990:	495f5f00 	ldmdbmi	pc, {r8, r9, sl, fp, ip, lr}^	; <UNPREDICTABLE>
    2994:	465f544e 	ldrbmi	r5, [pc], -lr, asr #8
    2998:	33545341 	cmpcc	r4, #67108865	; 0x4000001
    299c:	414d5f32 	cmpmi	sp, r2, lsr pc
    29a0:	205f5f58 	subscs	r5, pc, r8, asr pc	; <UNPREDICTABLE>
    29a4:	66377830 			; <UNDEFINED> instruction: 0x66377830
    29a8:	66666666 	strbtvs	r6, [r6], -r6, ror #12
    29ac:	5f006666 	svcpl	0x00006666
    29b0:	4f54415f 	svcmi	0x0054415f
    29b4:	5f43494d 	svcpl	0x0043494d
    29b8:	5f514553 	svcpl	0x00514553
    29bc:	20545343 	subscs	r5, r4, r3, asr #6
    29c0:	525f0035 	subspl	r0, pc, #53	; 0x35
    29c4:	5f444145 	svcpl	0x00444145
    29c8:	54495257 	strbpl	r5, [r9], #-599	; 0xfffffda9
    29cc:	45525f45 	ldrbmi	r5, [r2, #-3909]	; 0xfffff0bb
    29d0:	4e525554 	mrcmi	5, 2, r5, cr2, cr4, {2}
    29d4:	5059545f 	subspl	r5, r9, pc, asr r4
    29d8:	6e692045 	cdpvs	0, 6, cr2, cr9, cr5, {2}
    29dc:	58450074 	stmdapl	r5, {r2, r4, r5, r6}^
    29e0:	50394954 	eorspl	r4, r9, r4, asr r9
    29e4:	28203942 	stmdacs	r0!, {r1, r6, r8, fp, ip, sp}
    29e8:	49545845 	ldmdbmi	r4, {r0, r2, r6, fp, ip, lr}^
    29ec:	4950475f 	ldmdbmi	r0, {r0, r1, r2, r3, r4, r6, r8, r9, sl, lr}^
    29f0:	614d5f4f 	cmpvs	sp, pc, asr #30
    29f4:	6e697070 	mcrvs	0, 3, r7, cr9, cr0, {3}
    29f8:	29745f67 	ldmdbcs	r4!, {r0, r1, r2, r5, r6, r8, r9, sl, fp, ip, lr}^
    29fc:	5458457b 	ldrbpl	r4, [r8], #-1403	; 0xfffffa85
    2a00:	202c3949 	eorcs	r3, ip, r9, asr #18
    2a04:	4f495047 	svcmi	0x00495047
    2a08:	202c2042 	eorcs	r2, ip, r2, asr #32
    2a0c:	4f495047 	svcmi	0x00495047
    2a10:	4e49505f 	mcrmi	0, 2, r5, cr9, cr15, {2}
    2a14:	2c20395f 			; <UNDEFINED> instruction: 0x2c20395f
    2a18:	49545845 	ldmdbmi	r4, {r0, r2, r6, fp, ip, lr}^
    2a1c:	52495f39 	subpl	r5, r9, #57, 30	; 0xe4
    2a20:	007d2051 	rsbseq	r2, sp, r1, asr r0
    2a24:	49545845 	ldmdbmi	r4, {r0, r2, r6, fp, ip, lr}^
    2a28:	36445036 			; <UNDEFINED> instruction: 0x36445036
    2a2c:	58452820 	stmdapl	r5, {r5, fp, sp}^
    2a30:	475f4954 			; <UNDEFINED> instruction: 0x475f4954
    2a34:	5f4f4950 	svcpl	0x004f4950
    2a38:	7070614d 	rsbsvc	r6, r0, sp, asr #2
    2a3c:	5f676e69 	svcpl	0x00676e69
    2a40:	457b2974 	ldrbmi	r2, [fp, #-2420]!	; 0xfffff68c
    2a44:	36495458 			; <UNDEFINED> instruction: 0x36495458
    2a48:	47202c20 	strmi	r2, [r0, -r0, lsr #24]!
    2a4c:	444f4950 	strbmi	r4, [pc], #-2384	; 2a54 <_Min_Stack_Size+0x2654>
    2a50:	47202c20 	strmi	r2, [r0, -r0, lsr #24]!
    2a54:	5f4f4950 	svcpl	0x004f4950
    2a58:	5f4e4950 	svcpl	0x004e4950
    2a5c:	202c2036 	eorcs	r2, ip, r6, lsr r0
    2a60:	49545845 	ldmdbmi	r4, {r0, r2, r6, fp, ip, lr}^
    2a64:	52495f36 	subpl	r5, r9, #54, 30	; 0xd8
    2a68:	5f007d51 	svcpl	0x00007d51
    2a6c:	65656e5f 	strbvs	r6, [r5, #-3679]!	; 0xfffff1a1
    2a70:	69775f64 	ldmdbvs	r7!, {r2, r5, r6, r8, r9, sl, fp, ip, lr}^
    2a74:	745f746e 	ldrbvc	r7, [pc], #-1134	; 2a7c <_Min_Stack_Size+0x267c>
    2a78:	735f5f00 	cmpvc	pc, #0, 30
    2a7c:	645f6d79 	ldrbvs	r6, [pc], #-3449	; 2a84 <_Min_Stack_Size+0x2684>
    2a80:	75616665 	strbvc	r6, [r1, #-1637]!	; 0xfffff99b
    2a84:	7328746c 			; <UNDEFINED> instruction: 0x7328746c
    2a88:	692c6d79 	stmdbvs	ip!, {r0, r3, r4, r5, r6, r8, sl, fp, sp, lr}
    2a8c:	2c6c706d 	stclcs	0, cr7, [ip], #-436	; 0xfffffe4c
    2a90:	69726576 	ldmdbvs	r2!, {r1, r2, r4, r5, r6, r8, sl, sp, lr}^
    2a94:	5f202964 	svcpl	0x00202964
    2a98:	6d73615f 	ldfvse	f6, [r3, #-380]!	; 0xfffffe84
    2a9c:	22285f5f 	eorcs	r5, r8, #380	; 0x17c
    2aa0:	6d79732e 	ldclvs	3, cr7, [r9, #-184]!	; 0xffffff48
    2aa4:	20726576 	rsbscs	r6, r2, r6, ror r5
    2aa8:	69232022 	stmdbvs	r3!, {r1, r5, sp}
    2aac:	206c706d 	rsbcs	r7, ip, sp, rrx
    2ab0:	22202c22 	eorcs	r2, r0, #8704	; 0x2200
    2ab4:	79732320 	ldmdbvc	r3!, {r5, r8, r9, sp}^
    2ab8:	4022206d 	eormi	r2, r2, sp, rrx
    2abc:	23202240 			; <UNDEFINED> instruction: 0x23202240
    2ac0:	69726576 	ldmdbvs	r2!, {r1, r2, r4, r5, r6, r8, sl, sp, lr}^
    2ac4:	49002964 	stmdbmi	r0, {r2, r5, r6, r8, fp, sp}
    2ac8:	465f544e 	ldrbmi	r5, [pc], -lr, asr #8
    2acc:	38545341 	ldmdacc	r4, {r0, r6, r8, r9, ip, lr}^
    2ad0:	58414d5f 	stmdapl	r1, {r0, r1, r2, r3, r4, r6, r8, sl, fp, lr}^
    2ad4:	5f5f2820 	svcpl	0x005f2820
    2ad8:	5f544e49 	svcpl	0x00544e49
    2adc:	54534146 	ldrbpl	r4, [r3], #-326	; 0xfffffeba
    2ae0:	414d5f38 	cmpmi	sp, r8, lsr pc
    2ae4:	295f5f58 	ldmdbcs	pc, {r3, r4, r6, r8, r9, sl, fp, ip, lr}^	; <UNPREDICTABLE>
    2ae8:	49504700 	ldmdbmi	r0, {r8, r9, sl, lr}^
    2aec:	49505f4f 	ldmdbmi	r0, {r0, r1, r2, r3, r6, r8, r9, sl, fp, ip, lr}^
    2af0:	45535f4e 	ldrbmi	r5, [r3, #-3918]	; 0xfffff0b2
    2af4:	00312054 	eorseq	r2, r1, r4, asr r0
    2af8:	6c615f5f 	stclvs	15, cr5, [r1], #-380	; 0xfffffe84
    2afc:	5f636f6c 	svcpl	0x00636f6c
    2b00:	657a6973 	ldrbvs	r6, [sl, #-2419]!	; 0xfffff68d
    2b04:	2c6e2832 	stclcs	8, cr2, [lr], #-200	; 0xffffff38
    2b08:	5f202978 	svcpl	0x00202978
    2b0c:	7474615f 	ldrbtvc	r6, [r4], #-351	; 0xfffffea1
    2b10:	75626972 	strbvc	r6, [r2, #-2418]!	; 0xfffff68e
    2b14:	5f5f6574 	svcpl	0x005f6574
    2b18:	5f5f2828 	svcpl	0x005f2828
    2b1c:	6f6c6c61 	svcvs	0x006c6c61
    2b20:	69735f63 	ldmdbvs	r3!, {r0, r1, r5, r6, r8, r9, sl, fp, ip, lr}^
    2b24:	5f5f657a 	svcpl	0x005f657a
    2b28:	202c6e28 	eorcs	r6, ip, r8, lsr #28
    2b2c:	29292978 	stmdbcs	r9!, {r3, r4, r5, r6, r8, fp, sp}
    2b30:	555f5f00 	ldrbpl	r5, [pc, #-3840]	; 1c38 <_Min_Stack_Size+0x1838>
    2b34:	31544e49 	cmpcc	r4, r9, asr #28
    2b38:	414d5f36 	cmpmi	sp, r6, lsr pc
    2b3c:	205f5f58 	subscs	r5, pc, r8, asr pc	; <UNPREDICTABLE>
    2b40:	66667830 			; <UNDEFINED> instruction: 0x66667830
    2b44:	45006666 	strmi	r6, [r0, #-1638]	; 0xfffff99a
    2b48:	38495458 	stmdacc	r9, {r3, r4, r6, sl, ip, lr}^
    2b4c:	20384350 	eorscs	r4, r8, r0, asr r3
    2b50:	54584528 	ldrbpl	r4, [r8], #-1320	; 0xfffffad8
    2b54:	50475f49 	subpl	r5, r7, r9, asr #30
    2b58:	4d5f4f49 	ldclmi	15, cr4, [pc, #-292]	; 2a3c <_Min_Stack_Size+0x263c>
    2b5c:	69707061 	ldmdbvs	r0!, {r0, r5, r6, ip, sp, lr}^
    2b60:	745f676e 	ldrbvc	r6, [pc], #-1902	; 2b68 <_Min_Stack_Size+0x2768>
    2b64:	58457b29 	stmdapl	r5, {r0, r3, r5, r8, r9, fp, ip, sp, lr}^
    2b68:	20384954 	eorscs	r4, r8, r4, asr r9
    2b6c:	5047202c 	subpl	r2, r7, ip, lsr #32
    2b70:	20434f49 	subcs	r4, r3, r9, asr #30
    2b74:	5047202c 	subpl	r2, r7, ip, lsr #32
    2b78:	505f4f49 	subspl	r4, pc, r9, asr #30
    2b7c:	385f4e49 	ldmdacc	pc, {r0, r3, r6, r9, sl, fp, lr}^	; <UNPREDICTABLE>
    2b80:	58452c20 	stmdapl	r5, {r5, sl, fp, sp}^
    2b84:	5f384954 	svcpl	0x00384954
    2b88:	20515249 	subscs	r5, r1, r9, asr #4
    2b8c:	5f5f007d 	svcpl	0x005f007d
    2b90:	465f5154 			; <UNDEFINED> instruction: 0x465f5154
    2b94:	5f544942 	svcpl	0x00544942
    2b98:	3231205f 	eorscc	r2, r1, #95	; 0x5f
    2b9c:	32490037 	subcc	r0, r9, #55	; 0x37
    2ba0:	52435f43 	subpl	r5, r3, #268	; 0x10c
    2ba4:	54535f31 	ldrbpl	r5, [r3], #-3889	; 0xfffff0cf
    2ba8:	4920504f 	stmdbmi	r0!, {r0, r1, r2, r3, r6, ip, lr}
    2bac:	435f4332 	cmpmi	pc, #-939524096	; 0xc8000000
    2bb0:	535f3152 	cmppl	pc, #-2147483628	; 0x80000014
    2bb4:	5f504f54 	svcpl	0x00504f54
    2bb8:	006b734d 	rsbeq	r7, fp, sp, asr #6
    2bbc:	5f433249 	svcpl	0x00433249
    2bc0:	5f315253 	svcpl	0x00315253
    2bc4:	45434550 	strbmi	r4, [r3, #-1360]	; 0xfffffab0
    2bc8:	505f5252 	subspl	r5, pc, r2, asr r2	; <UNPREDICTABLE>
    2bcc:	2820736f 	stmdacs	r0!, {r0, r1, r2, r3, r5, r6, r8, r9, ip, sp, lr}
    2bd0:	29553231 	ldmdbcs	r5, {r0, r4, r5, r9, ip, sp}^
    2bd4:	43435200 	movtmi	r5, #12800	; 0x3200
    2bd8:	4950475f 	ldmdbmi	r0, {r0, r1, r2, r3, r4, r6, r8, r9, sl, lr}^
    2bdc:	435f434f 	cmpmi	pc, #1006632961	; 0x3c000001
    2be0:	455f4b4c 	ldrbmi	r4, [pc, #-2892]	; 209c <_Min_Stack_Size+0x1c9c>
    2be4:	2029284e 	eorcs	r2, r9, lr, asr #16
    2be8:	43522028 	cmpmi	r2, #40	; 0x28
    2bec:	413e2d43 	teqmi	lr, r3, asr #26
    2bf0:	45324250 	ldrmi	r4, [r2, #-592]!	; 0xfffffdb0
    2bf4:	7c20524e 	sfmvc	f5, 4, [r0], #-312	; 0xfffffec8
    2bf8:	3128203d 			; <UNDEFINED> instruction: 0x3128203d
    2bfc:	29343c3c 	ldmdbcs	r4!, {r2, r3, r4, r5, sl, fp, ip, sp}
    2c00:	53002920 	movwpl	r2, #2336	; 0x920
    2c04:	32334d54 	eorscc	r4, r3, #84, 26	; 0x1500
    2c08:	33303146 	teqcc	r0, #-2147483631	; 0x80000011
    2c0c:	78543843 	ldmdavc	r4, {r0, r1, r6, fp, ip, sp}^
    2c10:	49003120 	stmdbmi	r0, {r5, r8, ip, sp}
    2c14:	535f4332 	cmppl	pc, #-939524096	; 0xc8000000
    2c18:	445f3252 	ldrbmi	r3, [pc], #-594	; 2c20 <_Min_Stack_Size+0x2820>
    2c1c:	464c4155 			; <UNDEFINED> instruction: 0x464c4155
    2c20:	43324920 	teqmi	r2, #32, 18	; 0x80000
    2c24:	3252535f 	subscc	r5, r2, #2080374785	; 0x7c000001
    2c28:	4155445f 	cmpmi	r5, pc, asr r4
    2c2c:	4d5f464c 	ldclmi	6, cr4, [pc, #-304]	; 2b04 <_Min_Stack_Size+0x2704>
    2c30:	5f006b73 	svcpl	0x00006b73
    2c34:	746e695f 	strbtvc	r6, [lr], #-2399	; 0xfffff6a1
    2c38:	7361665f 	cmnvc	r1, #99614720	; 0x5f00000
    2c3c:	5f343674 	svcpl	0x00343674
    2c40:	65645f74 	strbvs	r5, [r4, #-3956]!	; 0xfffff08c
    2c44:	656e6966 	strbvs	r6, [lr, #-2406]!	; 0xfffff69a
    2c48:	00312064 	eorseq	r2, r1, r4, rrx
    2c4c:	49545845 	ldmdbmi	r4, {r0, r2, r6, fp, ip, lr}^
    2c50:	30415030 	subcc	r5, r1, r0, lsr r0
    2c54:	58452820 	stmdapl	r5, {r5, fp, sp}^
    2c58:	475f4954 			; <UNDEFINED> instruction: 0x475f4954
    2c5c:	5f4f4950 	svcpl	0x004f4950
    2c60:	7070614d 	rsbsvc	r6, r0, sp, asr #2
    2c64:	5f676e69 	svcpl	0x00676e69
    2c68:	457b2974 	ldrbmi	r2, [fp, #-2420]!	; 0xfffff68c
    2c6c:	30495458 	subcc	r5, r9, r8, asr r4
    2c70:	5047202c 	subpl	r2, r7, ip, lsr #32
    2c74:	20414f49 	subcs	r4, r1, r9, asr #30
    2c78:	5047202c 	subpl	r2, r7, ip, lsr #32
    2c7c:	505f4f49 	subspl	r4, pc, r9, asr #30
    2c80:	305f4e49 	subscc	r4, pc, r9, asr #28
    2c84:	45202c20 	strmi	r2, [r0, #-3104]!	; 0xfffff3e0
    2c88:	30495458 	subcc	r5, r9, r8, asr r4
    2c8c:	5152495f 	cmppl	r2, pc, asr r9
    2c90:	4e007d20 	cdpmi	13, 0, cr7, cr0, cr0, {1}
    2c94:	5f434956 	svcpl	0x00434956
    2c98:	33515249 	cmpcc	r1, #-1879048188	; 0x90000004
    2c9c:	53555f37 	cmppl	r5, #55, 30	; 0xdc
    2ca0:	31545241 	cmpcc	r4, r1, asr #4
    2ca4:	616e455f 	cmnvs	lr, pc, asr r5
    2ca8:	20656c62 	rsbcs	r6, r5, r2, ror #24
    2cac:	49564e28 	ldmdbmi	r6, {r3, r5, r9, sl, fp, lr}^
    2cb0:	53495f43 	movtpl	r5, #40771	; 0x9f43
    2cb4:	20315245 	eorscs	r5, r1, r5, asr #4
    2cb8:	31203d7c 			; <UNDEFINED> instruction: 0x31203d7c
    2cbc:	20283c3c 	eorcs	r3, r8, ip, lsr ip
    2cc0:	52415355 	subpl	r5, r1, #1409286145	; 0x54000001
    2cc4:	495f3154 	ldmdbmi	pc, {r2, r4, r6, r8, ip, sp}^	; <UNPREDICTABLE>
    2cc8:	2d205152 	stfcss	f5, [r0, #-328]!	; 0xfffffeb8
    2ccc:	20323320 	eorscs	r3, r2, r0, lsr #6
    2cd0:	5f002929 	svcpl	0x00002929
    2cd4:	5a49535f 	bpl	1257a58 <_Min_Stack_Size+0x1257658>
    2cd8:	5f464f45 	svcpl	0x00464f45
    2cdc:	524f4853 	subpl	r4, pc, #5439488	; 0x530000
    2ce0:	205f5f54 	subscs	r5, pc, r4, asr pc	; <UNPREDICTABLE>
    2ce4:	5f5f0032 	svcpl	0x005f0032
    2ce8:	414c4c55 	cmpmi	ip, r5, asr ip
    2cec:	4d554343 	ldclmi	3, cr4, [r5, #-268]	; 0xfffffef4
    2cf0:	4942465f 	stmdbmi	r2, {r0, r1, r2, r3, r4, r6, r9, sl, lr}^
    2cf4:	205f5f54 	subscs	r5, pc, r4, asr pc	; <UNPREDICTABLE>
    2cf8:	5f003233 	svcpl	0x00003233
    2cfc:	4e454552 	mcrmi	5, 2, r4, cr5, cr2, {2}
    2d00:	4e495f54 	mcrmi	15, 2, r5, cr9, cr4, {2}
    2d04:	525f5449 	subspl	r5, pc, #1224736768	; 0x49000000
    2d08:	52455345 	subpl	r5, r5, #335544321	; 0x14000001
    2d0c:	5f444556 	svcpl	0x00444556
    2d10:	49002030 	stmdbmi	r0, {r4, r5, sp}
    2d14:	535f4332 	cmppl	pc, #-939524096	; 0xc8000000
    2d18:	535f3152 	cmppl	pc, #-2147483628	; 0x80000014
    2d1c:	32492042 	subcc	r2, r9, #66	; 0x42
    2d20:	52535f43 	subspl	r5, r3, #268	; 0x10c
    2d24:	42535f31 	subsmi	r5, r3, #49, 30	; 0xc4
    2d28:	6b734d5f 	blvs	1cd62ac <_Min_Stack_Size+0x1cd5eac>
    2d2c:	49564e00 	ldmdbmi	r6, {r9, sl, fp, lr}^
    2d30:	53495f43 	movtpl	r5, #40771	; 0x9f43
    2d34:	20325245 	eorscs	r5, r2, r5, asr #4
    2d38:	6f76282a 	svcvs	0x0076282a
    2d3c:	6974616c 	ldmdbvs	r4!, {r2, r3, r5, r6, r8, sp, lr}^
    2d40:	7520656c 	strvc	r6, [r0, #-1388]!	; 0xfffffa94
    2d44:	33746e69 	cmncc	r4, #1680	; 0x690
    2d48:	20745f32 	rsbscs	r5, r4, r2, lsr pc
    2d4c:	4e28292a 	vmulmi.f16	s4, s16, s21	; <UNPREDICTABLE>
    2d50:	5f434956 	svcpl	0x00434956
    2d54:	65736142 	ldrbvs	r6, [r3, #-322]!	; 0xfffffebe
    2d58:	30202b20 	eorcc	r2, r0, r0, lsr #22
    2d5c:	00293878 	eoreq	r3, r9, r8, ror r8
    2d60:	45445f5f 	strbmi	r5, [r4, #-3935]	; 0xfffff0a1
    2d64:	534e4f43 	movtpl	r4, #61251	; 0xef43
    2d68:	79742854 	ldmdbvc	r4!, {r2, r4, r6, fp, sp}^
    2d6c:	762c6570 			; <UNDEFINED> instruction: 0x762c6570
    2d70:	20297261 	eorcs	r7, r9, r1, ror #4
    2d74:	79742828 	ldmdbvc	r4!, {r3, r5, fp, sp}^
    2d78:	28296570 	stmdacs	r9!, {r4, r5, r6, r8, sl, sp, lr}
    2d7c:	69755f5f 	ldmdbvs	r5!, {r0, r1, r2, r3, r4, r6, r8, r9, sl, fp, ip, lr}^
    2d80:	7470746e 	ldrbtvc	r7, [r0], #-1134	; 0xfffffb92
    2d84:	29745f72 	ldmdbcs	r4!, {r1, r4, r5, r6, r8, r9, sl, fp, ip, lr}^
    2d88:	6e6f6328 	cdpvs	3, 6, cr6, cr15, cr8, {1}
    2d8c:	76207473 			; <UNDEFINED> instruction: 0x76207473
    2d90:	2064696f 	rsbcs	r6, r4, pc, ror #18
    2d94:	7628292a 	strtvc	r2, [r8], -sl, lsr #18
    2d98:	29297261 	stmdbcs	r9!, {r0, r5, r6, r9, ip, sp, lr}
    2d9c:	41535500 	cmpmi	r3, r0, lsl #10
    2da0:	20325452 	eorscs	r5, r2, r2, asr r4
    2da4:	53552828 	cmppl	r5, #40, 16	; 0x280000
    2da8:	5f545241 	svcpl	0x00545241
    2dac:	65707954 	ldrbvs	r7, [r0, #-2388]!	; 0xfffff6ac
    2db0:	20666544 	rsbcs	r6, r6, r4, asr #10
    2db4:	5355292a 	cmppl	r5, #688128	; 0xa8000
    2db8:	32545241 	subscc	r5, r4, #268435460	; 0x10000004
    2dbc:	5341425f 	movtpl	r4, #4703	; 0x125f
    2dc0:	49002945 	stmdbmi	r0, {r0, r2, r6, r8, fp, sp}
    2dc4:	5f314332 	svcpl	0x00314332
    2dc8:	45534142 	ldrbmi	r4, [r3, #-322]	; 0xfffffebe
    2dcc:	78302820 	ldmdavc	r0!, {r5, fp, sp}
    2dd0:	30303034 	eorscc	r3, r0, r4, lsr r0
    2dd4:	30303435 	eorscc	r3, r0, r5, lsr r4
    2dd8:	00294c55 	eoreq	r4, r9, r5, asr ip
    2ddc:	5359535f 	cmppl	r9, #2080374785	; 0x7c000001
    2de0:	4145465f 	cmpmi	r5, pc, asr r6
    2de4:	45525554 	ldrbmi	r5, [r2, #-1364]	; 0xfffffaac
    2de8:	20485f53 	subcs	r5, r8, r3, asr pc
    2dec:	49504700 	ldmdbmi	r0, {r8, r9, sl, lr}^
    2df0:	425f414f 	subsmi	r4, pc, #-1073741805	; 0xc0000013
    2df4:	20455341 	subcs	r5, r5, r1, asr #6
    2df8:	72655028 	rsbvc	r5, r5, #40	; 0x28
    2dfc:	65687069 	strbvs	r7, [r8, #-105]!	; 0xffffff97
    2e00:	736c6172 	cmnvc	ip, #-2147483620	; 0x8000001c
    2e04:	5341425f 	movtpl	r4, #4703	; 0x125f
    2e08:	202b2045 	eorcs	r2, fp, r5, asr #32
    2e0c:	30307830 	eorscc	r7, r0, r0, lsr r8
    2e10:	38303130 	ldmdacc	r0!, {r4, r5, r8, ip, sp}
    2e14:	4c553030 	mrrcmi	0, 3, r3, r5, cr0
    2e18:	5f5f0029 	svcpl	0x005f0029
    2e1c:	6e696f6e 	cdpvs	15, 6, cr6, cr9, cr14, {3}
    2e20:	656e696c 	strbvs	r6, [lr, #-2412]!	; 0xfffff694
    2e24:	615f5f20 	cmpvs	pc, r0, lsr #30
    2e28:	69727474 	ldmdbvs	r2!, {r2, r4, r5, r6, sl, ip, sp, lr}^
    2e2c:	65747562 	ldrbvs	r7, [r4, #-1378]!	; 0xfffffa9e
    2e30:	28205f5f 	stmdacs	r0!, {r0, r1, r2, r3, r4, r6, r8, r9, sl, fp, ip, lr}
    2e34:	6e5f5f28 	cdpvs	15, 5, cr5, cr15, cr8, {1}
    2e38:	6c6e696f 			; <UNDEFINED> instruction: 0x6c6e696f
    2e3c:	5f656e69 	svcpl	0x00656e69
    2e40:	0029295f 	eoreq	r2, r9, pc, asr r9
    2e44:	43414d5f 	movtmi	r4, #7519	; 0x1d5f
    2e48:	44545348 	ldrbmi	r5, [r4], #-840	; 0xfffffcb8
    2e4c:	5f42494c 	svcpl	0x0042494c
    2e50:	00205f48 	eoreq	r5, r0, r8, asr #30
    2e54:	4f495047 	svcmi	0x00495047
    2e58:	4e49505f 	mcrmi	0, 2, r5, cr9, cr15, {2}
    2e5c:	2820335f 	stmdacs	r0!, {r0, r1, r2, r3, r4, r6, r8, r9, ip, sp}
    2e60:	6e697528 	cdpvs	5, 6, cr7, cr9, cr8, {1}
    2e64:	5f363174 	svcpl	0x00363174
    2e68:	78302974 	ldmdavc	r0!, {r2, r4, r5, r6, r8, fp, sp}
    2e6c:	38303030 	ldmdacc	r0!, {r4, r5, ip, sp}
    2e70:	5f5f0029 	svcpl	0x005f0029
    2e74:	455a4953 	ldrbmi	r4, [sl, #-2387]	; 0xfffff6ad
    2e78:	4c5f464f 	mrrcmi	6, 4, r4, pc, cr15	; <UNPREDICTABLE>
    2e7c:	5f474e4f 	svcpl	0x00474e4f
    2e80:	42554f44 	subsmi	r4, r5, #68, 30	; 0x110
    2e84:	5f5f454c 	svcpl	0x005f454c
    2e88:	5f003820 	svcpl	0x00003820
    2e8c:	4152505f 	cmpmi	r2, pc, asr r0
    2e90:	5f414d47 	svcpl	0x00414d47
    2e94:	45444552 	strbmi	r4, [r4, #-1362]	; 0xfffffaae
    2e98:	454e4946 	strbmi	r4, [lr, #-2374]	; 0xfffff6ba
    2e9c:	5458455f 	ldrbpl	r4, [r8], #-1375	; 0xfffffaa1
    2ea0:	454d414e 	strbmi	r4, [sp, #-334]	; 0xfffffeb2
    2ea4:	5f003120 	svcpl	0x00003120
    2ea8:	4843575f 	stmdami	r3, {r0, r1, r2, r3, r4, r6, r8, r9, sl, ip, lr}^
    2eac:	545f5241 	ldrbpl	r5, [pc], #-577	; 2eb4 <_Min_Stack_Size+0x2ab4>
    2eb0:	5f455059 	svcpl	0x00455059
    2eb4:	6e75205f 	mrcvs	0, 3, r2, cr5, cr15, {2}
    2eb8:	6e676973 			; <UNDEFINED> instruction: 0x6e676973
    2ebc:	69206465 	stmdbvs	r0!, {r0, r2, r5, r6, sl, sp, lr}
    2ec0:	5f00746e 	svcpl	0x0000746e
    2ec4:	4e454552 	mcrmi	5, 2, r4, cr5, cr2, {2}
    2ec8:	49535f54 	ldmdbmi	r3, {r2, r4, r6, r8, r9, sl, fp, ip, lr}^
    2ecc:	41474e47 	cmpmi	r7, r7, asr #28
    2ed0:	7470284d 	ldrbtvc	r2, [r0], #-2125	; 0xfffff7b3
    2ed4:	28202972 	stmdacs	r0!, {r1, r4, r5, r6, r8, fp, sp}
    2ed8:	72747028 	rsbsvc	r7, r4, #40	; 0x28
    2edc:	5f3e2d29 	svcpl	0x003e2d29
    2ee0:	6d6d6167 	stfvse	f6, [sp, #-412]!	; 0xfffffe64
    2ee4:	69735f61 	ldmdbvs	r3!, {r0, r5, r6, r8, r9, sl, fp, ip, lr}^
    2ee8:	61676e67 	cmnvs	r7, r7, ror #28
    2eec:	4500296d 	strmi	r2, [r0, #-2413]	; 0xfffff693
    2ef0:	34495458 	strbcc	r5, [r9], #-1112	; 0xfffffba8
    2ef4:	5152495f 	cmppl	r2, pc, asr r9
    2ef8:	646e6148 	strbtvs	r6, [lr], #-328	; 0xfffffeb8
    2efc:	0072656c 	rsbseq	r6, r2, ip, ror #10
    2f00:	53555f5f 	cmppl	r5, #380	; 0x17c
    2f04:	42495f41 	submi	r5, r9, #260	; 0x104
    2f08:	5f5f5449 	svcpl	0x005f5449
    2f0c:	00363120 	eorseq	r3, r6, r0, lsr #2
    2f10:	4f445f5f 	svcmi	0x00445f5f
    2f14:	454c4255 	strbmi	r4, [ip, #-597]	; 0xfffffdab
    2f18:	5059545f 	subspl	r5, r9, pc, asr r4
    2f1c:	6f642045 	svcvs	0x00642045
    2f20:	656c6275 	strbvs	r6, [ip, #-629]!	; 0xfffffd8b
    2f24:	54584500 	ldrbpl	r4, [r8], #-1280	; 0xfffffb00
    2f28:	6f435f49 	svcvs	0x00435f49
    2f2c:	6769666e 	strbvs	r6, [r9, -lr, ror #12]!
    2f30:	544e4900 	strbpl	r4, [lr], #-2304	; 0xfffff700
    2f34:	5f58414d 	svcpl	0x0058414d
    2f38:	29782843 	ldmdbcs	r8!, {r0, r1, r6, fp, sp}^
    2f3c:	495f5f20 	ldmdbmi	pc, {r5, r8, r9, sl, fp, ip, lr}^	; <UNPREDICTABLE>
    2f40:	414d544e 	cmpmi	sp, lr, asr #8
    2f44:	28435f58 	stmdacs	r3, {r3, r4, r6, r8, r9, sl, fp, ip, lr}^
    2f48:	5f002978 	svcpl	0x00002978
    2f4c:	65656e5f 	strbvs	r6, [r5, #-3679]!	; 0xfffff1a1
    2f50:	63775f64 	cmnvs	r7, #100, 30	; 0x190
    2f54:	5f726168 	svcpl	0x00726168
    2f58:	5f002074 	svcpl	0x00002074
    2f5c:	6469685f 	strbtvs	r6, [r9], #-2143	; 0xfffff7a1
    2f60:	206e6564 	rsbcs	r6, lr, r4, ror #10
    2f64:	74615f5f 	strbtvc	r5, [r1], #-3935	; 0xfffff0a1
    2f68:	62697274 	rsbvs	r7, r9, #116, 4	; 0x40000007
    2f6c:	5f657475 	svcpl	0x00657475
    2f70:	5f28285f 	svcpl	0x0028285f
    2f74:	7369765f 	cmnvc	r9, #99614720	; 0x5f00000
    2f78:	6c696269 	sfmvs	f6, 2, [r9], #-420	; 0xfffffe5c
    2f7c:	5f797469 	svcpl	0x00797469
    2f80:	6822285f 	stmdavs	r2!, {r0, r1, r2, r3, r4, r6, fp, sp}
    2f84:	65646469 	strbvs	r6, [r4, #-1129]!	; 0xfffffb97
    2f88:	2929226e 	stmdbcs	r9!, {r1, r2, r3, r5, r6, r9, sp}
    2f8c:	4e490029 	cdpmi	0, 4, cr0, cr9, cr9, {1}
    2f90:	454c5f54 	strbmi	r5, [ip, #-3924]	; 0xfffff0ac
    2f94:	33545341 	cmpcc	r4, #67108865	; 0x4000001
    2f98:	414d5f32 	cmpmi	sp, r2, lsr pc
    2f9c:	5f282058 	svcpl	0x00282058
    2fa0:	544e495f 	strbpl	r4, [lr], #-2399	; 0xfffff6a1
    2fa4:	41454c5f 	cmpmi	r5, pc, asr ip
    2fa8:	32335453 	eorscc	r5, r3, #1392508928	; 0x53000000
    2fac:	58414d5f 	stmdapl	r1, {r0, r1, r2, r3, r4, r6, r8, sl, fp, lr}^
    2fb0:	00295f5f 	eoreq	r5, r9, pc, asr pc
    2fb4:	46535f5f 	usaxmi	r5, r3, pc	; <UNPREDICTABLE>
    2fb8:	54434152 	strbpl	r4, [r3], #-338	; 0xfffffeae
    2fbc:	58414d5f 	stmdapl	r1, {r0, r1, r2, r3, r4, r6, r8, sl, fp, lr}^
    2fc0:	30205f5f 	eorcc	r5, r0, pc, asr pc
    2fc4:	50463758 	subpl	r3, r6, r8, asr r7
    2fc8:	5248372d 	subpl	r3, r8, #11796480	; 0xb40000
    2fcc:	555f5f00 	ldrbpl	r5, [pc, #-3840]	; 20d4 <_Min_Stack_Size+0x1cd4>
    2fd0:	5f544e49 	svcpl	0x00544e49
    2fd4:	54534146 	ldrbpl	r4, [r3], #-326	; 0xfffffeba
    2fd8:	545f3436 	ldrbpl	r3, [pc], #-1078	; 2fe0 <_Min_Stack_Size+0x2be0>
    2fdc:	5f455059 	svcpl	0x00455059
    2fe0:	6f6c205f 	svcvs	0x006c205f
    2fe4:	6c20676e 	stcvs	7, cr6, [r0], #-440	; 0xfffffe48
    2fe8:	20676e6f 	rsbcs	r6, r7, pc, ror #28
    2fec:	69736e75 	ldmdbvs	r3!, {r0, r2, r4, r5, r6, r9, sl, fp, sp, lr}^
    2ff0:	64656e67 	strbtvs	r6, [r5], #-3687	; 0xfffff199
    2ff4:	746e6920 	strbtvc	r6, [lr], #-2336	; 0xfffff6e0
    2ff8:	49575f00 	ldmdbmi	r7, {r8, r9, sl, fp, ip, lr}^
    2ffc:	545f544e 	ldrbpl	r5, [pc], #-1102	; 3004 <_Min_Stack_Size+0x2c04>
    3000:	4e490020 	cdpmi	0, 4, cr0, cr9, cr0, {1}
    3004:	454c5f54 	strbmi	r5, [ip, #-3924]	; 0xfffff0ac
    3008:	38545341 	ldmdacc	r4, {r0, r6, r8, r9, ip, lr}^
    300c:	58414d5f 	stmdapl	r1, {r0, r1, r2, r3, r4, r6, r8, sl, fp, lr}^
    3010:	5f5f2820 	svcpl	0x005f2820
    3014:	5f544e49 	svcpl	0x00544e49
    3018:	5341454c 	movtpl	r4, #5452	; 0x154c
    301c:	4d5f3854 	ldclmi	8, cr3, [pc, #-336]	; 2ed4 <_Min_Stack_Size+0x2ad4>
    3020:	5f5f5841 	svcpl	0x005f5841
    3024:	5f5f0029 	svcpl	0x005f0029
    3028:	5f544c46 	svcpl	0x00544c46
    302c:	5f4e494d 	svcpl	0x004e494d
    3030:	2e31205f 	mrccs	0, 1, r2, cr1, cr15, {2}
    3034:	34353731 	ldrtcc	r3, [r5], #-1841	; 0xfffff8cf
    3038:	35333439 	ldrcc	r3, [r3, #-1081]!	; 0xfffffbc7
    303c:	32323830 	eorscc	r3, r2, #48, 16	; 0x300000
    3040:	35373832 	ldrcc	r3, [r7, #-2098]!	; 0xfffff7ce
    3044:	38332d65 	ldmdacc	r3!, {r0, r2, r5, r6, r8, sl, fp, sp}
    3048:	5f5f0046 	svcpl	0x005f0046
    304c:	6465656e 	strbtvs	r6, [r5], #-1390	; 0xfffffa92
    3050:	7a69735f 	bvc	1a5fdd4 <_Min_Stack_Size+0x1a5f9d4>
    3054:	20745f65 	rsbscs	r5, r4, r5, ror #30
    3058:	485f5f00 	ldmdami	pc, {r8, r9, sl, fp, ip, lr}^	; <UNPREDICTABLE>
    305c:	42465f41 	submi	r5, r6, #260	; 0x104
    3060:	5f5f5449 	svcpl	0x005f5449
    3064:	5f003720 	svcpl	0x00003720
    3068:	5044465f 	subpl	r4, r4, pc, asr r6
    306c:	5f5f4349 	svcpl	0x005f4349
    3070:	43324900 	teqmi	r2, #0, 18
    3074:	52414f5f 	subpl	r4, r1, #380	; 0x17c
    3078:	44415f32 	strbmi	r5, [r1], #-3890	; 0xfffff0ce
    307c:	505f3244 	subspl	r3, pc, r4, asr #4
    3080:	2820736f 	stmdacs	r0!, {r0, r1, r2, r3, r5, r6, r8, r9, ip, sp, lr}
    3084:	00295531 	eoreq	r5, r9, r1, lsr r5
    3088:	4c465f5f 	mcrrmi	15, 5, r5, r6, cr15
    308c:	414d5f54 	cmpmi	sp, r4, asr pc
    3090:	205f5f58 	subscs	r5, pc, r8, asr pc	; <UNPREDICTABLE>
    3094:	30342e33 	eorscc	r2, r4, r3, lsr lr
    3098:	33323832 	teqcc	r2, #3276800	; 0x320000
    309c:	33363634 	teqcc	r6, #52, 12	; 0x3400000
    30a0:	38323538 	ldmdacc	r2!, {r3, r4, r5, r8, sl, ip, sp}
    30a4:	2b653638 	blcs	195098c <_Min_Stack_Size+0x195058c>
    30a8:	00463833 	subeq	r3, r6, r3, lsr r8
    30ac:	4c465f5f 	mcrrmi	15, 5, r5, r6, cr15
    30b0:	5f323354 	svcpl	0x00323354
    30b4:	495f5349 	ldmdbmi	pc, {r0, r3, r6, r8, r9, ip, lr}^	; <UNPREDICTABLE>
    30b8:	365f4345 	ldrbcc	r4, [pc], -r5, asr #6
    30bc:	39353530 	ldmdbcc	r5!, {r4, r5, r8, sl, ip, sp}
    30c0:	32205f5f 	eorcc	r5, r0, #380	; 0x17c
    30c4:	47495300 	strbmi	r5, [r9, -r0, lsl #6]
    30c8:	4f54415f 	svcmi	0x0054415f
    30cc:	5f43494d 	svcpl	0x0043494d
    30d0:	2058414d 	subscs	r4, r8, sp, asr #2
    30d4:	535f5f28 	cmppl	pc, #40, 30	; 0xa0
    30d8:	4e494454 	mcrmi	4, 2, r4, cr9, cr4, {2}
    30dc:	58455f54 	stmdapl	r5, {r2, r4, r6, r8, r9, sl, fp, ip, lr}^
    30e0:	4e492850 	mcrmi	8, 2, r2, cr9, cr0, {2}
    30e4:	414d5f54 	cmpmi	sp, r4, asr pc
    30e8:	00292958 	eoreq	r2, r9, r8, asr r9
    30ec:	5f433249 	svcpl	0x00433249
    30f0:	5f325243 	svcpl	0x00325243
    30f4:	52455449 	subpl	r5, r5, #1224736768	; 0x49000000
    30f8:	5f4e4552 	svcpl	0x004e4552
    30fc:	206b734d 	rsbcs	r7, fp, sp, asr #6
    3100:	31783028 	cmncc	r8, r8, lsr #32
    3104:	3c204c55 	stccc	12, cr4, [r0], #-340	; 0xfffffeac
    3108:	3249203c 	subcc	r2, r9, #60	; 0x3c
    310c:	52435f43 	subpl	r5, r3, #268	; 0x10c
    3110:	54495f32 	strbpl	r5, [r9], #-3890	; 0xfffff0ce
    3114:	45525245 	ldrbmi	r5, [r2, #-581]	; 0xfffffdbb
    3118:	6f505f4e 	svcvs	0x00505f4e
    311c:	47002973 	smlsdxmi	r0, r3, r9, r2
    3120:	5f4f4950 	svcpl	0x004f4950
    3124:	5f4e4950 	svcpl	0x004e4950
    3128:	4b53414d 	blmi	14d3664 <_Min_Stack_Size+0x14d3264>
    312c:	30783020 	rsbscc	r3, r8, r0, lsr #32
    3130:	46303030 			; <UNDEFINED> instruction: 0x46303030
    3134:	75464646 	strbvc	r4, [r6, #-1606]	; 0xfffff9ba
    3138:	4e495500 	cdpmi	5, 4, cr5, cr9, cr0, {0}
    313c:	41465f54 	cmpmi	r6, r4, asr pc
    3140:	32335453 	eorscc	r5, r3, #1392508928	; 0x53000000
    3144:	58414d5f 	stmdapl	r1, {r0, r1, r2, r3, r4, r6, r8, sl, fp, lr}^
    3148:	5f5f2820 	svcpl	0x005f2820
    314c:	544e4955 	strbpl	r4, [lr], #-2389	; 0xfffff6ab
    3150:	5341465f 	movtpl	r4, #5727	; 0x165f
    3154:	5f323354 	svcpl	0x00323354
    3158:	5f58414d 	svcpl	0x0058414d
    315c:	5300295f 	movwpl	r2, #2399	; 0x95f
    3160:	5f324950 	svcpl	0x00324950
    3164:	20515249 	subscs	r5, r1, r9, asr #4
    3168:	49003633 	stmdbmi	r0, {r0, r1, r4, r5, r9, sl, ip, sp}
    316c:	535f4332 	cmppl	pc, #-939524096	; 0xc8000000
    3170:	415f3152 	cmpmi	pc, r2, asr r1	; <UNPREDICTABLE>
    3174:	30314444 	eorscc	r4, r1, r4, asr #8
    3178:	6b734d5f 	blvs	1cd66fc <_Min_Stack_Size+0x1cd62fc>
    317c:	78302820 	ldmdavc	r0!, {r5, fp, sp}
    3180:	204c5531 	subcs	r5, ip, r1, lsr r5
    3184:	49203c3c 	stmdbmi	r0!, {r2, r3, r4, r5, sl, fp, ip, sp}
    3188:	535f4332 	cmppl	pc, #-939524096	; 0xc8000000
    318c:	415f3152 	cmpmi	pc, r2, asr r1	; <UNPREDICTABLE>
    3190:	30314444 	eorscc	r4, r1, r4, asr #8
    3194:	736f505f 	cmnvc	pc, #95	; 0x5f
    3198:	43520029 	cmpmi	r2, #41	; 0x29
    319c:	50475f43 	subpl	r5, r7, r3, asr #30
    31a0:	5f424f49 	svcpl	0x00424f49
    31a4:	5f4b4c43 	svcpl	0x004b4c43
    31a8:	29284e45 	stmdbcs	r8!, {r0, r2, r6, r9, sl, fp, lr}
    31ac:	52202820 	eorpl	r2, r0, #32, 16	; 0x200000
    31b0:	3e2d4343 	cdpcc	3, 2, cr4, cr13, cr3, {2}
    31b4:	32425041 	subcc	r5, r2, #65	; 0x41
    31b8:	20524e45 	subscs	r4, r2, r5, asr #28
    31bc:	28203d7c 	stmdacs	r0!, {r2, r3, r4, r5, r6, r8, sl, fp, ip, sp}
    31c0:	333c3c31 	teqcc	ip, #12544	; 0x3100
    31c4:	00292029 	eoreq	r2, r9, r9, lsr #32
    31c8:	4349564e 	movtmi	r5, #38478	; 0x964e
    31cc:	4543495f 	strbmi	r4, [r3, #-2399]	; 0xfffff6a1
    31d0:	2a203052 	bcs	80f320 <_Min_Stack_Size+0x80ef20>
    31d4:	6c6f7628 	stclvs	6, cr7, [pc], #-160	; 313c <_Min_Stack_Size+0x2d3c>
    31d8:	6c697461 	cfstrdvs	mvd7, [r9], #-388	; 0xfffffe7c
    31dc:	69752065 	ldmdbvs	r5!, {r0, r2, r5, r6, sp}^
    31e0:	3233746e 	eorscc	r7, r3, #1845493760	; 0x6e000000
    31e4:	2a20745f 	bcs	820368 <_Min_Stack_Size+0x81ff68>
    31e8:	564e2829 	strbpl	r2, [lr], -r9, lsr #16
    31ec:	425f4349 	subsmi	r4, pc, #603979777	; 0x24000001
    31f0:	20657361 	rsbcs	r7, r5, r1, ror #6
    31f4:	7830202b 	ldmdavc	r0!, {r0, r1, r3, r5, sp}
    31f8:	00293038 	eoreq	r3, r9, r8, lsr r0
    31fc:	53555f5f 	cmppl	r5, #380	; 0x17c
    3200:	43415246 	movtmi	r5, #4678	; 0x1246
    3204:	42495f54 	submi	r5, r9, #84, 30	; 0x150
    3208:	5f5f5449 	svcpl	0x005f5449
    320c:	5f003020 	svcpl	0x00003020
    3210:	544e495f 	strbpl	r4, [lr], #-2399	; 0xfffff6a1
    3214:	435f3233 	cmpmi	pc, #805306371	; 0x30000003
    3218:	20296328 	eorcs	r6, r9, r8, lsr #6
    321c:	23232063 			; <UNDEFINED> instruction: 0x23232063
    3220:	5f004c20 	svcpl	0x00004c20
    3224:	6e69755f 	mcrvs	5, 3, r7, cr9, cr15, {2}
    3228:	5f363174 	svcpl	0x00363174
    322c:	525f0074 	subspl	r0, pc, #116	; 0x74
    3230:	544e4545 	strbpl	r4, [lr], #-1349	; 0xfffffabb
    3234:	494e495f 	stmdbmi	lr, {r0, r1, r2, r3, r4, r6, r8, fp, lr}^
    3238:	45525f54 	ldrbmi	r5, [r2, #-3924]	; 0xfffff0ac
    323c:	56524553 			; <UNDEFINED> instruction: 0x56524553
    3240:	315f4445 	cmpcc	pc, r5, asr #8
    3244:	525f0020 	subspl	r0, pc, #32
    3248:	544e4545 	strbpl	r4, [lr], #-1349	; 0xfffffabb
    324c:	4749535f 	smlsldmi	r5, r9, pc, r3	; <UNPREDICTABLE>
    3250:	5f4c414e 	svcpl	0x004c414e
    3254:	28465542 	stmdacs	r6, {r1, r6, r8, sl, ip, lr}^
    3258:	29727470 	ldmdbcs	r2!, {r4, r5, r6, sl, ip, sp, lr}^
    325c:	70282820 	eorvc	r2, r8, r0, lsr #16
    3260:	2d297274 	sfmcs	f7, 4, [r9, #-464]!	; 0xfffffe30
    3264:	69735f3e 	ldmdbvs	r3!, {r1, r2, r3, r4, r5, r8, r9, sl, fp, ip, lr}^
    3268:	6c616e67 	stclvs	14, cr6, [r1], #-412	; 0xfffffe64
    326c:	6675625f 			; <UNDEFINED> instruction: 0x6675625f
    3270:	50470029 	subpl	r0, r7, r9, lsr #32
    3274:	505f4f49 	subspl	r4, pc, r9, asr #30
    3278:	6f436e69 	svcvs	0x00436e69
    327c:	6769666e 	strbvs	r6, [r9, -lr, ror #12]!
    3280:	5f00745f 	svcpl	0x0000745f
    3284:	4653555f 			; <UNDEFINED> instruction: 0x4653555f
    3288:	54434152 	strbpl	r4, [r3], #-338	; 0xfffffeae
    328c:	4e494d5f 	mcrmi	13, 2, r4, cr9, cr15, {2}
    3290:	30205f5f 	eorcc	r5, r0, pc, asr pc
    3294:	4855302e 	ldmdami	r5, {r1, r2, r3, r5, ip, sp}^
    3298:	5f5f0052 	svcpl	0x005f0052
    329c:	64657375 	strbtvs	r7, [r5], #-885	; 0xfffffc8b
    32a0:	615f5f20 	cmpvs	pc, r0, lsr #30
    32a4:	69727474 	ldmdbvs	r2!, {r2, r4, r5, r6, sl, ip, sp, lr}^
    32a8:	65747562 	ldrbvs	r7, [r4, #-1378]!	; 0xfffffa9e
    32ac:	28285f5f 	stmdacs	r8!, {r0, r1, r2, r3, r4, r6, r8, r9, sl, fp, ip, lr}
    32b0:	73755f5f 	cmnvc	r5, #380	; 0x17c
    32b4:	5f5f6465 	svcpl	0x005f6465
    32b8:	5f002929 	svcpl	0x00002929
    32bc:	6e65675f 	mcrvs	7, 3, r6, cr5, cr15, {2}
    32c0:	63697265 	cmnvs	r9, #1342177286	; 0x50000006
    32c4:	70786528 	rsbsvc	r6, r8, r8, lsr #10
    32c8:	2c742c72 	ldclcs	12, cr2, [r4], #-456	; 0xfffffe38
    32cc:	2c736579 	cfldr64cs	mvdx6, [r3], #-484	; 0xfffffe1c
    32d0:	20296f6e 	eorcs	r6, r9, lr, ror #30
    32d4:	6e65475f 	mcrvs	7, 3, r4, cr5, cr15, {2}
    32d8:	63697265 	cmnvs	r9, #1342177286	; 0x50000006
    32dc:	70786528 	rsbsvc	r6, r8, r8, lsr #10
    32e0:	74202c72 	strtvc	r2, [r0], #-3186	; 0xfffff38e
    32e4:	6579203a 	ldrbvs	r2, [r9, #-58]!	; 0xffffffc6
    32e8:	64202c73 	strtvs	r2, [r0], #-3187	; 0xfffff38d
    32ec:	75616665 	strbvc	r6, [r1, #-1637]!	; 0xfffff99b
    32f0:	203a746c 	eorscs	r7, sl, ip, ror #8
    32f4:	00296f6e 	eoreq	r6, r9, lr, ror #30
    32f8:	52415f5f 	subpl	r5, r1, #380	; 0x17c
    32fc:	454e5f4d 	strbmi	r5, [lr, #-3917]	; 0xfffff0b3
    3300:	5f004e4f 	svcpl	0x00004e4f
    3304:	7373615f 	cmnvc	r3, #-1073741801	; 0xc0000017
    3308:	73747265 	cmnvc	r4, #1342177286	; 0x50000006
    330c:	6378655f 	cmnvs	r8, #398458880	; 0x17c00000
    3310:	6973756c 	ldmdbvs	r3!, {r2, r3, r5, r6, r8, sl, ip, sp, lr}^
    3314:	2e286576 	mcrcs	5, 1, r6, cr8, cr6, {3}
    3318:	20292e2e 	eorcs	r2, r9, lr, lsr #28
    331c:	6f6c5f5f 	svcvs	0x006c5f5f
    3320:	615f6b63 	cmpvs	pc, r3, ror #22
    3324:	746f6e6e 	strbtvc	r6, [pc], #-3694	; 332c <_Min_Stack_Size+0x2f2c>
    3328:	28657461 	stmdacs	r5!, {r0, r5, r6, sl, ip, sp, lr}^
    332c:	65737361 	ldrbvs	r7, [r3, #-865]!	; 0xfffffc9f
    3330:	655f7472 	ldrbvs	r7, [pc, #-1138]	; 2ec6 <_Min_Stack_Size+0x2ac6>
    3334:	756c6378 	strbvc	r6, [ip, #-888]!	; 0xfffffc88
    3338:	65766973 	ldrbvs	r6, [r6, #-2419]!	; 0xfffff68d
    333c:	636f6c5f 	cmnvs	pc, #24320	; 0x5f00
    3340:	5f5f286b 	svcpl	0x005f286b
    3344:	415f4156 	cmpmi	pc, r6, asr r1	; <UNPREDICTABLE>
    3348:	5f534752 	svcpl	0x00534752
    334c:	0029295f 	eoreq	r2, r9, pc, asr r9
    3350:	49555f5f 	ldmdbmi	r5, {r0, r1, r2, r3, r4, r6, r8, r9, sl, fp, ip, lr}^
    3354:	5f38544e 	svcpl	0x0038544e
    3358:	5f58414d 	svcpl	0x0058414d
    335c:	7830205f 	ldmdavc	r0!, {r0, r1, r2, r3, r4, r6, sp}
    3360:	5f006666 	svcpl	0x00006666
    3364:	6e695f5f 	mcrvs	15, 3, r5, cr9, cr15, {2}
    3368:	5f363174 	svcpl	0x00363174
    336c:	65645f74 	strbvs	r5, [r4, #-3956]!	; 0xfffff08c
    3370:	656e6966 	strbvs	r6, [lr, #-2406]!	; 0xfffff69a
    3374:	00312064 	eorseq	r2, r1, r4, rrx
    3378:	4545525f 	strbmi	r5, [r5, #-607]	; 0xfffffda1
    337c:	5f20544e 	svcpl	0x0020544e
    3380:	75706d69 	ldrbvc	r6, [r0, #-3433]!	; 0xfffff297
    3384:	705f6572 	subsvc	r6, pc, r2, ror r5	; <UNPREDICTABLE>
    3388:	5f007274 	svcpl	0x00007274
    338c:	42444c5f 	submi	r4, r4, #24320	; 0x5f00
    3390:	414d5f4c 	cmpmi	sp, ip, asr #30
    3394:	58455f58 	stmdapl	r5, {r3, r4, r6, r8, r9, sl, fp, ip, lr}^
    3398:	205f5f50 	subscs	r5, pc, r0, asr pc	; <UNPREDICTABLE>
    339c:	34323031 	ldrtcc	r3, [r2], #-49	; 0xffffffcf
    33a0:	43324900 	teqmi	r2, #0, 18
    33a4:	3152535f 	cmpcc	r2, pc, asr r3
    33a8:	5f46415f 	svcpl	0x0046415f
    33ac:	206b734d 	rsbcs	r7, fp, sp, asr #6
    33b0:	31783028 	cmncc	r8, r8, lsr #32
    33b4:	3c204c55 	stccc	12, cr4, [r0], #-340	; 0xfffffeac
    33b8:	3249203c 	subcc	r2, r9, #60	; 0x3c
    33bc:	52535f43 	subspl	r5, r3, #268	; 0x10c
    33c0:	46415f31 			; <UNDEFINED> instruction: 0x46415f31
    33c4:	736f505f 	cmnvc	pc, #95	; 0x5f
    33c8:	58450029 	stmdapl	r5, {r0, r3, r5}^
    33cc:	505f4954 	subspl	r4, pc, r4, asr r9	; <UNPREDICTABLE>
    33d0:	6f436e69 	svcvs	0x00436e69
    33d4:	6769666e 	strbvs	r6, [r9, -lr, ror #12]!
    33d8:	4500745f 	strmi	r7, [r0, #-1119]	; 0xfffffba1
    33dc:	32495458 	subcc	r5, r9, #88, 8	; 0x58000000
    33e0:	5152495f 	cmppl	r2, pc, asr r9
    33e4:	5f003820 	svcpl	0x00003820
    33e8:	7078655f 	rsbsvc	r6, r8, pc, asr r5
    33ec:	6574726f 	ldrbvs	r7, [r4, #-623]!	; 0xfffffd91
    33f0:	5f5f2064 	svcpl	0x005f2064
    33f4:	72747461 	rsbsvc	r7, r4, #1627389952	; 0x61000000
    33f8:	74756269 	ldrbtvc	r6, [r5], #-617	; 0xfffffd97
    33fc:	285f5f65 	ldmdacs	pc, {r0, r2, r5, r6, r8, r9, sl, fp, ip, lr}^	; <UNPREDICTABLE>
    3400:	765f5f28 	ldrbvc	r5, [pc], -r8, lsr #30
    3404:	62697369 	rsbvs	r7, r9, #-1543503871	; 0xa4000001
    3408:	74696c69 	strbtvc	r6, [r9], #-3177	; 0xfffff397
    340c:	285f5f79 	ldmdacs	pc, {r0, r3, r4, r5, r6, r8, r9, sl, fp, ip, lr}^	; <UNPREDICTABLE>
    3410:	66656422 	strbtvs	r6, [r5], -r2, lsr #8
    3414:	746c7561 	strbtvc	r7, [ip], #-1377	; 0xfffffa9f
    3418:	29292922 	stmdbcs	r9!, {r1, r5, r8, fp, sp}
    341c:	535f5f00 	cmppl	pc, #0, 30
    3420:	49534343 	ldmdbmi	r3, {r0, r1, r6, r8, r9, lr}^
    3424:	29732844 	ldmdbcs	r3!, {r2, r6, fp, sp}^
    3428:	72747320 	rsbsvc	r7, r4, #32, 6	; 0x80000000
    342c:	20746375 	rsbscs	r6, r4, r5, ror r3
    3430:	61685f5f 	cmnvs	r8, pc, asr pc
    3434:	5f006b63 	svcpl	0x00006b63
    3438:	4c42445f 	cfstrdmi	mvd4, [r2], {95}	; 0x5f
    343c:	5341485f 	movtpl	r4, #6239	; 0x185f
    3440:	4e45445f 	mcrmi	4, 2, r4, cr5, cr15, {2}
    3444:	5f4d524f 	svcpl	0x004d524f
    3448:	0031205f 	eorseq	r2, r1, pc, asr r0
    344c:	6f6c5f5f 	svcvs	0x006c5f5f
    3450:	745f6b63 	ldrbvc	r6, [pc], #-2915	; 3458 <_Min_Stack_Size+0x3058>
    3454:	615f7972 	cmpvs	pc, r2, ror r9	; <UNPREDICTABLE>
    3458:	69757163 	ldmdbvs	r5!, {r0, r1, r5, r6, r8, ip, sp, lr}^
    345c:	725f6572 	subsvc	r6, pc, #478150656	; 0x1c800000
    3460:	72756365 	rsbsvc	r6, r5, #-1811939327	; 0x94000001
    3464:	65766973 	ldrbvs	r6, [r6, #-2419]!	; 0xfffff68d
    3468:	636f6c28 	cmnvs	pc, #40, 24	; 0x2800
    346c:	5f20296b 	svcpl	0x0020296b
    3470:	7465725f 	strbtvc	r7, [r5], #-607	; 0xfffffda1
    3474:	65677261 	strbvs	r7, [r7, #-609]!	; 0xfffffd9f
    3478:	6f6c5f74 	svcvs	0x006c5f74
    347c:	745f6b63 	ldrbvc	r6, [pc], #-2915	; 3484 <_Min_Stack_Size+0x3084>
    3480:	615f7972 	cmpvs	pc, r2, ror r9	; <UNPREDICTABLE>
    3484:	69757163 	ldmdbvs	r5!, {r0, r1, r5, r6, r8, ip, sp, lr}^
    3488:	725f6572 	subsvc	r6, pc, #478150656	; 0x1c800000
    348c:	72756365 	rsbsvc	r6, r5, #-1811939327	; 0x94000001
    3490:	65766973 	ldrbvs	r6, [r6, #-2419]!	; 0xfffff68d
    3494:	636f6c28 	cmnvs	pc, #40, 24	; 0x2800
    3498:	5f00296b 	svcpl	0x0000296b
    349c:	4e454552 	mcrmi	5, 2, r4, cr5, cr2, {2}
    34a0:	52455f54 	subpl	r5, r5, #84, 30	; 0x150
    34a4:	284f4e52 	stmdacs	pc, {r1, r4, r6, r9, sl, fp, lr}^	; <UNPREDICTABLE>
    34a8:	7274705f 	rsbsvc	r7, r4, #95	; 0x5f
    34ac:	28282029 	stmdacs	r8!, {r0, r3, r5, sp}
    34b0:	7274705f 	rsbsvc	r7, r4, #95	; 0x5f
    34b4:	5f3e2d29 	svcpl	0x003e2d29
    34b8:	6e727265 	cdpvs	2, 7, cr7, cr2, cr5, {3}
    34bc:	5f00296f 	svcpl	0x0000296f
    34c0:	5f43435f 	svcpl	0x0043435f
    34c4:	50505553 	subspl	r5, r0, r3, asr r5
    34c8:	5354524f 	cmppl	r4, #-268435452	; 0xf0000004
    34cc:	495f5f5f 	ldmdbmi	pc, {r0, r1, r2, r3, r4, r6, r8, r9, sl, fp, ip, lr}^	; <UNPREDICTABLE>
    34d0:	4e494c4e 	cdpmi	12, 4, cr4, cr9, cr14, {2}
    34d4:	00312045 	eorseq	r2, r1, r5, asr #32
    34d8:	5f424d5f 	svcpl	0x00424d5f
    34dc:	5f4e454c 	svcpl	0x004e454c
    34e0:	2058414d 	subscs	r4, r8, sp, asr #2
    34e4:	4e490031 	mcrmi	0, 2, r0, cr9, cr1, {1}
    34e8:	58414d54 	stmdapl	r1, {r2, r4, r6, r8, sl, fp, lr}^
    34ec:	58414d5f 	stmdapl	r1, {r0, r1, r2, r3, r4, r6, r8, sl, fp, lr}^
    34f0:	5f5f2820 	svcpl	0x005f2820
    34f4:	4d544e49 	ldclmi	14, cr4, [r4, #-292]	; 0xfffffedc
    34f8:	4d5f5841 	ldclmi	8, cr5, [pc, #-260]	; 33fc <_Min_Stack_Size+0x2ffc>
    34fc:	5f5f5841 	svcpl	0x005f5841
    3500:	4e490029 	cdpmi	0, 4, cr0, cr9, cr9, {1}
    3504:	5f323354 	svcpl	0x00323354
    3508:	2058414d 	subscs	r4, r8, sp, asr #2
    350c:	495f5f28 	ldmdbmi	pc, {r3, r5, r8, r9, sl, fp, ip, lr}^	; <UNPREDICTABLE>
    3510:	3233544e 	eorscc	r5, r3, #1308622848	; 0x4e000000
    3514:	58414d5f 	stmdapl	r1, {r0, r1, r2, r3, r4, r6, r8, sl, fp, lr}^
    3518:	00295f5f 	eoreq	r5, r9, pc, asr pc
    351c:	4f495047 	svcmi	0x00495047
    3520:	41425f45 	cmpmi	r2, r5, asr #30
    3524:	28204553 	stmdacs	r0!, {r0, r1, r4, r6, r8, sl, lr}
    3528:	69726550 	ldmdbvs	r2!, {r4, r6, r8, sl, sp, lr}^
    352c:	72656870 	rsbvc	r6, r5, #112, 16	; 0x700000
    3530:	5f736c61 	svcpl	0x00736c61
    3534:	45534142 	ldrbmi	r4, [r3, #-322]	; 0xfffffebe
    3538:	30202b20 	eorcc	r2, r0, r0, lsr #22
    353c:	30303078 	eorscc	r3, r0, r8, ror r0
    3540:	30383131 	eorscc	r3, r8, r1, lsr r1
    3544:	294c5530 	stmdbcs	ip, {r4, r5, r8, sl, ip, lr}^
    3548:	41535500 	cmpmi	r3, r0, lsl #10
    354c:	5f315452 	svcpl	0x00315452
    3550:	45534142 	ldrbmi	r4, [r3, #-322]	; 0xfffffebe
    3554:	65502820 	ldrbvs	r2, [r0, #-2080]	; 0xfffff7e0
    3558:	68706972 	ldmdavs	r0!, {r1, r4, r5, r6, r8, fp, sp, lr}^
    355c:	6c617265 	sfmvs	f7, 2, [r1], #-404	; 0xfffffe6c
    3560:	41425f73 	hvcmi	9715	; 0x25f3
    3564:	2b204553 	blcs	814ab8 <_Min_Stack_Size+0x8146b8>
    3568:	30783020 	rsbscc	r3, r8, r0, lsr #32
    356c:	33313030 	teqcc	r1, #48	; 0x30
    3570:	55303038 	ldrpl	r3, [r0, #-56]!	; 0xffffffc8
    3574:	5f00294c 	svcpl	0x0000294c
    3578:	4e454552 	mcrmi	5, 2, r4, cr5, cr2, {2}
    357c:	4e495f54 	mcrmi	15, 2, r5, cr9, cr4, {2}
    3580:	705f2843 	subsvc	r2, pc, r3, asr #16
    3584:	20297274 	eorcs	r7, r9, r4, ror r2
    3588:	705f2828 	subsvc	r2, pc, r8, lsr #16
    358c:	2d297274 	sfmcs	f7, 4, [r9, #-464]!	; 0xfffffe30
    3590:	6e695f3e 	mcrvs	15, 3, r5, cr9, cr14, {1}
    3594:	5f002963 	svcpl	0x00002963
    3598:	5f41445f 	svcpl	0x0041445f
    359c:	54494246 	strbpl	r4, [r9], #-582	; 0xfffffdba
    35a0:	33205f5f 			; <UNDEFINED> instruction: 0x33205f5f
    35a4:	525f0031 	subspl	r0, pc, #49	; 0x31
    35a8:	544e4545 	strbpl	r4, [lr], #-1349	; 0xfffffabb
    35ac:	4454535f 	ldrbmi	r5, [r4], #-863	; 0xfffffca1
    35b0:	5f284e49 	svcpl	0x00284e49
    35b4:	29727470 	ldmdbcs	r2!, {r4, r5, r6, sl, ip, sp, lr}^
    35b8:	5f282820 	svcpl	0x00282820
    35bc:	29727470 	ldmdbcs	r2!, {r4, r5, r6, sl, ip, sp, lr}^
    35c0:	735f3e2d 	cmpvc	pc, #720	; 0x2d0
    35c4:	6e696474 	mcrvs	4, 3, r6, cr9, cr4, {3}
    35c8:	32490029 	subcc	r0, r9, #41	; 0x29
    35cc:	52435f43 	subpl	r5, r3, #268	; 0x10c
    35d0:	45505f31 	ldrbmi	r5, [r0, #-3889]	; 0xfffff0cf
    35d4:	43324920 	teqmi	r2, #32, 18	; 0x80000
    35d8:	3152435f 	cmpcc	r2, pc, asr r3
    35dc:	5f45505f 	svcpl	0x0045505f
    35e0:	006b734d 	rsbeq	r7, fp, sp, asr #6
    35e4:	58475f5f 	stmdapl	r7, {r0, r1, r2, r3, r4, r6, r8, r9, sl, fp, ip, lr}^
    35e8:	42415f58 	submi	r5, r1, #88, 30	; 0x160
    35ec:	45565f49 	ldrbmi	r5, [r6, #-3913]	; 0xfffff0b7
    35f0:	4f495352 	svcmi	0x00495352
    35f4:	3031204e 	eorscc	r2, r1, lr, asr #32
    35f8:	4e003631 	mcrmi	6, 0, r3, cr0, cr1, {1}
    35fc:	5f434956 	svcpl	0x00434956
    3600:	33515249 	cmpcc	r1, #-1879048188	; 0x90000004
    3604:	32495f34 	subcc	r5, r9, #52, 30	; 0xd0
    3608:	455f3243 	ldrbmi	r3, [pc, #-579]	; 33cd <_Min_Stack_Size+0x2fcd>
    360c:	6e455f52 	mcrvs	15, 2, r5, cr5, cr2, {2}
    3610:	656c6261 	strbvs	r6, [ip, #-609]!	; 0xfffffd9f
    3614:	564e2820 	strbpl	r2, [lr], -r0, lsr #16
    3618:	495f4349 	ldmdbmi	pc, {r0, r3, r6, r8, r9, lr}^	; <UNPREDICTABLE>
    361c:	31524553 	cmpcc	r2, r3, asr r5
    3620:	203d7c20 	eorscs	r7, sp, r0, lsr #24
    3624:	283c3c31 	ldmdacs	ip!, {r0, r4, r5, sl, fp, ip, sp}
    3628:	43324920 	teqmi	r2, #32, 18	; 0x80000
    362c:	52455f32 	subpl	r5, r5, #50, 30	; 0xc8
    3630:	5152495f 	cmppl	r2, pc, asr r9
    3634:	33202d20 			; <UNDEFINED> instruction: 0x33202d20
    3638:	29292032 	stmdbcs	r9!, {r1, r4, r5, sp}
    363c:	495f5f00 	ldmdbmi	pc, {r8, r9, sl, fp, ip, lr}^	; <UNPREDICTABLE>
    3640:	4c5f544e 	cfldrdmi	mvd5, [pc], {78}	; 0x4e
    3644:	54534145 	ldrbpl	r4, [r3], #-325	; 0xfffffebb
    3648:	4d5f3631 	ldclmi	6, cr3, [pc, #-196]	; 358c <_Min_Stack_Size+0x318c>
    364c:	5f5f5841 	svcpl	0x005f5841
    3650:	37783020 	ldrbcc	r3, [r8, -r0, lsr #32]!
    3654:	00666666 	rsbeq	r6, r6, r6, ror #12
    3658:	5f433249 	svcpl	0x00433249
    365c:	5f315253 	svcpl	0x00315253
    3660:	5f455854 	svcpl	0x00455854
    3664:	20736f50 	rsbscs	r6, r3, r0, asr pc
    3668:	29553728 	ldmdbcs	r5, {r3, r5, r8, r9, sl, ip, sp}^
    366c:	465f5f00 	ldrbmi	r5, [pc], -r0, lsl #30
    3670:	445f544c 	ldrbmi	r5, [pc], #-1100	; 3678 <_Min_Stack_Size+0x3278>
    3674:	524f4e45 	subpl	r4, pc, #1104	; 0x450
    3678:	494d5f4d 	stmdbmi	sp, {r0, r2, r3, r6, r8, r9, sl, fp, ip, lr}^
    367c:	205f5f4e 	subscs	r5, pc, lr, asr #30
    3680:	30342e31 	eorscc	r2, r4, r1, lsr lr
    3684:	38393231 	ldmdacc	r9!, {r0, r4, r5, r9, ip, sp}
    3688:	33343634 	teqcc	r4, #52, 12	; 0x3400000
    368c:	31383432 	teqcc	r8, r2, lsr r4
    3690:	2d653137 	stfcse	f3, [r5, #-220]!	; 0xffffff24
    3694:	00463534 	subeq	r3, r6, r4, lsr r5
    3698:	5250414d 	subspl	r4, r0, #1073741843	; 0x40000013
    369c:	49550032 	ldmdbmi	r5, {r1, r4, r5}^
    36a0:	465f544e 	ldrbmi	r5, [pc], -lr, asr #8
    36a4:	31545341 	cmpcc	r4, r1, asr #6
    36a8:	414d5f36 	cmpmi	sp, r6, lsr pc
    36ac:	5f282058 	svcpl	0x00282058
    36b0:	4e49555f 	mcrmi	5, 2, r5, cr9, cr15, {2}
    36b4:	41465f54 	cmpmi	r6, r4, asr pc
    36b8:	36315453 			; <UNDEFINED> instruction: 0x36315453
    36bc:	58414d5f 	stmdapl	r1, {r0, r1, r2, r3, r4, r6, r8, sl, fp, lr}^
    36c0:	00295f5f 	eoreq	r5, r9, pc, asr pc
    36c4:	65725f5f 	ldrbvs	r5, [r2, #-3935]!	; 0xfffff0a1
    36c8:	6e727574 	mrcvs	5, 3, r7, cr2, cr4, {3}
    36cc:	77745f73 			; <UNDEFINED> instruction: 0x77745f73
    36d0:	20656369 	rsbcs	r6, r5, r9, ror #6
    36d4:	74615f5f 	strbtvc	r5, [r1], #-3935	; 0xfffff0a1
    36d8:	62697274 	rsbvs	r7, r9, #116, 4	; 0x40000007
    36dc:	5f657475 	svcpl	0x00657475
    36e0:	5f28285f 	svcpl	0x0028285f
    36e4:	7465725f 	strbtvc	r7, [r5], #-607	; 0xfffffda1
    36e8:	736e7275 	cmnvc	lr, #1342177287	; 0x50000007
    36ec:	6977745f 	ldmdbvs	r7!, {r0, r1, r2, r3, r4, r6, sl, ip, sp, lr}^
    36f0:	5f5f6563 	svcpl	0x005f6563
    36f4:	5f002929 	svcpl	0x00002929
    36f8:	7165725f 	cmnvc	r5, pc, asr r2
    36fc:	65726975 	ldrbvs	r6, [r2, #-2421]!	; 0xfffff68b
    3700:	68735f73 	ldmdavs	r3!, {r0, r1, r4, r5, r6, r8, r9, sl, fp, ip, lr}^
    3704:	64657261 	strbtvs	r7, [r5], #-609	; 0xfffffd9f
    3708:	2e2e2e28 	cdpcs	14, 2, cr2, cr14, cr8, {1}
    370c:	5f5f2029 	svcpl	0x005f2029
    3710:	6b636f6c 	blvs	18df4c8 <_Min_Stack_Size+0x18df0c8>
    3714:	6e6e615f 	mcrvs	1, 3, r6, cr14, cr15, {2}
    3718:	7461746f 	strbtvc	r7, [r1], #-1135	; 0xfffffb91
    371c:	68732865 	ldmdavs	r3!, {r0, r2, r5, r6, fp, sp}^
    3720:	64657261 	strbtvs	r7, [r5], #-609	; 0xfffffd9f
    3724:	636f6c5f 	cmnvs	pc, #24320	; 0x5f00
    3728:	725f736b 	subsvc	r7, pc, #-1409286143	; 0xac000001
    372c:	69757165 	ldmdbvs	r5!, {r0, r2, r5, r6, r8, ip, sp, lr}^
    3730:	28646572 	stmdacs	r4!, {r1, r4, r5, r6, r8, sl, sp, lr}^
    3734:	41565f5f 	cmpmi	r6, pc, asr pc
    3738:	4752415f 			; <UNDEFINED> instruction: 0x4752415f
    373c:	295f5f53 	ldmdbcs	pc, {r0, r1, r4, r6, r8, r9, sl, fp, ip, lr}^	; <UNPREDICTABLE>
    3740:	455f0029 	ldrbmi	r0, [pc, #-41]	; 371f <_Min_Stack_Size+0x331f>
    3744:	535f444e 	cmppl	pc, #1308622848	; 0x4e000000
    3748:	435f4454 	cmpmi	pc, #84, 8	; 0x54000000
    374c:	58450020 	stmdapl	r5, {r5}^
    3750:	50374954 	eorspl	r4, r7, r4, asr r9
    3754:	28203741 	stmdacs	r0!, {r0, r6, r8, r9, sl, ip, sp}
    3758:	49545845 	ldmdbmi	r4, {r0, r2, r6, fp, ip, lr}^
    375c:	4950475f 	ldmdbmi	r0, {r0, r1, r2, r3, r4, r6, r8, r9, sl, lr}^
    3760:	614d5f4f 	cmpvs	sp, pc, asr #30
    3764:	6e697070 	mcrvs	0, 3, r7, cr9, cr0, {3}
    3768:	29745f67 	ldmdbcs	r4!, {r0, r1, r2, r5, r6, r8, r9, sl, fp, ip, lr}^
    376c:	5458457b 	ldrbpl	r4, [r8], #-1403	; 0xfffffa85
    3770:	202c3749 	eorcs	r3, ip, r9, asr #14
    3774:	4f495047 	svcmi	0x00495047
    3778:	202c2041 	eorcs	r2, ip, r1, asr #32
    377c:	4f495047 	svcmi	0x00495047
    3780:	4e49505f 	mcrmi	0, 2, r5, cr9, cr15, {2}
    3784:	2c20375f 	stccs	7, cr3, [r0], #-380	; 0xfffffe84
    3788:	54584520 	ldrbpl	r4, [r8], #-1312	; 0xfffffae0
    378c:	495f3749 	ldmdbmi	pc, {r0, r3, r6, r8, r9, sl, ip, sp}^	; <UNPREDICTABLE>
    3790:	7d205152 	stfvcs	f5, [r0, #-328]!	; 0xfffffeb8
    3794:	4e495500 	cdpmi	5, 4, cr5, cr9, cr0, {0}
    3798:	454c5f54 	strbmi	r5, [ip, #-3924]	; 0xfffff0ac
    379c:	31545341 	cmpcc	r4, r1, asr #6
    37a0:	414d5f36 	cmpmi	sp, r6, lsr pc
    37a4:	5f282058 	svcpl	0x00282058
    37a8:	4e49555f 	mcrmi	5, 2, r5, cr9, cr15, {2}
    37ac:	454c5f54 	strbmi	r5, [ip, #-3924]	; 0xfffff0ac
    37b0:	31545341 	cmpcc	r4, r1, asr #6
    37b4:	414d5f36 	cmpmi	sp, r6, lsr pc
    37b8:	295f5f58 	ldmdbcs	pc, {r3, r4, r6, r8, r9, sl, fp, ip, lr}^	; <UNPREDICTABLE>
    37bc:	555f5f00 	ldrbpl	r5, [pc, #-3840]	; 28c4 <_Min_Stack_Size+0x24c4>
    37c0:	33544e49 	cmpcc	r4, #1168	; 0x490
    37c4:	28435f32 	stmdacs	r3, {r1, r4, r5, r8, r9, sl, fp, ip, lr}^
    37c8:	63202963 			; <UNDEFINED> instruction: 0x63202963
    37cc:	20232320 	eorcs	r2, r3, r0, lsr #6
    37d0:	49004c55 	stmdbmi	r0, {r0, r2, r4, r6, sl, fp, lr}
    37d4:	535f4332 	cmppl	pc, #-939524096	; 0xc8000000
    37d8:	505f3252 	subspl	r3, pc, r2, asr r2	; <UNPREDICTABLE>
    37dc:	505f4345 	subspl	r4, pc, r5, asr #6
    37e0:	2820736f 	stmdacs	r0!, {r0, r1, r2, r3, r5, r6, r8, r9, ip, sp, lr}
    37e4:	00295538 	eoreq	r5, r9, r8, lsr r5
    37e8:	49545845 	ldmdbmi	r4, {r0, r2, r6, fp, ip, lr}^
    37ec:	32415032 	subcc	r5, r1, #50	; 0x32
    37f0:	58452820 	stmdapl	r5, {r5, fp, sp}^
    37f4:	475f4954 			; <UNDEFINED> instruction: 0x475f4954
    37f8:	5f4f4950 	svcpl	0x004f4950
    37fc:	7070614d 	rsbsvc	r6, r0, sp, asr #2
    3800:	5f676e69 	svcpl	0x00676e69
    3804:	457b2974 	ldrbmi	r2, [fp, #-2420]!	; 0xfffff68c
    3808:	32495458 	subcc	r5, r9, #88, 8	; 0x58000000
    380c:	5047202c 	subpl	r2, r7, ip, lsr #32
    3810:	20414f49 	subcs	r4, r1, r9, asr #30
    3814:	5047202c 	subpl	r2, r7, ip, lsr #32
    3818:	505f4f49 	subspl	r4, pc, r9, asr #30
    381c:	325f4e49 	subscc	r4, pc, #1168	; 0x490
    3820:	45202c20 	strmi	r2, [r0, #-3104]!	; 0xfffff3e0
    3824:	32495458 	subcc	r5, r9, #88, 8	; 0x58000000
    3828:	5152495f 	cmppl	r2, pc, asr r9
    382c:	5f007d20 	svcpl	0x00007d20
    3830:	4341555f 	movtmi	r5, #5471	; 0x155f
    3834:	5f4d5543 	svcpl	0x004d5543
    3838:	5f4e494d 	svcpl	0x004e494d
    383c:	2e30205f 	mrccs	0, 1, r2, cr0, cr15, {2}
    3840:	004b5530 	subeq	r5, fp, r0, lsr r5
    3844:	4545525f 	strbmi	r5, [r5, #-607]	; 0xfffffda1
    3848:	4d5f544e 	cfldrdmi	mvd5, [pc, #-312]	; 3718 <_Min_Stack_Size+0x3318>
    384c:	574f5442 	strbpl	r5, [pc, -r2, asr #8]
    3850:	54535f43 	ldrbpl	r5, [r3], #-3907	; 0xfffff0bd
    3854:	28455441 	stmdacs	r5, {r0, r6, sl, ip, lr}^
    3858:	29727470 	ldmdbcs	r2!, {r4, r5, r6, sl, ip, sp, lr}^
    385c:	70282820 	eorvc	r2, r8, r0, lsr #16
    3860:	2d297274 	sfmcs	f7, 4, [r9, #-464]!	; 0xfffffe30
    3864:	696d5f3e 	stmdbvs	sp!, {r1, r2, r3, r4, r5, r8, r9, sl, fp, ip, lr}^
    3868:	3e2d6373 	mcrcc	3, 1, r6, cr13, cr3, {3}
    386c:	74626d5f 	strbtvc	r6, [r2], #-3423	; 0xfffff2a1
    3870:	5f63776f 	svcpl	0x0063776f
    3874:	74617473 	strbtvc	r7, [r1], #-1139	; 0xfffffb8d
    3878:	5f002965 	svcpl	0x00002965
    387c:	6c6c754e 	cfstr64vs	mvdx7, [ip], #-312	; 0xfffffec8
    3880:	736e755f 	cmnvc	lr, #398458880	; 0x17c00000
    3884:	69636570 	stmdbvs	r3!, {r4, r5, r6, r8, sl, sp, lr}^
    3888:	64656966 	strbtvs	r6, [r5], #-2406	; 0xfffff69a
    388c:	5f5f0020 	svcpl	0x005f0020
    3890:	5f544c46 	svcpl	0x00544c46
    3894:	49535045 	ldmdbmi	r3, {r0, r2, r6, ip, lr}^
    3898:	5f4e4f4c 	svcpl	0x004e4f4c
    389c:	2e31205f 	mrccs	0, 1, r2, cr1, cr15, {2}
    38a0:	30323931 	eorscc	r3, r2, r1, lsr r9
    38a4:	39383239 	ldmdbcc	r8!, {r0, r3, r4, r5, r9, ip, sp}
    38a8:	37303535 			; <UNDEFINED> instruction: 0x37303535
    38ac:	35323138 	ldrcc	r3, [r2, #-312]!	; 0xfffffec8
    38b0:	46372d65 	ldrtmi	r2, [r7], -r5, ror #26
    38b4:	585f5f00 	ldmdapl	pc, {r8, r9, sl, fp, ip, lr}^	; <UNPREDICTABLE>
    38b8:	49525453 	ldmdbmi	r2, {r0, r1, r4, r6, sl, ip, lr}^
    38bc:	7828474e 	stmdavc	r8!, {r1, r2, r3, r6, r8, r9, sl, lr}
    38c0:	5f5f2029 	svcpl	0x005f2029
    38c4:	49525453 	ldmdbmi	r2, {r0, r1, r4, r6, sl, ip, lr}^
    38c8:	7828474e 	stmdavc	r8!, {r1, r2, r3, r6, r8, r9, sl, lr}
    38cc:	5f5f0029 	svcpl	0x005f0029
    38d0:	72747461 	rsbsvc	r7, r4, #1627389952	; 0x61000000
    38d4:	74756269 	ldrbtvc	r6, [r5], #-617	; 0xfffffd97
    38d8:	75705f65 	ldrbvc	r5, [r0, #-3941]!	; 0xfffff09b
    38dc:	5f5f6572 	svcpl	0x005f6572
    38e0:	5f5f0020 	svcpl	0x005f0020
    38e4:	5f434347 	svcpl	0x00434347
    38e8:	4d4f5441 	cfstrdmi	mvd5, [pc, #-260]	; 37ec <_Min_Stack_Size+0x33ec>
    38ec:	535f4349 	cmppl	pc, #603979777	; 0x24000001
    38f0:	54524f48 	ldrbpl	r4, [r2], #-3912	; 0xfffff0b8
    38f4:	434f4c5f 	movtmi	r4, #64607	; 0xfc5f
    38f8:	52465f4b 	subpl	r5, r6, #300	; 0x12c
    38fc:	32204545 	eorcc	r4, r0, #289406976	; 0x11400000
    3900:	54584500 	ldrbpl	r4, [r8], #-1280	; 0xfffffb00
    3904:	41425f49 	cmpmi	r2, r9, asr #30
    3908:	28204553 	stmdacs	r0!, {r0, r1, r4, r6, r8, sl, lr}
    390c:	69726550 	ldmdbvs	r2!, {r4, r6, r8, sl, sp, lr}^
    3910:	72656870 	rsbvc	r6, r5, #112, 16	; 0x700000
    3914:	5f736c61 	svcpl	0x00736c61
    3918:	45534142 	ldrbmi	r4, [r3, #-322]	; 0xfffffebe
    391c:	30202b20 	eorcc	r2, r0, r0, lsr #22
    3920:	30303078 	eorscc	r3, r0, r8, ror r0
    3924:	30343031 	eorscc	r3, r4, r1, lsr r0
    3928:	294c5530 	stmdbcs	ip, {r4, r5, r8, sl, ip, lr}^
    392c:	49564e00 	ldmdbmi	r6, {r9, sl, fp, lr}^
    3930:	52495f43 	subpl	r5, r9, #268	; 0x10c
    3934:	5f303451 	svcpl	0x00303451
    3938:	49545845 	ldmdbmi	r4, {r0, r2, r6, fp, ip, lr}^
    393c:	315f3031 	cmpcc	pc, r1, lsr r0	; <UNPREDICTABLE>
    3940:	6e455f35 	mcrvs	15, 2, r5, cr5, cr5, {1}
    3944:	656c6261 	strbvs	r6, [ip, #-609]!	; 0xfffffd9f
    3948:	564e2820 	strbpl	r2, [lr], -r0, lsr #16
    394c:	495f4349 	ldmdbmi	pc, {r0, r3, r6, r8, r9, lr}^	; <UNPREDICTABLE>
    3950:	31524553 	cmpcc	r2, r3, asr r5
    3954:	203d7c20 	eorscs	r7, sp, r0, lsr #24
    3958:	383c3c31 	ldmdacc	ip!, {r0, r4, r5, sl, fp, ip, sp}
    395c:	58450029 	stmdapl	r5, {r0, r3, r5}^
    3960:	50354954 	eorspl	r4, r5, r4, asr r9
    3964:	28203544 	stmdacs	r0!, {r2, r6, r8, sl, ip, sp}
    3968:	49545845 	ldmdbmi	r4, {r0, r2, r6, fp, ip, lr}^
    396c:	4950475f 	ldmdbmi	r0, {r0, r1, r2, r3, r4, r6, r8, r9, sl, lr}^
    3970:	614d5f4f 	cmpvs	sp, pc, asr #30
    3974:	6e697070 	mcrvs	0, 3, r7, cr9, cr0, {3}
    3978:	29745f67 	ldmdbcs	r4!, {r0, r1, r2, r5, r6, r8, r9, sl, fp, ip, lr}^
    397c:	5458457b 	ldrbpl	r4, [r8], #-1403	; 0xfffffa85
    3980:	2c203549 	cfstr32cs	mvfx3, [r0], #-292	; 0xfffffedc
    3984:	49504720 	ldmdbmi	r0, {r5, r8, r9, sl, lr}^
    3988:	2c20444f 	cfstrscs	mvf4, [r0], #-316	; 0xfffffec4
    398c:	49504720 	ldmdbmi	r0, {r5, r8, r9, sl, lr}^
    3990:	49505f4f 	ldmdbmi	r0, {r0, r1, r2, r3, r6, r8, r9, sl, fp, ip, lr}^
    3994:	20355f4e 	eorscs	r5, r5, lr, asr #30
    3998:	5845202c 	stmdapl	r5, {r2, r3, r5, sp}^
    399c:	5f354954 	svcpl	0x00354954
    39a0:	7d515249 	lfmvc	f5, 2, [r1, #-292]	; 0xfffffedc
    39a4:	505f5f00 	subspl	r5, pc, r0, lsl #30
    39a8:	49445254 	stmdbmi	r4, {r2, r4, r6, r9, ip, lr}^
    39ac:	545f4646 	ldrbpl	r4, [pc], #-1606	; 39b4 <_Min_Stack_Size+0x35b4>
    39b0:	5f455059 	svcpl	0x00455059
    39b4:	6e69205f 	mcrvs	0, 3, r2, cr9, cr15, {2}
    39b8:	564e0074 			; <UNDEFINED> instruction: 0x564e0074
    39bc:	495f4349 	ldmdbmi	pc, {r0, r3, r6, r8, r9, lr}^	; <UNPREDICTABLE>
    39c0:	30315152 	eorscc	r5, r1, r2, asr r1
    39c4:	5458455f 	ldrbpl	r4, [r8], #-1375	; 0xfffffaa1
    39c8:	455f3449 	ldrbmi	r3, [pc, #-1097]	; 3587 <_Min_Stack_Size+0x3187>
    39cc:	6c62616e 	stfvse	f6, [r2], #-440	; 0xfffffe48
    39d0:	4e282065 	cdpmi	0, 2, cr2, cr8, cr5, {3}
    39d4:	5f434956 	svcpl	0x00434956
    39d8:	52455349 	subpl	r5, r5, #603979777	; 0x24000001
    39dc:	3d7c2030 	ldclcc	0, cr2, [ip, #-192]!	; 0xffffff40
    39e0:	3c3c3120 	ldfccs	f3, [ip], #-128	; 0xffffff80
    39e4:	00293031 	eoreq	r3, r9, r1, lsr r0
    39e8:	52415f5f 	subpl	r5, r1, #380	; 0x17c
    39ec:	52415f4d 	subpl	r5, r1, #308	; 0x134
    39f0:	495f4843 	ldmdbmi	pc, {r0, r1, r6, fp, lr}^	; <UNPREDICTABLE>
    39f4:	545f4153 	ldrbpl	r4, [pc], #-339	; 39fc <_Min_Stack_Size+0x35fc>
    39f8:	424d5548 	submi	r5, sp, #72, 10	; 0x12000000
    39fc:	43324900 	teqmi	r2, #0, 18
    3a00:	3152535f 	cmpcc	r2, pc, asr r3
    3a04:	5f42535f 	svcpl	0x0042535f
    3a08:	206b734d 	rsbcs	r7, fp, sp, asr #6
    3a0c:	31783028 	cmncc	r8, r8, lsr #32
    3a10:	3c204c55 	stccc	12, cr4, [r0], #-340	; 0xfffffeac
    3a14:	3249203c 	subcc	r2, r9, #60	; 0x3c
    3a18:	52535f43 	subspl	r5, r3, #268	; 0x10c
    3a1c:	42535f31 	subsmi	r5, r3, #49, 30	; 0xc4
    3a20:	736f505f 	cmnvc	pc, #95	; 0x5f
    3a24:	32490029 	subcc	r0, r9, #41	; 0x29
    3a28:	52435f43 	subpl	r5, r3, #268	; 0x10c
    3a2c:	4e455f31 	mcrmi	15, 2, r5, cr5, cr1, {1}
    3a30:	4d5f4347 	ldclmi	3, cr4, [pc, #-284]	; 391c <_Min_Stack_Size+0x351c>
    3a34:	28206b73 	stmdacs	r0!, {r0, r1, r4, r5, r6, r8, r9, fp, sp, lr}
    3a38:	55317830 	ldrpl	r7, [r1, #-2096]!	; 0xfffff7d0
    3a3c:	3c3c204c 	ldccc	0, cr2, [ip], #-304	; 0xfffffed0
    3a40:	43324920 	teqmi	r2, #32, 18	; 0x80000
    3a44:	3152435f 	cmpcc	r2, pc, asr r3
    3a48:	474e455f 	smlsldmi	r4, lr, pc, r5	; <UNPREDICTABLE>
    3a4c:	6f505f43 	svcvs	0x00505f43
    3a50:	4e002973 			; <UNDEFINED> instruction: 0x4e002973
    3a54:	5f434956 	svcpl	0x00434956
    3a58:	33515249 	cmpcc	r1, #-1879048188	; 0x90000004
    3a5c:	32495f32 	subcc	r5, r9, #50, 30	; 0xc8
    3a60:	455f3143 	ldrbmi	r3, [pc, #-323]	; 3925 <_Min_Stack_Size+0x3525>
    3a64:	6e455f52 	mcrvs	15, 2, r5, cr5, cr2, {2}
    3a68:	656c6261 	strbvs	r6, [ip, #-609]!	; 0xfffffd9f
    3a6c:	564e2820 	strbpl	r2, [lr], -r0, lsr #16
    3a70:	495f4349 	ldmdbmi	pc, {r0, r3, r6, r8, r9, lr}^	; <UNPREDICTABLE>
    3a74:	31524553 	cmpcc	r2, r3, asr r5
    3a78:	203d7c20 	eorscs	r7, sp, r0, lsr #24
    3a7c:	283c3c31 	ldmdacs	ip!, {r0, r4, r5, sl, fp, ip, sp}
    3a80:	43324920 	teqmi	r2, #32, 18	; 0x80000
    3a84:	52455f31 	subpl	r5, r5, #49, 30	; 0xc4
    3a88:	5152495f 	cmppl	r2, pc, asr r9
    3a8c:	33202d20 			; <UNDEFINED> instruction: 0x33202d20
    3a90:	29292032 	stmdbcs	r9!, {r1, r4, r5, sp}
    3a94:	475f5f00 	ldrbmi	r5, [pc, -r0, lsl #30]
    3a98:	4c43554e 	cfstr64mi	mvdx5, [r3], {78}	; 0x4e
    3a9c:	5f454b49 	svcpl	0x00454b49
    3aa0:	4c495542 	cfstr64mi	mvdx5, [r9], {66}	; 0x42
    3aa4:	5f4e4954 	svcpl	0x004e4954
    3aa8:	41524156 	cmpmi	r2, r6, asr r1
    3aac:	20534752 	subscs	r4, r3, r2, asr r7
    3ab0:	53550031 	cmppl	r5, #49	; 0x31
    3ab4:	31545241 	cmpcc	r4, r1, asr #4
    3ab8:	55282820 	strpl	r2, [r8, #-2080]!	; 0xfffff7e0
    3abc:	54524153 	ldrbpl	r4, [r2], #-339	; 0xfffffead
    3ac0:	7079545f 	rsbsvc	r5, r9, pc, asr r4
    3ac4:	66654465 	strbtvs	r4, [r5], -r5, ror #8
    3ac8:	55292a20 	strpl	r2, [r9, #-2592]!	; 0xfffff5e0
    3acc:	54524153 	ldrbpl	r4, [r2], #-339	; 0xfffffead
    3ad0:	41425f31 	cmpmi	r2, r1, lsr pc
    3ad4:	00294553 	eoreq	r4, r9, r3, asr r5
    3ad8:	46565f5f 	usaxmi	r5, r6, pc	; <UNPREDICTABLE>
    3adc:	50465f50 	subpl	r5, r6, r0, asr pc
    3ae0:	31205f5f 			; <UNDEFINED> instruction: 0x31205f5f
    3ae4:	555f5f00 	ldrbpl	r5, [pc, #-3840]	; 2bec <_Min_Stack_Size+0x27ec>
    3ae8:	38544e49 	ldmdacc	r4, {r0, r3, r6, r9, sl, fp, lr}^
    3aec:	5059545f 	subspl	r5, r9, pc, asr r4
    3af0:	205f5f45 	subscs	r5, pc, r5, asr #30
    3af4:	69736e75 	ldmdbvs	r3!, {r0, r2, r4, r5, r6, r9, sl, fp, sp, lr}^
    3af8:	64656e67 	strbtvs	r6, [r5], #-3687	; 0xfffff199
    3afc:	61686320 	cmnvs	r8, r0, lsr #6
    3b00:	4e490072 	mcrmi	0, 2, r0, cr9, cr2, {3}
    3b04:	454c5f54 	strbmi	r5, [ip, #-3924]	; 0xfffff0ac
    3b08:	33545341 	cmpcc	r4, #67108865	; 0x4000001
    3b0c:	494d5f32 	stmdbmi	sp, {r1, r4, r5, r8, r9, sl, fp, ip, lr}^
    3b10:	2d28204e 	stccs	0, cr2, [r8, #-312]!	; 0xfffffec8
    3b14:	4e495f5f 	mcrmi	15, 2, r5, cr9, cr15, {2}
    3b18:	454c5f54 	strbmi	r5, [ip, #-3924]	; 0xfffff0ac
    3b1c:	33545341 	cmpcc	r4, #67108865	; 0x4000001
    3b20:	414d5f32 	cmpmi	sp, r2, lsr pc
    3b24:	205f5f58 	subscs	r5, pc, r8, asr pc	; <UNPREDICTABLE>
    3b28:	2931202d 	ldmdbcs	r1!, {r0, r2, r3, r5, sp}
    3b2c:	54584500 	ldrbpl	r4, [r8], #-1280	; 0xfffffb00
    3b30:	43503649 	cmpmi	r0, #76546048	; 0x4900000
    3b34:	45282036 	strmi	r2, [r8, #-54]!	; 0xffffffca
    3b38:	5f495458 	svcpl	0x00495458
    3b3c:	4f495047 	svcmi	0x00495047
    3b40:	70614d5f 	rsbvc	r4, r1, pc, asr sp
    3b44:	676e6970 			; <UNDEFINED> instruction: 0x676e6970
    3b48:	7b29745f 	blvc	a60ccc <_Min_Stack_Size+0xa608cc>
    3b4c:	49545845 	ldmdbmi	r4, {r0, r2, r6, fp, ip, lr}^
    3b50:	202c2036 	eorcs	r2, ip, r6, lsr r0
    3b54:	4f495047 	svcmi	0x00495047
    3b58:	202c2043 	eorcs	r2, ip, r3, asr #32
    3b5c:	4f495047 	svcmi	0x00495047
    3b60:	4e49505f 	mcrmi	0, 2, r5, cr9, cr15, {2}
    3b64:	2c20365f 	stccs	6, cr3, [r0], #-380	; 0xfffffe84
    3b68:	49545845 	ldmdbmi	r4, {r0, r2, r6, fp, ip, lr}^
    3b6c:	52495f36 	subpl	r5, r9, #54, 30	; 0xd8
    3b70:	007d2051 	rsbseq	r2, sp, r1, asr r0
    3b74:	5f433249 	svcpl	0x00433249
    3b78:	5f325243 	svcpl	0x00325243
    3b7c:	45414d44 	strbmi	r4, [r1, #-3396]	; 0xfffff2bc
    3b80:	6f505f4e 	svcvs	0x00505f4e
    3b84:	31282073 			; <UNDEFINED> instruction: 0x31282073
    3b88:	00295531 	eoreq	r5, r9, r1, lsr r5
    3b8c:	5f433249 	svcpl	0x00433249
    3b90:	5f315243 	svcpl	0x00315243
    3b94:	52454c41 	subpl	r4, r5, #16640	; 0x4100
    3b98:	32492054 	subcc	r2, r9, #84	; 0x54
    3b9c:	52435f43 	subpl	r5, r3, #268	; 0x10c
    3ba0:	4c415f31 	mcrrmi	15, 3, r5, r1, cr1
    3ba4:	5f545245 	svcpl	0x00545245
    3ba8:	006b734d 	rsbeq	r7, fp, sp, asr #6
    3bac:	4c41434d 	mcrrmi	3, 4, r4, r1, cr13
    3bb0:	5458455f 	ldrbpl	r4, [r8], #-1375	; 0xfffffaa1
    3bb4:	50475f49 	subpl	r5, r7, r9, asr #30
    3bb8:	445f4f49 	ldrbmi	r4, [pc], #-3913	; 3bc0 <_Min_Stack_Size+0x37c0>
    3bbc:	696e4965 	stmdbvs	lr!, {r0, r2, r5, r6, r8, fp, lr}^
    3bc0:	49550074 	ldmdbmi	r5, {r2, r4, r5, r6}^
    3bc4:	3233544e 	eorscc	r5, r3, #1308622848	; 0x4e000000
    3bc8:	58414d5f 	stmdapl	r1, {r0, r1, r2, r3, r4, r6, r8, sl, fp, lr}^
    3bcc:	5f5f2820 	svcpl	0x005f2820
    3bd0:	544e4955 	strbpl	r4, [lr], #-2389	; 0xfffff6ab
    3bd4:	4d5f3233 	lfmmi	f3, 2, [pc, #-204]	; 3b10 <_Min_Stack_Size+0x3710>
    3bd8:	5f5f5841 	svcpl	0x005f5841
    3bdc:	65500029 	ldrbvs	r0, [r0, #-41]	; 0xffffffd7
    3be0:	68706972 	ldmdavs	r0!, {r1, r4, r5, r6, r8, fp, sp, lr}^
    3be4:	6c617265 	sfmvs	f7, 2, [r1], #-404	; 0xfffffe6c
    3be8:	41425f73 	hvcmi	9715	; 0x25f3
    3bec:	30204553 	eorcc	r4, r0, r3, asr r5
    3bf0:	30303478 	eorscc	r3, r0, r8, ror r4
    3bf4:	30303030 	eorscc	r3, r0, r0, lsr r0
    3bf8:	004c5530 	subeq	r5, ip, r0, lsr r5
    3bfc:	53555f5f 	cmppl	r5, #380	; 0x17c
    3c00:	55434341 	strbpl	r4, [r3, #-833]	; 0xfffffcbf
    3c04:	42465f4d 	submi	r5, r6, #308	; 0x134
    3c08:	5f5f5449 	svcpl	0x005f5449
    3c0c:	45003820 	strmi	r3, [r0, #-2080]	; 0xfffff7e0
    3c10:	32495458 	subcc	r5, r9, #88, 8	; 0x58000000
    3c14:	20324350 	eorscs	r4, r2, r0, asr r3
    3c18:	54584528 	ldrbpl	r4, [r8], #-1320	; 0xfffffad8
    3c1c:	50475f49 	subpl	r5, r7, r9, asr #30
    3c20:	4d5f4f49 	ldclmi	15, cr4, [pc, #-292]	; 3b04 <_Min_Stack_Size+0x3704>
    3c24:	69707061 	ldmdbvs	r0!, {r0, r5, r6, ip, sp, lr}^
    3c28:	745f676e 	ldrbvc	r6, [pc], #-1902	; 3c30 <_Min_Stack_Size+0x3830>
    3c2c:	58457b29 	stmdapl	r5, {r0, r3, r5, r8, r9, fp, ip, sp, lr}^
    3c30:	20324954 	eorscs	r4, r2, r4, asr r9
    3c34:	5047202c 	subpl	r2, r7, ip, lsr #32
    3c38:	20434f49 	subcs	r4, r3, r9, asr #30
    3c3c:	5047202c 	subpl	r2, r7, ip, lsr #32
    3c40:	505f4f49 	subspl	r4, pc, r9, asr #30
    3c44:	325f4e49 	subscc	r4, pc, #1168	; 0x490
    3c48:	58452c20 	stmdapl	r5, {r5, sl, fp, sp}^
    3c4c:	5f324954 	svcpl	0x00324954
    3c50:	20515249 	subscs	r5, r1, r9, asr #4
    3c54:	5f5f007d 	svcpl	0x005f007d
    3c58:	5f434347 	svcpl	0x00434347
    3c5c:	4d4f5441 	cfstrdmi	mvd5, [pc, #-260]	; 3b60 <_Min_Stack_Size+0x3760>
    3c60:	545f4349 	ldrbpl	r4, [pc], #-841	; 3c68 <_Min_Stack_Size+0x3868>
    3c64:	5f545345 	svcpl	0x00545345
    3c68:	5f444e41 	svcpl	0x00444e41
    3c6c:	5f544553 	svcpl	0x00544553
    3c70:	45555254 	ldrbmi	r5, [r5, #-596]	; 0xfffffdac
    3c74:	204c4156 	subcs	r4, ip, r6, asr r1
    3c78:	5f5f0031 	svcpl	0x005f0031
    3c7c:	5f464c45 	svcpl	0x00464c45
    3c80:	0031205f 	eorseq	r2, r1, pc, asr r0
    3c84:	4349564e 	movtmi	r5, #38478	; 0x964e
    3c88:	4543495f 	strbmi	r4, [r3, #-2399]	; 0xfffff6a1
    3c8c:	2a203152 	bcs	8101dc <_Min_Stack_Size+0x80fddc>
    3c90:	6c6f7628 	stclvs	6, cr7, [pc], #-160	; 3bf8 <_Min_Stack_Size+0x37f8>
    3c94:	6c697461 	cfstrdvs	mvd7, [r9], #-388	; 0xfffffe7c
    3c98:	69752065 	ldmdbvs	r5!, {r0, r2, r5, r6, sp}^
    3c9c:	3233746e 	eorscc	r7, r3, #1845493760	; 0x6e000000
    3ca0:	2a20745f 	bcs	820e24 <_Min_Stack_Size+0x820a24>
    3ca4:	564e2829 	strbpl	r2, [lr], -r9, lsr #16
    3ca8:	425f4349 	subsmi	r4, pc, #603979777	; 0x24000001
    3cac:	20657361 	rsbcs	r7, r5, r1, ror #6
    3cb0:	7830202b 	ldmdavc	r0!, {r0, r1, r3, r5, sp}
    3cb4:	00293438 	eoreq	r3, r9, r8, lsr r4
    3cb8:	67697254 			; <UNDEFINED> instruction: 0x67697254
    3cbc:	5f726567 	svcpl	0x00726567
    3cc0:	65736143 	ldrbvs	r6, [r3, #-323]!	; 0xfffffebd
    3cc4:	414c4600 	cmpmi	ip, r0, lsl #12
    3cc8:	4d5f4853 	ldclmi	8, cr4, [pc, #-332]	; 3b84 <_Min_Stack_Size+0x3784>
    3ccc:	726f6d65 	rsbvc	r6, pc, #6464	; 0x1940
    3cd0:	41425f79 	hvcmi	9721	; 0x25f9
    3cd4:	30204553 	eorcc	r4, r0, r3, asr r5
    3cd8:	30383078 	eorscc	r3, r8, r8, ror r0
    3cdc:	30303030 	eorscc	r3, r0, r0, lsr r0
    3ce0:	004c5530 	subeq	r5, ip, r0, lsr r5
    3ce4:	5f433249 	svcpl	0x00433249
    3ce8:	5f315243 	svcpl	0x00315243
    3cec:	4d5f4550 	cfldr64mi	mvdx4, [pc, #-320]	; 3bb4 <_Min_Stack_Size+0x37b4>
    3cf0:	28206b73 	stmdacs	r0!, {r0, r1, r4, r5, r6, r8, r9, fp, sp, lr}
    3cf4:	55317830 	ldrpl	r7, [r1, #-2096]!	; 0xfffff7d0
    3cf8:	3c3c204c 	ldccc	0, cr2, [ip], #-304	; 0xfffffed0
    3cfc:	43324920 	teqmi	r2, #32, 18	; 0x80000
    3d00:	3152435f 	cmpcc	r2, pc, asr r3
    3d04:	5f45505f 	svcpl	0x0045505f
    3d08:	29736f50 	ldmdbcs	r3!, {r4, r6, r8, r9, sl, fp, sp, lr}^
    3d0c:	465f5f00 	ldrbmi	r5, [pc], -r0, lsl #30
    3d10:	3233544c 	eorscc	r5, r3, #76, 8	; 0x4c000000
    3d14:	5341485f 	movtpl	r4, #6239	; 0x185f
    3d18:	4955515f 	ldmdbmi	r5, {r0, r1, r2, r3, r4, r6, r8, ip, lr}^
    3d1c:	4e5f5445 	cdpmi	4, 5, cr5, cr15, cr5, {2}
    3d20:	5f5f4e41 	svcpl	0x005f4e41
    3d24:	5f003120 	svcpl	0x00003120
    3d28:	4d52415f 	ldfmie	f4, [r2, #-380]	; 0xfffffe84
    3d2c:	4145465f 	cmpmi	r5, pc, asr r6
    3d30:	45525554 	ldrbmi	r5, [r2, #-1364]	; 0xfffffaac
    3d34:	54414d5f 	strbpl	r4, [r1], #-3423	; 0xfffff2a1
    3d38:	5f4c554d 	svcpl	0x004c554d
    3d3c:	38544e49 	ldmdacc	r4, {r0, r3, r6, r9, sl, fp, lr}^
    3d40:	4f5f5f00 	svcmi	0x005f5f00
    3d44:	4c4f5342 	mcrrmi	3, 4, r5, pc, cr2
    3d48:	5f455445 	svcpl	0x00455445
    3d4c:	4854414d 	ldmdami	r4, {r0, r2, r3, r6, r8, lr}^
    3d50:	4f5f5f20 	svcmi	0x005f5f20
    3d54:	4c4f5342 	mcrrmi	3, 4, r5, pc, cr2
    3d58:	5f455445 	svcpl	0x00455445
    3d5c:	4854414d 	ldmdami	r4, {r0, r2, r3, r6, r8, lr}^
    3d60:	4645445f 			; <UNDEFINED> instruction: 0x4645445f
    3d64:	544c5541 	strbpl	r5, [ip], #-1345	; 0xfffffabf
    3d68:	49535f00 	ldmdbmi	r3, {r8, r9, sl, fp, ip, lr}^
    3d6c:	5f54455a 	svcpl	0x0054455a
    3d70:	5f5f0020 	svcpl	0x005f0020
    3d74:	4c42444c 	cfstrdmi	mvd4, [r2], {76}	; 0x4c
    3d78:	5341485f 	movtpl	r4, #6239	; 0x185f
    3d7c:	464e495f 			; <UNDEFINED> instruction: 0x464e495f
    3d80:	54494e49 	strbpl	r4, [r9], #-3657	; 0xfffff1b7
    3d84:	205f5f59 	subscs	r5, pc, r9, asr pc	; <UNPREDICTABLE>
    3d88:	49550031 	ldmdbmi	r5, {r0, r4, r5}^
    3d8c:	465f544e 	ldrbmi	r5, [pc], -lr, asr #8
    3d90:	36545341 	ldrbcc	r5, [r4], -r1, asr #6
    3d94:	414d5f34 	cmpmi	sp, r4, lsr pc
    3d98:	5f282058 	svcpl	0x00282058
    3d9c:	4e49555f 	mcrmi	5, 2, r5, cr9, cr15, {2}
    3da0:	41465f54 	cmpmi	r6, r4, asr pc
    3da4:	34365453 	ldrtcc	r5, [r6], #-1107	; 0xfffffbad
    3da8:	58414d5f 	stmdapl	r1, {r0, r1, r2, r3, r4, r6, r8, sl, fp, lr}^
    3dac:	00295f5f 	eoreq	r5, r9, pc, asr pc
    3db0:	41545f5f 	cmpmi	r4, pc, asr pc
    3db4:	4942465f 	stmdbmi	r2, {r0, r1, r2, r3, r4, r6, r9, sl, lr}^
    3db8:	205f5f54 	subscs	r5, pc, r4, asr pc	; <UNPREDICTABLE>
    3dbc:	4e003336 	mcrmi	3, 0, r3, cr0, cr6, {1}
    3dc0:	5f434956 	svcpl	0x00434956
    3dc4:	33515249 	cmpcc	r1, #-1879048188	; 0x90000004
    3dc8:	50535f36 	subspl	r5, r3, r6, lsr pc
    3dcc:	445f3249 	ldrbmi	r3, [pc], #-585	; 3dd4 <_Min_Stack_Size+0x39d4>
    3dd0:	62617369 	rsbvs	r7, r1, #-1543503871	; 0xa4000001
    3dd4:	2820656c 	stmdacs	r0!, {r2, r3, r5, r6, r8, sl, sp, lr}
    3dd8:	4349564e 	movtmi	r5, #38478	; 0x964e
    3ddc:	4543495f 	strbmi	r4, [r3, #-2399]	; 0xfffff6a1
    3de0:	7c203152 	stfvcs	f3, [r0], #-328	; 0xfffffeb8
    3de4:	3c31203d 	ldccc	0, cr2, [r1], #-244	; 0xffffff0c
    3de8:	5320283c 			; <UNDEFINED> instruction: 0x5320283c
    3dec:	5f324950 	svcpl	0x00324950
    3df0:	2d515249 	lfmcs	f5, 2, [r1, #-292]	; 0xfffffedc
    3df4:	20323320 	eorscs	r3, r2, r0, lsr #6
    3df8:	4e002929 	vmlami.f16	s4, s0, s19	; <UNPREDICTABLE>
    3dfc:	5f434956 	svcpl	0x00434956
    3e00:	65736142 	ldrbvs	r6, [r3, #-322]!	; 0xfffffebe
    3e04:	78302820 	ldmdavc	r0!, {r5, fp, sp}
    3e08:	30303045 	eorscc	r3, r0, r5, asr #32
    3e0c:	30303145 	eorscc	r3, r0, r5, asr #2
    3e10:	00294c55 	eoreq	r4, r9, r5, asr ip
    3e14:	49545845 	ldmdbmi	r4, {r0, r2, r6, fp, ip, lr}^
    3e18:	52495f33 	subpl	r5, r9, #51, 30	; 0xcc
    3e1c:	00392051 	eorseq	r2, r9, r1, asr r0
    3e20:	5f433249 	svcpl	0x00433249
    3e24:	5f315243 	svcpl	0x00315243
    3e28:	55424d53 	strbpl	r4, [r2, #-3411]	; 0xfffff2ad
    3e2c:	6f505f53 	svcvs	0x00505f53
    3e30:	31282073 			; <UNDEFINED> instruction: 0x31282073
    3e34:	5f002955 	svcpl	0x00002955
    3e38:	544c465f 	strbpl	r4, [ip], #-1631	; 0xfffff9a1
    3e3c:	5f583233 	svcpl	0x00583233
    3e40:	5f58414d 	svcpl	0x0058414d
    3e44:	455f3031 	ldrbmi	r3, [pc, #-49]	; 3e1b <_Min_Stack_Size+0x3a1b>
    3e48:	5f5f5058 	svcpl	0x005f5058
    3e4c:	38303320 	ldmdacc	r0!, {r5, r8, r9, ip, sp}
    3e50:	415f5f00 	cmpmi	pc, r0, lsl #30
    3e54:	415f4d52 	cmpmi	pc, r2, asr sp	; <UNPREDICTABLE>
    3e58:	5f484352 	svcpl	0x00484352
    3e5c:	5f545845 	svcpl	0x00545845
    3e60:	56494449 	strbpl	r4, [r9], -r9, asr #8
    3e64:	31205f5f 			; <UNDEFINED> instruction: 0x31205f5f
    3e68:	415f5f00 	cmpmi	pc, r0, lsl #30
    3e6c:	505f4d52 	subspl	r4, pc, r2, asr sp	; <UNPREDICTABLE>
    3e70:	31205343 			; <UNDEFINED> instruction: 0x31205343
    3e74:	49564e00 	ldmdbmi	r6, {r9, sl, fp, lr}^
    3e78:	52495f43 	subpl	r5, r9, #268	; 0x10c
    3e7c:	455f3751 	ldrbmi	r3, [pc, #-1873]	; 3733 <_Min_Stack_Size+0x3333>
    3e80:	31495458 	cmpcc	r9, r8, asr r4
    3e84:	7369445f 	cmnvc	r9, #1593835520	; 0x5f000000
    3e88:	656c6261 	strbvs	r6, [ip, #-609]!	; 0xfffffd9f
    3e8c:	564e2820 	strbpl	r2, [lr], -r0, lsr #16
    3e90:	495f4349 	ldmdbmi	pc, {r0, r3, r6, r8, r9, lr}^	; <UNPREDICTABLE>
    3e94:	30524543 	subscc	r4, r2, r3, asr #10
    3e98:	203d7c20 	eorscs	r7, sp, r0, lsr #24
    3e9c:	373c3c31 			; <UNDEFINED> instruction: 0x373c3c31
    3ea0:	5f5f0029 	svcpl	0x005f0029
    3ea4:	65727570 	ldrbvs	r7, [r2, #-1392]!	; 0xfffffa90
    3ea8:	615f5f20 	cmpvs	pc, r0, lsr #30
    3eac:	69727474 	ldmdbvs	r2!, {r2, r4, r5, r6, sl, ip, sp, lr}^
    3eb0:	65747562 	ldrbvs	r7, [r4, #-1378]!	; 0xfffffa9e
    3eb4:	28285f5f 	stmdacs	r8!, {r0, r1, r2, r3, r4, r6, r8, r9, sl, fp, ip, lr}
    3eb8:	75705f5f 	ldrbvc	r5, [r0, #-3935]!	; 0xfffff0a1
    3ebc:	5f5f6572 	svcpl	0x005f6572
    3ec0:	45002929 	strmi	r2, [r0, #-2345]	; 0xfffff6d7
    3ec4:	31495458 	cmpcc	r9, r8, asr r4
    3ec8:	52495f31 	subpl	r5, r9, #49, 30	; 0xc4
    3ecc:	30342051 	eorscc	r2, r4, r1, asr r0
    3ed0:	535f5f00 	cmppl	pc, #0, 30
    3ed4:	415f4749 	cmpmi	pc, r9, asr #14
    3ed8:	494d4f54 	stmdbmi	sp, {r2, r4, r6, r8, r9, sl, fp, lr}^
    3edc:	494d5f43 	stmdbmi	sp, {r0, r1, r6, r8, r9, sl, fp, ip, lr}^
    3ee0:	205f5f4e 	subscs	r5, pc, lr, asr #30
    3ee4:	5f5f2d28 	svcpl	0x005f2d28
    3ee8:	5f474953 	svcpl	0x00474953
    3eec:	4d4f5441 	cfstrdmi	mvd5, [pc, #-260]	; 3df0 <_Min_Stack_Size+0x39f0>
    3ef0:	4d5f4349 	ldclmi	3, cr4, [pc, #-292]	; 3dd4 <_Min_Stack_Size+0x39d4>
    3ef4:	5f5f5841 	svcpl	0x005f5841
    3ef8:	31202d20 			; <UNDEFINED> instruction: 0x31202d20
    3efc:	58450029 	stmdapl	r5, {r0, r3, r5}^
    3f00:	50354954 	eorspl	r4, r5, r4, asr r9
    3f04:	28203543 	stmdacs	r0!, {r0, r1, r6, r8, sl, ip, sp}
    3f08:	49545845 	ldmdbmi	r4, {r0, r2, r6, fp, ip, lr}^
    3f0c:	4950475f 	ldmdbmi	r0, {r0, r1, r2, r3, r4, r6, r8, r9, sl, lr}^
    3f10:	614d5f4f 	cmpvs	sp, pc, asr #30
    3f14:	6e697070 	mcrvs	0, 3, r7, cr9, cr0, {3}
    3f18:	29745f67 	ldmdbcs	r4!, {r0, r1, r2, r5, r6, r8, r9, sl, fp, ip, lr}^
    3f1c:	5458457b 	ldrbpl	r4, [r8], #-1403	; 0xfffffa85
    3f20:	2c203549 	cfstr32cs	mvfx3, [r0], #-292	; 0xfffffedc
    3f24:	49504720 	ldmdbmi	r0, {r5, r8, r9, sl, lr}^
    3f28:	2c20434f 	stccs	3, cr4, [r0], #-316	; 0xfffffec4
    3f2c:	49504720 	ldmdbmi	r0, {r5, r8, r9, sl, lr}^
    3f30:	49505f4f 	ldmdbmi	r0, {r0, r1, r2, r3, r6, r8, r9, sl, fp, ip, lr}^
    3f34:	20355f4e 	eorscs	r5, r5, lr, asr #30
    3f38:	5458452c 	ldrbpl	r4, [r8], #-1324	; 0xfffffad4
    3f3c:	495f3549 	ldmdbmi	pc, {r0, r3, r6, r8, sl, ip, sp}^	; <UNPREDICTABLE>
    3f40:	7d205152 	stfvcs	f5, [r0, #-328]!	; 0xfffffeb8
    3f44:	54584500 	ldrbpl	r4, [r8], #-1280	; 0xfffffb00
    3f48:	35203549 	strcc	r3, [r0, #-1353]!	; 0xfffffab7
    3f4c:	45525f00 	ldrbmi	r5, [r2, #-3840]	; 0xfffff100
    3f50:	5f544e45 	svcpl	0x00544e45
    3f54:	43454843 	movtmi	r4, #22595	; 0x5843
    3f58:	53415f4b 	movtpl	r5, #8011	; 0x1f4b
    3f5c:	4d495443 	cfstrdmi	mvd5, [r9, #-268]	; 0xfffffef4
    3f60:	55425f45 	strbpl	r5, [r2, #-3909]	; 0xfffff0bb
    3f64:	61762846 	cmnvs	r6, r6, asr #16
    3f68:	5f202972 	svcpl	0x00202972
    3f6c:	4e454552 	mcrmi	5, 2, r4, cr5, cr2, {2}
    3f70:	48435f54 	stmdami	r3, {r2, r4, r6, r8, r9, sl, fp, ip, lr}^
    3f74:	284b4345 	stmdacs	fp, {r0, r2, r6, r8, r9, lr}^
    3f78:	2c726176 	ldfcse	f6, [r2], #-472	; 0xfffffe28
    3f7c:	73615f20 	cmnvc	r1, #32, 30	; 0x80
    3f80:	6d697463 	cfstrdvs	mvd7, [r9, #-396]!	; 0xfffffe74
    3f84:	75625f65 	strbvc	r5, [r2, #-3941]!	; 0xfffff09b
    3f88:	63202c66 			; <UNDEFINED> instruction: 0x63202c66
    3f8c:	20726168 	rsbscs	r6, r2, r8, ror #2
    3f90:	5f202c2a 	svcpl	0x00202c2a
    3f94:	4e454552 	mcrmi	5, 2, r4, cr5, cr2, {2}
    3f98:	53415f54 	movtpl	r5, #8020	; 0x1f54
    3f9c:	4d495443 	cfstrdmi	mvd5, [r9, #-268]	; 0xfffffef4
    3fa0:	49535f45 	ldmdbmi	r3, {r0, r2, r6, r8, r9, sl, fp, ip, lr}^
    3fa4:	202c455a 	eorcs	r4, ip, sl, asr r5
    3fa8:	736d656d 	cmnvc	sp, #457179136	; 0x1b400000
    3fac:	28287465 	stmdacs	r8!, {r0, r2, r5, r6, sl, ip, sp, lr}
    3fb0:	29726176 	ldmdbcs	r2!, {r1, r2, r4, r5, r6, r8, sp, lr}^
    3fb4:	615f3e2d 	cmpvs	pc, sp, lsr #28
    3fb8:	69746373 	ldmdbvs	r4!, {r0, r1, r4, r5, r6, r8, r9, sp, lr}^
    3fbc:	625f656d 	subsvs	r6, pc, #457179136	; 0x1b400000
    3fc0:	202c6675 	eorcs	r6, ip, r5, ror r6
    3fc4:	5f202c30 	svcpl	0x00202c30
    3fc8:	4e454552 	mcrmi	5, 2, r4, cr5, cr2, {2}
    3fcc:	53415f54 	movtpl	r5, #8020	; 0x1f54
    3fd0:	4d495443 	cfstrdmi	mvd5, [r9, #-268]	; 0xfffffef4
    3fd4:	49535f45 	ldmdbmi	r3, {r0, r2, r6, r8, r9, sl, fp, ip, lr}^
    3fd8:	2929455a 	stmdbcs	r9!, {r1, r3, r4, r6, r8, sl, lr}
    3fdc:	475f5f00 	ldrbmi	r5, [pc, -r0, lsl #30]
    3fe0:	415f4343 	cmpmi	pc, r3, asr #6
    3fe4:	494d4f54 	stmdbmi	sp, {r2, r4, r6, r8, r9, sl, fp, lr}^
    3fe8:	4f4c5f43 	svcmi	0x004c5f43
    3fec:	4c5f474e 	mrrcmi	7, 4, r4, pc, cr14	; <UNPREDICTABLE>
    3ff0:	5f4b434f 	svcpl	0x004b434f
    3ff4:	45455246 	strbmi	r5, [r5, #-582]	; 0xfffffdba
    3ff8:	5f003220 	svcpl	0x00003220
    3ffc:	736f6e5f 	cmnvc	pc, #1520	; 0x5f0
    4000:	74696e61 	strbtvc	r6, [r9], #-3681	; 0xfffff19f
    4004:	6d657a69 	vstmdbvs	r5!, {s15-s119}
    4008:	726f6d65 	rsbvc	r6, pc, #6464	; 0x1940
    400c:	5f002079 	svcpl	0x00002079
    4010:	736f6e5f 	cmnvc	pc, #1520	; 0x5f0
    4014:	74696e61 	strbtvc	r6, [r9], #-3681	; 0xfffff19f
    4018:	61657a69 	cmnvs	r5, r9, ror #20
    401c:	65726464 	ldrbvs	r6, [r2, #-1124]!	; 0xfffffb9c
    4020:	00207373 	eoreq	r7, r0, r3, ror r3
    4024:	4545525f 	strbmi	r5, [r5, #-607]	; 0xfffffda1
    4028:	4d5f544e 	cfldrdmi	mvd5, [pc, #-312]	; 3ef8 <_Min_Stack_Size+0x3af8>
    402c:	35505f50 	ldrbcc	r5, [r0, #-3920]	; 0xfffff0b0
    4030:	74702853 	ldrbtvc	r2, [r0], #-2131	; 0xfffff7ad
    4034:	28202972 	stmdacs	r0!, {r1, r4, r5, r6, r8, fp, sp}
    4038:	72747028 	rsbsvc	r7, r4, #40	; 0x28
    403c:	5f3e2d29 	svcpl	0x003e2d29
    4040:	3e2d706d 	cdpcc	0, 2, cr7, cr13, cr13, {3}
    4044:	7335705f 	teqvc	r5, #95	; 0x5f
    4048:	49530029 	ldmdbmi	r3, {r0, r3, r5}^
    404c:	54415f47 	strbpl	r5, [r1], #-3911	; 0xfffff0b9
    4050:	43494d4f 	movtmi	r4, #40271	; 0x9d4f
    4054:	4e494d5f 	mcrmi	13, 2, r4, cr9, cr15, {2}
    4058:	5f2d2820 	svcpl	0x002d2820
    405c:	4454535f 	ldrbmi	r5, [r4], #-863	; 0xfffffca1
    4060:	5f544e49 	svcpl	0x00544e49
    4064:	28505845 	ldmdacs	r0, {r0, r2, r6, fp, ip, lr}^
    4068:	5f544e49 	svcpl	0x00544e49
    406c:	2958414d 	ldmdbcs	r8, {r0, r2, r3, r6, r8, lr}^
    4070:	31202d20 			; <UNDEFINED> instruction: 0x31202d20
    4074:	49550029 	ldmdbmi	r5, {r0, r3, r5}^
    4078:	3631544e 	ldrtcc	r5, [r1], -lr, asr #8
    407c:	7828435f 	stmdavc	r8!, {r0, r1, r2, r3, r4, r6, r8, r9, lr}
    4080:	5f5f2029 	svcpl	0x005f2029
    4084:	544e4955 	strbpl	r4, [lr], #-2389	; 0xfffff6ab
    4088:	435f3631 	cmpmi	pc, #51380224	; 0x3100000
    408c:	00297828 	eoreq	r7, r9, r8, lsr #16
    4090:	544e495f 	strbpl	r4, [lr], #-2399	; 0xfffff6a1
    4094:	545f3631 	ldrbpl	r3, [pc], #-1585	; 409c <_Min_Stack_Size+0x3c9c>
    4098:	4345445f 	movtmi	r4, #21599	; 0x545f
    409c:	4552414c 	ldrbmi	r4, [r2, #-332]	; 0xfffffeb4
    40a0:	5f002044 	svcpl	0x00002044
    40a4:	544c465f 	strbpl	r4, [ip], #-1631	; 0xfffff9a1
    40a8:	5f583233 	svcpl	0x00583233
    40ac:	495f5349 	ldmdbmi	pc, {r0, r3, r6, r8, r9, ip, lr}^	; <UNPREDICTABLE>
    40b0:	365f4345 	ldrbcc	r4, [pc], -r5, asr #6
    40b4:	39353530 	ldmdbcc	r5!, {r4, r5, r8, sl, ip, sp}
    40b8:	32205f5f 	eorcc	r5, r0, #380	; 0x17c
    40bc:	505f5f00 	subspl	r5, pc, r0, lsl #30
    40c0:	6128544d 			; <UNDEFINED> instruction: 0x6128544d
    40c4:	29736772 	ldmdbcs	r3!, {r1, r4, r5, r6, r8, r9, sl, sp, lr}^
    40c8:	67726120 	ldrbvs	r6, [r2, -r0, lsr #2]!
    40cc:	32490073 	subcc	r0, r9, #115	; 0x73
    40d0:	52535f43 	subspl	r5, r3, #268	; 0x10c
    40d4:	4d535f31 	ldclmi	15, cr5, [r3, #-196]	; 0xffffff3c
    40d8:	454c4142 	strbmi	r4, [ip, #-322]	; 0xfffffebe
    40dc:	505f5452 	subspl	r5, pc, r2, asr r4	; <UNPREDICTABLE>
    40e0:	2820736f 	stmdacs	r0!, {r0, r1, r2, r3, r5, r6, r8, r9, ip, sp, lr}
    40e4:	29553531 	ldmdbcs	r5, {r0, r4, r5, r8, sl, ip, sp}^
    40e8:	43324900 	teqmi	r2, #0, 18
    40ec:	3252535f 	subscc	r5, r2, #2080374785	; 0x7c000001
    40f0:	5355425f 	cmppl	r5, #-268435451	; 0xf0000005
    40f4:	32492059 	subcc	r2, r9, #89	; 0x59
    40f8:	52535f43 	subspl	r5, r3, #268	; 0x10c
    40fc:	55425f32 	strbpl	r5, [r2, #-3890]	; 0xfffff0ce
    4100:	4d5f5953 	vldrmi.16	s11, [pc, #-166]	; 4062 <_Min_Stack_Size+0x3c62>	; <UNPREDICTABLE>
    4104:	5f006b73 	svcpl	0x00006b73
    4108:	544e495f 	strbpl	r4, [lr], #-2399	; 0xfffff6a1
    410c:	41454c5f 	cmpmi	r5, pc, asr ip
    4110:	36315453 			; <UNDEFINED> instruction: 0x36315453
    4114:	4449575f 	strbmi	r5, [r9], #-1887	; 0xfffff8a1
    4118:	5f5f4854 	svcpl	0x005f4854
    411c:	00363120 	eorseq	r3, r6, r0, lsr #2
    4120:	5f433249 	svcpl	0x00433249
    4124:	5f315253 	svcpl	0x00315253
    4128:	2052564f 	subscs	r5, r2, pc, asr #12
    412c:	5f433249 	svcpl	0x00433249
    4130:	5f315253 	svcpl	0x00315253
    4134:	5f52564f 	svcpl	0x0052564f
    4138:	006b734d 	rsbeq	r7, fp, sp, asr #6
    413c:	45445f5f 	strbmi	r5, [r4, #-3935]	; 0xfffff0a1
    4140:	56455f43 	strbpl	r5, [r5], -r3, asr #30
    4144:	4d5f4c41 	ldclmi	12, cr4, [pc, #-260]	; 4048 <_Min_Stack_Size+0x3c48>
    4148:	4f485445 	svcmi	0x00485445
    414c:	205f5f44 	subscs	r5, pc, r4, asr #30
    4150:	32490032 	subcc	r0, r9, #50	; 0x32
    4154:	52435f43 	subpl	r5, r3, #268	; 0x10c
    4158:	4d535f31 	ldclmi	15, cr5, [r3, #-196]	; 0xffffff3c
    415c:	50595442 	subspl	r5, r9, r2, asr #8
    4160:	32492045 	subcc	r2, r9, #69	; 0x45
    4164:	52435f43 	subpl	r5, r3, #268	; 0x10c
    4168:	4d535f31 	ldclmi	15, cr5, [r3, #-196]	; 0xffffff3c
    416c:	50595442 	subspl	r5, r9, r2, asr #8
    4170:	734d5f45 	movtvc	r5, #57157	; 0xdf45
    4174:	5f5f006b 	svcpl	0x005f006b
    4178:	5f4d5241 	svcpl	0x004d5241
    417c:	54414546 	strbpl	r4, [r1], #-1350	; 0xfffffaba
    4180:	5f455255 	svcpl	0x00455255
    4184:	36315046 	ldrtcc	r5, [r1], -r6, asr #32
    4188:	4c4d465f 	mcrrmi	6, 5, r4, sp, cr15
    418c:	43435200 	movtmi	r5, #12800	; 0x3200
    4190:	4946415f 	stmdbmi	r6, {r0, r1, r2, r3, r4, r6, r8, lr}^
    4194:	4c435f4f 	mcrrmi	15, 4, r5, r3, cr15
    4198:	4e455f4b 	cdpmi	15, 4, cr5, cr5, cr11, {2}
    419c:	28202928 	stmdacs	r0!, {r3, r5, r8, fp, sp}
    41a0:	43435220 	movtmi	r5, #12832	; 0x3220
    41a4:	50413e2d 	subpl	r3, r1, sp, lsr #28
    41a8:	4e453242 	cdpmi	2, 4, cr3, cr5, cr2, {2}
    41ac:	3d7c2052 	ldclcc	0, cr2, [ip, #-328]!	; 0xfffffeb8
    41b0:	3c312820 	ldccc	8, cr2, [r1], #-128	; 0xffffff80
    41b4:	2029303c 	eorcs	r3, r9, ip, lsr r0
    41b8:	5f5f0029 	svcpl	0x005f0029
    41bc:	5f414855 	svcpl	0x00414855
    41c0:	54494249 	strbpl	r4, [r9], #-585	; 0xfffffdb7
    41c4:	38205f5f 	stmdacc	r0!, {r0, r1, r2, r3, r4, r6, r8, r9, sl, fp, ip, lr}
    41c8:	725f5f00 	subsvc	r5, pc, #0, 30
    41cc:	72747365 	rsbsvc	r7, r4, #-1811939327	; 0x94000001
    41d0:	20746369 	rsbscs	r6, r4, r9, ror #6
    41d4:	74736572 	ldrbtvc	r6, [r3], #-1394	; 0xfffffa8e
    41d8:	74636972 	strbtvc	r6, [r3], #-2418	; 0xfffff68e
    41dc:	555f5f00 	ldrbpl	r5, [pc, #-3840]	; 32e4 <_Min_Stack_Size+0x2ee4>
    41e0:	41524653 	cmpmi	r2, r3, asr r6
    41e4:	455f5443 	ldrbmi	r5, [pc, #-1091]	; 3da9 <_Min_Stack_Size+0x39a9>
    41e8:	4c495350 	mcrrmi	3, 5, r5, r9, cr0
    41ec:	5f5f4e4f 	svcpl	0x005f4e4f
    41f0:	31783020 	cmncc	r8, r0, lsr #32
    41f4:	55382d50 	ldrpl	r2, [r8, #-3408]!	; 0xfffff2b0
    41f8:	4e005248 	cdpmi	2, 0, cr5, cr0, cr8, {2}
    41fc:	204c4c55 	subcs	r4, ip, r5, asr ip
    4200:	6f762828 	svcvs	0x00762828
    4204:	2a206469 	bcs	81d3b0 <_Min_Stack_Size+0x81cfb0>
    4208:	00293029 	eoreq	r3, r9, r9, lsr #32
    420c:	49545845 	ldmdbmi	r4, {r0, r2, r6, fp, ip, lr}^
    4210:	39445039 	stmdbcc	r4, {r0, r3, r4, r5, ip, lr}^
    4214:	58452820 	stmdapl	r5, {r5, fp, sp}^
    4218:	475f4954 			; <UNDEFINED> instruction: 0x475f4954
    421c:	5f4f4950 	svcpl	0x004f4950
    4220:	7070614d 	rsbsvc	r6, r0, sp, asr #2
    4224:	5f676e69 	svcpl	0x00676e69
    4228:	457b2974 	ldrbmi	r2, [fp, #-2420]!	; 0xfffff68c
    422c:	39495458 	stmdbcc	r9, {r3, r4, r6, sl, ip, lr}^
    4230:	47202c20 	strmi	r2, [r0, -r0, lsr #24]!
    4234:	444f4950 	strbmi	r4, [pc], #-2384	; 423c <_Min_Stack_Size+0x3e3c>
    4238:	47202c20 	strmi	r2, [r0, -r0, lsr #24]!
    423c:	5f4f4950 	svcpl	0x004f4950
    4240:	5f4e4950 	svcpl	0x004e4950
    4244:	202c2039 	eorcs	r2, ip, r9, lsr r0
    4248:	49545845 	ldmdbmi	r4, {r0, r2, r6, fp, ip, lr}^
    424c:	52495f39 	subpl	r5, r9, #57, 30	; 0xe4
    4250:	5f007d51 	svcpl	0x00007d51
    4254:	4e454552 	mcrmi	5, 2, r4, cr5, cr2, {2}
    4258:	49535f54 	ldmdbmi	r3, {r2, r4, r6, r8, r9, sl, fp, ip, lr}^
    425c:	55465f47 	strbpl	r5, [r6, #-3911]	; 0xfffff0b9
    4260:	5f28434e 	svcpl	0x0028434e
    4264:	29727470 	ldmdbcs	r2!, {r4, r5, r6, sl, ip, sp, lr}^
    4268:	5f282820 	svcpl	0x00282820
    426c:	29727470 	ldmdbcs	r2!, {r4, r5, r6, sl, ip, sp, lr}^
    4270:	735f3e2d 	cmpvc	pc, #720	; 0x2d0
    4274:	665f6769 	ldrbvs	r6, [pc], -r9, ror #14
    4278:	29636e75 	stmdbcs	r3!, {r0, r2, r4, r5, r6, r9, sl, fp, sp, lr}^
    427c:	5f5f5f00 	svcpl	0x005f5f00
    4280:	5f746e69 	svcpl	0x00746e69
    4284:	7361656c 	cmnvc	r1, #108, 10	; 0x1b000000
    4288:	5f323374 	svcpl	0x00323374
    428c:	65645f74 	strbvs	r5, [r4, #-3956]!	; 0xfffff08c
    4290:	656e6966 	strbvs	r6, [lr, #-2406]!	; 0xfffff69a
    4294:	00312064 	eorseq	r2, r1, r4, rrx
    4298:	4c4c5f5f 	mcrrmi	15, 5, r5, ip, cr15
    429c:	55434341 	strbpl	r4, [r3, #-833]	; 0xfffffcbf
    42a0:	414d5f4d 	cmpmi	sp, sp, asr #30
    42a4:	205f5f58 	subscs	r5, pc, r8, asr pc	; <UNPREDICTABLE>
    42a8:	46375830 			; <UNDEFINED> instruction: 0x46375830
    42ac:	46464646 	strbmi	r4, [r6], -r6, asr #12
    42b0:	46464646 	strbmi	r4, [r6], -r6, asr #12
    42b4:	46464646 	strbmi	r4, [r6], -r6, asr #12
    42b8:	2d504646 	ldclcs	6, cr4, [r0, #-280]	; 0xfffffee8
    42bc:	4c4c3133 	stfmie	f3, [ip], {51}	; 0x33
    42c0:	3249004b 	subcc	r0, r9, #75	; 0x4b
    42c4:	52435f43 	subpl	r5, r3, #268	; 0x10c
    42c8:	4e455f31 	mcrmi	15, 2, r5, cr5, cr1, {1}
    42cc:	5f505241 	svcpl	0x00505241
    42d0:	20736f50 	rsbscs	r6, r3, r0, asr pc
    42d4:	29553428 	ldmdbcs	r5, {r3, r5, sl, ip, sp}^
    42d8:	6e5f5f00 	cdpvs	15, 5, cr5, cr15, cr0, {0}
    42dc:	5f646565 	svcpl	0x00646565
    42e0:	4c4c554e 	cfstr64mi	mvdx5, [ip], {78}	; 0x4e
    42e4:	54584500 	ldrbpl	r4, [r8], #-1280	; 0xfffffb00
    42e8:	41503949 	cmpmi	r0, r9, asr #18
    42ec:	45282039 	strmi	r2, [r8, #-57]!	; 0xffffffc7
    42f0:	5f495458 	svcpl	0x00495458
    42f4:	4f495047 	svcmi	0x00495047
    42f8:	70614d5f 	rsbvc	r4, r1, pc, asr sp
    42fc:	676e6970 			; <UNDEFINED> instruction: 0x676e6970
    4300:	7b29745f 	blvc	a61484 <_Min_Stack_Size+0xa61084>
    4304:	49545845 	ldmdbmi	r4, {r0, r2, r6, fp, ip, lr}^
    4308:	47202c39 			; <UNDEFINED> instruction: 0x47202c39
    430c:	414f4950 	cmpmi	pc, r0, asr r9	; <UNPREDICTABLE>
    4310:	47202c20 	strmi	r2, [r0, -r0, lsr #24]!
    4314:	5f4f4950 	svcpl	0x004f4950
    4318:	5f4e4950 	svcpl	0x004e4950
    431c:	202c2039 	eorcs	r2, ip, r9, lsr r0
    4320:	49545845 	ldmdbmi	r4, {r0, r2, r6, fp, ip, lr}^
    4324:	52495f39 	subpl	r5, r9, #57, 30	; 0xe4
    4328:	007d2051 	rsbseq	r2, sp, r1, asr r0
    432c:	53555f5f 	cmppl	r5, #380	; 0x17c
    4330:	4c5f5245 	lfmmi	f5, 2, [pc], {69}	; 0x45
    4334:	4c454241 	sfmmi	f4, 2, [r5], {65}	; 0x41
    4338:	4552505f 	ldrbmi	r5, [r2, #-95]	; 0xffffffa1
    433c:	5f584946 	svcpl	0x00584946
    4340:	5f00205f 	svcpl	0x0000205f
    4344:	4e49555f 	mcrmi	5, 2, r5, cr9, cr15, {2}
    4348:	5f343654 	svcpl	0x00343654
    434c:	5f58414d 	svcpl	0x0058414d
    4350:	7830205f 	ldmdavc	r0!, {r0, r1, r2, r3, r4, r6, sp}
    4354:	66666666 	strbtvs	r6, [r6], -r6, ror #12
    4358:	66666666 	strbtvs	r6, [r6], -r6, ror #12
    435c:	66666666 	strbtvs	r6, [r6], -r6, ror #12
    4360:	66666666 	strbtvs	r6, [r6], -r6, ror #12
    4364:	004c4c55 	subeq	r4, ip, r5, asr ip
    4368:	4545525f 	strbmi	r5, [r5, #-607]	; 0xfffffda1
    436c:	535f544e 	cmppl	pc, #1308622848	; 0x4e000000
    4370:	4f545254 	svcmi	0x00545254
    4374:	414c5f4b 	cmpmi	ip, fp, asr #30
    4378:	70285453 	eorvc	r5, r8, r3, asr r4
    437c:	20297274 	eorcs	r7, r9, r4, ror r2
    4380:	74702828 	ldrbtvc	r2, [r0], #-2088	; 0xfffff7d8
    4384:	3e2d2972 			; <UNDEFINED> instruction: 0x3e2d2972
    4388:	73696d5f 	cmnvc	r9, #6080	; 0x17c0
    438c:	5f3e2d63 	svcpl	0x003e2d63
    4390:	74727473 	ldrbtvc	r7, [r2], #-1139	; 0xfffffb8d
    4394:	6c5f6b6f 	mrrcvs	11, 6, r6, pc, cr15	; <UNPREDICTABLE>
    4398:	29747361 	ldmdbcs	r4!, {r0, r5, r6, r8, r9, ip, sp, lr}^
    439c:	555f5f00 	ldrbpl	r5, [pc, #-3840]	; 34a4 <_Min_Stack_Size+0x30a4>
    43a0:	33544e49 	cmpcc	r4, #1168	; 0x490
    43a4:	414d5f32 	cmpmi	sp, r2, lsr pc
    43a8:	205f5f58 	subscs	r5, pc, r8, asr pc	; <UNPREDICTABLE>
    43ac:	66667830 			; <UNDEFINED> instruction: 0x66667830
    43b0:	66666666 	strbtvs	r6, [r6], -r6, ror #12
    43b4:	4c556666 	mrrcmi	6, 6, r6, r5, cr6
    43b8:	544e4900 	strbpl	r4, [lr], #-2304	; 0xfffff700
    43bc:	435f3436 	cmpmi	pc, #905969664	; 0x36000000
    43c0:	20297828 	eorcs	r7, r9, r8, lsr #16
    43c4:	4e495f5f 	mcrmi	15, 2, r5, cr9, cr15, {2}
    43c8:	5f343654 	svcpl	0x00343654
    43cc:	29782843 	ldmdbcs	r8!, {r0, r1, r6, fp, sp}^
    43d0:	54415f00 	strbpl	r5, [r1], #-3840	; 0xfffff100
    43d4:	454c4946 	strbmi	r4, [ip, #-2374]	; 0xfffff6ba
    43d8:	554f535f 	strbpl	r5, [pc, #-863]	; 4081 <_Min_Stack_Size+0x3c81>
    43dc:	00454352 	subeq	r4, r5, r2, asr r3
    43e0:	38544e49 	ldmdacc	r4, {r0, r3, r6, r9, sl, fp, lr}^
    43e4:	4e494d5f 	mcrmi	13, 2, r4, cr9, cr15, {2}
    43e8:	5f2d2820 	svcpl	0x002d2820
    43ec:	544e495f 	strbpl	r4, [lr], #-2399	; 0xfffff6a1
    43f0:	414d5f38 	cmpmi	sp, r8, lsr pc
    43f4:	205f5f58 	subscs	r5, pc, r8, asr pc	; <UNPREDICTABLE>
    43f8:	2931202d 	ldmdbcs	r1!, {r0, r2, r3, r5, sp}
    43fc:	535f5f00 	cmppl	pc, #0, 30
    4400:	5f434454 	svcpl	0x00434454
    4404:	53524556 	cmppl	r2, #360710144	; 0x15800000
    4408:	5f4e4f49 	svcpl	0x004e4f49
    440c:	3032205f 	eorscc	r2, r2, pc, asr r0
    4410:	32313131 	eorscc	r3, r1, #1073741836	; 0x4000000c
    4414:	5f5f004c 	svcpl	0x005f004c
    4418:	6c797274 	lfmvs	f7, 2, [r9], #-464	; 0xfffffe30
    441c:	736b636f 	cmnvc	fp, #-1140850687	; 0xbc000001
    4420:	6168735f 	cmnvs	r8, pc, asr r3
    4424:	28646572 	stmdacs	r4!, {r1, r4, r5, r6, r8, sl, sp, lr}^
    4428:	292e2e2e 	stmdbcs	lr!, {r1, r2, r3, r5, r9, sl, fp, sp}
    442c:	6c5f5f20 	mrrcvs	15, 2, r5, pc, cr0	; <UNPREDICTABLE>
    4430:	5f6b636f 	svcpl	0x006b636f
    4434:	6f6e6e61 	svcvs	0x006e6e61
    4438:	65746174 	ldrbvs	r6, [r4, #-372]!	; 0xfffffe8c
    443c:	61687328 	cmnvs	r8, r8, lsr #6
    4440:	5f646572 	svcpl	0x00646572
    4444:	6c797274 	lfmvs	f7, 2, [r9], #-464	; 0xfffffe30
    4448:	5f6b636f 	svcpl	0x006b636f
    444c:	636e7566 	cmnvs	lr, #427819008	; 0x19800000
    4450:	6e6f6974 			; <UNDEFINED> instruction: 0x6e6f6974
    4454:	565f5f28 	ldrbpl	r5, [pc], -r8, lsr #30
    4458:	52415f41 	subpl	r5, r1, #260	; 0x104
    445c:	5f5f5347 	svcpl	0x005f5347
    4460:	5f002929 	svcpl	0x00002929
    4464:	544e495f 	strbpl	r4, [lr], #-2399	; 0xfffff6a1
    4468:	41454c5f 	cmpmi	r5, pc, asr ip
    446c:	5f385453 	svcpl	0x00385453
    4470:	5f58414d 	svcpl	0x0058414d
    4474:	7830205f 	ldmdavc	r0!, {r0, r1, r2, r3, r4, r6, sp}
    4478:	5f006637 	svcpl	0x00006637
    447c:	4343475f 	movtmi	r4, #14175	; 0x375f
    4480:	4f54415f 	svcmi	0x0054415f
    4484:	5f43494d 	svcpl	0x0043494d
    4488:	4e494f50 	mcrmi	15, 2, r4, cr9, cr0, {2}
    448c:	5f524554 	svcpl	0x00524554
    4490:	4b434f4c 	blmi	10d81c8 <_Min_Stack_Size+0x10d7dc8>
    4494:	4552465f 	ldrbmi	r4, [r2, #-1631]	; 0xfffff9a1
    4498:	00322045 	eorseq	r2, r2, r5, asr #32
    449c:	52415f5f 	subpl	r5, r1, #380	; 0x17c
    44a0:	45465f4d 	strbmi	r5, [r6, #-3917]	; 0xfffff0b3
    44a4:	52555441 	subspl	r5, r5, #1090519040	; 0x41000000
    44a8:	42515f45 	subsmi	r5, r1, #276	; 0x114
    44ac:	31205449 			; <UNDEFINED> instruction: 0x31205449
    44b0:	415f5f00 	cmpmi	pc, r0, lsl #30
    44b4:	465f4d52 			; <UNDEFINED> instruction: 0x465f4d52
    44b8:	55544145 	ldrbpl	r4, [r4, #-325]	; 0xfffffebb
    44bc:	435f4552 	cmpmi	pc, #343932928	; 0x14800000
    44c0:	31205a4c 			; <UNDEFINED> instruction: 0x31205a4c
    44c4:	6c5f5f00 	mrrcvs	15, 0, r5, pc, cr0	; <UNPREDICTABLE>
    44c8:	5f6b636f 	svcpl	0x006b636f
    44cc:	75716361 	ldrbvc	r6, [r1, #-865]!	; 0xfffffc9f
    44d0:	28657269 	stmdacs	r5!, {r0, r3, r5, r6, r9, ip, sp, lr}^
    44d4:	6b636f6c 	blvs	18e028c <_Min_Stack_Size+0x18dfe8c>
    44d8:	5f5f2029 	svcpl	0x005f2029
    44dc:	61746572 	cmnvs	r4, r2, ror r5
    44e0:	74656772 	strbtvc	r6, [r5], #-1906	; 0xfffff88e
    44e4:	636f6c5f 	cmnvs	pc, #24320	; 0x5f00
    44e8:	63615f6b 	cmnvs	r1, #428	; 0x1ac
    44ec:	72697571 	rsbvc	r7, r9, #473956352	; 0x1c400000
    44f0:	6f6c2865 	svcvs	0x006c2865
    44f4:	00296b63 	eoreq	r6, r9, r3, ror #22
    44f8:	54415f5f 	strbpl	r5, [r1], #-3935	; 0xfffff0a1
    44fc:	43494d4f 	movtmi	r4, #40271	; 0x9d4f
    4500:	5143415f 	cmppl	r3, pc, asr r1
    4504:	45524955 	ldrbmi	r4, [r2, #-2389]	; 0xfffff6ab
    4508:	5f003220 	svcpl	0x00003220
    450c:	4d52415f 	ldfmie	f4, [r2, #-380]	; 0xfffffe84
    4510:	4145465f 	cmpmi	r5, pc, asr r6
    4514:	45525554 	ldrbmi	r5, [r2, #-1364]	; 0xfffffaac
    4518:	4d4f435f 	stclmi	3, cr4, [pc, #-380]	; 43a4 <_Min_Stack_Size+0x3fa4>
    451c:	58454c50 	stmdapl	r5, {r4, r6, sl, fp, lr}^
    4520:	6c5f5f00 	mrrcvs	15, 0, r5, pc, cr0	; <UNPREDICTABLE>
    4524:	736b636f 	cmnvc	fp, #-1140850687	; 0xbc000001
    4528:	6168735f 	cmnvs	r8, pc, asr r3
    452c:	28646572 	stmdacs	r4!, {r1, r4, r5, r6, r8, sl, sp, lr}^
    4530:	292e2e2e 	stmdbcs	lr!, {r1, r2, r3, r5, r9, sl, fp, sp}
    4534:	6c5f5f20 	mrrcvs	15, 2, r5, pc, cr0	; <UNPREDICTABLE>
    4538:	5f6b636f 	svcpl	0x006b636f
    453c:	6f6e6e61 	svcvs	0x006e6e61
    4540:	65746174 	ldrbvs	r6, [r4, #-372]!	; 0xfffffe8c
    4544:	61687328 	cmnvs	r8, r8, lsr #6
    4548:	5f646572 	svcpl	0x00646572
    454c:	6b636f6c 	blvs	18e0304 <_Min_Stack_Size+0x18dff04>
    4550:	6e75665f 	mrcvs	6, 3, r6, cr5, cr15, {2}
    4554:	6f697463 	svcvs	0x00697463
    4558:	5f5f286e 	svcpl	0x005f286e
    455c:	415f4156 	cmpmi	pc, r6, asr r1	; <UNPREDICTABLE>
    4560:	5f534752 	svcpl	0x00534752
    4564:	0029295f 	eoreq	r2, r9, pc, asr r9
    4568:	4e495f5f 	mcrmi	15, 2, r5, cr9, cr15, {2}
    456c:	20363154 	eorscs	r3, r6, r4, asr r1
    4570:	00226822 	eoreq	r6, r2, r2, lsr #16
    4574:	69736e75 	ldmdbvs	r3!, {r0, r2, r4, r5, r6, r9, sl, fp, sp, lr}^
    4578:	64656e67 	strbtvs	r6, [r5], #-3687	; 0xfffff199
    457c:	67697320 	strbvs	r7, [r9, -r0, lsr #6]!
    4580:	0064656e 	rsbeq	r6, r4, lr, ror #10
    4584:	49545845 	ldmdbmi	r4, {r0, r2, r6, fp, ip, lr}^
    4588:	42503231 	subsmi	r3, r0, #268435459	; 0x10000003
    458c:	28203231 	stmdacs	r0!, {r0, r4, r5, r9, ip, sp}
    4590:	49545845 	ldmdbmi	r4, {r0, r2, r6, fp, ip, lr}^
    4594:	4950475f 	ldmdbmi	r0, {r0, r1, r2, r3, r4, r6, r8, r9, sl, lr}^
    4598:	614d5f4f 	cmpvs	sp, pc, asr #30
    459c:	6e697070 	mcrvs	0, 3, r7, cr9, cr0, {3}
    45a0:	29745f67 	ldmdbcs	r4!, {r0, r1, r2, r5, r6, r8, r9, sl, fp, ip, lr}^
    45a4:	5458457b 	ldrbpl	r4, [r8], #-1403	; 0xfffffa85
    45a8:	2c323149 	ldfcss	f3, [r2], #-292	; 0xfffffedc
    45ac:	49504720 	ldmdbmi	r0, {r5, r8, r9, sl, lr}^
    45b0:	2c20424f 	sfmcs	f4, 4, [r0], #-316	; 0xfffffec4
    45b4:	49504720 	ldmdbmi	r0, {r5, r8, r9, sl, lr}^
    45b8:	49505f4f 	ldmdbmi	r0, {r0, r1, r2, r3, r6, r8, r9, sl, fp, ip, lr}^
    45bc:	32315f4e 	eorscc	r5, r1, #312	; 0x138
    45c0:	58452c20 	stmdapl	r5, {r5, sl, fp, sp}^
    45c4:	32314954 	eorscc	r4, r1, #84, 18	; 0x150000
    45c8:	5152495f 	cmppl	r2, pc, asr r9
    45cc:	5f007d20 	svcpl	0x00007d20
    45d0:	50544e49 	subspl	r4, r4, r9, asr #28
    45d4:	455f5254 	ldrbmi	r5, [pc, #-596]	; 4388 <_Min_Stack_Size+0x3f88>
    45d8:	4e495f51 	mcrmi	15, 2, r5, cr9, cr1, {2}
    45dc:	5f002054 	svcpl	0x00002054
    45e0:	4d52415f 	ldfmie	f4, [r2, #-380]	; 0xfffffe84
    45e4:	5a49535f 	bpl	1259368 <_Min_Stack_Size+0x1258f68>
    45e8:	5f464f45 	svcpl	0x00464f45
    45ec:	41484357 	cmpmi	r8, r7, asr r3
    45f0:	20545f52 	subscs	r5, r4, r2, asr pc
    45f4:	5f5f0034 	svcpl	0x005f0034
    45f8:	33544c46 	cmpcc	r4, #17920	; 0x4600
    45fc:	4d5f5832 	ldclmi	8, cr5, [pc, #-200]	; 453c <_Min_Stack_Size+0x413c>
    4600:	455f5841 	ldrbmi	r5, [pc, #-2113]	; 3dc7 <_Min_Stack_Size+0x39c7>
    4604:	5f5f5058 	svcpl	0x005f5058
    4608:	32303120 	eorscc	r3, r0, #32, 2
    460c:	50470034 	subpl	r0, r7, r4, lsr r0
    4610:	20424f49 	subcs	r4, r2, r9, asr #30
    4614:	50472828 	subpl	r2, r7, r8, lsr #16
    4618:	545f4f49 	ldrbpl	r4, [pc], #-3913	; 4620 <_Min_Stack_Size+0x4220>
    461c:	44657079 	strbtmi	r7, [r5], #-121	; 0xffffff87
    4620:	2a206665 	bcs	81dfbc <_Min_Stack_Size+0x81dbbc>
    4624:	49504729 	ldmdbmi	r0, {r0, r3, r5, r8, r9, sl, lr}^
    4628:	425f424f 	subsmi	r4, pc, #-268435452	; 0xf0000004
    462c:	29455341 	stmdbcs	r5, {r0, r6, r8, r9, ip, lr}^
    4630:	555f5f00 	ldrbpl	r5, [pc, #-3840]	; 3738 <_Min_Stack_Size+0x3338>
    4634:	5f544e49 	svcpl	0x00544e49
    4638:	5341454c 	movtpl	r4, #5452	; 0x154c
    463c:	5f323354 	svcpl	0x00323354
    4640:	5f58414d 	svcpl	0x0058414d
    4644:	7830205f 	ldmdavc	r0!, {r0, r1, r2, r3, r4, r6, sp}
    4648:	66666666 	strbtvs	r6, [r6], -r6, ror #12
    464c:	66666666 	strbtvs	r6, [r6], -r6, ror #12
    4650:	5f004c55 	svcpl	0x00004c55
    4654:	4c42445f 	cfstrdmi	mvd4, [r2], {95}	; 0x5f
    4658:	5350455f 	cmppl	r0, #398458880	; 0x17c00000
    465c:	4e4f4c49 	cdpmi	12, 4, cr4, cr15, cr9, {2}
    4660:	28205f5f 	stmdacs	r0!, {r0, r1, r2, r3, r4, r6, r8, r9, sl, fp, ip, lr}
    4664:	756f6428 	strbvc	r6, [pc, #-1064]!	; 4244 <_Min_Stack_Size+0x3e44>
    4668:	29656c62 	stmdbcs	r5!, {r1, r5, r6, sl, fp, sp, lr}^
    466c:	32322e32 	eorscc	r2, r2, #800	; 0x320
    4670:	36343430 			; <UNDEFINED> instruction: 0x36343430
    4674:	32393430 	eorscc	r3, r9, #48, 8	; 0x30000000
    4678:	31333035 	teqcc	r3, r5, lsr r0
    467c:	2d653133 	stfcse	f3, [r5, #-204]!	; 0xffffff34
    4680:	294c3631 	stmdbcs	ip, {r0, r4, r5, r9, sl, ip, sp}^
    4684:	735f5f00 	cmpvc	pc, #0, 30
    4688:	69746365 	ldmdbvs	r4!, {r0, r2, r5, r6, r8, r9, sp, lr}^
    468c:	78286e6f 	stmdavc	r8!, {r0, r1, r2, r3, r5, r6, r9, sl, fp, sp, lr}
    4690:	5f5f2029 	svcpl	0x005f2029
    4694:	72747461 	rsbsvc	r7, r4, #1627389952	; 0x61000000
    4698:	74756269 	ldrbtvc	r6, [r5], #-617	; 0xfffffd97
    469c:	285f5f65 	ldmdacs	pc, {r0, r2, r5, r6, r8, r9, sl, fp, ip, lr}^	; <UNPREDICTABLE>
    46a0:	735f5f28 	cmpvc	pc, #40, 30	; 0xa0
    46a4:	69746365 	ldmdbvs	r4!, {r0, r2, r5, r6, r8, r9, sp, lr}^
    46a8:	5f5f6e6f 	svcpl	0x005f6e6f
    46ac:	29297828 	stmdbcs	r9!, {r3, r5, fp, ip, sp, lr}
    46b0:	50470029 	subpl	r0, r7, r9, lsr #32
    46b4:	535f4f49 	cmppl	pc, #292	; 0x124
    46b8:	44454550 	strbmi	r4, [r5], #-1360	; 0xfffffab0
    46bc:	4d30355f 	cfldr32mi	mvfx3, [r0, #-380]!	; 0xfffffe84
    46c0:	30783020 	rsbscc	r3, r8, r0, lsr #32
    46c4:	30303030 	eorscc	r3, r0, r0, lsr r0
    46c8:	75333030 	ldrvc	r3, [r3, #-48]!	; 0xffffffd0
    46cc:	415f5f00 	cmpmi	pc, r0, lsl #30
    46d0:	494d4f54 	stmdbmi	sp, {r2, r4, r6, r8, r9, sl, fp, lr}^
    46d4:	4f435f43 	svcmi	0x00435f43
    46d8:	4d55534e 	ldclmi	3, cr5, [r5, #-312]	; 0xfffffec8
    46dc:	00312045 	eorseq	r2, r1, r5, asr #32
    46e0:	4e495f5f 	mcrmi	15, 2, r5, cr9, cr15, {2}
    46e4:	454c5f54 	strbmi	r5, [ip, #-3924]	; 0xfffff0ac
    46e8:	36545341 	ldrbcc	r5, [r4], -r1, asr #6
    46ec:	49575f34 	ldmdbmi	r7, {r2, r4, r5, r8, r9, sl, fp, ip, lr}^
    46f0:	5f485444 	svcpl	0x00485444
    46f4:	3436205f 	ldrtcc	r2, [r6], #-95	; 0xffffffa1
    46f8:	465f5f00 	ldrbmi	r5, [pc], -r0, lsl #30
    46fc:	485f544c 	ldmdami	pc, {r2, r3, r6, sl, ip, lr}^	; <UNPREDICTABLE>
    4700:	495f5341 	ldmdbmi	pc, {r0, r6, r8, r9, ip, lr}^	; <UNPREDICTABLE>
    4704:	4e49464e 	cdpmi	6, 4, cr4, cr9, cr14, {2}
    4708:	5f595449 	svcpl	0x00595449
    470c:	0031205f 	eorseq	r2, r1, pc, asr r0
    4710:	43415f5f 	movtmi	r5, #8031	; 0x1f5f
    4714:	5f4d5543 	svcpl	0x004d5543
    4718:	5f58414d 	svcpl	0x0058414d
    471c:	5830205f 	ldmdapl	r0!, {r0, r1, r2, r3, r4, r6, sp}
    4720:	46464637 			; <UNDEFINED> instruction: 0x46464637
    4724:	46464646 	strbmi	r4, [r6], -r6, asr #12
    4728:	35312d50 	ldrcc	r2, [r1, #-3408]!	; 0xfffff2b0
    472c:	5047004b 	subpl	r0, r7, fp, asr #32
    4730:	20414f49 	subcs	r4, r1, r9, asr #30
    4734:	50472828 	subpl	r2, r7, r8, lsr #16
    4738:	545f4f49 	ldrbpl	r4, [pc], #-3913	; 4740 <_Min_Stack_Size+0x4340>
    473c:	44657079 	strbtmi	r7, [r5], #-121	; 0xffffff87
    4740:	2a206665 	bcs	81e0dc <_Min_Stack_Size+0x81dcdc>
    4744:	49504729 	ldmdbmi	r0, {r0, r3, r5, r8, r9, sl, lr}^
    4748:	425f414f 	subsmi	r4, pc, #-1073741805	; 0xc0000013
    474c:	29455341 	stmdbcs	r5, {r0, r6, r8, r9, ip, lr}^
    4750:	495f5f00 	ldmdbmi	pc, {r8, r9, sl, fp, ip, lr}^	; <UNPREDICTABLE>
    4754:	5f38544e 	svcpl	0x0038544e
    4758:	5f58414d 	svcpl	0x0058414d
    475c:	7830205f 	ldmdavc	r0!, {r0, r1, r2, r3, r4, r6, sp}
    4760:	49006637 	stmdbmi	r0, {r0, r1, r2, r4, r5, r9, sl, sp, lr}
    4764:	4f5f4332 	svcmi	0x005f4332
    4768:	5f325241 	svcpl	0x00325241
    476c:	55444e45 	strbpl	r4, [r4, #-3653]	; 0xfffff1bb
    4770:	505f4c41 	subspl	r4, pc, r1, asr #24
    4774:	2820736f 	stmdacs	r0!, {r0, r1, r2, r3, r5, r6, r8, r9, ip, sp, lr}
    4778:	00295530 	eoreq	r5, r9, r0, lsr r5
    477c:	4349564e 	movtmi	r5, #38478	; 0x964e
    4780:	5152495f 	cmppl	r2, pc, asr r9
    4784:	58455f37 	stmdapl	r5, {r0, r1, r2, r4, r5, r8, r9, sl, fp, ip, lr}^
    4788:	5f314954 	svcpl	0x00314954
    478c:	62616e45 	rsbvs	r6, r1, #1104	; 0x450
    4790:	2820656c 	stmdacs	r0!, {r2, r3, r5, r6, r8, sl, sp, lr}
    4794:	4349564e 	movtmi	r5, #38478	; 0x964e
    4798:	4553495f 	ldrbmi	r4, [r3, #-2399]	; 0xfffff6a1
    479c:	7c203052 	stcvc	0, cr3, [r0], #-328	; 0xfffffeb8
    47a0:	3c31203d 	ldccc	0, cr2, [r1], #-244	; 0xffffff0c
    47a4:	0029373c 	eoreq	r3, r9, ip, lsr r7
    47a8:	4f495047 	svcmi	0x00495047
    47ac:	28282044 	stmdacs	r8!, {r2, r6, sp}
    47b0:	4f495047 	svcmi	0x00495047
    47b4:	7079545f 	rsbsvc	r5, r9, pc, asr r4
    47b8:	66654465 	strbtvs	r4, [r5], -r5, ror #8
    47bc:	47292a20 	strmi	r2, [r9, -r0, lsr #20]!
    47c0:	444f4950 	strbmi	r4, [pc], #-2384	; 47c8 <_Min_Stack_Size+0x43c8>
    47c4:	5341425f 	movtpl	r4, #4703	; 0x125f
    47c8:	5f002945 	svcpl	0x00002945
    47cc:	4343475f 	movtmi	r4, #14175	; 0x375f
    47d0:	5641485f 			; <UNDEFINED> instruction: 0x5641485f
    47d4:	57445f45 	strbpl	r5, [r4, -r5, asr #30]
    47d8:	32465241 	subcc	r5, r6, #268435460	; 0x10000004
    47dc:	4946435f 	stmdbmi	r6, {r0, r1, r2, r3, r4, r6, r8, r9, lr}^
    47e0:	4d53415f 	ldfmie	f4, [r3, #-380]	; 0xfffffe84
    47e4:	5f003120 	svcpl	0x00003120
    47e8:	6e695f5f 	mcrvs	15, 3, r5, cr9, cr15, {2}
    47ec:	745f3874 	ldrbvc	r3, [pc], #-2164	; 47f4 <_Min_Stack_Size+0x43f4>
    47f0:	6665645f 			; <UNDEFINED> instruction: 0x6665645f
    47f4:	64656e69 	strbtvs	r6, [r5], #-3689	; 0xfffff197
    47f8:	5f003120 	svcpl	0x00003120
    47fc:	5246535f 	subpl	r5, r6, #2080374785	; 0x7c000001
    4800:	5f544341 	svcpl	0x00544341
    4804:	5f4e494d 	svcpl	0x004e494d
    4808:	2d28205f 	stccs	0, cr2, [r8, #-380]!	; 0xfffffe84
    480c:	48352e30 	ldmdami	r5!, {r4, r5, r9, sl, fp, sp}
    4810:	2e302d52 	mrccs	13, 1, r2, cr0, cr2, {2}
    4814:	29524835 	ldmdbcs	r2, {r0, r2, r4, r5, fp, lr}^
    4818:	535f5f00 	cmppl	pc, #0, 30
    481c:	42495f41 	submi	r5, r9, #260	; 0x104
    4820:	5f5f5449 	svcpl	0x005f5449
    4824:	00363120 	eorseq	r3, r6, r0, lsr #2
    4828:	666f5f5f 	uqsaxvs	r5, pc, pc	; <UNPREDICTABLE>
    482c:	74657366 	strbtvc	r7, [r5], #-870	; 0xfffffc9a
    4830:	7428666f 	strtvc	r6, [r8], #-1647	; 0xfffff991
    4834:	2c657079 	stclcs	0, cr7, [r5], #-484	; 0xfffffe1c
    4838:	6c656966 			; <UNDEFINED> instruction: 0x6c656966
    483c:	6f202964 	svcvs	0x00202964
    4840:	65736666 	ldrbvs	r6, [r3, #-1638]!	; 0xfffff99a
    4844:	28666f74 	stmdacs	r6!, {r2, r4, r5, r6, r8, r9, sl, fp, sp, lr}^
    4848:	65707974 	ldrbvs	r7, [r0, #-2420]!	; 0xfffff68c
    484c:	6966202c 	stmdbvs	r6!, {r2, r3, r5, sp}^
    4850:	29646c65 	stmdbcs	r4!, {r0, r2, r5, r6, sl, fp, sp, lr}^
    4854:	475f5f00 	ldrbmi	r5, [pc, -r0, lsl #30]
    4858:	495f4343 	ldmdbmi	pc, {r0, r1, r6, r8, r9, lr}^	; <UNPREDICTABLE>
    485c:	355f4345 	ldrbcc	r4, [pc, #-837]	; 451f <_Min_Stack_Size+0x411f>
    4860:	435f3935 	cmpmi	pc, #868352	; 0xd4000
    4864:	4c504d4f 	mrrcmi	13, 4, r4, r0, cr15
    4868:	30205845 	eorcc	r5, r0, r5, asr #16
    486c:	415f5f00 	cmpmi	pc, r0, lsl #30
    4870:	465f4d52 			; <UNDEFINED> instruction: 0x465f4d52
    4874:	55544145 	ldrbpl	r4, [r4, #-325]	; 0xfffffebb
    4878:	4d5f4552 	cfldr64mi	mvdx4, [pc, #-328]	; 4738 <_Min_Stack_Size+0x4338>
    487c:	5f004556 	svcpl	0x00004556
    4880:	6e6f6e5f 	mcrvs	14, 3, r6, cr15, cr15, {2}
    4884:	6c6c756e 	cfstr64vs	mvdx7, [ip], #-440	; 0xfffffe48
    4888:	6c6c615f 	stfvse	f6, [ip], #-380	; 0xfffffe84
    488c:	615f5f20 	cmpvs	pc, r0, lsr #30
    4890:	69727474 	ldmdbvs	r2!, {r2, r4, r5, r6, sl, ip, sp, lr}^
    4894:	65747562 	ldrbvs	r7, [r4, #-1378]!	; 0xfffffa9e
    4898:	28285f5f 	stmdacs	r8!, {r0, r1, r2, r3, r4, r6, r8, r9, sl, fp, ip, lr}
    489c:	6f6e5f5f 	svcvs	0x006e5f5f
    48a0:	6c756e6e 	ldclvs	14, cr6, [r5], #-440	; 0xfffffe48
    48a4:	295f5f6c 	ldmdbcs	pc, {r2, r3, r5, r6, r8, r9, sl, fp, ip, lr}^	; <UNPREDICTABLE>
    48a8:	5f5f0029 	svcpl	0x005f0029
    48ac:	5f4d5241 	svcpl	0x004d5241
    48b0:	36315046 	ldrtcc	r5, [r1], -r6, asr #32
    48b4:	524f465f 	subpl	r4, pc, #99614720	; 0x5f00000
    48b8:	5f54414d 	svcpl	0x0054414d
    48bc:	45454549 	strbmi	r4, [r5, #-1353]	; 0xfffffab7
    48c0:	555f5f00 	ldrbpl	r5, [pc, #-3840]	; 39c8 <_Min_Stack_Size+0x35c8>
    48c4:	31544e49 	cmpcc	r4, r9, asr #28
    48c8:	59545f36 	ldmdbpl	r4, {r1, r2, r4, r5, r8, r9, sl, fp, ip, lr}^
    48cc:	5f5f4550 	svcpl	0x005f4550
    48d0:	6f687320 	svcvs	0x00687320
    48d4:	75207472 	strvc	r7, [r0, #-1138]!	; 0xfffffb8e
    48d8:	6769736e 	strbvs	r7, [r9, -lr, ror #6]!
    48dc:	2064656e 	rsbcs	r6, r4, lr, ror #10
    48e0:	00746e69 	rsbseq	r6, r4, r9, ror #28
    48e4:	534f505f 	movtpl	r5, #61535	; 0xf05f
    48e8:	535f5849 	cmppl	pc, #4784128	; 0x490000
    48ec:	4352554f 	cmpmi	r2, #331350016	; 0x13c00000
    48f0:	41520045 	cmpmi	r2, r5, asr #32
    48f4:	4d5f444e 	cfldrdmi	mvd4, [pc, #-312]	; 47c4 <_Min_Stack_Size+0x43c4>
    48f8:	5f205841 	svcpl	0x00205841
    48fc:	4e41525f 	mcrmi	2, 2, r5, cr1, cr15, {2}
    4900:	414d5f44 	cmpmi	sp, r4, asr #30
    4904:	32490058 	subcc	r0, r9, #88	; 0x58
    4908:	414f5f43 	cmpmi	pc, r3, asr #30
    490c:	455f3252 	ldrbmi	r3, [pc, #-594]	; 46c2 <_Min_Stack_Size+0x42c2>
    4910:	4155444e 	cmpmi	r5, lr, asr #8
    4914:	3249204c 	subcc	r2, r9, #76	; 0x4c
    4918:	414f5f43 	cmpmi	pc, r3, asr #30
    491c:	455f3252 	ldrbmi	r3, [pc, #-594]	; 46d2 <_Min_Stack_Size+0x42d2>
    4920:	4155444e 	cmpmi	r5, lr, asr #8
    4924:	734d5f4c 	movtvc	r5, #57164	; 0xdf4c
    4928:	5f5f006b 	svcpl	0x005f006b
    492c:	746e6975 	strbtvc	r6, [lr], #-2421	; 0xfffff68b
    4930:	745f3233 	ldrbvc	r3, [pc], #-563	; 4938 <_Min_Stack_Size+0x4538>
    4934:	49564e00 	ldmdbmi	r6, {r9, sl, fp, lr}^
    4938:	52495f43 	subpl	r5, r9, #268	; 0x10c
    493c:	5f393351 	svcpl	0x00393351
    4940:	52415355 	subpl	r5, r1, #1409286145	; 0x54000001
    4944:	455f3354 	ldrbmi	r3, [pc, #-852]	; 45f8 <_Min_Stack_Size+0x41f8>
    4948:	6c62616e 	stfvse	f6, [r2], #-440	; 0xfffffe48
    494c:	4e282065 	cdpmi	0, 2, cr2, cr8, cr5, {3}
    4950:	5f434956 	svcpl	0x00434956
    4954:	52455349 	subpl	r5, r5, #603979777	; 0x24000001
    4958:	3d7c2031 	ldclcc	0, cr2, [ip, #-196]!	; 0xffffff3c
    495c:	3c3c3120 	ldfccs	f3, [ip], #-128	; 0xffffff80
    4960:	53552028 	cmppl	r5, #40	; 0x28
    4964:	33545241 	cmpcc	r4, #268435460	; 0x10000004
    4968:	5152495f 	cmppl	r2, pc, asr r9
    496c:	33202d20 			; <UNDEFINED> instruction: 0x33202d20
    4970:	29292032 	stmdbcs	r9!, {r1, r4, r5, sp}
    4974:	535f5f00 	cmppl	pc, #0, 30
    4978:	4654464f 	ldrbmi	r4, [r4], -pc, asr #12
    497c:	205f5f50 	subscs	r5, pc, r0, asr pc	; <UNPREDICTABLE>
    4980:	525f0031 	subspl	r0, pc, #49	; 0x31
    4984:	544e4545 	strbpl	r4, [lr], #-1349	; 0xfffffabb
    4988:	284d545f 	stmdacs	sp, {r0, r1, r2, r3, r4, r6, sl, ip, lr}^
    498c:	29727470 	ldmdbcs	r2!, {r4, r5, r6, sl, ip, sp, lr}^
    4990:	70282820 	eorvc	r2, r8, r0, lsr #16
    4994:	2d297274 	sfmcs	f7, 4, [r9, #-464]!	; 0xfffffe30
    4998:	6f6c5f3e 	svcvs	0x006c5f3e
    499c:	746c6163 	strbtvc	r6, [ip], #-355	; 0xfffffe9d
    49a0:	5f656d69 	svcpl	0x00656d69
    49a4:	29667562 	stmdbcs	r6!, {r1, r5, r6, r8, sl, ip, sp, lr}^
    49a8:	5f545f00 	svcpl	0x00545f00
    49ac:	455a4953 	ldrbmi	r4, [sl, #-2387]	; 0xfffff6ad
    49b0:	5f00205f 	svcpl	0x0000205f
    49b4:	544c465f 	strbpl	r4, [ip], #-1631	; 0xfffff9a1
    49b8:	4156455f 	cmpmi	r6, pc, asr r5
    49bc:	454d5f4c 	strbmi	r5, [sp, #-3916]	; 0xfffff0b4
    49c0:	444f4854 	strbmi	r4, [pc], #-2132	; 49c8 <_Min_Stack_Size+0x45c8>
    49c4:	5f53545f 	svcpl	0x0053545f
    49c8:	36363831 			; <UNDEFINED> instruction: 0x36363831
    49cc:	5f335f31 	svcpl	0x00335f31
    49d0:	0030205f 	eorseq	r2, r0, pc, asr r0
    49d4:	74615f5f 	strbtvc	r5, [r1], #-3935	; 0xfffff0a1
    49d8:	62697274 	rsbvs	r7, r9, #116, 4	; 0x40000007
    49dc:	5f657475 	svcpl	0x00657475
    49e0:	6c6c616d 	stfvse	f6, [ip], #-436	; 0xfffffe4c
    49e4:	5f5f636f 	svcpl	0x005f636f
    49e8:	5f5f0020 	svcpl	0x005f0020
    49ec:	41484353 	cmpmi	r8, r3, asr r3
    49f0:	49575f52 	ldmdbmi	r7, {r1, r4, r6, r8, r9, sl, fp, ip, lr}^
    49f4:	5f485444 	svcpl	0x00485444
    49f8:	0038205f 	eorseq	r2, r8, pc, asr r0
    49fc:	5f433249 	svcpl	0x00433249
    4a00:	5f315243 	svcpl	0x00315243
    4a04:	54534f4e 	ldrbpl	r4, [r3], #-3918	; 0xfffff0b2
    4a08:	43544552 	cmpmi	r4, #343932928	; 0x14800000
    4a0c:	32492048 	subcc	r2, r9, #72	; 0x48
    4a10:	52435f43 	subpl	r5, r3, #268	; 0x10c
    4a14:	4f4e5f31 	svcmi	0x004e5f31
    4a18:	45525453 	ldrbmi	r5, [r2, #-1107]	; 0xfffffbad
    4a1c:	5f484354 	svcpl	0x00484354
    4a20:	006b734d 	rsbeq	r7, fp, sp, asr #6
    4a24:	38544e49 	ldmdacc	r4, {r0, r3, r6, r9, sl, fp, lr}^
    4a28:	7828435f 	stmdavc	r8!, {r0, r1, r2, r3, r4, r6, r8, r9, lr}
    4a2c:	5f5f2029 	svcpl	0x005f2029
    4a30:	38544e49 	ldmdacc	r4, {r0, r3, r6, r9, sl, fp, lr}^
    4a34:	7828435f 	stmdavc	r8!, {r0, r1, r2, r3, r4, r6, r8, r9, lr}
    4a38:	5f5f0029 	svcpl	0x005f0029
    4a3c:	544e4955 	strbpl	r4, [lr], #-2389	; 0xfffff6ab
    4a40:	5341465f 	movtpl	r4, #5727	; 0x165f
    4a44:	545f3854 	ldrbpl	r3, [pc], #-2132	; 4a4c <_Min_Stack_Size+0x464c>
    4a48:	5f455059 	svcpl	0x00455059
    4a4c:	6e75205f 	mrcvs	0, 3, r2, cr5, cr15, {2}
    4a50:	6e676973 			; <UNDEFINED> instruction: 0x6e676973
    4a54:	69206465 	stmdbvs	r0!, {r0, r2, r5, r6, sl, sp, lr}
    4a58:	5f00746e 	svcpl	0x0000746e
    4a5c:	414c4c5f 	cmpmi	ip, pc, asr ip
    4a60:	4d554343 	ldclmi	3, cr4, [r5, #-268]	; 0xfffffef4
    4a64:	4942495f 	stmdbmi	r2, {r0, r1, r2, r3, r4, r6, r8, fp, lr}^
    4a68:	205f5f54 	subscs	r5, pc, r4, asr pc	; <UNPREDICTABLE>
    4a6c:	5f003233 	svcpl	0x00003233
    4a70:	4e454552 	mcrmi	5, 2, r4, cr5, cr2, {2}
    4a74:	53495f54 	movtpl	r5, #40788	; 0x9f54
    4a78:	4c554e5f 	mrrcmi	14, 5, r4, r5, cr15
    4a7c:	705f284c 	subsvc	r2, pc, ip, asr #16
    4a80:	20297274 	eorcs	r7, r9, r4, ror r2
    4a84:	705f2828 	subsvc	r2, pc, r8, lsr #16
    4a88:	20297274 	eorcs	r7, r9, r4, ror r2
    4a8c:	4e203d3d 	mcrmi	13, 1, r3, cr0, cr13, {1}
    4a90:	294c4c55 	stmdbcs	ip, {r0, r2, r4, r6, sl, fp, lr}^
    4a94:	6c5f5f00 	mrrcvs	15, 0, r5, pc, cr0	; <UNPREDICTABLE>
    4a98:	5f6b636f 	svcpl	0x006b636f
    4a9c:	736f6c63 	cmnvc	pc, #25344	; 0x6300
    4aa0:	65725f65 	ldrbvs	r5, [r2, #-3941]!	; 0xfffff09b
    4aa4:	73727563 	cmnvc	r2, #415236096	; 0x18c00000
    4aa8:	28657669 	stmdacs	r5!, {r0, r3, r5, r6, r9, sl, ip, sp, lr}^
    4aac:	6b636f6c 	blvs	18e0864 <_Min_Stack_Size+0x18e0464>
    4ab0:	5f5f2029 	svcpl	0x005f2029
    4ab4:	61746572 	cmnvs	r4, r2, ror r5
    4ab8:	74656772 	strbtvc	r6, [r5], #-1906	; 0xfffff88e
    4abc:	636f6c5f 	cmnvs	pc, #24320	; 0x5f00
    4ac0:	6c635f6b 	stclvs	15, cr5, [r3], #-428	; 0xfffffe54
    4ac4:	5f65736f 	svcpl	0x0065736f
    4ac8:	75636572 	strbvc	r6, [r3, #-1394]!	; 0xfffffa8e
    4acc:	76697372 			; <UNDEFINED> instruction: 0x76697372
    4ad0:	6f6c2865 	svcvs	0x006c2865
    4ad4:	00296b63 	eoreq	r6, r9, r3, ror #22
    4ad8:	4f494641 	svcmi	0x00494641
    4adc:	5458455f 	ldrbpl	r4, [r8], #-1375	; 0xfffffaa1
    4ae0:	5f524349 	svcpl	0x00524349
    4ae4:	74736f50 	ldrbtvc	r6, [r3], #-3920	; 0xfffff0b0
    4ae8:	006e6f69 	rsbeq	r6, lr, r9, ror #30
    4aec:	5f433249 	svcpl	0x00433249
    4af0:	5f315253 	svcpl	0x00315253
    4af4:	20465442 	subcs	r5, r6, r2, asr #8
    4af8:	5f433249 	svcpl	0x00433249
    4afc:	5f315253 	svcpl	0x00315253
    4b00:	5f465442 	svcpl	0x00465442
    4b04:	006b734d 	rsbeq	r7, fp, sp, asr #6
    4b08:	5f433249 	svcpl	0x00433249
    4b0c:	5f315253 	svcpl	0x00315253
    4b10:	454d4954 	strbmi	r4, [sp, #-2388]	; 0xfffff6ac
    4b14:	5f54554f 	svcpl	0x0054554f
    4b18:	20736f50 	rsbscs	r6, r3, r0, asr pc
    4b1c:	55343128 	ldrpl	r3, [r4, #-296]!	; 0xfffffed8
    4b20:	5f5f0029 	svcpl	0x005f0029
    4b24:	33544e49 	cmpcc	r4, #1168	; 0x490
    4b28:	414d5f32 	cmpmi	sp, r2, lsr pc
    4b2c:	205f5f58 	subscs	r5, pc, r8, asr pc	; <UNPREDICTABLE>
    4b30:	66377830 			; <UNDEFINED> instruction: 0x66377830
    4b34:	66666666 	strbtvs	r6, [r6], -r6, ror #12
    4b38:	004c6666 	subeq	r6, ip, r6, ror #12
    4b3c:	4553555f 	ldrbmi	r5, [r3, #-1375]	; 0xfffffaa1
    4b40:	5444475f 	strbpl	r4, [r4], #-1887	; 0xfffff8a1
    4b44:	0020414f 	eoreq	r4, r0, pc, asr #2
    4b48:	696d5f5f 	stmdbvs	sp!, {r0, r1, r2, r3, r4, r6, r8, r9, sl, fp, ip, lr}^
    4b4c:	69735f6e 	ldmdbvs	r3!, {r1, r2, r3, r5, r6, r8, r9, sl, fp, ip, lr}^
    4b50:	7828657a 	stmdavc	r8!, {r1, r3, r4, r5, r6, r8, sl, sp, lr}
    4b54:	74732029 	ldrbtvc	r2, [r3], #-41	; 0xffffffd7
    4b58:	63697461 	cmnvs	r9, #1627389952	; 0x61000000
    4b5c:	29782820 	ldmdbcs	r8!, {r5, fp, sp}^
    4b60:	49545f00 	ldmdbmi	r4, {r8, r9, sl, fp, ip, lr}^
    4b64:	5f52454d 	svcpl	0x0052454d
    4b68:	75205f54 	strvc	r5, [r0, #-3924]!	; 0xfffff0ac
    4b6c:	6769736e 	strbvs	r7, [r9, -lr, ror #6]!
    4b70:	2064656e 	rsbcs	r6, r4, lr, ror #10
    4b74:	676e6f6c 	strbvs	r6, [lr, -ip, ror #30]!
    4b78:	495f5f00 	ldmdbmi	pc, {r8, r9, sl, fp, ip, lr}^	; <UNPREDICTABLE>
    4b7c:	4c5f544e 	cfldrdmi	mvd5, [pc], {78}	; 0x4e
    4b80:	54534145 	ldrbpl	r4, [r3], #-325	; 0xfffffebb
    4b84:	4d5f3436 	cfldrdmi	mvd3, [pc, #-216]	; 4ab4 <_Min_Stack_Size+0x46b4>
    4b88:	5f5f5841 	svcpl	0x005f5841
    4b8c:	37783020 	ldrbcc	r3, [r8, -r0, lsr #32]!
    4b90:	66666666 	strbtvs	r6, [r6], -r6, ror #12
    4b94:	66666666 	strbtvs	r6, [r6], -r6, ror #12
    4b98:	66666666 	strbtvs	r6, [r6], -r6, ror #12
    4b9c:	4c666666 	stclmi	6, cr6, [r6], #-408	; 0xfffffe68
    4ba0:	5f5f004c 	svcpl	0x005f004c
    4ba4:	53435041 	movtpl	r5, #12353	; 0x3041
    4ba8:	5f32335f 	svcpl	0x0032335f
    4bac:	0031205f 	eorseq	r2, r1, pc, asr r0
    4bb0:	4d2f2e2e 	stcmi	14, cr2, [pc, #-184]!	; 4b00 <_Min_Stack_Size+0x4700>
    4bb4:	2f4c4143 	svccs	0x004c4143
    4bb8:	49545845 	ldmdbmi	r4, {r0, r2, r6, fp, ip, lr}^
    4bbc:	5f00632e 	svcpl	0x0000632e
    4bc0:	5f535953 	svcpl	0x00535953
    4bc4:	4454535f 	ldrbmi	r5, [r4], #-863	; 0xfffffca1
    4bc8:	5f544e49 	svcpl	0x00544e49
    4bcc:	5f002048 	svcpl	0x00002048
    4bd0:	65656e5f 	strbvs	r6, [r5, #-3679]!	; 0xfffff1a1
    4bd4:	554e5f64 	strbpl	r5, [lr, #-3940]	; 0xfffff09c
    4bd8:	00204c4c 	eoreq	r4, r0, ip, asr #24
    4bdc:	4645445f 			; <UNDEFINED> instruction: 0x4645445f
    4be0:	544c5541 	strbpl	r5, [ip], #-1345	; 0xfffffabf
    4be4:	554f535f 	strbpl	r5, [pc, #-863]	; 488d <_Min_Stack_Size+0x448d>
    4be8:	20454352 	subcs	r4, r5, r2, asr r3
    4bec:	4b4f0031 	blmi	13c4cb8 <_Min_Stack_Size+0x13c48b8>
    4bf0:	49003120 	stmdbmi	r0, {r5, r8, ip, sp}
    4bf4:	535f4332 	cmppl	pc, #-939524096	; 0xc8000000
    4bf8:	535f3252 	cmppl	pc, #536870917	; 0x20000005
    4bfc:	4544424d 	strbmi	r4, [r4, #-589]	; 0xfffffdb3
    4c00:	4c554146 	ldfmie	f4, [r5], {70}	; 0x46
    4c04:	6f505f54 	svcvs	0x00505f54
    4c08:	35282073 	strcc	r2, [r8, #-115]!	; 0xffffff8d
    4c0c:	5f002955 	svcpl	0x00002955
    4c10:	544c465f 	strbpl	r4, [ip], #-1631	; 0xfffff9a1
    4c14:	4d5f3233 	lfmmi	f3, 2, [pc, #-204]	; 4b50 <_Min_Stack_Size+0x4750>
    4c18:	5f544e41 	svcpl	0x00544e41
    4c1c:	5f474944 	svcpl	0x00474944
    4c20:	3432205f 	ldrtcc	r2, [r2], #-95	; 0xffffffa1
    4c24:	43324900 	teqmi	r2, #0, 18
    4c28:	56455f32 			; <UNDEFINED> instruction: 0x56455f32
    4c2c:	5152495f 	cmppl	r2, pc, asr r9
    4c30:	00333320 	eorseq	r3, r3, r0, lsr #6
    4c34:	4c465f5f 	mcrrmi	15, 5, r5, r6, cr15
    4c38:	5f323354 	svcpl	0x00323354
    4c3c:	4f4e4544 	svcmi	0x004e4544
    4c40:	4d5f4d52 	ldclmi	13, cr4, [pc, #-328]	; 4b00 <_Min_Stack_Size+0x4700>
    4c44:	5f5f4e49 	svcpl	0x005f4e49
    4c48:	342e3120 	strtcc	r3, [lr], #-288	; 0xfffffee0
    4c4c:	39323130 	ldmdbcc	r2!, {r4, r5, r8, ip, sp}
    4c50:	34363438 	ldrtcc	r3, [r6], #-1080	; 0xfffffbc8
    4c54:	38343233 	ldmdacc	r4!, {r0, r1, r4, r5, r9, ip, sp}
    4c58:	65313731 	ldrvs	r3, [r1, #-1841]!	; 0xfffff8cf
    4c5c:	4635342d 	ldrtmi	r3, [r5], -sp, lsr #8
    4c60:	6f003233 	svcvs	0x00003233
    4c64:	65736666 	ldrbvs	r6, [r3, #-1638]!	; 0xfffff99a
    4c68:	28666f74 	stmdacs	r6!, {r2, r4, r5, r6, r8, r9, sl, fp, sp, lr}^
    4c6c:	45505954 	ldrbmi	r5, [r0, #-2388]	; 0xfffff6ac
    4c70:	4d454d2c 	stclmi	13, cr4, [r5, #-176]	; 0xffffff50
    4c74:	29524542 	ldmdbcs	r2, {r1, r6, r8, sl, lr}^
    4c78:	625f5f20 	subsvs	r5, pc, #32, 30	; 0x80
    4c7c:	746c6975 	strbtvc	r6, [ip], #-2421	; 0xfffff68b
    4c80:	6f5f6e69 	svcvs	0x005f6e69
    4c84:	65736666 	ldrbvs	r6, [r3, #-1638]!	; 0xfffff99a
    4c88:	20666f74 	rsbcs	r6, r6, r4, ror pc
    4c8c:	50595428 	subspl	r5, r9, r8, lsr #8
    4c90:	4d202c45 	stcmi	12, cr2, [r0, #-276]!	; 0xfffffeec
    4c94:	45424d45 	strbmi	r4, [r2, #-3397]	; 0xfffff2bb
    4c98:	5f002952 	svcpl	0x00002952
    4c9c:	4e49555f 	mcrmi	5, 2, r5, cr9, cr15, {2}
    4ca0:	5f343654 	svcpl	0x00343654
    4ca4:	29632843 	stmdbcs	r3!, {r0, r1, r6, fp, sp}^
    4ca8:	23206320 			; <UNDEFINED> instruction: 0x23206320
    4cac:	4c552023 	mrrcmi	0, 2, r2, r5, cr3
    4cb0:	5f5f004c 	svcpl	0x005f004c
    4cb4:	544e4955 	strbpl	r4, [lr], #-2389	; 0xfffff6ab
    4cb8:	41454c5f 	cmpmi	r5, pc, asr ip
    4cbc:	34365453 	ldrtcc	r5, [r6], #-1107	; 0xfffffbad
    4cc0:	5059545f 	subspl	r5, r9, pc, asr r4
    4cc4:	205f5f45 	subscs	r5, pc, r5, asr #30
    4cc8:	676e6f6c 	strbvs	r6, [lr, -ip, ror #30]!
    4ccc:	6e6f6c20 	cdpvs	12, 6, cr6, cr15, cr0, {1}
    4cd0:	6e752067 	cdpvs	0, 7, cr2, cr5, cr7, {3}
    4cd4:	6e676973 			; <UNDEFINED> instruction: 0x6e676973
    4cd8:	69206465 	stmdbvs	r0!, {r0, r2, r5, r6, sl, sp, lr}
    4cdc:	5f00746e 	svcpl	0x0000746e
    4ce0:	4653555f 			; <UNDEFINED> instruction: 0x4653555f
    4ce4:	54434152 	strbpl	r4, [r3], #-338	; 0xfffffeae
    4ce8:	4942465f 	stmdbmi	r2, {r0, r1, r2, r3, r4, r6, r9, sl, lr}^
    4cec:	205f5f54 	subscs	r5, pc, r4, asr pc	; <UNPREDICTABLE>
    4cf0:	5f5f0038 	svcpl	0x005f0038
    4cf4:	4c42444c 	cfstrdmi	mvd4, [r2], {76}	; 0x4c
    4cf8:	5350455f 	cmppl	r0, #398458880	; 0x17c00000
    4cfc:	4e4f4c49 	cdpmi	12, 4, cr4, cr15, cr9, {2}
    4d00:	32205f5f 	eorcc	r5, r0, #380	; 0x17c
    4d04:	3032322e 	eorscc	r3, r2, lr, lsr #4
    4d08:	30363434 	eorscc	r3, r6, r4, lsr r4
    4d0c:	35323934 	ldrcc	r3, [r2, #-2356]!	; 0xfffff6cc
    4d10:	33313330 	teqcc	r1, #48, 6	; 0xc0000000
    4d14:	312d6531 			; <UNDEFINED> instruction: 0x312d6531
    4d18:	49004c36 	stmdbmi	r0, {r1, r2, r4, r5, sl, fp, lr}
    4d1c:	465f544e 	ldrbmi	r5, [pc], -lr, asr #8
    4d20:	36545341 	ldrbcc	r5, [r4], -r1, asr #6
    4d24:	414d5f34 	cmpmi	sp, r4, lsr pc
    4d28:	5f282058 	svcpl	0x00282058
    4d2c:	544e495f 	strbpl	r4, [lr], #-2399	; 0xfffff6a1
    4d30:	5341465f 	movtpl	r4, #5727	; 0x165f
    4d34:	5f343654 	svcpl	0x00343654
    4d38:	5f58414d 	svcpl	0x0058414d
    4d3c:	5f00295f 	svcpl	0x0000295f
    4d40:	7275705f 	rsbsvc	r7, r5, #95	; 0x5f
    4d44:	5f203265 	svcpl	0x00203265
    4d48:	7474615f 	ldrbtvc	r6, [r4], #-351	; 0xfffffea1
    4d4c:	75626972 	strbvc	r6, [r2, #-2418]!	; 0xfffff68e
    4d50:	5f5f6574 	svcpl	0x005f6574
    4d54:	5f5f2828 	svcpl	0x005f2828
    4d58:	736e6f63 	cmnvc	lr, #396	; 0x18c
    4d5c:	295f5f74 	ldmdbcs	pc, {r2, r4, r5, r6, r8, r9, sl, fp, ip, lr}^	; <UNPREDICTABLE>
    4d60:	5f5f0029 	svcpl	0x005f0029
    4d64:	5f434347 	svcpl	0x00434347
    4d68:	4d4f5441 	cfstrdmi	mvd5, [pc, #-260]	; 4c6c <_Min_Stack_Size+0x486c>
    4d6c:	435f4349 	cmpmi	pc, #603979777	; 0x24000001
    4d70:	31524148 	cmpcc	r2, r8, asr #2
    4d74:	5f545f36 	svcpl	0x00545f36
    4d78:	4b434f4c 	blmi	10d8ab0 <_Min_Stack_Size+0x10d86b0>
    4d7c:	4552465f 	ldrbmi	r4, [r2, #-1631]	; 0xfffff9a1
    4d80:	00322045 	eorseq	r2, r2, r5, asr #32
    4d84:	554e5f5f 	strbpl	r5, [lr, #-3935]	; 0xfffff0a1
    4d88:	42414c4c 	submi	r4, r1, #76, 24	; 0x4c00
    4d8c:	54494c49 	strbpl	r4, [r9], #-3145	; 0xfffff3b7
    4d90:	52505f59 	subspl	r5, r0, #356	; 0x164
    4d94:	414d4741 	cmpmi	sp, r1, asr #14
    4d98:	5355505f 	cmppl	r5, #95	; 0x5f
    4d9c:	57002048 	strpl	r2, [r0, -r8, asr #32]
    4da0:	52414843 	subpl	r4, r1, #4390912	; 0x430000
    4da4:	4e494d5f 	mcrmi	13, 2, r4, cr9, cr15, {2}
    4da8:	5f5f2820 	svcpl	0x005f2820
    4dac:	41484357 	cmpmi	r8, r7, asr r3
    4db0:	494d5f52 	stmdbmi	sp, {r1, r4, r6, r8, r9, sl, fp, ip, lr}^
    4db4:	295f5f4e 	ldmdbcs	pc, {r1, r2, r3, r6, r8, r9, sl, fp, ip, lr}^	; <UNPREDICTABLE>
    4db8:	4b434c00 	blmi	10d7dc0 <_Min_Stack_Size+0x10d79c0>
    4dbc:	5f5f0052 	svcpl	0x005f0052
    4dc0:	5f4c4244 	svcpl	0x004c4244
    4dc4:	5f58414d 	svcpl	0x0058414d
    4dc8:	5f505845 	svcpl	0x00505845
    4dcc:	3031205f 	eorscc	r2, r1, pc, asr r0
    4dd0:	5f003432 	svcpl	0x00003432
    4dd4:	5341465f 	movtpl	r4, #5727	; 0x165f
    4dd8:	20343654 	eorscs	r3, r4, r4, asr r6
    4ddc:	226c6c22 	rsbcs	r6, ip, #8704	; 0x2200
    4de0:	415f5f00 	cmpmi	pc, r0, lsl #30
    4de4:	494d4f54 	stmdbmi	sp, {r2, r4, r6, r8, r9, sl, fp, lr}^
    4de8:	45525f43 	ldrbmi	r5, [r2, #-3907]	; 0xfffff0bd
    4dec:	5341454c 	movtpl	r4, #5452	; 0x154c
    4df0:	00332045 	eorseq	r2, r3, r5, asr #32
    4df4:	69736e75 	ldmdbvs	r3!, {r0, r2, r4, r5, r6, r9, sl, fp, sp, lr}^
    4df8:	64656e67 	strbtvs	r6, [r5], #-3687	; 0xfffff199
    4dfc:	00302b20 	eorseq	r2, r0, r0, lsr #22
    4e00:	5f433249 	svcpl	0x00433249
    4e04:	5f315243 	svcpl	0x00315243
    4e08:	52415453 	subpl	r5, r1, #1392508928	; 0x53000000
    4e0c:	32492054 	subcc	r2, r9, #84	; 0x54
    4e10:	52435f43 	subpl	r5, r3, #268	; 0x10c
    4e14:	54535f31 	ldrbpl	r5, [r3], #-3889	; 0xfffff0cf
    4e18:	5f545241 	svcpl	0x00545241
    4e1c:	006b734d 	rsbeq	r7, fp, sp, asr #6
    4e20:	4c465f5f 	mcrrmi	15, 5, r5, r6, cr15
    4e24:	58323354 	ldmdapl	r2!, {r2, r4, r6, r8, r9, ip, sp}
    4e28:	5341485f 	movtpl	r4, #6239	; 0x185f
    4e2c:	4e45445f 	mcrmi	4, 2, r4, cr5, cr15, {2}
    4e30:	5f4d524f 	svcpl	0x004d524f
    4e34:	0031205f 	eorseq	r2, r1, pc, asr r0
    4e38:	4c465f5f 	mcrrmi	15, 5, r5, r6, cr15
    4e3c:	414d5f54 	cmpmi	sp, r4, asr pc
    4e40:	445f544e 	ldrbmi	r5, [pc], #-1102	; 4e48 <_Min_Stack_Size+0x4a48>
    4e44:	5f5f4749 	svcpl	0x005f4749
    4e48:	00343220 	eorseq	r3, r4, r0, lsr #4
    4e4c:	52415355 	subpl	r5, r1, #1409286145	; 0x54000001
    4e50:	495f3154 	ldmdbmi	pc, {r2, r4, r6, r8, ip, sp}^	; <UNPREDICTABLE>
    4e54:	33205152 			; <UNDEFINED> instruction: 0x33205152
    4e58:	32490037 	subcc	r0, r9, #55	; 0x37
    4e5c:	52535f43 	subspl	r5, r3, #268	; 0x10c
    4e60:	564f5f31 			; <UNDEFINED> instruction: 0x564f5f31
    4e64:	734d5f52 	movtvc	r5, #57170	; 0xdf52
    4e68:	3028206b 	eorcc	r2, r8, fp, rrx
    4e6c:	4c553178 	ldfmie	f3, [r5], {120}	; 0x78
    4e70:	203c3c20 	eorscs	r3, ip, r0, lsr #24
    4e74:	5f433249 	svcpl	0x00433249
    4e78:	5f315253 	svcpl	0x00315253
    4e7c:	5f52564f 	svcpl	0x0052564f
    4e80:	29736f50 	ldmdbcs	r3!, {r4, r6, r8, r9, sl, fp, sp, lr}^
    4e84:	41525f00 	cmpmi	r2, r0, lsl #30
    4e88:	3834444e 	ldmdacc	r4!, {r1, r2, r3, r6, sl, lr}
    4e8c:	4545535f 	strbmi	r5, [r5, #-863]	; 0xfffffca1
    4e90:	20315f44 	eorscs	r5, r1, r4, asr #30
    4e94:	61783028 	cmnvs	r8, r8, lsr #32
    4e98:	29646362 	stmdbcs	r4!, {r1, r5, r6, r8, r9, sp, lr}^
    4e9c:	555f5f00 	ldrbpl	r5, [pc, #-3840]	; 3fa4 <_Min_Stack_Size+0x3ba4>
    4ea0:	495f5144 	ldmdbmi	pc, {r2, r6, r8, ip, lr}^	; <UNPREDICTABLE>
    4ea4:	5f544942 	svcpl	0x00544942
    4ea8:	0030205f 	eorseq	r2, r0, pc, asr r0
    4eac:	20746e69 	rsbscs	r6, r4, r9, ror #28
    4eb0:	4900322b 	stmdbmi	r0, {r0, r1, r3, r5, r9, ip, sp}
    4eb4:	435f4332 	cmpmi	pc, #-939524096	; 0xc8000000
    4eb8:	535f3152 	cmppl	pc, #-2147483628	; 0x80000014
    4ebc:	54524154 	ldrbpl	r4, [r2], #-340	; 0xfffffeac
    4ec0:	736f505f 	cmnvc	pc, #95	; 0x5f
    4ec4:	55382820 	ldrpl	r2, [r8, #-2080]!	; 0xfffff7e0
    4ec8:	49550029 	ldmdbmi	r5, {r0, r3, r5}^
    4ecc:	414d544e 	cmpmi	sp, lr, asr #8
    4ed0:	414d5f58 	cmpmi	sp, r8, asr pc
    4ed4:	5f282058 	svcpl	0x00282058
    4ed8:	4e49555f 	mcrmi	5, 2, r5, cr9, cr15, {2}
    4edc:	58414d54 	stmdapl	r1, {r2, r4, r6, r8, sl, fp, lr}^
    4ee0:	58414d5f 	stmdapl	r1, {r0, r1, r2, r3, r4, r6, r8, sl, fp, lr}^
    4ee4:	00295f5f 	eoreq	r5, r9, pc, asr pc
    4ee8:	5f433249 	svcpl	0x00433249
    4eec:	5f325253 	svcpl	0x00325253
    4ef0:	5f4c534d 	svcpl	0x004c534d
    4ef4:	206b734d 	rsbcs	r7, fp, sp, asr #6
    4ef8:	31783028 	cmncc	r8, r8, lsr #32
    4efc:	3c204c55 	stccc	12, cr4, [r0], #-340	; 0xfffffeac
    4f00:	3249203c 	subcc	r2, r9, #60	; 0x3c
    4f04:	52535f43 	subspl	r5, r3, #268	; 0x10c
    4f08:	534d5f32 	movtpl	r5, #57138	; 0xdf32
    4f0c:	6f505f4c 	svcvs	0x00505f4c
    4f10:	5f002973 	svcpl	0x00002973
    4f14:	6e695f5f 	mcrvs	15, 3, r5, cr9, cr15, {2}
    4f18:	74705f74 	ldrbtvc	r5, [r0], #-3956	; 0xfffff08c
    4f1c:	66696472 			; <UNDEFINED> instruction: 0x66696472
    4f20:	5f745f66 	svcpl	0x00745f66
    4f24:	5f002068 	svcpl	0x00002068
    4f28:	4341555f 	movtmi	r5, #5471	; 0x155f
    4f2c:	5f4d5543 	svcpl	0x004d5543
    4f30:	5f58414d 	svcpl	0x0058414d
    4f34:	5830205f 	ldmdapl	r0!, {r0, r1, r2, r3, r4, r6, sp}
    4f38:	46464646 	strbmi	r4, [r6], -r6, asr #12
    4f3c:	46464646 	strbmi	r4, [r6], -r6, asr #12
    4f40:	36312d50 			; <UNDEFINED> instruction: 0x36312d50
    4f44:	5f004b55 	svcpl	0x00004b55
    4f48:	5f43435f 	svcpl	0x0043435f
    4f4c:	50505553 	subspl	r5, r0, r3, asr r5
    4f50:	5354524f 	cmppl	r4, #-268435452	; 0xf0000004
    4f54:	465f5f5f 	usaxmi	r5, pc, pc	; <UNPREDICTABLE>
    4f58:	5f434e55 	svcpl	0x00434e55
    4f5c:	0031205f 	eorseq	r2, r1, pc, asr r0
    4f60:	4c465f5f 	mcrrmi	15, 5, r5, r6, cr15
    4f64:	5f343654 	svcpl	0x00343654
    4f68:	4d524f4e 	ldclmi	15, cr4, [r2, #-312]	; 0xfffffec8
    4f6c:	58414d5f 	stmdapl	r1, {r0, r1, r2, r3, r4, r6, r8, sl, fp, lr}^
    4f70:	31205f5f 			; <UNDEFINED> instruction: 0x31205f5f
    4f74:	3739372e 	ldrcc	r3, [r9, -lr, lsr #14]!
    4f78:	31333936 	teqcc	r3, r6, lsr r9
    4f7c:	36383433 			; <UNDEFINED> instruction: 0x36383433
    4f80:	35313332 	ldrcc	r3, [r1, #-818]!	; 0xfffffcce
    4f84:	332b6537 			; <UNDEFINED> instruction: 0x332b6537
    4f88:	36463830 			; <UNDEFINED> instruction: 0x36463830
    4f8c:	4e490034 	mcrmi	0, 2, r0, cr9, cr4, {1}
    4f90:	50475f43 	subpl	r5, r7, r3, asr #30
    4f94:	485f4f49 	ldmdami	pc, {r0, r3, r6, r8, r9, sl, fp, lr}^	; <UNPREDICTABLE>
    4f98:	5f00205f 	svcpl	0x0000205f
    4f9c:	554e475f 	strbpl	r4, [lr, #-1887]	; 0xfffff8a1
    4fa0:	4b494c43 	blmi	12580b4 <_Min_Stack_Size+0x1257cb4>
    4fa4:	414d5f45 	cmpmi	sp, r5, asr #30
    4fa8:	425f4854 	subsmi	r4, pc, #84, 16	; 0x540000
    4fac:	544c4955 	strbpl	r4, [ip], #-2389	; 0xfffff6ab
    4fb0:	435f4e49 	cmpmi	pc, #1168	; 0x490
    4fb4:	54534e4f 	ldrbpl	r4, [r3], #-3663	; 0xfffff1b1
    4fb8:	53544e41 	cmppl	r4, #1040	; 0x410
    4fbc:	525f0020 	subspl	r0, pc, #32
    4fc0:	544e4545 	strbpl	r4, [lr], #-1349	; 0xfffffabb
    4fc4:	4353415f 	cmpmi	r3, #-1073741801	; 0xc0000017
    4fc8:	454d4954 	strbmi	r4, [sp, #-2388]	; 0xfffff6ac
    4fcc:	4655425f 			; <UNDEFINED> instruction: 0x4655425f
    4fd0:	72747028 	rsbsvc	r7, r4, #40	; 0x28
    4fd4:	28282029 	stmdacs	r8!, {r0, r3, r5, sp}
    4fd8:	29727470 	ldmdbcs	r2!, {r4, r5, r6, sl, ip, sp, lr}^
    4fdc:	615f3e2d 	cmpvs	pc, sp, lsr #28
    4fe0:	69746373 	ldmdbvs	r4!, {r0, r1, r4, r5, r6, r8, r9, sp, lr}^
    4fe4:	625f656d 	subsvs	r6, pc, #457179136	; 0x1b400000
    4fe8:	00296675 	eoreq	r6, r9, r5, ror r6
    4fec:	5f433249 	svcpl	0x00433249
    4ff0:	5f315253 	svcpl	0x00315253
    4ff4:	4f4c5241 	svcmi	0x004c5241
    4ff8:	6b734d5f 	blvs	1cd857c <_Min_Stack_Size+0x1cd817c>
    4ffc:	78302820 	ldmdavc	r0!, {r5, fp, sp}
    5000:	204c5531 	subcs	r5, ip, r1, lsr r5
    5004:	49203c3c 	stmdbmi	r0!, {r2, r3, r4, r5, sl, fp, ip, sp}
    5008:	535f4332 	cmppl	pc, #-939524096	; 0xc8000000
    500c:	415f3152 	cmpmi	pc, r2, asr r1	; <UNPREDICTABLE>
    5010:	5f4f4c52 	svcpl	0x004f4c52
    5014:	29736f50 	ldmdbcs	r3!, {r4, r6, r8, r9, sl, fp, sp, lr}^
    5018:	5f545f00 	svcpl	0x00545f00
    501c:	44525450 	ldrbmi	r5, [r2], #-1104	; 0xfffffbb0
    5020:	5f464649 	svcpl	0x00464649
    5024:	50470020 	subpl	r0, r7, r0, lsr #32
    5028:	505f4f49 	subspl	r4, pc, r9, asr #30
    502c:	525f4e49 	subspl	r4, pc, #1168	; 0x490
    5030:	54455345 	strbpl	r5, [r5], #-837	; 0xfffffcbb
    5034:	49003020 	stmdbmi	r0, {r5, ip, sp}
    5038:	435f4332 	cmpmi	pc, #-939524096	; 0xc8000000
    503c:	455f3152 	ldrbmi	r3, [pc, #-338]	; 4ef2 <_Min_Stack_Size+0x4af2>
    5040:	5052414e 	subspl	r4, r2, lr, asr #2
    5044:	43324920 	teqmi	r2, #32, 18	; 0x80000
    5048:	3152435f 	cmpcc	r2, pc, asr r3
    504c:	414e455f 	cmpmi	lr, pc, asr r5
    5050:	4d5f5052 	ldclmi	0, cr5, [pc, #-328]	; 4f10 <_Min_Stack_Size+0x4b10>
    5054:	45006b73 	strmi	r6, [r0, #-2931]	; 0xfffff48d
    5058:	33495458 	movtcc	r5, #37976	; 0x9458
    505c:	20334250 	eorscs	r4, r3, r0, asr r2
    5060:	54584528 	ldrbpl	r4, [r8], #-1320	; 0xfffffad8
    5064:	50475f49 	subpl	r5, r7, r9, asr #30
    5068:	4d5f4f49 	ldclmi	15, cr4, [pc, #-292]	; 4f4c <_Min_Stack_Size+0x4b4c>
    506c:	69707061 	ldmdbvs	r0!, {r0, r5, r6, ip, sp, lr}^
    5070:	745f676e 	ldrbvc	r6, [pc], #-1902	; 5078 <_Min_Stack_Size+0x4c78>
    5074:	58457b29 	stmdapl	r5, {r0, r3, r5, r8, r9, fp, ip, sp, lr}^
    5078:	2c334954 			; <UNDEFINED> instruction: 0x2c334954
    507c:	49504720 	ldmdbmi	r0, {r5, r8, r9, sl, lr}^
    5080:	2c20424f 	sfmcs	f4, 4, [r0], #-316	; 0xfffffec4
    5084:	49504720 	ldmdbmi	r0, {r5, r8, r9, sl, lr}^
    5088:	49505f4f 	ldmdbmi	r0, {r0, r1, r2, r3, r6, r8, r9, sl, fp, ip, lr}^
    508c:	20335f4e 	eorscs	r5, r3, lr, asr #30
    5090:	5458452c 	ldrbpl	r4, [r8], #-1324	; 0xfffffad4
    5094:	495f3349 	ldmdbmi	pc, {r0, r3, r6, r8, r9, ip, sp}^	; <UNPREDICTABLE>
    5098:	7d205152 	stfvcs	f5, [r0, #-328]!	; 0xfffffeb8
    509c:	4c5f5f00 	mrrcmi	15, 0, r5, pc, cr0	; <UNPREDICTABLE>
    50a0:	5f4c4244 	svcpl	0x004c4244
    50a4:	4f4e4544 	svcmi	0x004e4544
    50a8:	4d5f4d52 	ldclmi	13, cr4, [pc, #-328]	; 4f68 <_Min_Stack_Size+0x4b68>
    50ac:	5f5f4e49 	svcpl	0x005f4e49
    50b0:	392e3420 	stmdbcc	lr!, {r5, sl, ip, sp}
    50b4:	35363034 	ldrcc	r3, [r6, #-52]!	; 0xffffffcc
    50b8:	38353436 	ldmdacc	r5!, {r1, r2, r4, r5, sl, ip, sp}
    50bc:	34323134 	ldrtcc	r3, [r2], #-308	; 0xfffffecc
    50c0:	65343536 	ldrvs	r3, [r4, #-1334]!	; 0xfffffaca
    50c4:	3432332d 	ldrtcc	r3, [r2], #-813	; 0xfffffcd3
    50c8:	5f5f004c 	svcpl	0x005f004c
    50cc:	36544e49 	ldrbcc	r4, [r4], -r9, asr #28
    50d0:	414d5f34 	cmpmi	sp, r4, lsr pc
    50d4:	205f5f58 	subscs	r5, pc, r8, asr pc	; <UNPREDICTABLE>
    50d8:	66377830 			; <UNDEFINED> instruction: 0x66377830
    50dc:	66666666 	strbtvs	r6, [r6], -r6, ror #12
    50e0:	66666666 	strbtvs	r6, [r6], -r6, ror #12
    50e4:	66666666 	strbtvs	r6, [r6], -r6, ror #12
    50e8:	4c4c6666 	mcrrmi	6, 6, r6, ip, cr6
    50ec:	73736100 	cmnvc	r3, #0, 2
    50f0:	28747265 	ldmdacs	r4!, {r0, r2, r5, r6, r9, ip, sp, lr}^
    50f4:	29655f5f 	stmdbcs	r5!, {r0, r1, r2, r3, r4, r6, r8, r9, sl, fp, ip, lr}^
    50f8:	5f282820 	svcpl	0x00282820
    50fc:	2029655f 	eorcs	r6, r9, pc, asr r5
    5100:	7628203f 			; <UNDEFINED> instruction: 0x7628203f
    5104:	2964696f 	stmdbcs	r4!, {r0, r1, r2, r3, r5, r6, r8, fp, sp, lr}^
    5108:	203a2030 	eorscs	r2, sl, r0, lsr r0
    510c:	73615f5f 	cmnvc	r1, #380	; 0x17c
    5110:	74726573 	ldrbtvc	r6, [r2], #-1395	; 0xfffffa8d
    5114:	6e75665f 	mrcvs	6, 3, r6, cr5, cr15, {2}
    5118:	5f282063 	svcpl	0x00282063
    511c:	4c49465f 	mcrrmi	6, 5, r4, r9, cr15
    5120:	2c5f5f45 	mrrccs	15, 4, r5, pc, cr5	; <UNPREDICTABLE>
    5124:	4c5f5f20 	mrrcmi	15, 2, r5, pc, cr0	; <UNPREDICTABLE>
    5128:	5f454e49 	svcpl	0x00454e49
    512c:	5f202c5f 	svcpl	0x00202c5f
    5130:	5353415f 	cmppl	r3, #-1073741801	; 0xc0000017
    5134:	5f545245 	svcpl	0x00545245
    5138:	434e5546 	movtmi	r5, #58694	; 0xe546
    513c:	5f23202c 	svcpl	0x0023202c
    5140:	2929655f 	stmdbcs	r9!, {r0, r1, r2, r3, r4, r6, r8, sl, sp, lr}
    5144:	555f5f00 	ldrbpl	r5, [pc, #-3840]	; 424c <_Min_Stack_Size+0x3e4c>
    5148:	52464c4c 	subpl	r4, r6, #76, 24	; 0x4c00
    514c:	5f544341 	svcpl	0x00544341
    5150:	54494249 	strbpl	r4, [r9], #-585	; 0xfffffdb7
    5154:	30205f5f 	eorcc	r5, r0, pc, asr pc
    5158:	4e415f00 	cdpmi	15, 4, cr5, cr1, cr0, {0}
    515c:	535f4953 	cmppl	pc, #1359872	; 0x14c000
    5160:	45444454 	strbmi	r4, [r4, #-1108]	; 0xfffffbac
    5164:	20485f46 	subcs	r5, r8, r6, asr #30
    5168:	43324900 	teqmi	r2, #0, 18
    516c:	3152435f 	cmpcc	r2, pc, asr r3
    5170:	5f45505f 	svcpl	0x0045505f
    5174:	20736f50 	rsbscs	r6, r3, r0, asr pc
    5178:	29553028 	ldmdbcs	r5, {r3, r5, ip, sp}^
    517c:	54584500 	ldrbpl	r4, [r8], #-1280	; 0xfffffb00
    5180:	42503649 	subsmi	r3, r0, #76546048	; 0x4900000
    5184:	45282036 	strmi	r2, [r8, #-54]!	; 0xffffffca
    5188:	5f495458 	svcpl	0x00495458
    518c:	4f495047 	svcmi	0x00495047
    5190:	70614d5f 	rsbvc	r4, r1, pc, asr sp
    5194:	676e6970 			; <UNDEFINED> instruction: 0x676e6970
    5198:	7b29745f 	blvc	a6231c <_Min_Stack_Size+0xa61f1c>
    519c:	49545845 	ldmdbmi	r4, {r0, r2, r6, fp, ip, lr}^
    51a0:	47202c36 			; <UNDEFINED> instruction: 0x47202c36
    51a4:	424f4950 	submi	r4, pc, #80, 18	; 0x140000
    51a8:	47202c20 	strmi	r2, [r0, -r0, lsr #24]!
    51ac:	5f4f4950 	svcpl	0x004f4950
    51b0:	5f4e4950 	svcpl	0x004e4950
    51b4:	452c2036 	strmi	r2, [ip, #-54]!	; 0xffffffca
    51b8:	36495458 			; <UNDEFINED> instruction: 0x36495458
    51bc:	5152495f 	cmppl	r2, pc, asr r9
    51c0:	45007d20 	strmi	r7, [r0, #-3360]	; 0xfffff2e0
    51c4:	31495458 	cmpcc	r9, r8, asr r4
    51c8:	31435033 	cmpcc	r3, r3, lsr r0
    51cc:	45282033 	strmi	r2, [r8, #-51]!	; 0xffffffcd
    51d0:	5f495458 	svcpl	0x00495458
    51d4:	4f495047 	svcmi	0x00495047
    51d8:	70614d5f 	rsbvc	r4, r1, pc, asr sp
    51dc:	676e6970 			; <UNDEFINED> instruction: 0x676e6970
    51e0:	7b29745f 	blvc	a62364 <_Min_Stack_Size+0xa61f64>
    51e4:	49545845 	ldmdbmi	r4, {r0, r2, r6, fp, ip, lr}^
    51e8:	2c203331 	stccs	3, cr3, [r0], #-196	; 0xffffff3c
    51ec:	49504720 	ldmdbmi	r0, {r5, r8, r9, sl, lr}^
    51f0:	2c20434f 	stccs	3, cr4, [r0], #-316	; 0xfffffec4
    51f4:	49504720 	ldmdbmi	r0, {r5, r8, r9, sl, lr}^
    51f8:	49505f4f 	ldmdbmi	r0, {r0, r1, r2, r3, r6, r8, r9, sl, fp, ip, lr}^
    51fc:	33315f4e 	teqcc	r1, #312	; 0x138
    5200:	58452c20 	stmdapl	r5, {r5, sl, fp, sp}^
    5204:	33314954 	teqcc	r1, #84, 18	; 0x150000
    5208:	5152495f 	cmppl	r2, pc, asr r9
    520c:	4e007d20 	cdpmi	13, 0, cr7, cr0, cr0, {1}
    5210:	5f434956 	svcpl	0x00434956
    5214:	33515249 	cmpcc	r1, #-1879048188	; 0x90000004
    5218:	32495f31 	subcc	r5, r9, #49, 30	; 0xc4
    521c:	455f3143 	ldrbmi	r3, [pc, #-323]	; 50e1 <_Min_Stack_Size+0x4ce1>
    5220:	69445f56 	stmdbvs	r4, {r1, r2, r4, r6, r8, r9, sl, fp, ip, lr}^
    5224:	6c626173 	stfvse	f6, [r2], #-460	; 0xfffffe34
    5228:	4e282065 	cdpmi	0, 2, cr2, cr8, cr5, {3}
    522c:	5f434956 	svcpl	0x00434956
    5230:	52454349 	subpl	r4, r5, #603979777	; 0x24000001
    5234:	3d7c2030 	ldclcc	0, cr2, [ip, #-192]!	; 0xffffff40
    5238:	3c3c3120 	ldfccs	f3, [ip], #-128	; 0xffffff80
    523c:	32492028 	subcc	r2, r9, #40	; 0x28
    5240:	455f3143 	ldrbmi	r3, [pc, #-323]	; 5105 <_Min_Stack_Size+0x4d05>
    5244:	52495f56 	subpl	r5, r9, #344	; 0x158
    5248:	29292051 	stmdbcs	r9!, {r0, r4, r6, sp}
    524c:	625f5f00 	subsvs	r5, pc, #0, 30
    5250:	746c6975 	strbtvc	r6, [ip], #-2421	; 0xfffff68b
    5254:	615f6e69 	cmpvs	pc, r9, ror #28
    5258:	6e67696c 	vnmulvs.f16	s13, s14, s25	; <UNPREDICTABLE>
    525c:	2870755f 	ldmdacs	r0!, {r0, r1, r2, r3, r4, r6, r8, sl, ip, sp, lr}^
    5260:	6c612c78 	stclvs	12, cr2, [r1], #-480	; 0xfffffe20
    5264:	296e6769 	stmdbcs	lr!, {r0, r3, r5, r6, r8, r9, sl, sp, lr}^
    5268:	5f282820 	svcpl	0x00282820
    526c:	7079745f 	rsbsvc	r7, r9, pc, asr r4
    5270:	5f666f65 	svcpl	0x00666f65
    5274:	2978285f 	ldmdbcs	r8!, {r0, r1, r2, r3, r4, r6, fp, sp}^
    5278:	28282829 	stmdacs	r8!, {r0, r3, r5, fp, sp}
    527c:	69755f5f 	ldmdbvs	r5!, {r0, r1, r2, r3, r4, r6, r8, r9, sl, fp, ip, lr}^
    5280:	7470746e 	ldrbtvc	r7, [r0], #-1134	; 0xfffffb92
    5284:	29745f72 	ldmdbcs	r4!, {r1, r4, r5, r6, r8, r9, sl, fp, ip, lr}^
    5288:	2b297828 	blcs	a63330 <_Min_Stack_Size+0xa62f30>
    528c:	6c612828 	stclvs	8, cr2, [r1], #-160	; 0xffffff60
    5290:	296e6769 	stmdbcs	lr!, {r0, r3, r5, r6, r8, r9, sl, sp, lr}^
    5294:	2929312d 	stmdbcs	r9!, {r0, r2, r3, r5, r8, ip, sp}
    5298:	287e2826 	ldmdacs	lr!, {r1, r2, r5, fp, sp}^
    529c:	696c6128 	stmdbvs	ip!, {r3, r5, r8, sp, lr}^
    52a0:	2d296e67 	stccs	14, cr6, [r9, #-412]!	; 0xfffffe64
    52a4:	29292931 	stmdbcs	r9!, {r0, r4, r5, r8, fp, sp}
    52a8:	5f5f0029 	svcpl	0x005f0029
    52ac:	43554e47 	cmpmi	r5, #1136	; 0x470
    52b0:	31205f5f 			; <UNDEFINED> instruction: 0x31205f5f
    52b4:	58450031 	stmdapl	r5, {r0, r4, r5}^
    52b8:	50384954 	eorspl	r4, r8, r4, asr r9
    52bc:	28203844 	stmdacs	r0!, {r2, r6, fp, ip, sp}
    52c0:	49545845 	ldmdbmi	r4, {r0, r2, r6, fp, ip, lr}^
    52c4:	4950475f 	ldmdbmi	r0, {r0, r1, r2, r3, r4, r6, r8, r9, sl, lr}^
    52c8:	614d5f4f 	cmpvs	sp, pc, asr #30
    52cc:	6e697070 	mcrvs	0, 3, r7, cr9, cr0, {3}
    52d0:	29745f67 	ldmdbcs	r4!, {r0, r1, r2, r5, r6, r8, r9, sl, fp, ip, lr}^
    52d4:	5458457b 	ldrbpl	r4, [r8], #-1403	; 0xfffffa85
    52d8:	2c203849 	stccs	8, cr3, [r0], #-292	; 0xfffffedc
    52dc:	49504720 	ldmdbmi	r0, {r5, r8, r9, sl, lr}^
    52e0:	2c20444f 	cfstrscs	mvf4, [r0], #-316	; 0xfffffec4
    52e4:	49504720 	ldmdbmi	r0, {r5, r8, r9, sl, lr}^
    52e8:	49505f4f 	ldmdbmi	r0, {r0, r1, r2, r3, r6, r8, r9, sl, fp, ip, lr}^
    52ec:	20385f4e 	eorscs	r5, r8, lr, asr #30
    52f0:	5845202c 	stmdapl	r5, {r2, r3, r5, sp}^
    52f4:	5f384954 	svcpl	0x00384954
    52f8:	7d515249 	lfmvc	f5, 2, [r1, #-292]	; 0xfffffedc
    52fc:	43324900 	teqmi	r2, #0, 18
    5300:	3252535f 	subscc	r5, r2, #2080374785	; 0x7c000001
    5304:	424d535f 	submi	r5, sp, #2080374785	; 0x7c000001
    5308:	54534f48 	ldrbpl	r4, [r3], #-3912	; 0xfffff0b8
    530c:	6b734d5f 	blvs	1cd8890 <_Min_Stack_Size+0x1cd8490>
    5310:	78302820 	ldmdavc	r0!, {r5, fp, sp}
    5314:	204c5531 	subcs	r5, ip, r1, lsr r5
    5318:	49203c3c 	stmdbmi	r0!, {r2, r3, r4, r5, sl, fp, ip, sp}
    531c:	535f4332 	cmppl	pc, #-939524096	; 0xc8000000
    5320:	535f3252 	cmppl	pc, #536870917	; 0x20000005
    5324:	4f48424d 	svcmi	0x0048424d
    5328:	505f5453 	subspl	r5, pc, r3, asr r4	; <UNPREDICTABLE>
    532c:	0029736f 	eoreq	r7, r9, pc, ror #6
    5330:	49545845 	ldmdbmi	r4, {r0, r2, r6, fp, ip, lr}^
    5334:	41503431 	cmpmi	r0, r1, lsr r4
    5338:	28203431 	stmdacs	r0!, {r0, r4, r5, sl, ip, sp}
    533c:	49545845 	ldmdbmi	r4, {r0, r2, r6, fp, ip, lr}^
    5340:	4950475f 	ldmdbmi	r0, {r0, r1, r2, r3, r4, r6, r8, r9, sl, lr}^
    5344:	614d5f4f 	cmpvs	sp, pc, asr #30
    5348:	6e697070 	mcrvs	0, 3, r7, cr9, cr0, {3}
    534c:	29745f67 	ldmdbcs	r4!, {r0, r1, r2, r5, r6, r8, r9, sl, fp, ip, lr}^
    5350:	5458457b 	ldrbpl	r4, [r8], #-1403	; 0xfffffa85
    5354:	2c343149 	ldfcss	f3, [r4], #-292	; 0xfffffedc
    5358:	49504720 	ldmdbmi	r0, {r5, r8, r9, sl, lr}^
    535c:	2c20414f 	stfcss	f4, [r0], #-316	; 0xfffffec4
    5360:	49504720 	ldmdbmi	r0, {r5, r8, r9, sl, lr}^
    5364:	49505f4f 	ldmdbmi	r0, {r0, r1, r2, r3, r6, r8, r9, sl, fp, ip, lr}^
    5368:	34315f4e 	ldrtcc	r5, [r1], #-3918	; 0xfffff0b2
    536c:	45202c20 	strmi	r2, [r0, #-3104]!	; 0xfffff3e0
    5370:	31495458 	cmpcc	r9, r8, asr r4
    5374:	52495f34 	subpl	r5, r9, #52, 30	; 0xd0
    5378:	007d2051 	rsbseq	r2, sp, r1, asr r0
    537c:	5f433249 	svcpl	0x00433249
    5380:	5f325243 	svcpl	0x00325243
    5384:	56455449 	strbpl	r5, [r5], -r9, asr #8
    5388:	5f4e4554 	svcpl	0x004e4554
    538c:	20736f50 	rsbscs	r6, r3, r0, asr pc
    5390:	29553928 	ldmdbcs	r5, {r3, r5, r8, fp, ip, sp}^
    5394:	45525f00 	ldrbmi	r5, [r2, #-3840]	; 0xfffff100
    5398:	5f544e45 	svcpl	0x00544e45
    539c:	54524357 	ldrbpl	r4, [r2], #-855	; 0xfffffca9
    53a0:	5f424d4f 	svcpl	0x00424d4f
    53a4:	54415453 	strbpl	r5, [r1], #-1107	; 0xfffffbad
    53a8:	74702845 	ldrbtvc	r2, [r0], #-2117	; 0xfffff7bb
    53ac:	28202972 	stmdacs	r0!, {r1, r4, r5, r6, r8, fp, sp}
    53b0:	72747028 	rsbsvc	r7, r4, #40	; 0x28
    53b4:	5f3e2d29 	svcpl	0x003e2d29
    53b8:	6373696d 	cmnvs	r3, #1785856	; 0x1b4000
    53bc:	775f3e2d 	ldrbvc	r3, [pc, -sp, lsr #28]
    53c0:	6f747263 	svcvs	0x00747263
    53c4:	735f626d 	cmpvc	pc, #-805306362	; 0xd0000006
    53c8:	65746174 	ldrbvs	r6, [r4, #-372]!	; 0xfffffe8c
    53cc:	5f5f0029 	svcpl	0x005f0029
    53d0:	6f6c6c61 	svcvs	0x006c6c61
    53d4:	69735f63 	ldmdbvs	r3!, {r0, r1, r5, r6, r8, r9, sl, fp, ip, lr}^
    53d8:	7828657a 	stmdavc	r8!, {r1, r3, r4, r5, r6, r8, sl, sp, lr}
    53dc:	5f5f2029 	svcpl	0x005f2029
    53e0:	72747461 	rsbsvc	r7, r4, #1627389952	; 0x61000000
    53e4:	74756269 	ldrbtvc	r6, [r5], #-617	; 0xfffffd97
    53e8:	285f5f65 	ldmdacs	pc, {r0, r2, r5, r6, r8, r9, sl, fp, ip, lr}^	; <UNPREDICTABLE>
    53ec:	615f5f28 	cmpvs	pc, r8, lsr #30
    53f0:	636f6c6c 	cmnvs	pc, #108, 24	; 0x6c00
    53f4:	7a69735f 	bvc	1a62178 <_Min_Stack_Size+0x1a61d78>
    53f8:	285f5f65 	ldmdacs	pc, {r0, r2, r5, r6, r8, r9, sl, fp, ip, lr}^	; <UNPREDICTABLE>
    53fc:	29292978 	stmdbcs	r9!, {r3, r4, r5, r6, r8, fp, sp}
    5400:	4c5f5f00 	mrrcmi	15, 0, r5, pc, cr0	; <UNPREDICTABLE>
    5404:	5f474e4f 	svcpl	0x00474e4f
    5408:	54444957 	strbpl	r4, [r4], #-2391	; 0xfffff6a9
    540c:	205f5f48 	subscs	r5, pc, r8, asr #30
    5410:	5f003233 	svcpl	0x00003233
    5414:	43575f54 	cmpmi	r7, #84, 30	; 0x150
    5418:	5f524148 	svcpl	0x00524148
    541c:	5f5f0020 	svcpl	0x005f0020
    5420:	43434155 	movtmi	r4, #12629	; 0x3155
    5424:	465f4d55 			; <UNDEFINED> instruction: 0x465f4d55
    5428:	5f544942 	svcpl	0x00544942
    542c:	3631205f 			; <UNDEFINED> instruction: 0x3631205f
    5430:	775f5f00 	ldrbvc	r5, [pc, -r0, lsl #30]
    5434:	5f6e7261 	svcpl	0x006e7261
    5438:	65666572 	strbvs	r6, [r6, #-1394]!	; 0xfffffa8e
    543c:	636e6572 	cmnvs	lr, #478150656	; 0x1c800000
    5440:	73287365 			; <UNDEFINED> instruction: 0x73287365
    5444:	6d2c6d79 	stcvs	13, cr6, [ip, #-484]!	; 0xfffffe1c
    5448:	20296773 	eorcs	r6, r9, r3, ror r7
    544c:	73615f5f 	cmnvc	r1, #380	; 0x17c
    5450:	285f5f6d 	ldmdacs	pc, {r0, r2, r3, r5, r6, r8, r9, sl, fp, ip, lr}^	; <UNPREDICTABLE>
    5454:	65732e22 	ldrbvs	r2, [r3, #-3618]!	; 0xfffff1de
    5458:	6f697463 	svcvs	0x00697463
    545c:	672e206e 	strvs	r2, [lr, -lr, rrx]!
    5460:	772e756e 	strvc	r7, [lr, -lr, ror #10]!
    5464:	696e7261 	stmdbvs	lr!, {r0, r5, r6, r9, ip, sp, lr}^
    5468:	222e676e 	eorcs	r6, lr, #28835840	; 0x1b80000
    546c:	79732320 	ldmdbvc	r3!, {r5, r8, r9, sp}^
    5470:	203b296d 	eorscs	r2, fp, sp, ror #18
    5474:	73615f5f 	cmnvc	r1, #380	; 0x17c
    5478:	285f5f6d 	ldmdacs	pc, {r0, r2, r3, r5, r6, r8, r9, sl, fp, ip, lr}^	; <UNPREDICTABLE>
    547c:	73612e22 	cmnvc	r1, #544	; 0x220
    5480:	207a6963 	rsbscs	r6, sl, r3, ror #18
    5484:	2022225c 	eorcs	r2, r2, ip, asr r2
    5488:	2067736d 	rsbcs	r7, r7, sp, ror #6
    548c:	22225c22 	eorcs	r5, r2, #8704	; 0x2200
    5490:	5f203b29 	svcpl	0x00203b29
    5494:	6d73615f 	ldfvse	f6, [r3, #-380]!	; 0xfffffe84
    5498:	22285f5f 	eorcs	r5, r8, #380	; 0x17c
    549c:	6572702e 	ldrbvs	r7, [r2, #-46]!	; 0xffffffd2
    54a0:	756f6976 	strbvc	r6, [pc, #-2422]!	; 4b32 <_Min_Stack_Size+0x4732>
    54a4:	00292273 	eoreq	r2, r9, r3, ror r2
    54a8:	4f495047 	svcmi	0x00495047
    54ac:	4e49505f 	mcrmi	0, 2, r5, cr9, cr15, {2}
    54b0:	2033315f 	eorscs	r3, r3, pc, asr r1
    54b4:	69752828 	ldmdbvs	r5!, {r3, r5, fp, sp}^
    54b8:	3631746e 	ldrtcc	r7, [r1], -lr, ror #8
    54bc:	3029745f 	eorcc	r7, r9, pc, asr r4
    54c0:	30303278 	eorscc	r3, r0, r8, ror r2
    54c4:	5f002930 	svcpl	0x00002930
    54c8:	5246555f 	subpl	r5, r6, #398458880	; 0x17c00000
    54cc:	5f544341 	svcpl	0x00544341
    54d0:	49535045 	ldmdbmi	r3, {r0, r2, r6, ip, lr}^
    54d4:	5f4e4f4c 	svcpl	0x004e4f4c
    54d8:	7830205f 	ldmdavc	r0!, {r0, r1, r2, r3, r4, r6, sp}
    54dc:	312d5031 			; <UNDEFINED> instruction: 0x312d5031
    54e0:	00525536 	subseq	r5, r2, r6, lsr r5
    54e4:	43575f5f 	cmpmi	r7, #380	; 0x17c
    54e8:	5f524148 	svcpl	0x00524148
    54ec:	5f4e494d 	svcpl	0x004e494d
    54f0:	5530205f 	ldrpl	r2, [r0, #-95]!	; 0xffffffa1
    54f4:	43324900 	teqmi	r2, #0, 18
    54f8:	3152535f 	cmpcc	r2, pc, asr r3
    54fc:	4f54535f 	svcmi	0x0054535f
    5500:	505f4650 	subspl	r4, pc, r0, asr r6	; <UNPREDICTABLE>
    5504:	2820736f 	stmdacs	r0!, {r0, r1, r2, r3, r5, r6, r8, r9, ip, sp, lr}
    5508:	00295534 	eoreq	r5, r9, r4, lsr r5
    550c:	51555f5f 	cmppl	r5, pc, asr pc
    5510:	42495f51 	submi	r5, r9, #324	; 0x144
    5514:	5f5f5449 	svcpl	0x005f5449
    5518:	5f003020 	svcpl	0x00003020
    551c:	4c57454e 	cfldr64mi	mvdx4, [r7], {78}	; 0x4e
    5520:	565f4249 	ldrbpl	r4, [pc], -r9, asr #4
    5524:	49535245 	ldmdbmi	r3, {r0, r2, r6, r9, ip, lr}^
    5528:	485f4e4f 	ldmdami	pc, {r0, r1, r2, r3, r6, r9, sl, fp, lr}^	; <UNPREDICTABLE>
    552c:	31205f5f 			; <UNDEFINED> instruction: 0x31205f5f
    5530:	2f3a4400 	svccs	0x003a4400
    5534:	6520736b 	strvs	r7, [r0, #-875]!	; 0xfffffc95
    5538:	6465626d 	strbtvs	r6, [r5], #-621	; 0xfffffd93
    553c:	20646564 	rsbcs	r6, r4, r4, ror #10
    5540:	74737973 	ldrbtvc	r7, [r3], #-2419	; 0xfffff68d
    5544:	61206d65 			; <UNDEFINED> instruction: 0x61206d65
    5548:	612f7373 			; <UNDEFINED> instruction: 0x612f7373
    554c:	61206d72 			; <UNDEFINED> instruction: 0x61206d72
    5550:	69686372 	stmdbvs	r8!, {r1, r4, r5, r6, r8, r9, sp, lr}^
    5554:	74636574 	strbtvc	r6, [r3], #-1396	; 0xfffffa8c
    5558:	20657275 	rsbcs	r7, r5, r5, ror r2
    555c:	74696e75 	strbtvc	r6, [r9], #-3701	; 0xfffff18b
    5560:	2f343120 	svccs	0x00343120
    5564:	206d7261 	rsbcs	r7, sp, r1, ror #4
    5568:	68637261 	stmdavs	r3!, {r0, r5, r6, r9, ip, sp, lr}^
    556c:	63657469 	cmnvs	r5, #1761607680	; 0x69000000
    5570:	65727574 	ldrbvs	r7, [r2, #-1396]!	; 0xfffffa8c
    5574:	696e7520 	stmdbvs	lr!, {r5, r8, sl, ip, sp, lr}^
    5578:	2f343174 	svccs	0x00343174
    557c:	7373656c 	cmnvc	r3, #108, 10	; 0x1b000000
    5580:	20356e6f 	eorscs	r6, r5, pc, ror #28
    5584:	2f62616c 	svccs	0x0062616c
    5588:	75626544 	strbvc	r6, [r2, #-1348]!	; 0xfffffabc
    558c:	5f5f0067 	svcpl	0x005f0067
    5590:	43414c55 	movtmi	r4, #7253	; 0x1c55
    5594:	5f4d5543 	svcpl	0x004d5543
    5598:	5f4e494d 	svcpl	0x004e494d
    559c:	2e30205f 	mrccs	0, 1, r2, cr0, cr15, {2}
    55a0:	4b4c5530 	blmi	131aa68 <_Min_Stack_Size+0x131a668>
    55a4:	54415f00 	strbpl	r5, [r1], #-3840	; 0xfffff100
    55a8:	54495845 	strbpl	r5, [r9], #-2117	; 0xfffff7bb
    55ac:	4e59445f 	mrcmi	4, 2, r4, cr9, cr15, {2}
    55b0:	43494d41 	movtmi	r4, #40257	; 0x9d41
    55b4:	4c4c415f 	stfmie	f4, [ip], {95}	; 0x5f
    55b8:	3120434f 			; <UNDEFINED> instruction: 0x3120434f
    55bc:	6e5f5f00 	cdpvs	15, 5, cr5, cr15, cr0, {0}
    55c0:	5f646565 	svcpl	0x00646565
    55c4:	657a6973 	ldrbvs	r6, [sl, #-2419]!	; 0xfffff68d
    55c8:	5f00745f 	svcpl	0x0000745f
    55cc:	42444c5f 	submi	r4, r4, #24320	; 0x5f00
    55d0:	414d5f4c 	cmpmi	sp, ip, asr #30
    55d4:	205f5f58 	subscs	r5, pc, r8, asr pc	; <UNPREDICTABLE>
    55d8:	39372e31 	ldmdbcc	r7!, {r0, r4, r5, r9, sl, fp, sp}
    55dc:	33393637 	teqcc	r9, #57671680	; 0x3700000
    55e0:	38343331 	ldmdacc	r4!, {r0, r4, r5, r8, r9, ip, sp}
    55e4:	31333236 	teqcc	r3, r6, lsr r2
    55e8:	2b653735 	blcs	19532c4 <_Min_Stack_Size+0x1952ec4>
    55ec:	4c383033 	ldcmi	0, cr3, [r8], #-204	; 0xffffff34
    55f0:	415f5f00 	cmpmi	pc, r0, lsl #30
    55f4:	415f4d52 	cmpmi	pc, r2, asr sp	; <UNPREDICTABLE>
    55f8:	20484352 	subcs	r4, r8, r2, asr r3
    55fc:	32490037 	subcc	r0, r9, #55	; 0x37
    5600:	52435f43 	subpl	r5, r3, #268	; 0x10c
    5604:	54495f32 	strbpl	r5, [r9], #-3890	; 0xfffff0ce
    5608:	45545645 	ldrbmi	r5, [r4, #-1605]	; 0xfffff9bb
    560c:	734d5f4e 	movtvc	r5, #57166	; 0xdf4e
    5610:	3028206b 	eorcc	r2, r8, fp, rrx
    5614:	4c553178 	ldfmie	f3, [r5], {120}	; 0x78
    5618:	203c3c20 	eorscs	r3, ip, r0, lsr #24
    561c:	5f433249 	svcpl	0x00433249
    5620:	5f325243 	svcpl	0x00325243
    5624:	56455449 	strbpl	r5, [r5], -r9, asr #8
    5628:	5f4e4554 	svcpl	0x004e4554
    562c:	29736f50 	ldmdbcs	r3!, {r4, r6, r8, r9, sl, fp, sp, lr}^
    5630:	49504700 	ldmdbmi	r0, {r8, r9, sl, lr}^
    5634:	49505f4f 	ldmdbmi	r0, {r0, r1, r2, r3, r6, r8, r9, sl, fp, ip, lr}^
    5638:	20325f4e 	eorscs	r5, r2, lr, asr #30
    563c:	69752828 	ldmdbvs	r5!, {r3, r5, fp, sp}^
    5640:	3631746e 	ldrtcc	r7, [r1], -lr, ror #8
    5644:	3029745f 	eorcc	r7, r9, pc, asr r4
    5648:	30303078 	eorscc	r3, r0, r8, ror r0
    564c:	5f002934 	svcpl	0x00002934
    5650:	544c465f 	strbpl	r4, [ip], #-1631	; 0xfffff9a1
    5654:	4441525f 	strbmi	r5, [r1], #-607	; 0xfffffda1
    5658:	5f5f5849 	svcpl	0x005f5849
    565c:	5f003220 	svcpl	0x00003220
    5660:	4e454552 	mcrmi	5, 2, r4, cr5, cr2, {2}
    5664:	54535f54 	ldrbpl	r5, [r3], #-3924	; 0xfffff0ac
    5668:	52524544 	subspl	r4, r2, #68, 10	; 0x11000000
    566c:	74705f28 	ldrbtvc	r5, [r0], #-3880	; 0xfffff0d8
    5670:	28202972 	stmdacs	r0!, {r1, r4, r5, r6, r8, fp, sp}
    5674:	74705f28 	ldrbtvc	r5, [r0], #-3880	; 0xfffff0d8
    5678:	3e2d2972 			; <UNDEFINED> instruction: 0x3e2d2972
    567c:	6474735f 	ldrbtvs	r7, [r4], #-863	; 0xfffffca1
    5680:	29727265 	ldmdbcs	r2!, {r0, r2, r5, r6, r9, ip, sp, lr}^
    5684:	544e4900 	strbpl	r4, [lr], #-2304	; 0xfffff700
    5688:	4d5f3436 	cfldrdmi	mvd3, [pc, #-216]	; 55b8 <_Min_Stack_Size+0x51b8>
    568c:	28205841 	stmdacs	r0!, {r0, r6, fp, ip, lr}
    5690:	4e495f5f 	mcrmi	15, 2, r5, cr9, cr15, {2}
    5694:	5f343654 	svcpl	0x00343654
    5698:	5f58414d 	svcpl	0x0058414d
    569c:	5f00295f 	svcpl	0x0000295f
    56a0:	4d52415f 	ldfmie	f4, [r2, #-380]	; 0xfffffe84
    56a4:	4145465f 	cmpmi	r5, pc, asr r6
    56a8:	45525554 	ldrbmi	r5, [r2, #-1364]	; 0xfffffaac
    56ac:	534d435f 	movtpl	r4, #54111	; 0xd35f
    56b0:	5f5f0045 	svcpl	0x005f0045
    56b4:	4343414c 	movtmi	r4, #12620	; 0x314c
    56b8:	455f4d55 	ldrbmi	r4, [pc, #-3413]	; 496b <_Min_Stack_Size+0x456b>
    56bc:	4c495350 	mcrrmi	3, 5, r5, r9, cr0
    56c0:	5f5f4e4f 	svcpl	0x005f4e4f
    56c4:	31783020 	cmncc	r8, r0, lsr #32
    56c8:	31332d50 	teqcc	r3, r0, asr sp
    56cc:	49004b4c 	stmdbmi	r0, {r2, r3, r6, r8, r9, fp, lr}
    56d0:	435f4332 	cmpmi	pc, #-939524096	; 0xc8000000
    56d4:	505f3152 	subspl	r3, pc, r2, asr r1	; <UNPREDICTABLE>
    56d8:	4920534f 	stmdbmi	r0!, {r0, r1, r2, r3, r6, r8, r9, ip, lr}
    56dc:	435f4332 	cmpmi	pc, #-939524096	; 0xc8000000
    56e0:	505f3152 	subspl	r3, pc, r2, asr r1	; <UNPREDICTABLE>
    56e4:	4d5f534f 	ldclmi	3, cr5, [pc, #-316]	; 55b0 <_Min_Stack_Size+0x51b0>
    56e8:	5f006b73 	svcpl	0x00006b73
    56ec:	6863775f 	stmdavs	r3!, {r0, r1, r2, r3, r4, r6, r8, r9, sl, ip, sp, lr}^
    56f0:	745f7261 	ldrbvc	r7, [pc], #-609	; 56f8 <_Min_Stack_Size+0x52f8>
    56f4:	00205f5f 	eoreq	r5, r0, pc, asr pc
    56f8:	4349564e 	movtmi	r5, #38478	; 0x964e
    56fc:	5152495f 	cmppl	r2, pc, asr r9
    5700:	455f3332 	ldrbmi	r3, [pc, #-818]	; 53d6 <_Min_Stack_Size+0x4fd6>
    5704:	35495458 	strbcc	r5, [r9, #-1112]	; 0xfffffba8
    5708:	455f395f 	ldrbmi	r3, [pc, #-2399]	; 4db1 <_Min_Stack_Size+0x49b1>
    570c:	6c62616e 	stfvse	f6, [r2], #-440	; 0xfffffe48
    5710:	4e282065 	cdpmi	0, 2, cr2, cr8, cr5, {3}
    5714:	5f434956 	svcpl	0x00434956
    5718:	52455349 	subpl	r5, r5, #603979777	; 0x24000001
    571c:	3d7c2030 	ldclcc	0, cr2, [ip, #-192]!	; 0xffffff40
    5720:	3c3c3120 	ldfccs	f3, [ip], #-128	; 0xffffff80
    5724:	00293332 	eoreq	r3, r9, r2, lsr r3
    5728:	4545525f 	strbmi	r5, [r5, #-607]	; 0xfffffda1
    572c:	495f544e 	ldmdbmi	pc, {r1, r2, r3, r6, sl, ip, lr}^	; <UNPREDICTABLE>
    5730:	5f54494e 	svcpl	0x0054494e
    5734:	4353494d 	cmpmi	r3, #1261568	; 0x134000
    5738:	72617628 	rsbvc	r7, r1, #40, 12	; 0x2800000
    573c:	6f642029 	svcvs	0x00642029
    5740:	73207b20 			; <UNDEFINED> instruction: 0x73207b20
    5744:	63757274 	cmnvs	r5, #116, 4	; 0x40000007
    5748:	725f2074 	subsvc	r2, pc, #116	; 0x74
    574c:	746e6565 	strbtvc	r6, [lr], #-1381	; 0xfffffa9b
    5750:	725f2a20 	subsvc	r2, pc, #32, 20	; 0x20000
    5754:	28203d20 	stmdacs	r0!, {r5, r8, sl, fp, ip, sp}
    5758:	29726176 	ldmdbcs	r2!, {r1, r2, r4, r5, r6, r8, sp, lr}^
    575c:	725f203b 	subsvc	r2, pc, #59	; 0x3b
    5760:	6d5f3e2d 	ldclvs	14, cr3, [pc, #-180]	; 56b4 <_Min_Stack_Size+0x52b4>
    5764:	2d637369 	stclcs	3, cr7, [r3, #-420]!	; 0xfffffe5c
    5768:	74735f3e 	ldrbtvc	r5, [r3], #-3902	; 0xfffff0c2
    576c:	6b6f7472 	blvs	1be293c <_Min_Stack_Size+0x1be253c>
    5770:	73616c5f 	cmnvc	r1, #24320	; 0x5f00
    5774:	203d2074 	eorscs	r2, sp, r4, ror r0
    5778:	4c554e5f 	mrrcmi	14, 5, r4, r5, cr15
    577c:	5f203b4c 	svcpl	0x00203b4c
    5780:	5f3e2d72 	svcpl	0x003e2d72
    5784:	6373696d 	cmnvs	r3, #1785856	; 0x1b4000
    5788:	6d5f3e2d 	ldclvs	14, cr3, [pc, #-180]	; 56dc <_Min_Stack_Size+0x52dc>
    578c:	6e656c62 	cdpvs	12, 6, cr6, cr5, cr2, {3}
    5790:	6174735f 	cmnvs	r4, pc, asr r3
    5794:	5f2e6574 	svcpl	0x002e6574
    5798:	756f635f 	strbvc	r6, [pc, #-863]!	; 5441 <_Min_Stack_Size+0x5041>
    579c:	3d20746e 	cfstrscc	mvf7, [r0, #-440]!	; 0xfffffe48
    57a0:	203b3020 	eorscs	r3, fp, r0, lsr #32
    57a4:	3e2d725f 	mcrcc	2, 1, r7, cr13, cr15, {2}
    57a8:	73696d5f 	cmnvc	r9, #6080	; 0x17c0
    57ac:	5f3e2d63 	svcpl	0x003e2d63
    57b0:	656c626d 	strbvs	r6, [ip, #-621]!	; 0xfffffd93
    57b4:	74735f6e 	ldrbtvc	r5, [r3], #-3950	; 0xfffff092
    57b8:	2e657461 	cdpcs	4, 6, cr7, cr5, cr1, {3}
    57bc:	61765f5f 	cmnvs	r6, pc, asr pc
    57c0:	2e65756c 	cdpcs	5, 6, cr7, cr5, cr12, {3}
    57c4:	63775f5f 	cmnvs	r7, #380	; 0x17c
    57c8:	203d2068 	eorscs	r2, sp, r8, rrx
    57cc:	5f203b30 	svcpl	0x00203b30
    57d0:	5f3e2d72 	svcpl	0x003e2d72
    57d4:	6373696d 	cmnvs	r3, #1785856	; 0x1b4000
    57d8:	775f3e2d 	ldrbvc	r3, [pc, -sp, lsr #28]
    57dc:	6d6f7463 	cfstrdvs	mvd7, [pc, #-396]!	; 5658 <_Min_Stack_Size+0x5258>
    57e0:	74735f62 	ldrbtvc	r5, [r3], #-3938	; 0xfffff09e
    57e4:	2e657461 	cdpcs	4, 6, cr7, cr5, cr1, {3}
    57e8:	6f635f5f 	svcvs	0x00635f5f
    57ec:	20746e75 	rsbscs	r6, r4, r5, ror lr
    57f0:	3b30203d 	blcc	c0d8ec <_Min_Stack_Size+0xc0d4ec>
    57f4:	2d725f20 	ldclcs	15, cr5, [r2, #-128]!	; 0xffffff80
    57f8:	696d5f3e 	stmdbvs	sp!, {r1, r2, r3, r4, r5, r8, r9, sl, fp, ip, lr}^
    57fc:	3e2d6373 	mcrcc	3, 1, r6, cr13, cr3, {3}
    5800:	7463775f 	strbtvc	r7, [r3], #-1887	; 0xfffff8a1
    5804:	5f626d6f 	svcpl	0x00626d6f
    5808:	74617473 	strbtvc	r7, [r1], #-1139	; 0xfffffb8d
    580c:	5f5f2e65 	svcpl	0x005f2e65
    5810:	756c6176 	strbvc	r6, [ip, #-374]!	; 0xfffffe8a
    5814:	5f5f2e65 	svcpl	0x005f2e65
    5818:	20686377 	rsbcs	r6, r8, r7, ror r3
    581c:	3b30203d 	blcc	c0d918 <_Min_Stack_Size+0xc0d518>
    5820:	2d725f20 	ldclcs	15, cr5, [r2, #-128]!	; 0xffffff80
    5824:	696d5f3e 	stmdbvs	sp!, {r1, r2, r3, r4, r5, r8, r9, sl, fp, ip, lr}^
    5828:	3e2d6373 	mcrcc	3, 1, r6, cr13, cr3, {3}
    582c:	74626d5f 	strbtvc	r6, [r2], #-3423	; 0xfffff2a1
    5830:	5f63776f 	svcpl	0x0063776f
    5834:	74617473 	strbtvc	r7, [r1], #-1139	; 0xfffffb8d
    5838:	5f5f2e65 	svcpl	0x005f2e65
    583c:	6e756f63 	cdpvs	15, 7, cr6, cr5, cr3, {3}
    5840:	203d2074 	eorscs	r2, sp, r4, ror r0
    5844:	5f203b30 	svcpl	0x00203b30
    5848:	5f3e2d72 	svcpl	0x003e2d72
    584c:	6373696d 	cmnvs	r3, #1785856	; 0x1b4000
    5850:	6d5f3e2d 	ldclvs	14, cr3, [pc, #-180]	; 57a4 <_Min_Stack_Size+0x53a4>
    5854:	776f7462 	strbvc	r7, [pc, -r2, ror #8]!
    5858:	74735f63 	ldrbtvc	r5, [r3], #-3939	; 0xfffff09d
    585c:	2e657461 	cdpcs	4, 6, cr7, cr5, cr1, {3}
    5860:	61765f5f 	cmnvs	r6, pc, asr pc
    5864:	2e65756c 	cdpcs	5, 6, cr7, cr5, cr12, {3}
    5868:	63775f5f 	cmnvs	r7, #380	; 0x17c
    586c:	203d2068 	eorscs	r2, sp, r8, rrx
    5870:	5f203b30 	svcpl	0x00203b30
    5874:	5f3e2d72 	svcpl	0x003e2d72
    5878:	6373696d 	cmnvs	r3, #1785856	; 0x1b4000
    587c:	6d5f3e2d 	ldclvs	14, cr3, [pc, #-180]	; 57d0 <_Min_Stack_Size+0x53d0>
    5880:	656c7262 	strbvs	r7, [ip, #-610]!	; 0xfffffd9e
    5884:	74735f6e 	ldrbtvc	r5, [r3], #-3950	; 0xfffff092
    5888:	2e657461 	cdpcs	4, 6, cr7, cr5, cr1, {3}
    588c:	6f635f5f 	svcvs	0x00635f5f
    5890:	20746e75 	rsbscs	r6, r4, r5, ror lr
    5894:	3b30203d 	blcc	c0d990 <_Min_Stack_Size+0xc0d590>
    5898:	2d725f20 	ldclcs	15, cr5, [r2, #-128]!	; 0xffffff80
    589c:	696d5f3e 	stmdbvs	sp!, {r1, r2, r3, r4, r5, r8, r9, sl, fp, ip, lr}^
    58a0:	3e2d6373 	mcrcc	3, 1, r6, cr13, cr3, {3}
    58a4:	72626d5f 	rsbvc	r6, r2, #6080	; 0x17c0
    58a8:	5f6e656c 	svcpl	0x006e656c
    58ac:	74617473 	strbtvc	r7, [r1], #-1139	; 0xfffffb8d
    58b0:	5f5f2e65 	svcpl	0x005f2e65
    58b4:	756c6176 	strbvc	r6, [ip, #-374]!	; 0xfffffe8a
    58b8:	5f5f2e65 	svcpl	0x005f2e65
    58bc:	20686377 	rsbcs	r6, r8, r7, ror r3
    58c0:	3b30203d 	blcc	c0d9bc <_Min_Stack_Size+0xc0d5bc>
    58c4:	2d725f20 	ldclcs	15, cr5, [r2, #-128]!	; 0xffffff80
    58c8:	696d5f3e 	stmdbvs	sp!, {r1, r2, r3, r4, r5, r8, r9, sl, fp, ip, lr}^
    58cc:	3e2d6373 	mcrcc	3, 1, r6, cr13, cr3, {3}
    58d0:	72626d5f 	rsbvc	r6, r2, #6080	; 0x17c0
    58d4:	63776f74 	cmnvs	r7, #116, 30	; 0x1d0
    58d8:	6174735f 	cmnvs	r4, pc, asr r3
    58dc:	5f2e6574 	svcpl	0x002e6574
    58e0:	756f635f 	strbvc	r6, [pc, #-863]!	; 5589 <_Min_Stack_Size+0x5189>
    58e4:	3d20746e 	cfstrscc	mvf7, [r0, #-440]!	; 0xfffffe48
    58e8:	203b3020 	eorscs	r3, fp, r0, lsr #32
    58ec:	3e2d725f 	mcrcc	2, 1, r7, cr13, cr15, {2}
    58f0:	73696d5f 	cmnvc	r9, #6080	; 0x17c0
    58f4:	5f3e2d63 	svcpl	0x003e2d63
    58f8:	7472626d 	ldrbtvc	r6, [r2], #-621	; 0xfffffd93
    58fc:	5f63776f 	svcpl	0x0063776f
    5900:	74617473 	strbtvc	r7, [r1], #-1139	; 0xfffffb8d
    5904:	5f5f2e65 	svcpl	0x005f2e65
    5908:	756c6176 	strbvc	r6, [ip, #-374]!	; 0xfffffe8a
    590c:	5f5f2e65 	svcpl	0x005f2e65
    5910:	20686377 	rsbcs	r6, r8, r7, ror r3
    5914:	3b30203d 	blcc	c0da10 <_Min_Stack_Size+0xc0d610>
    5918:	2d725f20 	ldclcs	15, cr5, [r2, #-128]!	; 0xffffff80
    591c:	696d5f3e 	stmdbvs	sp!, {r1, r2, r3, r4, r5, r8, r9, sl, fp, ip, lr}^
    5920:	3e2d6373 	mcrcc	3, 1, r6, cr13, cr3, {3}
    5924:	73626d5f 	cmnvc	r2, #6080	; 0x17c0
    5928:	776f7472 			; <UNDEFINED> instruction: 0x776f7472
    592c:	735f7363 	cmpvc	pc, #-1946157055	; 0x8c000001
    5930:	65746174 	ldrbvs	r6, [r4, #-372]!	; 0xfffffe8c
    5934:	635f5f2e 	cmpvs	pc, #46, 30	; 0xb8
    5938:	746e756f 	strbtvc	r7, [lr], #-1391	; 0xfffffa91
    593c:	30203d20 	eorcc	r3, r0, r0, lsr #26
    5940:	725f203b 	subsvc	r2, pc, #59	; 0x3b
    5944:	6d5f3e2d 	ldclvs	14, cr3, [pc, #-180]	; 5898 <_Min_Stack_Size+0x5498>
    5948:	2d637369 	stclcs	3, cr7, [r3, #-420]!	; 0xfffffe5c
    594c:	626d5f3e 	rsbvs	r5, sp, #62, 30	; 0xf8
    5950:	6f747273 	svcvs	0x00747273
    5954:	5f736377 	svcpl	0x00736377
    5958:	74617473 	strbtvc	r7, [r1], #-1139	; 0xfffffb8d
    595c:	5f5f2e65 	svcpl	0x005f2e65
    5960:	756c6176 	strbvc	r6, [ip, #-374]!	; 0xfffffe8a
    5964:	5f5f2e65 	svcpl	0x005f2e65
    5968:	20686377 	rsbcs	r6, r8, r7, ror r3
    596c:	3b30203d 	blcc	c0da68 <_Min_Stack_Size+0xc0d668>
    5970:	2d725f20 	ldclcs	15, cr5, [r2, #-128]!	; 0xffffff80
    5974:	696d5f3e 	stmdbvs	sp!, {r1, r2, r3, r4, r5, r8, r9, sl, fp, ip, lr}^
    5978:	3e2d6373 	mcrcc	3, 1, r6, cr13, cr3, {3}
    597c:	7263775f 	rsbvc	r7, r3, #24903680	; 0x17c0000
    5980:	626d6f74 	rsbvs	r6, sp, #116, 30	; 0x1d0
    5984:	6174735f 	cmnvs	r4, pc, asr r3
    5988:	5f2e6574 	svcpl	0x002e6574
    598c:	756f635f 	strbvc	r6, [pc, #-863]!	; 5635 <_Min_Stack_Size+0x5235>
    5990:	3d20746e 	cfstrscc	mvf7, [r0, #-440]!	; 0xfffffe48
    5994:	203b3020 	eorscs	r3, fp, r0, lsr #32
    5998:	3e2d725f 	mcrcc	2, 1, r7, cr13, cr15, {2}
    599c:	73696d5f 	cmnvc	r9, #6080	; 0x17c0
    59a0:	5f3e2d63 	svcpl	0x003e2d63
    59a4:	74726377 	ldrbtvc	r6, [r2], #-887	; 0xfffffc89
    59a8:	5f626d6f 	svcpl	0x00626d6f
    59ac:	74617473 	strbtvc	r7, [r1], #-1139	; 0xfffffb8d
    59b0:	5f5f2e65 	svcpl	0x005f2e65
    59b4:	756c6176 	strbvc	r6, [ip, #-374]!	; 0xfffffe8a
    59b8:	5f5f2e65 	svcpl	0x005f2e65
    59bc:	20686377 	rsbcs	r6, r8, r7, ror r3
    59c0:	3b30203d 	blcc	c0dabc <_Min_Stack_Size+0xc0d6bc>
    59c4:	2d725f20 	ldclcs	15, cr5, [r2, #-128]!	; 0xffffff80
    59c8:	696d5f3e 	stmdbvs	sp!, {r1, r2, r3, r4, r5, r8, r9, sl, fp, ip, lr}^
    59cc:	3e2d6373 	mcrcc	3, 1, r6, cr13, cr3, {3}
    59d0:	7363775f 	cmnvc	r3, #24903680	; 0x17c0000
    59d4:	6d6f7472 	cfstrdvs	mvd7, [pc, #-456]!	; 5814 <_Min_Stack_Size+0x5414>
    59d8:	735f7362 	cmpvc	pc, #-2013265919	; 0x88000001
    59dc:	65746174 	ldrbvs	r6, [r4, #-372]!	; 0xfffffe8c
    59e0:	635f5f2e 	cmpvs	pc, #46, 30	; 0xb8
    59e4:	746e756f 	strbtvc	r7, [lr], #-1391	; 0xfffffa91
    59e8:	30203d20 	eorcc	r3, r0, r0, lsr #26
    59ec:	725f203b 	subsvc	r2, pc, #59	; 0x3b
    59f0:	6d5f3e2d 	ldclvs	14, cr3, [pc, #-180]	; 5944 <_Min_Stack_Size+0x5544>
    59f4:	2d637369 	stclcs	3, cr7, [r3, #-420]!	; 0xfffffe5c
    59f8:	63775f3e 	cmnvs	r7, #62, 30	; 0xf8
    59fc:	6f747273 	svcvs	0x00747273
    5a00:	5f73626d 	svcpl	0x0073626d
    5a04:	74617473 	strbtvc	r7, [r1], #-1139	; 0xfffffb8d
    5a08:	5f5f2e65 	svcpl	0x005f2e65
    5a0c:	756c6176 	strbvc	r6, [ip, #-374]!	; 0xfffffe8a
    5a10:	5f5f2e65 	svcpl	0x005f2e65
    5a14:	20686377 	rsbcs	r6, r8, r7, ror r3
    5a18:	3b30203d 	blcc	c0db14 <_Min_Stack_Size+0xc0d714>
    5a1c:	2d725f20 	ldclcs	15, cr5, [r2, #-128]!	; 0xffffff80
    5a20:	696d5f3e 	stmdbvs	sp!, {r1, r2, r3, r4, r5, r8, r9, sl, fp, ip, lr}^
    5a24:	3e2d6373 	mcrcc	3, 1, r6, cr13, cr3, {3}
    5a28:	34366c5f 	ldrtcc	r6, [r6], #-3167	; 0xfffff3a1
    5a2c:	75625f61 	strbvc	r5, [r2, #-3937]!	; 0xfffff09f
    5a30:	5d305b66 	vldmdbpl	r0!, {d5-<overflow reg d55>}
    5a34:	27203d20 	strcs	r3, [r0, -r0, lsr #26]!
    5a38:	3b27305c 	blcc	9d1bb0 <_Min_Stack_Size+0x9d17b0>
    5a3c:	2d725f20 	ldclcs	15, cr5, [r2, #-128]!	; 0xffffff80
    5a40:	696d5f3e 	stmdbvs	sp!, {r1, r2, r3, r4, r5, r8, r9, sl, fp, ip, lr}^
    5a44:	3e2d6373 	mcrcc	3, 1, r6, cr13, cr3, {3}
    5a48:	7465675f 	strbtvc	r6, [r5], #-1887	; 0xfffff8a1
    5a4c:	65746164 	ldrbvs	r6, [r4, #-356]!	; 0xfffffe9c
    5a50:	7272655f 	rsbsvc	r6, r2, #398458880	; 0x17c00000
    5a54:	30203d20 	eorcc	r3, r0, r0, lsr #26
    5a58:	207d203b 	rsbscs	r2, sp, fp, lsr r0
    5a5c:	6c696877 	stclvs	8, cr6, [r9], #-476	; 0xfffffe24
    5a60:	30282065 	eorcc	r2, r8, r5, rrx
    5a64:	5f5f0029 	svcpl	0x005f0029
    5a68:	474e4f4c 	strbmi	r4, [lr, -ip, asr #30]
    5a6c:	4e4f4c5f 	mcrmi	12, 2, r4, cr15, cr15, {2}
    5a70:	49575f47 	ldmdbmi	r7, {r0, r1, r2, r6, r8, r9, sl, fp, ip, lr}^
    5a74:	5f485444 	svcpl	0x00485444
    5a78:	3436205f 	ldrtcc	r2, [r6], #-95	; 0xffffffa1
    5a7c:	49564e00 	ldmdbmi	r6, {r9, sl, fp, lr}^
    5a80:	52495f43 	subpl	r5, r9, #268	; 0x10c
    5a84:	455f3651 	ldrbmi	r3, [pc, #-1617]	; 543b <_Min_Stack_Size+0x503b>
    5a88:	30495458 	subcc	r5, r9, r8, asr r4
    5a8c:	616e455f 	cmnvs	lr, pc, asr r5
    5a90:	20656c62 	rsbcs	r6, r5, r2, ror #24
    5a94:	49564e28 	ldmdbmi	r6, {r3, r5, r9, sl, fp, lr}^
    5a98:	53495f43 	movtpl	r5, #40771	; 0x9f43
    5a9c:	20305245 	eorscs	r5, r0, r5, asr #4
    5aa0:	31203d7c 			; <UNDEFINED> instruction: 0x31203d7c
    5aa4:	29363c3c 	ldmdbcs	r6!, {r2, r3, r4, r5, sl, fp, ip, sp}
    5aa8:	4e495700 	cdpmi	7, 4, cr5, cr9, cr0, {0}
    5aac:	414d5f54 	cmpmi	sp, r4, asr pc
    5ab0:	5f282058 	svcpl	0x00282058
    5ab4:	4e49575f 	mcrmi	7, 2, r5, cr9, cr15, {2}
    5ab8:	414d5f54 	cmpmi	sp, r4, asr pc
    5abc:	295f5f58 	ldmdbcs	pc, {r3, r4, r6, r8, r9, sl, fp, ip, lr}^	; <UNPREDICTABLE>
    5ac0:	49504700 	ldmdbmi	r0, {r8, r9, sl, lr}^
    5ac4:	49505f4f 	ldmdbmi	r0, {r0, r1, r2, r3, r6, r8, r9, sl, fp, ip, lr}^
    5ac8:	30315f4e 	eorscc	r5, r1, lr, asr #30
    5acc:	75282820 	strvc	r2, [r8, #-2080]!	; 0xfffff7e0
    5ad0:	31746e69 	cmncc	r4, r9, ror #28
    5ad4:	29745f36 	ldmdbcs	r4!, {r1, r2, r4, r5, r8, r9, sl, fp, ip, lr}^
    5ad8:	34307830 	ldrtcc	r7, [r0], #-2096	; 0xfffff7d0
    5adc:	00293030 	eoreq	r3, r9, r0, lsr r0
    5ae0:	49555f5f 	ldmdbmi	r5, {r0, r1, r2, r3, r4, r6, r8, r9, sl, fp, ip, lr}^
    5ae4:	465f544e 	ldrbmi	r5, [pc], -lr, asr #8
    5ae8:	36545341 	ldrbcc	r5, [r4], -r1, asr #6
    5aec:	414d5f34 	cmpmi	sp, r4, lsr pc
    5af0:	205f5f58 	subscs	r5, pc, r8, asr pc	; <UNPREDICTABLE>
    5af4:	66667830 			; <UNDEFINED> instruction: 0x66667830
    5af8:	66666666 	strbtvs	r6, [r6], -r6, ror #12
    5afc:	66666666 	strbtvs	r6, [r6], -r6, ror #12
    5b00:	66666666 	strbtvs	r6, [r6], -r6, ror #12
    5b04:	4c556666 	mrrcmi	6, 6, r6, r5, cr6
    5b08:	5f5f004c 	svcpl	0x005f004c
    5b0c:	5f4d5241 	svcpl	0x004d5241
    5b10:	5f005046 	svcpl	0x00005046
    5b14:	4e454552 	mcrmi	5, 2, r4, cr5, cr2, {2}
    5b18:	48435f54 	stmdami	r3, {r2, r4, r6, r8, r9, sl, fp, ip, lr}^
    5b1c:	5f4b4345 	svcpl	0x004b4345
    5b20:	52454d45 	subpl	r4, r5, #4416	; 0x1140
    5b24:	434e4547 	movtmi	r4, #58695	; 0xe547
    5b28:	61762859 	cmnvs	r6, r9, asr r8
    5b2c:	5f202972 	svcpl	0x00202972
    5b30:	4e454552 	mcrmi	5, 2, r4, cr5, cr2, {2}
    5b34:	48435f54 	stmdami	r3, {r2, r4, r6, r8, r9, sl, fp, ip, lr}^
    5b38:	284b4345 	stmdacs	fp, {r0, r2, r6, r8, r9, lr}^
    5b3c:	2c726176 	ldfcse	f6, [r2], #-472	; 0xfffffe28
    5b40:	6d655f20 	stclvs	15, cr5, [r5, #-128]!	; 0xffffff80
    5b44:	65677265 	strbvs	r7, [r7, #-613]!	; 0xfffffd9b
    5b48:	2c79636e 	ldclcs	3, cr6, [r9], #-440	; 0xfffffe48
    5b4c:	61686320 	cmnvs	r8, r0, lsr #6
    5b50:	2c2a2072 	stccs	0, cr2, [sl], #-456	; 0xfffffe38
    5b54:	45525f20 	ldrbmi	r5, [r2, #-3872]	; 0xfffff0e0
    5b58:	5f544e45 	svcpl	0x00544e45
    5b5c:	52454d45 	subpl	r4, r5, #4416	; 0x1140
    5b60:	434e4547 	movtmi	r4, #58695	; 0xe547
    5b64:	49535f59 	ldmdbmi	r3, {r0, r3, r4, r6, r8, r9, sl, fp, ip, lr}^
    5b68:	202c455a 	eorcs	r4, ip, sl, asr r5
    5b6c:	5f5f0029 	svcpl	0x005f0029
    5b70:	5f4d5241 	svcpl	0x004d5241
    5b74:	54414546 	strbpl	r4, [r1], #-1350	; 0xfffffaba
    5b78:	5f455255 	svcpl	0x00455255
    5b7c:	00505344 	subseq	r5, r0, r4, asr #6
    5b80:	4e495f5f 	mcrmi	15, 2, r5, cr9, cr15, {2}
    5b84:	52545054 	subspl	r5, r4, #84	; 0x54
    5b88:	4449575f 	strbmi	r5, [r9], #-1887	; 0xfffff8a1
    5b8c:	5f5f4854 	svcpl	0x005f4854
    5b90:	00323320 	eorseq	r3, r2, r0, lsr #6
    5b94:	4545525f 	strbmi	r5, [r5, #-607]	; 0xfffffda1
    5b98:	495f544e 	ldmdbmi	pc, {r1, r2, r3, r6, sl, ip, lr}^	; <UNPREDICTABLE>
    5b9c:	5f54494e 	svcpl	0x0054494e
    5ba0:	7628504d 	strtvc	r5, [r8], -sp, asr #32
    5ba4:	20297261 	eorcs	r7, r9, r1, ror #4
    5ba8:	7b206f64 	blvc	821940 <_Min_Stack_Size+0x821540>
    5bac:	72747320 	rsbsvc	r7, r4, #32, 6	; 0x80000000
    5bb0:	20746375 	rsbscs	r6, r4, r5, ror r3
    5bb4:	6565725f 	strbvs	r7, [r5, #-607]!	; 0xfffffda1
    5bb8:	2a20746e 	bcs	822d78 <_Min_Stack_Size+0x822978>
    5bbc:	3d20725f 	sfmcc	f7, 4, [r0, #-380]!	; 0xfffffe84
    5bc0:	61762820 	cmnvs	r6, r0, lsr #16
    5bc4:	203b2972 	eorscs	r2, fp, r2, ror r9
    5bc8:	3e2d725f 	mcrcc	2, 1, r7, cr13, cr15, {2}
    5bcc:	2d706d5f 	ldclcs	13, cr6, [r0, #-380]!	; 0xfffffe84
    5bd0:	65725f3e 	ldrbvs	r5, [r2, #-3902]!	; 0xfffff0c2
    5bd4:	746c7573 	strbtvc	r7, [ip], #-1395	; 0xfffffa8d
    5bd8:	3d206b5f 	fstmdbxcc	r0!, {d6-d52}	;@ Deprecated
    5bdc:	203b3020 	eorscs	r3, fp, r0, lsr #32
    5be0:	3e2d725f 	mcrcc	2, 1, r7, cr13, cr15, {2}
    5be4:	2d706d5f 	ldclcs	13, cr6, [r0, #-380]!	; 0xfffffe84
    5be8:	65725f3e 	ldrbvs	r5, [r2, #-3902]!	; 0xfffff0c2
    5bec:	746c7573 	strbtvc	r7, [ip], #-1395	; 0xfffffa8d
    5bf0:	5f203d20 	svcpl	0x00203d20
    5bf4:	5f3e2d72 	svcpl	0x003e2d72
    5bf8:	3e2d706d 	cdpcc	0, 2, cr7, cr13, cr13, {3}
    5bfc:	7335705f 	teqvc	r5, #95	; 0x5f
    5c00:	5f203d20 	svcpl	0x00203d20
    5c04:	4c4c554e 	cfstr64mi	mvdx5, [ip], {78}	; 0x4e
    5c08:	725f203b 	subsvc	r2, pc, #59	; 0x3b
    5c0c:	6d5f3e2d 	ldclvs	14, cr3, [pc, #-180]	; 5b60 <_Min_Stack_Size+0x5760>
    5c10:	5f3e2d70 	svcpl	0x003e2d70
    5c14:	65657266 	strbvs	r7, [r5, #-614]!	; 0xfffffd9a
    5c18:	7473696c 	ldrbtvc	r6, [r3], #-2412	; 0xfffff694
    5c1c:	5f203d20 	svcpl	0x00203d20
    5c20:	4c4c554e 	cfstr64mi	mvdx5, [ip], {78}	; 0x4e
    5c24:	207d203b 	rsbscs	r2, sp, fp, lsr r0
    5c28:	6c696877 	stclvs	8, cr6, [r9], #-476	; 0xfffffe24
    5c2c:	30282065 	eorcc	r2, r8, r5, rrx
    5c30:	58450029 	stmdapl	r5, {r0, r3, r5}^
    5c34:	34314954 	ldrtcc	r4, [r1], #-2388	; 0xfffff6ac
    5c38:	34314350 	ldrtcc	r4, [r1], #-848	; 0xfffffcb0
    5c3c:	58452820 	stmdapl	r5, {r5, fp, sp}^
    5c40:	475f4954 			; <UNDEFINED> instruction: 0x475f4954
    5c44:	5f4f4950 	svcpl	0x004f4950
    5c48:	7070614d 	rsbsvc	r6, r0, sp, asr #2
    5c4c:	5f676e69 	svcpl	0x00676e69
    5c50:	457b2974 	ldrbmi	r2, [fp, #-2420]!	; 0xfffff68c
    5c54:	31495458 	cmpcc	r9, r8, asr r4
    5c58:	202c2034 	eorcs	r2, ip, r4, lsr r0
    5c5c:	4f495047 	svcmi	0x00495047
    5c60:	202c2043 	eorcs	r2, ip, r3, asr #32
    5c64:	4f495047 	svcmi	0x00495047
    5c68:	4e49505f 	mcrmi	0, 2, r5, cr9, cr15, {2}
    5c6c:	2034315f 	eorscs	r3, r4, pc, asr r1
    5c70:	5458452c 	ldrbpl	r4, [r8], #-1324	; 0xfffffad4
    5c74:	5f343149 	svcpl	0x00343149
    5c78:	20515249 	subscs	r5, r1, r9, asr #4
    5c7c:	525f007d 	subspl	r0, pc, #125	; 0x7d
    5c80:	544e4545 	strbpl	r4, [lr], #-1349	; 0xfffffabb
    5c84:	434f4c5f 	movtmi	r4, #64607	; 0xfc5f
    5c88:	28454c41 	stmdacs	r5, {r0, r6, sl, fp, lr}^
    5c8c:	7274705f 	rsbsvc	r7, r4, #95	; 0x5f
    5c90:	28282029 	stmdacs	r8!, {r0, r3, r5, sp}
    5c94:	7274705f 	rsbsvc	r7, r4, #95	; 0x5f
    5c98:	5f3e2d29 	svcpl	0x003e2d29
    5c9c:	61636f6c 	cmnvs	r3, ip, ror #30
    5ca0:	0029656c 	eoreq	r6, r9, ip, ror #10
    5ca4:	4c465f5f 	mcrrmi	15, 5, r5, r6, cr15
    5ca8:	58323354 	ldmdapl	r2!, {r2, r4, r6, r8, r9, ip, sp}
    5cac:	4e494d5f 	mcrmi	13, 2, r4, cr9, cr15, {2}
    5cb0:	32205f5f 	eorcc	r5, r0, #380	; 0x17c
    5cb4:	3532322e 	ldrcc	r3, [r2, #-558]!	; 0xfffffdd2
    5cb8:	38333730 	ldmdacc	r3!, {r4, r5, r8, r9, sl, ip, sp}
    5cbc:	30353835 	eorscc	r3, r5, r5, lsr r8
    5cc0:	31303237 	teqcc	r0, r7, lsr r2
    5cc4:	332d6534 			; <UNDEFINED> instruction: 0x332d6534
    5cc8:	33463830 	movtcc	r3, #26672	; 0x6830
    5ccc:	5f007832 	svcpl	0x00007832
    5cd0:	4e454552 	mcrmi	5, 2, r4, cr5, cr2, {2}
    5cd4:	41525f54 	cmpmi	r2, r4, asr pc
    5cd8:	3834444e 	ldmdacc	r4!, {r1, r2, r3, r6, sl, lr}
    5cdc:	4c554d5f 	mrrcmi	13, 5, r4, r5, cr15
    5ce0:	74702854 	ldrbtvc	r2, [r0], #-2132	; 0xfffff7ac
    5ce4:	28202972 	stmdacs	r0!, {r1, r4, r5, r6, r8, fp, sp}
    5ce8:	72747028 	rsbsvc	r7, r4, #40	; 0x28
    5cec:	5f3e2d29 	svcpl	0x003e2d29
    5cf0:	2d383472 	cfldrscs	mvf3, [r8, #-456]!	; 0xfffffe38
    5cf4:	756d5f3e 	strbvc	r5, [sp, #-3902]!	; 0xfffff0c2
    5cf8:	0029746c 	eoreq	r7, r9, ip, ror #8
    5cfc:	4c465f5f 	mcrrmi	15, 5, r5, r6, cr15
    5d00:	5f343654 	svcpl	0x00343654
    5d04:	5f58414d 	svcpl	0x0058414d
    5d08:	5f505845 	svcpl	0x00505845
    5d0c:	3031205f 	eorscc	r2, r1, pc, asr r0
    5d10:	49003432 	stmdbmi	r0, {r1, r4, r5, sl, ip, sp}
    5d14:	435f4332 	cmpmi	pc, #-939524096	; 0xc8000000
    5d18:	415f3152 	cmpmi	pc, r2, asr r1	; <UNPREDICTABLE>
    5d1c:	4d5f4b43 	vldrmi	d20, [pc, #-268]	; 5c18 <_Min_Stack_Size+0x5818>
    5d20:	28206b73 	stmdacs	r0!, {r0, r1, r4, r5, r6, r8, r9, fp, sp, lr}
    5d24:	55317830 	ldrpl	r7, [r1, #-2096]!	; 0xfffff7d0
    5d28:	3c3c204c 	ldccc	0, cr2, [ip], #-304	; 0xfffffed0
    5d2c:	43324920 	teqmi	r2, #32, 18	; 0x80000
    5d30:	3152435f 	cmpcc	r2, pc, asr r3
    5d34:	4b43415f 	blmi	10d62b8 <_Min_Stack_Size+0x10d5eb8>
    5d38:	736f505f 	cmnvc	pc, #95	; 0x5f
    5d3c:	5f5f0029 	svcpl	0x005f0029
    5d40:	41484357 	cmpmi	r8, r7, asr r3
    5d44:	20545f52 	subscs	r5, r4, r2, asr pc
    5d48:	434e4900 	movtmi	r4, #59648	; 0xe900
    5d4c:	4d54535f 	ldclmi	3, cr5, [r4, #-380]	; 0xfffffe84
    5d50:	31463233 	cmpcc	r6, r3, lsr r2
    5d54:	58583330 	ldmdapl	r8, {r4, r5, r8, r9, ip, sp}^
    5d58:	5f485f58 	svcpl	0x00485f58
    5d5c:	424d0020 	submi	r0, sp, #32
    5d60:	5255435f 	subspl	r4, r5, #2080374785	; 0x7c000001
    5d64:	58414d5f 	stmdapl	r1, {r0, r1, r2, r3, r4, r6, r8, sl, fp, lr}^
    5d68:	6c5f5f20 	mrrcvs	15, 2, r5, pc, cr0	; <UNPREDICTABLE>
    5d6c:	6c61636f 	stclvs	3, cr6, [r1], #-444	; 0xfffffe44
    5d70:	626d5f65 	rsbvs	r5, sp, #404	; 0x194
    5d74:	7275635f 	rsbsvc	r6, r5, #2080374785	; 0x7c000001
    5d78:	78616d5f 	stmdavc	r1!, {r0, r1, r2, r3, r4, r6, r8, sl, fp, sp, lr}^
    5d7c:	5f002928 	svcpl	0x00002928
    5d80:	544c465f 	strbpl	r4, [ip], #-1631	; 0xfffff9a1
    5d84:	4d5f3436 	cfldrdmi	mvd3, [pc, #-216]	; 5cb4 <_Min_Stack_Size+0x58b4>
    5d88:	5f5f4e49 	svcpl	0x005f4e49
    5d8c:	322e3220 	eorcc	r3, lr, #32, 4
    5d90:	37303532 			; <UNDEFINED> instruction: 0x37303532
    5d94:	38353833 	ldmdacc	r5!, {r0, r1, r4, r5, fp, ip, sp}
    5d98:	32373035 	eorscc	r3, r7, #53	; 0x35
    5d9c:	65343130 	ldrvs	r3, [r4, #-304]!	; 0xfffffed0
    5da0:	3830332d 	ldmdacc	r0!, {r0, r2, r3, r5, r8, r9, ip, sp}
    5da4:	00343646 	eorseq	r3, r4, r6, asr #12
    5da8:	4545525f 	strbmi	r5, [r5, #-607]	; 0xfffffda1
    5dac:	495f544e 	ldmdbmi	pc, {r1, r2, r3, r6, sl, ip, lr}^	; <UNPREDICTABLE>
    5db0:	5f54494e 	svcpl	0x0054494e
    5db4:	45534552 	ldrbmi	r4, [r3, #-1362]	; 0xfffffaae
    5db8:	44455652 	strbmi	r5, [r5], #-1618	; 0xfffff9ae
    5dbc:	0020385f 	eoreq	r3, r0, pc, asr r8
    5dc0:	695f5f5f 	ldmdbvs	pc, {r0, r1, r2, r3, r4, r6, r8, r9, sl, fp, ip, lr}^	; <UNPREDICTABLE>
    5dc4:	3233746e 	eorscc	r7, r3, #1845493760	; 0x6e000000
    5dc8:	645f745f 	ldrbvs	r7, [pc], #-1119	; 5dd0 <_Min_Stack_Size+0x59d0>
    5dcc:	6e696665 	cdpvs	6, 6, cr6, cr9, cr5, {3}
    5dd0:	31206465 			; <UNDEFINED> instruction: 0x31206465
    5dd4:	495f5f00 	ldmdbmi	pc, {r8, r9, sl, fp, ip, lr}^	; <UNPREDICTABLE>
    5dd8:	575f544e 	ldrbpl	r5, [pc, -lr, asr #8]
    5ddc:	48544449 	ldmdami	r4, {r0, r3, r6, sl, lr}^
    5de0:	33205f5f 			; <UNDEFINED> instruction: 0x33205f5f
    5de4:	485f0032 	ldmdami	pc, {r1, r4, r5}^	; <UNPREDICTABLE>
    5de8:	5f455641 	svcpl	0x00455641
    5dec:	495f4343 	ldmdbmi	pc, {r0, r1, r6, r8, r9, lr}^	; <UNPREDICTABLE>
    5df0:	4249484e 	submi	r4, r9, #5111808	; 0x4e0000
    5df4:	4c5f5449 	cfldrdmi	mvd5, [pc], {73}	; 0x49
    5df8:	5f504f4f 	svcpl	0x00504f4f
    5dfc:	4c5f4f54 	mrrcmi	15, 5, r4, pc, cr4	; <UNPREDICTABLE>
    5e00:	41434249 	cmpmi	r3, r9, asr #4
    5e04:	31204c4c 			; <UNDEFINED> instruction: 0x31204c4c
    5e08:	49564e00 	ldmdbmi	r6, {r9, sl, fp, lr}^
    5e0c:	43495f43 	movtmi	r5, #40771	; 0x9f43
    5e10:	20325245 	eorscs	r5, r2, r5, asr #4
    5e14:	6f76282a 	svcvs	0x0076282a
    5e18:	6974616c 	ldmdbvs	r4!, {r2, r3, r5, r6, r8, sp, lr}^
    5e1c:	7520656c 	strvc	r6, [r0, #-1388]!	; 0xfffffa94
    5e20:	33746e69 	cmncc	r4, #1680	; 0x690
    5e24:	20745f32 	rsbscs	r5, r4, r2, lsr pc
    5e28:	4e28292a 	vmulmi.f16	s4, s16, s21	; <UNPREDICTABLE>
    5e2c:	5f434956 	svcpl	0x00434956
    5e30:	65736142 	ldrbvs	r6, [r3, #-322]!	; 0xfffffebe
    5e34:	30202b20 	eorcc	r2, r0, r0, lsr #22
    5e38:	29383878 	ldmdbcs	r8!, {r3, r4, r5, r6, fp, ip, sp}
    5e3c:	4e5f5f00 	cdpmi	15, 5, cr5, cr15, cr0, {0}
    5e40:	414c4c55 	cmpmi	ip, r5, asr ip
    5e44:	494c4942 	stmdbmi	ip, {r1, r6, r8, fp, lr}^
    5e48:	505f5954 	subspl	r5, pc, r4, asr r9	; <UNPREDICTABLE>
    5e4c:	4d474152 	stfmie	f4, [r7, #-328]	; 0xfffffeb8
    5e50:	4f505f41 	svcmi	0x00505f41
    5e54:	5f002050 	svcpl	0x00002050
    5e58:	4d52415f 	ldfmie	f4, [r2, #-380]	; 0xfffffe84
    5e5c:	4352415f 	cmpmi	r2, #-1073741801	; 0xc0000017
    5e60:	52505f48 	subspl	r5, r0, #72, 30	; 0x120
    5e64:	4c49464f 	mcrrmi	6, 4, r4, r9, cr15
    5e68:	5f5f0045 	svcpl	0x005f0045
    5e6c:	36544e49 	ldrbcc	r4, [r4], -r9, asr #28
    5e70:	59545f34 	ldmdbpl	r4, {r2, r4, r5, r8, r9, sl, fp, ip, lr}^
    5e74:	5f5f4550 	svcpl	0x005f4550
    5e78:	6e6f6c20 	cdpvs	12, 6, cr6, cr15, cr0, {1}
    5e7c:	6f6c2067 	svcvs	0x006c2067
    5e80:	6920676e 	stmdbvs	r0!, {r1, r2, r3, r5, r6, r8, r9, sl, sp, lr}
    5e84:	5f00746e 	svcpl	0x0000746e
    5e88:	52464c5f 	subpl	r4, r6, #24320	; 0x5f00
    5e8c:	5f544341 	svcpl	0x00544341
    5e90:	54494246 	strbpl	r4, [r9], #-582	; 0xfffffdba
    5e94:	33205f5f 			; <UNDEFINED> instruction: 0x33205f5f
    5e98:	5f5f0031 	svcpl	0x005f0031
    5e9c:	52414843 	subpl	r4, r1, #4390912	; 0x430000
    5ea0:	5449425f 	strbpl	r4, [r9], #-607	; 0xfffffda1
    5ea4:	38205f5f 	stmdacc	r0!, {r0, r1, r2, r3, r4, r6, r8, r9, sl, fp, ip, lr}
    5ea8:	43324900 	teqmi	r2, #0, 18
    5eac:	3252435f 	subscc	r4, r2, #2080374785	; 0x7c000001
    5eb0:	414d445f 	cmpmi	sp, pc, asr r4
    5eb4:	49204e45 	stmdbmi	r0!, {r0, r2, r6, r9, sl, fp, lr}
    5eb8:	435f4332 	cmpmi	pc, #-939524096	; 0xc8000000
    5ebc:	445f3252 	ldrbmi	r3, [pc], #-594	; 5ec4 <_Min_Stack_Size+0x5ac4>
    5ec0:	4e45414d 	dvfmism	f4, f5, #5.0
    5ec4:	6b734d5f 	blvs	1cd9448 <_Min_Stack_Size+0x1cd9048>
    5ec8:	54584500 	ldrbpl	r4, [r8], #-1280	; 0xfffffb00
    5ecc:	49505f49 	ldmdbmi	r0, {r0, r3, r6, r8, r9, sl, fp, ip, lr}^
    5ed0:	5845004e 	stmdapl	r5, {r1, r2, r3, r6}^
    5ed4:	50374954 	eorspl	r4, r7, r4, asr r9
    5ed8:	28203743 	stmdacs	r0!, {r0, r1, r6, r8, r9, sl, ip, sp}
    5edc:	49545845 	ldmdbmi	r4, {r0, r2, r6, fp, ip, lr}^
    5ee0:	4950475f 	ldmdbmi	r0, {r0, r1, r2, r3, r4, r6, r8, r9, sl, lr}^
    5ee4:	614d5f4f 	cmpvs	sp, pc, asr #30
    5ee8:	6e697070 	mcrvs	0, 3, r7, cr9, cr0, {3}
    5eec:	29745f67 	ldmdbcs	r4!, {r0, r1, r2, r5, r6, r8, r9, sl, fp, ip, lr}^
    5ef0:	5458457b 	ldrbpl	r4, [r8], #-1403	; 0xfffffa85
    5ef4:	2c203749 	stccs	7, cr3, [r0], #-292	; 0xfffffedc
    5ef8:	49504720 	ldmdbmi	r0, {r5, r8, r9, sl, lr}^
    5efc:	2c20434f 	stccs	3, cr4, [r0], #-316	; 0xfffffec4
    5f00:	49504720 	ldmdbmi	r0, {r5, r8, r9, sl, lr}^
    5f04:	49505f4f 	ldmdbmi	r0, {r0, r1, r2, r3, r6, r8, r9, sl, fp, ip, lr}^
    5f08:	20375f4e 	eorscs	r5, r7, lr, asr #30
    5f0c:	5458452c 	ldrbpl	r4, [r8], #-1324	; 0xfffffad4
    5f10:	495f3749 	ldmdbmi	pc, {r0, r3, r6, r8, r9, sl, ip, sp}^	; <UNPREDICTABLE>
    5f14:	7d205152 	stfvcs	f5, [r0, #-328]!	; 0xfffffeb8
    5f18:	425f5f00 	subsmi	r5, pc, #0, 30
    5f1c:	565f4453 			; <UNDEFINED> instruction: 0x565f4453
    5f20:	42495349 	submi	r5, r9, #603979777	; 0x24000001
    5f24:	3120454c 			; <UNDEFINED> instruction: 0x3120454c
    5f28:	544e4900 	strbpl	r4, [lr], #-2304	; 0xfffff700
    5f2c:	41454c5f 	cmpmi	r5, pc, asr ip
    5f30:	36315453 			; <UNDEFINED> instruction: 0x36315453
    5f34:	4e494d5f 	mcrmi	13, 2, r4, cr9, cr15, {2}
    5f38:	5f2d2820 	svcpl	0x002d2820
    5f3c:	544e495f 	strbpl	r4, [lr], #-2399	; 0xfffff6a1
    5f40:	41454c5f 	cmpmi	r5, pc, asr ip
    5f44:	36315453 			; <UNDEFINED> instruction: 0x36315453
    5f48:	58414d5f 	stmdapl	r1, {r0, r1, r2, r3, r4, r6, r8, sl, fp, lr}^
    5f4c:	2d205f5f 	stccs	15, cr5, [r0, #-380]!	; 0xfffffe84
    5f50:	00293120 	eoreq	r3, r9, r0, lsr #2
    5f54:	6e755f5f 	mrcvs	15, 3, r5, cr5, cr15, {2}
    5f58:	64657375 	strbtvs	r7, [r5], #-885	; 0xfffffc8b
    5f5c:	615f5f20 	cmpvs	pc, r0, lsr #30
    5f60:	69727474 	ldmdbvs	r2!, {r2, r4, r5, r6, sl, ip, sp, lr}^
    5f64:	65747562 	ldrbvs	r7, [r4, #-1378]!	; 0xfffffa9e
    5f68:	28285f5f 	stmdacs	r8!, {r0, r1, r2, r3, r4, r6, r8, r9, sl, fp, ip, lr}
    5f6c:	6e755f5f 	mrcvs	15, 3, r5, cr5, cr15, {2}
    5f70:	64657375 	strbtvs	r7, [r5], #-885	; 0xfffffc8b
    5f74:	29295f5f 	stmdbcs	r9!, {r0, r1, r2, r3, r4, r6, r8, r9, sl, fp, ip, lr}
    5f78:	54584500 	ldrbpl	r4, [r8], #-1280	; 0xfffffb00
    5f7c:	50333149 	eorspl	r3, r3, r9, asr #2
    5f80:	20333141 	eorscs	r3, r3, r1, asr #2
    5f84:	54584528 	ldrbpl	r4, [r8], #-1320	; 0xfffffad8
    5f88:	50475f49 	subpl	r5, r7, r9, asr #30
    5f8c:	4d5f4f49 	ldclmi	15, cr4, [pc, #-292]	; 5e70 <_Min_Stack_Size+0x5a70>
    5f90:	69707061 	ldmdbvs	r0!, {r0, r5, r6, ip, sp, lr}^
    5f94:	745f676e 	ldrbvc	r6, [pc], #-1902	; 5f9c <_Min_Stack_Size+0x5b9c>
    5f98:	58457b29 	stmdapl	r5, {r0, r3, r5, r8, r9, fp, ip, sp, lr}^
    5f9c:	33314954 	teqcc	r1, #84, 18	; 0x150000
    5fa0:	5047202c 	subpl	r2, r7, ip, lsr #32
    5fa4:	20414f49 	subcs	r4, r1, r9, asr #30
    5fa8:	5047202c 	subpl	r2, r7, ip, lsr #32
    5fac:	505f4f49 	subspl	r4, pc, r9, asr #30
    5fb0:	315f4e49 	cmpcc	pc, r9, asr #28
    5fb4:	202c2033 	eorcs	r2, ip, r3, lsr r0
    5fb8:	49545845 	ldmdbmi	r4, {r0, r2, r6, fp, ip, lr}^
    5fbc:	495f3331 	ldmdbmi	pc, {r0, r4, r5, r8, r9, ip, sp}^	; <UNPREDICTABLE>
    5fc0:	7d205152 	stfvcs	f5, [r0, #-328]!	; 0xfffffeb8
    5fc4:	415f5f00 	cmpmi	pc, r0, lsl #30
    5fc8:	52455353 	subpl	r5, r5, #1275068417	; 0x4c000001
    5fcc:	55465f54 	strbpl	r5, [r6, #-3924]	; 0xfffff0ac
    5fd0:	5f20434e 	svcpl	0x0020434e
    5fd4:	6e75665f 	mrcvs	6, 3, r6, cr5, cr15, {2}
    5fd8:	005f5f63 	subseq	r5, pc, r3, ror #30
    5fdc:	74726f43 	ldrbtvc	r6, [r2], #-3907	; 0xfffff0bd
    5fe0:	4d5f7865 	ldclmi	8, cr7, [pc, #-404]	; 5e54 <_Min_Stack_Size+0x5a54>
    5fe4:	6e495f33 	mcrvs	15, 2, r5, cr9, cr3, {1}
    5fe8:	6e726574 	mrcvs	5, 3, r6, cr2, cr4, {3}
    5fec:	505f6c61 	subspl	r6, pc, r1, ror #24
    5ff0:	70697265 	rsbvc	r7, r9, r5, ror #4
    5ff4:	61726568 	cmnvs	r2, r8, ror #10
    5ff8:	425f736c 	subsmi	r7, pc, #108, 6	; 0xb0000001
    5ffc:	20455341 	subcs	r5, r5, r1, asr #6
    6000:	30457830 	subcc	r7, r5, r0, lsr r8
    6004:	30303030 	eorscc	r3, r0, r0, lsr r0
    6008:	4c553030 	mrrcmi	0, 3, r3, r5, cr0
    600c:	555f5f00 	ldrbpl	r5, [pc, #-3840]	; 5114 <_Min_Stack_Size+0x4d14>
    6010:	43415246 	movtmi	r5, #4678	; 0x1246
    6014:	414d5f54 	cmpmi	sp, r4, asr pc
    6018:	205f5f58 	subscs	r5, pc, r8, asr pc	; <UNPREDICTABLE>
    601c:	46465830 			; <UNDEFINED> instruction: 0x46465830
    6020:	2d504646 	ldclcs	6, cr4, [r0, #-280]	; 0xfffffee8
    6024:	52553631 	subspl	r3, r5, #51380224	; 0x3100000
    6028:	5f5f5f00 	svcpl	0x005f5f00
    602c:	5f746e69 	svcpl	0x00746e69
    6030:	7361656c 	cmnvc	r1, #108, 10	; 0x1b000000
    6034:	5f343674 	svcpl	0x00343674
    6038:	65645f74 	strbvs	r5, [r4, #-3956]!	; 0xfffff08c
    603c:	656e6966 	strbvs	r6, [lr, #-2406]!	; 0xfffff69a
    6040:	00312064 	eorseq	r2, r1, r4, rrx
    6044:	49545845 	ldmdbmi	r4, {r0, r2, r6, fp, ip, lr}^
    6048:	43503131 	cmpmi	r0, #1073741836	; 0x4000000c
    604c:	28203131 	stmdacs	r0!, {r0, r4, r5, r8, ip, sp}
    6050:	49545845 	ldmdbmi	r4, {r0, r2, r6, fp, ip, lr}^
    6054:	4950475f 	ldmdbmi	r0, {r0, r1, r2, r3, r4, r6, r8, r9, sl, lr}^
    6058:	614d5f4f 	cmpvs	sp, pc, asr #30
    605c:	6e697070 	mcrvs	0, 3, r7, cr9, cr0, {3}
    6060:	29745f67 	ldmdbcs	r4!, {r0, r1, r2, r5, r6, r8, r9, sl, fp, ip, lr}^
    6064:	5458457b 	ldrbpl	r4, [r8], #-1403	; 0xfffffa85
    6068:	20313149 	eorscs	r3, r1, r9, asr #2
    606c:	5047202c 	subpl	r2, r7, ip, lsr #32
    6070:	20434f49 	subcs	r4, r3, r9, asr #30
    6074:	5047202c 	subpl	r2, r7, ip, lsr #32
    6078:	505f4f49 	subspl	r4, pc, r9, asr #30
    607c:	315f4e49 	cmpcc	pc, r9, asr #28
    6080:	452c2031 	strmi	r2, [ip, #-49]!	; 0xffffffcf
    6084:	31495458 	cmpcc	r9, r8, asr r4
    6088:	52495f31 	subpl	r5, r9, #49, 30	; 0xc4
    608c:	007d2051 	rsbseq	r2, sp, r1, asr r0
    6090:	4e41575f 	mcrmi	7, 2, r5, cr1, cr15, {2}
    6094:	45525f54 	ldrbmi	r5, [r2, #-3924]	; 0xfffff0ac
    6098:	5f544e45 	svcpl	0x00544e45
    609c:	4c414d53 	mcrrmi	13, 5, r4, r1, cr3
    60a0:	0031204c 	eorseq	r2, r1, ip, asr #32
    60a4:	48545f5f 	ldmdami	r4, {r0, r1, r2, r3, r4, r6, r8, r9, sl, fp, ip, lr}^
    60a8:	20574f52 	subscs	r4, r7, r2, asr pc
    60ac:	49504700 	ldmdbmi	r0, {r8, r9, sl, lr}^
    60b0:	4f4d5f4f 	svcmi	0x004d5f4f
    60b4:	495f4544 	ldmdbmi	pc, {r2, r6, r8, sl, lr}^	; <UNPREDICTABLE>
    60b8:	5455504e 	ldrbpl	r5, [r5], #-78	; 0xffffffb2
    60bc:	2044505f 	subcs	r5, r4, pc, asr r0
    60c0:	30307830 	eorscc	r7, r0, r0, lsr r8
    60c4:	30303030 	eorscc	r3, r0, r0, lsr r0
    60c8:	00753330 	rsbseq	r3, r5, r0, lsr r3
    60cc:	5f434352 	svcpl	0x00434352
    60d0:	4f495047 	svcmi	0x00495047
    60d4:	4c435f41 	mcrrmi	15, 4, r5, r3, cr1
    60d8:	4e455f4b 	cdpmi	15, 4, cr5, cr5, cr11, {2}
    60dc:	28202928 	stmdacs	r0!, {r3, r5, r8, fp, sp}
    60e0:	43435220 	movtmi	r5, #12832	; 0x3220
    60e4:	50413e2d 	subpl	r3, r1, sp, lsr #28
    60e8:	4e453242 	cdpmi	2, 4, cr3, cr5, cr2, {2}
    60ec:	3d7c2052 	ldclcc	0, cr2, [ip, #-328]!	; 0xfffffeb8
    60f0:	3c312820 	ldccc	8, cr2, [r1], #-128	; 0xffffff80
    60f4:	2029323c 	eorcs	r3, r9, ip, lsr r2
    60f8:	525f0029 	subspl	r0, pc, #41	; 0x29
    60fc:	544e4545 	strbpl	r4, [lr], #-1349	; 0xfffffabb
    6100:	4548435f 	strbmi	r4, [r8, #-863]	; 0xfffffca1
    6104:	4d5f4b43 	vldrmi	d20, [pc, #-268]	; 6000 <_Min_Stack_Size+0x5c00>
    6108:	61762850 	cmnvs	r6, r0, asr r8
    610c:	5f202972 	svcpl	0x00202972
    6110:	4e454552 	mcrmi	5, 2, r4, cr5, cr2, {2}
    6114:	48435f54 	stmdami	r3, {r2, r4, r6, r8, r9, sl, fp, ip, lr}^
    6118:	284b4345 	stmdacs	fp, {r0, r2, r6, r8, r9, lr}^
    611c:	2c726176 	ldfcse	f6, [r2], #-472	; 0xfffffe28
    6120:	706d5f20 	rsbvc	r5, sp, r0, lsr #30
    6124:	7473202c 	ldrbtvc	r2, [r3], #-44	; 0xffffffd4
    6128:	74637572 	strbtvc	r7, [r3], #-1394	; 0xfffffa8e
    612c:	706d5f20 	rsbvc	r5, sp, r0, lsr #30
    6130:	20636572 	rsbcs	r6, r3, r2, ror r5
    6134:	73202c2a 			; <UNDEFINED> instruction: 0x73202c2a
    6138:	6f657a69 	svcvs	0x00657a69
    613c:	282a2066 	stmdacs	sl!, {r1, r2, r5, r6, sp}
    6140:	72617628 	rsbvc	r7, r1, #40, 12	; 0x2800000
    6144:	5f3e2d29 	svcpl	0x003e2d29
    6148:	2c29706d 	stccs	0, cr7, [r9], #-436	; 0xfffffe4c
    614c:	45525f20 	ldrbmi	r5, [r2, #-3872]	; 0xfffff0e0
    6150:	5f544e45 	svcpl	0x00544e45
    6154:	54494e49 	strbpl	r4, [r9], #-3657	; 0xfffff1b7
    6158:	28504d5f 	ldmdacs	r0, {r0, r1, r2, r3, r4, r6, r8, sl, fp, lr}^
    615c:	29726176 	ldmdbcs	r2!, {r1, r2, r4, r5, r6, r8, sp, lr}^
    6160:	32490029 	subcc	r0, r9, #41	; 0x29
    6164:	52435f43 	subpl	r5, r3, #268	; 0x10c
    6168:	4f505f31 	svcmi	0x00505f31
    616c:	6f505f53 	svcvs	0x00505f53
    6170:	31282073 			; <UNDEFINED> instruction: 0x31282073
    6174:	00295531 	eoreq	r5, r9, r1, lsr r5
    6178:	46535f5f 	usaxmi	r5, r3, pc	; <UNPREDICTABLE>
    617c:	54434152 	strbpl	r4, [r3], #-338	; 0xfffffeae
    6180:	4942495f 	stmdbmi	r2, {r0, r1, r2, r3, r4, r6, r8, fp, lr}^
    6184:	205f5f54 	subscs	r5, pc, r4, asr pc	; <UNPREDICTABLE>
    6188:	415f0030 	cmpmi	pc, r0, lsr r0	; <UNPREDICTABLE>
    618c:	4c494654 	mcrrmi	6, 5, r4, r9, cr4
    6190:	4f535f45 	svcmi	0x00535f45
    6194:	45435255 	strbmi	r5, [r3, #-597]	; 0xfffffdab
    6198:	5f003120 	svcpl	0x00003120
    619c:	4454535f 	ldrbmi	r5, [r4], #-863	; 0xfffffca1
    61a0:	5f544e49 	svcpl	0x00544e49
    61a4:	28505845 	ldmdacs	r0, {r0, r2, r6, fp, ip, lr}^
    61a8:	5f202978 	svcpl	0x00202978
    61ac:	2323205f 			; <UNDEFINED> instruction: 0x2323205f
    61b0:	23232078 			; <UNDEFINED> instruction: 0x23232078
    61b4:	5f005f5f 	svcpl	0x00005f5f
    61b8:	5058455f 	subspl	r4, r8, pc, asr r5
    61bc:	20297828 	eorcs	r7, r9, r8, lsr #16
    61c0:	23205f5f 			; <UNDEFINED> instruction: 0x23205f5f
    61c4:	23207823 			; <UNDEFINED> instruction: 0x23207823
    61c8:	005f5f23 	subseq	r5, pc, r3, lsr #30
    61cc:	5f433249 	svcpl	0x00433249
    61d0:	5f315253 	svcpl	0x00315253
    61d4:	5f465442 	svcpl	0x00465442
    61d8:	206b734d 	rsbcs	r7, fp, sp, asr #6
    61dc:	31783028 	cmncc	r8, r8, lsr #32
    61e0:	3c204c55 	stccc	12, cr4, [r0], #-340	; 0xfffffeac
    61e4:	3249203c 	subcc	r2, r9, #60	; 0x3c
    61e8:	52535f43 	subspl	r5, r3, #268	; 0x10c
    61ec:	54425f31 	strbpl	r5, [r2], #-3889	; 0xfffff0cf
    61f0:	6f505f46 	svcvs	0x00505f46
    61f4:	5f002973 	svcpl	0x00002973
    61f8:	5459425f 	ldrbpl	r4, [r9], #-607	; 0xfffffda1
    61fc:	524f5f45 	subpl	r5, pc, #276	; 0x114
    6200:	5f524544 	svcpl	0x00524544
    6204:	5f5f205f 	svcpl	0x005f205f
    6208:	4544524f 	strbmi	r5, [r4, #-591]	; 0xfffffdb1
    620c:	494c5f52 	stmdbmi	ip, {r1, r4, r6, r8, r9, sl, fp, ip, lr}^
    6210:	454c5454 	strbmi	r5, [ip, #-1108]	; 0xfffffbac
    6214:	444e455f 	strbmi	r4, [lr], #-1375	; 0xfffffaa1
    6218:	5f4e4149 	svcpl	0x004e4149
    621c:	5f5f005f 	svcpl	0x005f005f
    6220:	33544c46 	cmpcc	r4, #17920	; 0x4600
    6224:	50455f32 	subpl	r5, r5, r2, lsr pc
    6228:	4f4c4953 	svcmi	0x004c4953
    622c:	205f5f4e 	subscs	r5, pc, lr, asr #30
    6230:	39312e31 	ldmdbcc	r1!, {r0, r4, r5, r9, sl, fp, sp}
    6234:	32393032 	eorscc	r3, r9, #50	; 0x32
    6238:	35353938 	ldrcc	r3, [r5, #-2360]!	; 0xfffff6c8
    623c:	31383730 	teqcc	r8, r0, lsr r7
    6240:	2d653532 	cfstr64cs	mvdx3, [r5, #-200]!	; 0xffffff38
    6244:	32334637 	eorscc	r4, r3, #57671680	; 0x3700000
    6248:	415f5f00 	cmpmi	pc, r0, lsl #30
    624c:	4e5f4d52 	mrcmi	13, 2, r4, cr15, cr2, {2}
    6250:	5f4e4f45 	svcpl	0x004e4f45
    6254:	5f005046 	svcpl	0x00005046
    6258:	48544f4e 	ldmdami	r4, {r1, r2, r3, r6, r8, r9, sl, fp, lr}^
    625c:	20574f52 	subscs	r4, r7, r2, asr pc
    6260:	4e415f00 	cdpmi	15, 4, cr5, cr1, cr0, {0}
    6264:	45444953 	strbmi	r4, [r4, #-2387]	; 0xfffff6ad
    6268:	485f4c43 	ldmdami	pc, {r0, r1, r6, sl, fp, lr}^	; <UNPREDICTABLE>
    626c:	4500205f 	strmi	r2, [r0, #-95]	; 0xffffffa1
    6270:	31495458 	cmpcc	r9, r8, asr r4
    6274:	52495f30 	subpl	r5, r9, #48, 30	; 0xc0
    6278:	30342051 	eorscc	r2, r4, r1, asr r0
    627c:	43324900 	teqmi	r2, #0, 18
    6280:	3152535f 	cmpcc	r2, pc, asr r3
    6284:	4f54535f 	svcmi	0x0054535f
    6288:	49204650 	stmdbmi	r0!, {r4, r6, r9, sl, lr}
    628c:	535f4332 	cmppl	pc, #-939524096	; 0xc8000000
    6290:	535f3152 	cmppl	pc, #-2147483628	; 0x80000014
    6294:	46504f54 	usaxmi	r4, r0, r4
    6298:	6b734d5f 	blvs	1cd981c <_Min_Stack_Size+0x1cd941c>
    629c:	4e495500 	cdpmi	5, 4, cr5, cr9, cr0, {0}
    62a0:	454c5f54 	strbmi	r5, [ip, #-3924]	; 0xfffff0ac
    62a4:	36545341 	ldrbcc	r5, [r4], -r1, asr #6
    62a8:	414d5f34 	cmpmi	sp, r4, lsr pc
    62ac:	5f282058 	svcpl	0x00282058
    62b0:	4e49555f 	mcrmi	5, 2, r5, cr9, cr15, {2}
    62b4:	454c5f54 	strbmi	r5, [ip, #-3924]	; 0xfffff0ac
    62b8:	36545341 	ldrbcc	r5, [r4], -r1, asr #6
    62bc:	414d5f34 	cmpmi	sp, r4, lsr pc
    62c0:	295f5f58 	ldmdbcs	pc, {r3, r4, r6, r8, r9, sl, fp, ip, lr}^	; <UNPREDICTABLE>
    62c4:	705f5f00 	subsvc	r5, pc, r0, lsl #30
    62c8:	745f7274 	ldrbvc	r7, [pc], #-628	; 62d0 <_Min_Stack_Size+0x5ed0>
    62cc:	696f7620 	stmdbvs	pc!, {r5, r9, sl, ip, sp, lr}^	; <UNPREDICTABLE>
    62d0:	002a2064 	eoreq	r2, sl, r4, rrx
    62d4:	49545845 	ldmdbmi	r4, {r0, r2, r6, fp, ip, lr}^
    62d8:	495f3431 	ldmdbmi	pc, {r0, r4, r5, sl, ip, sp}^	; <UNPREDICTABLE>
    62dc:	34205152 	strtcc	r5, [r0], #-338	; 0xfffffeae
    62e0:	525f0030 	subspl	r0, pc, #48	; 0x30
    62e4:	544e4545 	strbpl	r4, [lr], #-1349	; 0xfffffabb
    62e8:	494e495f 	stmdbmi	lr, {r0, r1, r2, r3, r4, r6, r8, fp, lr}^
    62ec:	54505f54 	ldrbpl	r5, [r0], #-3924	; 0xfffff0ac
    62f0:	455a5f52 	ldrbmi	r5, [sl, #-3922]	; 0xfffff0ae
    62f4:	44454f52 	strbmi	r4, [r5], #-3922	; 0xfffff0ae
    62f8:	72617628 	rsbvc	r7, r1, #40, 12	; 0x2800000
    62fc:	207b2029 	rsbscs	r2, fp, r9, lsr #32
    6300:	72617628 	rsbvc	r7, r1, #40, 12	; 0x2800000
    6304:	5f3e2d29 	svcpl	0x003e2d29
    6308:	69647473 	stmdbvs	r4!, {r0, r1, r4, r5, r6, sl, ip, sp, lr}^
    630c:	203d206e 	eorscs	r2, sp, lr, rrx
    6310:	735f5f26 	cmpvc	pc, #38, 30	; 0x98
    6314:	5d305b66 	vldmdbpl	r0!, {d5-<overflow reg d55>}
    6318:	7628203b 			; <UNDEFINED> instruction: 0x7628203b
    631c:	2d297261 	sfmcs	f7, 4, [r9, #-388]!	; 0xfffffe7c
    6320:	74735f3e 	ldrbtvc	r5, [r3], #-3902	; 0xfffff0c2
    6324:	74756f64 	ldrbtvc	r6, [r5], #-3940	; 0xfffff09c
    6328:	26203d20 	strtcs	r3, [r0], -r0, lsr #26
    632c:	66735f5f 	uhsaxvs	r5, r3, pc	; <UNPREDICTABLE>
    6330:	3b5d315b 	blcc	17528a4 <_Min_Stack_Size+0x17524a4>
    6334:	61762820 	cmnvs	r6, r0, lsr #16
    6338:	3e2d2972 			; <UNDEFINED> instruction: 0x3e2d2972
    633c:	6474735f 	ldrbtvs	r7, [r4], #-863	; 0xfffffca1
    6340:	20727265 	rsbscs	r7, r2, r5, ror #4
    6344:	5f26203d 	svcpl	0x0026203d
    6348:	5b66735f 	blpl	19a30cc <_Min_Stack_Size+0x19a2ccc>
    634c:	203b5d32 	eorscs	r5, fp, r2, lsr sp
    6350:	5f5f007d 	svcpl	0x005f007d
    6354:	41524655 	cmpmi	r2, r5, asr r6
    6358:	465f5443 	ldrbmi	r5, [pc], -r3, asr #8
    635c:	5f544942 	svcpl	0x00544942
    6360:	3631205f 			; <UNDEFINED> instruction: 0x3631205f
    6364:	555f5f00 	ldrbpl	r5, [pc, #-3840]	; 546c <_Min_Stack_Size+0x506c>
    6368:	465f5144 	ldrbmi	r5, [pc], -r4, asr #2
    636c:	5f544942 	svcpl	0x00544942
    6370:	3436205f 	ldrtcc	r2, [r6], #-95	; 0xffffffa1
    6374:	445f5f00 	ldrbmi	r5, [pc], #-3840	; 637c <_Min_Stack_Size+0x5f7c>
    6378:	4e5f4c42 	cdpmi	12, 5, cr4, cr15, cr2, {2}
    637c:	5f4d524f 	svcpl	0x004d524f
    6380:	5f58414d 	svcpl	0x0058414d
    6384:	2828205f 	stmdacs	r8!, {r0, r1, r2, r3, r4, r6, sp}
    6388:	62756f64 	rsbsvs	r6, r5, #100, 30	; 0x190
    638c:	3129656c 			; <UNDEFINED> instruction: 0x3129656c
    6390:	3739372e 	ldrcc	r3, [r9, -lr, lsr #14]!
    6394:	31333936 	teqcc	r3, r6, lsr r9
    6398:	36383433 			; <UNDEFINED> instruction: 0x36383433
    639c:	35313332 	ldrcc	r3, [r1, #-818]!	; 0xfffffcce
    63a0:	332b6537 			; <UNDEFINED> instruction: 0x332b6537
    63a4:	294c3830 	stmdbcs	ip, {r4, r5, fp, ip, sp}^
    63a8:	475f5f00 	ldrbmi	r5, [pc, -r0, lsl #30]
    63ac:	4c43554e 	cfstr64mi	mvdx5, [r3], {78}	; 0x4e
    63b0:	5f454b49 	svcpl	0x00454b49
    63b4:	4c495542 	cfstr64mi	mvdx5, [r9], {66}	; 0x42
    63b8:	5f4e4954 	svcpl	0x004e4954
    63bc:	434d454d 	movtmi	r4, #54605	; 0xd54d
    63c0:	31205950 			; <UNDEFINED> instruction: 0x31205950
    63c4:	465f5f00 	ldrbmi	r5, [pc], -r0, lsl #30
    63c8:	54414f4c 	strbpl	r4, [r1], #-3916	; 0xfffff0b4
    63cc:	5059545f 	subspl	r5, r9, pc, asr r4
    63d0:	6c662045 	stclvs	0, cr2, [r6], #-276	; 0xfffffeec
    63d4:	0074616f 	rsbseq	r6, r4, pc, ror #2
    63d8:	444c5f5f 	strbmi	r5, [ip], #-3935	; 0xfffff0a1
    63dc:	4d5f4c42 	ldclmi	12, cr4, [pc, #-264]	; 62dc <_Min_Stack_Size+0x5edc>
    63e0:	315f5841 	cmpcc	pc, r1, asr #16
    63e4:	58455f30 	stmdapl	r5, {r4, r5, r8, r9, sl, fp, ip, lr}^
    63e8:	205f5f50 	subscs	r5, pc, r0, asr pc	; <UNPREDICTABLE>
    63ec:	00383033 	eorseq	r3, r8, r3, lsr r0
    63f0:	52415f5f 	subpl	r5, r1, #380	; 0x17c
    63f4:	45465f4d 	strbmi	r5, [r6, #-3917]	; 0xfffff0b3
    63f8:	52555441 	subspl	r5, r5, #1090519040	; 0x41000000
    63fc:	4f435f45 	svcmi	0x00435f45
    6400:	434f5250 	movtmi	r5, #62032	; 0xf250
    6404:	00353120 	eorseq	r3, r5, r0, lsr #2
    6408:	4349564e 	movtmi	r5, #38478	; 0x964e
    640c:	5152495f 	cmppl	r2, pc, asr r9
    6410:	555f3833 	ldrbpl	r3, [pc, #-2099]	; 5be5 <_Min_Stack_Size+0x57e5>
    6414:	54524153 	ldrbpl	r4, [r2], #-339	; 0xfffffead
    6418:	69445f32 	stmdbvs	r4, {r1, r4, r5, r8, r9, sl, fp, ip, lr}^
    641c:	6c626173 	stfvse	f6, [r2], #-460	; 0xfffffe34
    6420:	4e282065 	cdpmi	0, 2, cr2, cr8, cr5, {3}
    6424:	5f434956 	svcpl	0x00434956
    6428:	52454349 	subpl	r4, r5, #603979777	; 0x24000001
    642c:	3d7c2031 	ldclcc	0, cr2, [ip, #-196]!	; 0xffffff3c
    6430:	3c3c3120 	ldfccs	f3, [ip], #-128	; 0xffffff80
    6434:	53552028 	cmppl	r5, #40	; 0x28
    6438:	32545241 	subscc	r5, r4, #268435460	; 0x10000004
    643c:	5152495f 	cmppl	r2, pc, asr r9
    6440:	3233202d 	eorscc	r2, r3, #45	; 0x2d
    6444:	00292920 	eoreq	r2, r9, r0, lsr #18
    6448:	4545525f 	strbmi	r5, [r5, #-607]	; 0xfffffda1
    644c:	4d5f544e 	cfldrdmi	mvd5, [pc, #-312]	; 631c <_Min_Stack_Size+0x5f1c>
    6450:	454c5242 	strbmi	r5, [ip, #-578]	; 0xfffffdbe
    6454:	54535f4e 	ldrbpl	r5, [r3], #-3918	; 0xfffff0b2
    6458:	28455441 	stmdacs	r5, {r0, r6, sl, ip, lr}^
    645c:	29727470 	ldmdbcs	r2!, {r4, r5, r6, sl, ip, sp, lr}^
    6460:	70282820 	eorvc	r2, r8, r0, lsr #16
    6464:	2d297274 	sfmcs	f7, 4, [r9, #-464]!	; 0xfffffe30
    6468:	696d5f3e 	stmdbvs	sp!, {r1, r2, r3, r4, r5, r8, r9, sl, fp, ip, lr}^
    646c:	3e2d6373 	mcrcc	3, 1, r6, cr13, cr3, {3}
    6470:	72626d5f 	rsbvc	r6, r2, #6080	; 0x17c0
    6474:	5f6e656c 	svcpl	0x006e656c
    6478:	74617473 	strbtvc	r7, [r1], #-1139	; 0xfffffb8d
    647c:	5f002965 	svcpl	0x00002965
    6480:	4c42445f 	cfstrdmi	mvd4, [r2], {95}	; 0x5f
    6484:	4e45445f 	mcrmi	4, 2, r4, cr5, cr15, {2}
    6488:	5f4d524f 	svcpl	0x004d524f
    648c:	5f4e494d 	svcpl	0x004e494d
    6490:	2828205f 	stmdacs	r8!, {r0, r1, r2, r3, r4, r6, sp}
    6494:	62756f64 	rsbsvs	r6, r5, #100, 30	; 0x190
    6498:	3429656c 	strtcc	r6, [r9], #-1388	; 0xfffffa94
    649c:	3034392e 	eorscc	r3, r4, lr, lsr #18
    64a0:	34363536 	ldrtcc	r3, [r6], #-1334	; 0xfffffaca
    64a4:	31343835 	teqcc	r4, r5, lsr r8
    64a8:	35363432 	ldrcc	r3, [r6, #-1074]!	; 0xfffffbce
    64ac:	332d6534 			; <UNDEFINED> instruction: 0x332d6534
    64b0:	294c3432 	stmdbcs	ip, {r1, r4, r5, sl, ip, sp}^
    64b4:	43324900 	teqmi	r2, #0, 18
    64b8:	3252535f 	subscc	r5, r2, #2080374785	; 0x7c000001
    64bc:	424d535f 	submi	r5, sp, #2080374785	; 0x7c000001
    64c0:	54534f48 	ldrbpl	r4, [r3], #-3912	; 0xfffff0b8
    64c4:	43324920 	teqmi	r2, #32, 18	; 0x80000
    64c8:	3252535f 	subscc	r5, r2, #2080374785	; 0x7c000001
    64cc:	424d535f 	submi	r5, sp, #2080374785	; 0x7c000001
    64d0:	54534f48 	ldrbpl	r4, [r3], #-3912	; 0xfffff0b8
    64d4:	6b734d5f 	blvs	1cd9a58 <_Min_Stack_Size+0x1cd9658>
    64d8:	4c475f00 	mcrrmi	15, 0, r5, r7, cr0
    64dc:	4c41424f 	sfmmi	f4, 2, [r1], {79}	; 0x4f
    64e0:	4545525f 	strbmi	r5, [r5, #-607]	; 0xfffffda1
    64e4:	2820544e 	stmdacs	r0!, {r1, r2, r3, r6, sl, ip, lr}
    64e8:	6d695f26 	stclvs	15, cr5, [r9, #-152]!	; 0xffffff68
    64ec:	65727570 	ldrbvs	r7, [r2, #-1392]!	; 0xfffffa90
    64f0:	7461645f 	strbtvc	r6, [r1], #-1119	; 0xfffffba1
    64f4:	5f002961 	svcpl	0x00002961
    64f8:	544e495f 	strbpl	r4, [lr], #-2399	; 0xfffff6a1
    64fc:	5341465f 	movtpl	r4, #5727	; 0x165f
    6500:	5f323354 	svcpl	0x00323354
    6504:	45505954 	ldrbmi	r5, [r0, #-2388]	; 0xfffff6ac
    6508:	69205f5f 	stmdbvs	r0!, {r0, r1, r2, r3, r4, r6, r8, r9, sl, fp, ip, lr}
    650c:	5f00746e 	svcpl	0x0000746e
    6510:	544e4955 	strbpl	r4, [lr], #-2389	; 0xfffff6ab
    6514:	545f3436 	ldrbpl	r3, [pc], #-1078	; 651c <_Min_Stack_Size+0x611c>
    6518:	4345445f 	movtmi	r4, #21599	; 0x545f
    651c:	4552414c 	ldrbmi	r4, [r2, #-332]	; 0xfffffeb4
    6520:	55002044 	strpl	r2, [r0, #-68]	; 0xffffffbc
    6524:	36544e49 	ldrbcc	r4, [r4], -r9, asr #28
    6528:	414d5f34 	cmpmi	sp, r4, lsr pc
    652c:	5f282058 	svcpl	0x00282058
    6530:	4e49555f 	mcrmi	5, 2, r5, cr9, cr15, {2}
    6534:	5f343654 	svcpl	0x00343654
    6538:	5f58414d 	svcpl	0x0058414d
    653c:	4500295f 	strmi	r2, [r0, #-2399]	; 0xfffff6a1
    6540:	36495458 			; <UNDEFINED> instruction: 0x36495458
    6544:	49003620 	stmdbmi	r0, {r5, r9, sl, ip, sp}
    6548:	435f4332 	cmpmi	pc, #-939524096	; 0xc8000000
    654c:	445f3252 	ldrbmi	r3, [pc], #-594	; 6554 <_Min_Stack_Size+0x6154>
    6550:	4e45414d 	dvfmism	f4, f5, #5.0
    6554:	6b734d5f 	blvs	1cd9ad8 <_Min_Stack_Size+0x1cd96d8>
    6558:	78302820 	ldmdavc	r0!, {r5, fp, sp}
    655c:	204c5531 	subcs	r5, ip, r1, lsr r5
    6560:	49203c3c 	stmdbmi	r0!, {r2, r3, r4, r5, sl, fp, ip, sp}
    6564:	435f4332 	cmpmi	pc, #-939524096	; 0xc8000000
    6568:	445f3252 	ldrbmi	r3, [pc], #-594	; 6570 <_Min_Stack_Size+0x6170>
    656c:	4e45414d 	dvfmism	f4, f5, #5.0
    6570:	736f505f 	cmnvc	pc, #95	; 0x5f
    6574:	5f5f0029 	svcpl	0x005f0029
    6578:	52545441 	subspl	r5, r4, #1090519040	; 0x41000000
    657c:	54554249 	ldrbpl	r4, [r5], #-585	; 0xfffffdb7
    6580:	4d495f45 	stclmi	15, cr5, [r9, #-276]	; 0xfffffeec
    6584:	45525550 	ldrbmi	r5, [r2, #-1360]	; 0xfffffab0
    6588:	5441445f 	strbpl	r4, [r1], #-1119	; 0xfffffba1
    658c:	205f5f41 	subscs	r5, pc, r1, asr #30
    6590:	4e5f5f00 	cdpmi	15, 5, cr5, cr15, cr0, {0}
    6594:	494c5745 	stmdbmi	ip, {r0, r2, r6, r8, r9, sl, ip, lr}^
    6598:	494d5f42 	stmdbmi	sp, {r1, r6, r8, r9, sl, fp, ip, lr}^
    659c:	5f524f4e 	svcpl	0x00524f4e
    65a0:	0032205f 	eorseq	r2, r2, pc, asr r0
    65a4:	49545845 	ldmdbmi	r4, {r0, r2, r6, fp, ip, lr}^
    65a8:	52495f35 	subpl	r5, r9, #53, 30	; 0xd4
    65ac:	33322051 	teqcc	r2, #81	; 0x51
    65b0:	465f5f00 	ldrbmi	r5, [pc], -r0, lsl #30
    65b4:	4d5f544c 	cfldrdmi	mvd5, [pc, #-304]	; 648c <_Min_Stack_Size+0x608c>
    65b8:	455f4e49 	ldrbmi	r4, [pc, #-3657]	; 5777 <_Min_Stack_Size+0x5377>
    65bc:	5f5f5058 	svcpl	0x005f5058
    65c0:	312d2820 			; <UNDEFINED> instruction: 0x312d2820
    65c4:	00293532 	eoreq	r3, r9, r2, lsr r5
    65c8:	4c465f5f 	mcrrmi	15, 5, r5, r6, cr15
    65cc:	5f343654 	svcpl	0x00343654
    65d0:	5f534148 	svcpl	0x00534148
    65d4:	45495551 	strbmi	r5, [r9, #-1361]	; 0xfffffaaf
    65d8:	414e5f54 	cmpmi	lr, r4, asr pc
    65dc:	205f5f4e 	subscs	r5, pc, lr, asr #30
    65e0:	49550031 	ldmdbmi	r5, {r0, r4, r5}^
    65e4:	3233544e 	eorscc	r5, r3, #1308622848	; 0x4e000000
    65e8:	7828435f 	stmdavc	r8!, {r0, r1, r2, r3, r4, r6, r8, r9, lr}
    65ec:	5f5f2029 	svcpl	0x005f2029
    65f0:	544e4955 	strbpl	r4, [lr], #-2389	; 0xfffff6ab
    65f4:	435f3233 	cmpmi	pc, #805306371	; 0x30000003
    65f8:	00297828 	eoreq	r7, r9, r8, lsr #16
    65fc:	4c555f5f 	mrrcmi	15, 5, r5, r5, cr15	; <UNPREDICTABLE>
    6600:	4343414c 	movtmi	r4, #12620	; 0x314c
    6604:	4d5f4d55 	ldclmi	13, cr4, [pc, #-340]	; 64b8 <_Min_Stack_Size+0x60b8>
    6608:	5f5f5841 	svcpl	0x005f5841
    660c:	46583020 	ldrbmi	r3, [r8], -r0, lsr #32
    6610:	46464646 	strbmi	r4, [r6], -r6, asr #12
    6614:	46464646 	strbmi	r4, [r6], -r6, asr #12
    6618:	46464646 	strbmi	r4, [r6], -r6, asr #12
    661c:	50464646 	subpl	r4, r6, r6, asr #12
    6620:	5532332d 	ldrpl	r3, [r2, #-813]!	; 0xfffffcd3
    6624:	004b4c4c 	subeq	r4, fp, ip, asr #24
    6628:	53555f5f 	cmppl	r5, #380	; 0x17c
    662c:	55434341 	strbpl	r4, [r3, #-833]	; 0xfffffcbf
    6630:	42495f4d 	submi	r5, r9, #308	; 0x134
    6634:	5f5f5449 	svcpl	0x005f5449
    6638:	5f003820 	svcpl	0x00003820
    663c:	5858475f 	ldmdapl	r8, {r0, r1, r2, r3, r4, r6, r8, r9, sl, lr}^
    6640:	5059545f 	subspl	r5, r9, pc, asr r4
    6644:	464e4945 	strbmi	r4, [lr], -r5, asr #18
    6648:	51455f4f 	cmppl	r5, pc, asr #30
    664c:	494c4155 	stmdbmi	ip, {r0, r2, r4, r6, r8, lr}^
    6650:	495f5954 	ldmdbmi	pc, {r2, r4, r6, r8, fp, ip, lr}^	; <UNPREDICTABLE>
    6654:	4e494c4e 	cdpmi	12, 4, cr4, cr9, cr14, {2}
    6658:	00302045 	eorseq	r2, r0, r5, asr #32
    665c:	5f433249 	svcpl	0x00433249
    6660:	5f325243 	svcpl	0x00325243
    6664:	56455449 	strbpl	r5, [r5], -r9, asr #8
    6668:	204e4554 	subcs	r4, lr, r4, asr r5
    666c:	5f433249 	svcpl	0x00433249
    6670:	5f325243 	svcpl	0x00325243
    6674:	56455449 	strbpl	r5, [r5], -r9, asr #8
    6678:	5f4e4554 	svcpl	0x004e4554
    667c:	006b734d 	rsbeq	r7, fp, sp, asr #6
    6680:	5f544e49 	svcpl	0x00544e49
    6684:	54534146 	ldrbpl	r4, [r3], #-326	; 0xfffffeba
    6688:	494d5f38 	stmdbmi	sp, {r3, r4, r5, r8, r9, sl, fp, ip, lr}^
    668c:	2d28204e 	stccs	0, cr2, [r8, #-312]!	; 0xfffffec8
    6690:	4e495f5f 	mcrmi	15, 2, r5, cr9, cr15, {2}
    6694:	41465f54 	cmpmi	r6, r4, asr pc
    6698:	5f385453 	svcpl	0x00385453
    669c:	5f58414d 	svcpl	0x0058414d
    66a0:	202d205f 	eorcs	r2, sp, pc, asr r0
    66a4:	5f002931 	svcpl	0x00002931
    66a8:	6572705f 	ldrbvs	r7, [r2, #-95]!	; 0xffffffa1
    66ac:	74636964 	strbtvc	r6, [r3], #-2404	; 0xfffff69c
    66b0:	6c61665f 	stclvs	6, cr6, [r1], #-380	; 0xfffffe84
    66b4:	65286573 	strvs	r6, [r8, #-1395]!	; 0xfffffa8d
    66b8:	20297078 	eorcs	r7, r9, r8, ror r0
    66bc:	75625f5f 	strbvc	r5, [r2, #-3935]!	; 0xfffff0a1
    66c0:	69746c69 	ldmdbvs	r4!, {r0, r3, r5, r6, sl, fp, sp, lr}^
    66c4:	78655f6e 	stmdavc	r5!, {r1, r2, r3, r5, r6, r8, r9, sl, fp, ip, lr}^
    66c8:	74636570 	strbtvc	r6, [r3], #-1392	; 0xfffffa90
    66cc:	78652828 	stmdavc	r5!, {r3, r5, fp, sp}^
    66d0:	202c2970 	eorcs	r2, ip, r0, ror r9
    66d4:	5f002930 	svcpl	0x00002930
    66d8:	544c465f 	strbpl	r4, [ip], #-1631	; 0xfffff9a1
    66dc:	485f3436 	ldmdami	pc, {r1, r2, r4, r5, sl, ip, sp}^	; <UNPREDICTABLE>
    66e0:	445f5341 	ldrbmi	r5, [pc], #-833	; 66e8 <_Min_Stack_Size+0x62e8>
    66e4:	524f4e45 	subpl	r4, pc, #1104	; 0x450
    66e8:	205f5f4d 	subscs	r5, pc, sp, asr #30
    66ec:	5f5f0031 	svcpl	0x005f0031
    66f0:	5f544c46 	svcpl	0x00544c46
    66f4:	5f474944 	svcpl	0x00474944
    66f8:	0036205f 	eorseq	r2, r6, pc, asr r0
    66fc:	41555f5f 	cmpmi	r5, pc, asr pc
    6700:	4d554343 	ldclmi	3, cr4, [r5, #-268]	; 0xfffffef4
    6704:	5350455f 	cmppl	r0, #398458880	; 0x17c00000
    6708:	4e4f4c49 	cdpmi	12, 4, cr4, cr15, cr9, {2}
    670c:	30205f5f 	eorcc	r5, r0, pc, asr pc
    6710:	2d503178 	ldfcse	f3, [r0, #-480]	; 0xfffffe20
    6714:	4b553631 	blmi	1553fe0 <_Min_Stack_Size+0x1553be0>
    6718:	43575f00 	cmpmi	r7, #0, 30
    671c:	5f524148 	svcpl	0x00524148
    6720:	45445f54 	strbmi	r5, [r4, #-3924]	; 0xfffff0ac
    6724:	52414c43 	subpl	r4, r1, #17152	; 0x4300
    6728:	00204445 	eoreq	r4, r0, r5, asr #8
    672c:	5f544e49 	svcpl	0x00544e49
    6730:	54534146 	ldrbpl	r4, [r3], #-326	; 0xfffffeba
    6734:	4d5f3631 	ldclmi	6, cr3, [pc, #-196]	; 6678 <_Min_Stack_Size+0x6278>
    6738:	28205841 	stmdacs	r0!, {r0, r6, fp, ip, lr}
    673c:	4e495f5f 	mcrmi	15, 2, r5, cr9, cr15, {2}
    6740:	41465f54 	cmpmi	r6, r4, asr pc
    6744:	36315453 			; <UNDEFINED> instruction: 0x36315453
    6748:	58414d5f 	stmdapl	r1, {r0, r1, r2, r3, r4, r6, r8, sl, fp, lr}^
    674c:	00295f5f 	eoreq	r5, r9, pc, asr pc
    6750:	4349564e 	movtmi	r5, #38478	; 0x964e
    6754:	5152495f 	cmppl	r2, pc, asr r9
    6758:	58455f39 	stmdapl	r5, {r0, r3, r4, r5, r8, r9, sl, fp, ip, lr}^
    675c:	5f334954 	svcpl	0x00334954
    6760:	62616e45 	rsbvs	r6, r1, #1104	; 0x450
    6764:	2820656c 	stmdacs	r0!, {r2, r3, r5, r6, r8, sl, sp, lr}
    6768:	4349564e 	movtmi	r5, #38478	; 0x964e
    676c:	4553495f 	ldrbmi	r4, [r3, #-2399]	; 0xfffff6a1
    6770:	7c203052 	stcvc	0, cr3, [r0], #-328	; 0xfffffeb8
    6774:	3c31203d 	ldccc	0, cr2, [r1], #-244	; 0xffffff0c
    6778:	0029393c 	eoreq	r3, r9, ip, lsr r9
    677c:	5359535f 	cmppl	r9, #2080374785	; 0x7c000001
    6780:	4545525f 	strbmi	r5, [r5, #-607]	; 0xfffffda1
    6784:	485f544e 	ldmdami	pc, {r1, r2, r3, r6, sl, ip, lr}^	; <UNPREDICTABLE>
    6788:	5f00205f 	svcpl	0x0000205f
    678c:	544c465f 	strbpl	r4, [ip], #-1631	; 0xfffff9a1
    6790:	4156455f 	cmpmi	r6, pc, asr r5
    6794:	454d5f4c 	strbmi	r5, [sp, #-3916]	; 0xfffff0b4
    6798:	444f4854 	strbmi	r4, [pc], #-2132	; 67a0 <_Min_Stack_Size+0x63a0>
    679c:	30205f5f 	eorcc	r5, r0, pc, asr pc
    67a0:	695f5f00 	ldmdbvs	pc, {r8, r9, sl, fp, ip, lr}^	; <UNPREDICTABLE>
    67a4:	665f746e 	ldrbvs	r7, [pc], -lr, ror #8
    67a8:	31747361 	cmncc	r4, r1, ror #6
    67ac:	5f745f36 	svcpl	0x00745f36
    67b0:	69666564 	stmdbvs	r6!, {r2, r5, r6, r8, sl, sp, lr}^
    67b4:	2064656e 	rsbcs	r6, r4, lr, ror #10
    67b8:	58450031 	stmdapl	r5, {r0, r4, r5}^
    67bc:	33314954 	teqcc	r1, #84, 18	; 0x150000
    67c0:	33314450 	teqcc	r1, #80, 8	; 0x50000000
    67c4:	58452820 	stmdapl	r5, {r5, fp, sp}^
    67c8:	475f4954 			; <UNDEFINED> instruction: 0x475f4954
    67cc:	5f4f4950 	svcpl	0x004f4950
    67d0:	7070614d 	rsbsvc	r6, r0, sp, asr #2
    67d4:	5f676e69 	svcpl	0x00676e69
    67d8:	457b2974 	ldrbmi	r2, [fp, #-2420]!	; 0xfffff68c
    67dc:	31495458 	cmpcc	r9, r8, asr r4
    67e0:	202c2033 	eorcs	r2, ip, r3, lsr r0
    67e4:	4f495047 	svcmi	0x00495047
    67e8:	202c2044 	eorcs	r2, ip, r4, asr #32
    67ec:	4f495047 	svcmi	0x00495047
    67f0:	4e49505f 	mcrmi	0, 2, r5, cr9, cr15, {2}
    67f4:	2033315f 	eorscs	r3, r3, pc, asr r1
    67f8:	5845202c 	stmdapl	r5, {r2, r3, r5, sp}^
    67fc:	33314954 	teqcc	r1, #84, 18	; 0x150000
    6800:	5152495f 	cmppl	r2, pc, asr r9
    6804:	5f5f007d 	svcpl	0x005f007d
    6808:	41484353 	cmpmi	r8, r3, asr r3
    680c:	414d5f52 	cmpmi	sp, r2, asr pc
    6810:	205f5f58 	subscs	r5, pc, r8, asr pc	; <UNPREDICTABLE>
    6814:	66377830 			; <UNDEFINED> instruction: 0x66377830
    6818:	495f5f00 	ldmdbmi	pc, {r8, r9, sl, fp, ip, lr}^	; <UNPREDICTABLE>
    681c:	465f544e 	ldrbmi	r5, [pc], -lr, asr #8
    6820:	38545341 	ldmdacc	r4, {r0, r6, r8, r9, ip, lr}^
    6824:	4449575f 	strbmi	r5, [r9], #-1887	; 0xfffff8a1
    6828:	5f5f4854 	svcpl	0x005f4854
    682c:	00323320 	eorseq	r3, r2, r0, lsr #6
    6830:	54535f5f 	ldrbpl	r5, [r3], #-3935	; 0xfffff0a1
    6834:	555f4344 	ldrbpl	r4, [pc, #-836]	; 64f8 <_Min_Stack_Size+0x60f8>
    6838:	315f4654 	cmpcc	pc, r4, asr r6	; <UNPREDICTABLE>
    683c:	205f5f36 	subscs	r5, pc, r6, lsr pc	; <UNPREDICTABLE>
    6840:	525f0031 	subspl	r0, pc, #49	; 0x31
    6844:	34444e41 	strbcc	r4, [r4], #-3649	; 0xfffff1bf
    6848:	554d5f38 	strbpl	r5, [sp, #-3896]	; 0xfffff0c8
    684c:	325f544c 	subscc	r5, pc, #76, 8	; 0x4c000000
    6850:	78302820 	ldmdavc	r0!, {r5, fp, sp}
    6854:	35303030 	ldrcc	r3, [r0, #-48]!	; 0xffffffd0
    6858:	5f5f0029 	svcpl	0x005f0029
    685c:	5f4d5241 	svcpl	0x004d5241
    6860:	54414546 	strbpl	r4, [r1], #-1350	; 0xfffffaba
    6864:	5f455255 	svcpl	0x00455255
    6868:	4552444c 	ldrbmi	r4, [r2, #-1100]	; 0xfffffbb4
    686c:	525f0058 	subspl	r0, pc, #88	; 0x58
    6870:	544e4545 	strbpl	r4, [lr], #-1349	; 0xfffffabb
    6874:	4548435f 	strbmi	r4, [r8, #-863]	; 0xfffffca1
    6878:	4d5f4b43 	vldrmi	d20, [pc, #-268]	; 6774 <_Min_Stack_Size+0x6374>
    687c:	28435349 	stmdacs	r3, {r0, r3, r6, r8, r9, ip, lr}^
    6880:	29726176 	ldmdbcs	r2!, {r1, r2, r4, r5, r6, r8, sp, lr}^
    6884:	45525f20 	ldrbmi	r5, [r2, #-3872]	; 0xfffff0e0
    6888:	5f544e45 	svcpl	0x00544e45
    688c:	43454843 	movtmi	r4, #22595	; 0x5843
    6890:	6176284b 	cmnvs	r6, fp, asr #16
    6894:	5f202c72 	svcpl	0x00202c72
    6898:	6373696d 	cmnvs	r3, #1785856	; 0x1b4000
    689c:	7473202c 	ldrbtvc	r2, [r3], #-44	; 0xffffffd4
    68a0:	74637572 	strbtvc	r7, [r3], #-1394	; 0xfffffa8e
    68a4:	696d5f20 	stmdbvs	sp!, {r5, r8, r9, sl, fp, ip, lr}^
    68a8:	725f6373 	subsvc	r6, pc, #-872415231	; 0xcc000001
    68ac:	746e6565 	strbtvc	r6, [lr], #-1381	; 0xfffffa9b
    68b0:	202c2a20 	eorcs	r2, ip, r0, lsr #20
    68b4:	657a6973 	ldrbvs	r6, [sl, #-2419]!	; 0xfffff68d
    68b8:	2a20666f 	bcs	82027c <_Min_Stack_Size+0x81fe7c>
    68bc:	61762828 	cmnvs	r6, r8, lsr #16
    68c0:	3e2d2972 			; <UNDEFINED> instruction: 0x3e2d2972
    68c4:	73696d5f 	cmnvc	r9, #6080	; 0x17c0
    68c8:	202c2963 	eorcs	r2, ip, r3, ror #18
    68cc:	4545525f 	strbmi	r5, [r5, #-607]	; 0xfffffda1
    68d0:	495f544e 	ldmdbmi	pc, {r1, r2, r3, r6, sl, ip, lr}^	; <UNPREDICTABLE>
    68d4:	5f54494e 	svcpl	0x0054494e
    68d8:	4353494d 	cmpmi	r3, #1261568	; 0x134000
    68dc:	72617628 	rsbvc	r7, r1, #40, 12	; 0x2800000
    68e0:	5f002929 	svcpl	0x00002929
    68e4:	54505f54 	ldrbpl	r5, [r0], #-3924	; 0xfffff0ac
    68e8:	46494452 			; <UNDEFINED> instruction: 0x46494452
    68ec:	47002046 	strmi	r2, [r0, -r6, asr #32]
    68f0:	5f4f4950 	svcpl	0x004f4950
    68f4:	45444f4d 	strbmi	r4, [r4, #-3917]	; 0xfffff0b3
    68f8:	504e495f 	subpl	r4, lr, pc, asr r9
    68fc:	505f5455 	subspl	r5, pc, r5, asr r4	; <UNPREDICTABLE>
    6900:	78302055 	ldmdavc	r0!, {r0, r2, r4, r6, sp}
    6904:	30303030 	eorscc	r3, r0, r0, lsr r0
    6908:	32303030 	eorscc	r3, r0, #48	; 0x30
    690c:	32490075 	subcc	r0, r9, #117	; 0x75
    6910:	52435f43 	subpl	r5, r3, #268	; 0x10c
    6914:	4d535f31 	ldclmi	15, cr5, [r3, #-196]	; 0xffffff3c
    6918:	5f535542 	svcpl	0x00535542
    691c:	206b734d 	rsbcs	r7, fp, sp, asr #6
    6920:	31783028 	cmncc	r8, r8, lsr #32
    6924:	3c204c55 	stccc	12, cr4, [r0], #-340	; 0xfffffeac
    6928:	3249203c 	subcc	r2, r9, #60	; 0x3c
    692c:	52435f43 	subpl	r5, r3, #268	; 0x10c
    6930:	4d535f31 	ldclmi	15, cr5, [r3, #-196]	; 0xffffff3c
    6934:	5f535542 	svcpl	0x00535542
    6938:	29736f50 	ldmdbcs	r3!, {r4, r6, r8, r9, sl, fp, sp, lr}^
    693c:	415f5f00 	cmpmi	pc, r0, lsl #30
    6940:	465f4d52 			; <UNDEFINED> instruction: 0x465f4d52
    6944:	5f363150 	svcpl	0x00363150
    6948:	53475241 	movtpl	r5, #29249	; 0x7241
    694c:	475f5f00 	ldrbmi	r5, [pc, -r0, lsl #30]
    6950:	495f4343 	ldmdbmi	pc, {r0, r1, r6, r8, r9, lr}^	; <UNPREDICTABLE>
    6954:	355f4345 	ldrbcc	r4, [pc, #-837]	; 6617 <_Min_Stack_Size+0x6217>
    6958:	30203935 	eorcc	r3, r0, r5, lsr r9
    695c:	6e5f5f00 	cdpvs	15, 5, cr5, cr15, cr0, {0}
    6960:	5f6c6c75 	svcpl	0x006c6c75
    6964:	746e6573 	strbtvc	r6, [lr], #-1395	; 0xfffffa8d
    6968:	6c656e69 	stclvs	14, cr6, [r5], #-420	; 0xfffffe5c
    696c:	615f5f20 	cmpvs	pc, r0, lsr #30
    6970:	69727474 	ldmdbvs	r2!, {r2, r4, r5, r6, sl, ip, sp, lr}^
    6974:	65747562 	ldrbvs	r7, [r4, #-1378]!	; 0xfffffa9e
    6978:	28285f5f 	stmdacs	r8!, {r0, r1, r2, r3, r4, r6, r8, r9, sl, fp, ip, lr}
    697c:	65735f5f 	ldrbvs	r5, [r3, #-3935]!	; 0xfffff0a1
    6980:	6e69746e 	cdpvs	4, 6, cr7, cr9, cr14, {3}
    6984:	5f5f6c65 	svcpl	0x005f6c65
    6988:	5f002929 	svcpl	0x00002929
    698c:	7165725f 	cmnvc	r5, pc, asr r2
    6990:	65726975 	ldrbvs	r6, [r2, #-2421]!	; 0xfffff68b
    6994:	6e755f73 	mrcvs	15, 3, r5, cr5, cr3, {3}
    6998:	6b636f6c 	blvs	18e2750 <_Min_Stack_Size+0x18e2350>
    699c:	2e286465 	cdpcs	4, 2, cr6, cr8, cr5, {3}
    69a0:	20292e2e 	eorcs	r2, r9, lr, lsr #28
    69a4:	6f6c5f5f 	svcvs	0x006c5f5f
    69a8:	615f6b63 	cmpvs	pc, r3, ror #22
    69ac:	746f6e6e 	strbtvc	r6, [pc], #-3694	; 69b4 <_Min_Stack_Size+0x65b4>
    69b0:	28657461 	stmdacs	r5!, {r0, r5, r6, sl, ip, sp, lr}^
    69b4:	6b636f6c 	blvs	18e276c <_Min_Stack_Size+0x18e236c>
    69b8:	78655f73 	stmdavc	r5!, {r0, r1, r4, r5, r6, r8, r9, sl, fp, ip, lr}^
    69bc:	64756c63 	ldrbtvs	r6, [r5], #-3171	; 0xfffff39d
    69c0:	5f286465 	svcpl	0x00286465
    69c4:	5f41565f 	svcpl	0x0041565f
    69c8:	53475241 	movtpl	r5, #29249	; 0x7241
    69cc:	29295f5f 	stmdbcs	r9!, {r0, r1, r2, r3, r4, r6, r8, r9, sl, fp, ip, lr}
    69d0:	61686300 	cmnvs	r8, r0, lsl #6
    69d4:	302b2072 	eorcc	r2, fp, r2, ror r0
    69d8:	6c6c6100 	stfvse	f6, [ip], #-0
    69dc:	0061636f 	rsbeq	r6, r1, pc, ror #6
    69e0:	464c5f5f 			; <UNDEFINED> instruction: 0x464c5f5f
    69e4:	54434152 	strbpl	r4, [r3], #-338	; 0xfffffeae
    69e8:	58414d5f 	stmdapl	r1, {r0, r1, r2, r3, r4, r6, r8, sl, fp, lr}^
    69ec:	30205f5f 	eorcc	r5, r0, pc, asr pc
    69f0:	46463758 			; <UNDEFINED> instruction: 0x46463758
    69f4:	46464646 	strbmi	r4, [r6], -r6, asr #12
    69f8:	332d5046 			; <UNDEFINED> instruction: 0x332d5046
    69fc:	00524c31 	subseq	r4, r2, r1, lsr ip
    6a00:	49535f5f 	ldmdbmi	r3, {r0, r1, r2, r3, r4, r6, r8, r9, sl, fp, ip, lr}^
    6a04:	464f455a 			; <UNDEFINED> instruction: 0x464f455a
    6a08:	5254505f 	subspl	r5, r4, #95	; 0x5f
    6a0c:	46464944 	strbmi	r4, [r6], -r4, asr #18
    6a10:	5f5f545f 	svcpl	0x005f545f
    6a14:	45003420 	strmi	r3, [r0, #-1056]	; 0xfffffbe0
    6a18:	31495458 	cmpcc	r9, r8, asr r4
    6a1c:	31312031 	teqcc	r1, r1, lsr r0
    6a20:	575f5f00 	ldrbpl	r5, [pc, -r0, lsl #30]
    6a24:	52414843 	subpl	r4, r1, #4390912	; 0x430000
    6a28:	5f5f545f 	svcpl	0x005f545f
    6a2c:	32490020 	subcc	r0, r9, #32
    6a30:	52535f43 	subspl	r5, r3, #268	; 0x10c
    6a34:	45505f31 	ldrbmi	r5, [r0, #-3889]	; 0xfffff0cf
    6a38:	52524543 	subspl	r4, r2, #281018368	; 0x10c00000
    6a3c:	43324920 	teqmi	r2, #32, 18	; 0x80000
    6a40:	3152535f 	cmpcc	r2, pc, asr r3
    6a44:	4345505f 	movtmi	r5, #20575	; 0x505f
    6a48:	5f525245 	svcpl	0x00525245
    6a4c:	006b734d 	rsbeq	r7, fp, sp, asr #6
    6a50:	695f5f5f 	ldmdbvs	pc, {r0, r1, r2, r3, r4, r6, r8, r9, sl, fp, ip, lr}^	; <UNPREDICTABLE>
    6a54:	6c5f746e 	cfldrdvs	mvd7, [pc], {110}	; 0x6e
    6a58:	74736165 	ldrbtvc	r6, [r3], #-357	; 0xfffffe9b
    6a5c:	5f745f38 	svcpl	0x00745f38
    6a60:	69666564 	stmdbvs	r6!, {r2, r5, r6, r8, sl, sp, lr}^
    6a64:	2064656e 	rsbcs	r6, r4, lr, ror #10
    6a68:	5f5f0031 	svcpl	0x005f0031
    6a6c:	5f4d5241 	svcpl	0x004d5241
    6a70:	54414546 	strbpl	r4, [r1], #-1350	; 0xfffffaba
    6a74:	5f455255 	svcpl	0x00455255
    6a78:	56494449 	strbpl	r4, [r9], -r9, asr #8
    6a7c:	5f003120 	svcpl	0x00003120
    6a80:	4f4c465f 	svcmi	0x004c465f
    6a84:	575f5441 	ldrbpl	r5, [pc, -r1, asr #8]
    6a88:	5f44524f 	svcpl	0x0044524f
    6a8c:	4544524f 	strbmi	r5, [r4, #-591]	; 0xfffffdb1
    6a90:	205f5f52 	subscs	r5, pc, r2, asr pc	; <UNPREDICTABLE>
    6a94:	524f5f5f 	subpl	r5, pc, #380	; 0x17c
    6a98:	5f524544 	svcpl	0x00524544
    6a9c:	5454494c 	ldrbpl	r4, [r4], #-2380	; 0xfffff6b4
    6aa0:	455f454c 	ldrbmi	r4, [pc, #-1356]	; 655c <_Min_Stack_Size+0x615c>
    6aa4:	4149444e 	cmpmi	r9, lr, asr #8
    6aa8:	005f5f4e 	subseq	r5, pc, lr, asr #30
    6aac:	4349564e 	movtmi	r5, #38478	; 0x964e
    6ab0:	5152495f 	cmppl	r2, pc, asr r9
    6ab4:	58455f38 	stmdapl	r5, {r3, r4, r5, r8, r9, sl, fp, ip, lr}^
    6ab8:	5f324954 	svcpl	0x00324954
    6abc:	61736944 	cmnvs	r3, r4, asr #18
    6ac0:	20656c62 	rsbcs	r6, r5, r2, ror #24
    6ac4:	49564e28 	ldmdbmi	r6, {r3, r5, r9, sl, fp, lr}^
    6ac8:	43495f43 	movtmi	r5, #40771	; 0x9f43
    6acc:	20305245 	eorscs	r5, r0, r5, asr #4
    6ad0:	31203d7c 			; <UNDEFINED> instruction: 0x31203d7c
    6ad4:	29383c3c 	ldmdbcs	r8!, {r2, r3, r4, r5, sl, fp, ip, sp}
    6ad8:	43475f00 	movtmi	r5, #32512	; 0x7f00
    6adc:	43575f43 	cmpmi	r7, #268	; 0x10c
    6ae0:	5f524148 	svcpl	0x00524148
    6ae4:	49002054 	stmdbmi	r0, {r2, r4, r6, sp}
    6ae8:	535f4332 	cmppl	pc, #-939524096	; 0xc8000000
    6aec:	415f3152 	cmpmi	pc, r2, asr r1	; <UNPREDICTABLE>
    6af0:	30314444 	eorscc	r4, r1, r4, asr #8
    6af4:	736f505f 	cmnvc	pc, #95	; 0x5f
    6af8:	55332820 	ldrpl	r2, [r3, #-2080]!	; 0xfffff7e0
    6afc:	5f5f0029 	svcpl	0x005f0029
    6b00:	6f6c6e75 	svcvs	0x006c6e75
    6b04:	28736b63 	ldmdacs	r3!, {r0, r1, r5, r6, r8, r9, fp, sp, lr}^
    6b08:	292e2e2e 	stmdbcs	lr!, {r1, r2, r3, r5, r9, sl, fp, sp}
    6b0c:	6c5f5f20 	mrrcvs	15, 2, r5, pc, cr0	; <UNPREDICTABLE>
    6b10:	5f6b636f 	svcpl	0x006b636f
    6b14:	6f6e6e61 	svcvs	0x006e6e61
    6b18:	65746174 	ldrbvs	r6, [r4, #-372]!	; 0xfffffe8c
    6b1c:	6c6e7528 	cfstr64vs	mvdx7, [lr], #-160	; 0xffffff60
    6b20:	5f6b636f 	svcpl	0x006b636f
    6b24:	636e7566 	cmnvs	lr, #427819008	; 0x19800000
    6b28:	6e6f6974 			; <UNDEFINED> instruction: 0x6e6f6974
    6b2c:	565f5f28 	ldrbpl	r5, [pc], -r8, lsr #30
    6b30:	52415f41 	subpl	r5, r1, #260	; 0x104
    6b34:	5f5f5347 	svcpl	0x005f5347
    6b38:	5f002929 	svcpl	0x00002929
    6b3c:	5058455f 	subspl	r4, r8, pc, asr r5
    6b40:	2054524f 	subscs	r5, r4, pc, asr #4
    6b44:	555f5f00 	ldrbpl	r5, [pc, #-3840]	; 5c4c <_Min_Stack_Size+0x584c>
    6b48:	5f544e49 	svcpl	0x00544e49
    6b4c:	5341454c 	movtpl	r4, #5452	; 0x154c
    6b50:	545f3854 	ldrbpl	r3, [pc], #-2132	; 6b58 <_Min_Stack_Size+0x6758>
    6b54:	5f455059 	svcpl	0x00455059
    6b58:	6e75205f 	mrcvs	0, 3, r2, cr5, cr15, {2}
    6b5c:	6e676973 			; <UNDEFINED> instruction: 0x6e676973
    6b60:	63206465 			; <UNDEFINED> instruction: 0x63206465
    6b64:	00726168 	rsbseq	r6, r2, r8, ror #2
    6b68:	424f5f5f 	submi	r5, pc, #380	; 0x17c
    6b6c:	454c4f53 	strbmi	r4, [ip, #-3923]	; 0xfffff0ad
    6b70:	4d5f4554 	cfldr64mi	mvdx4, [pc, #-336]	; 6a28 <_Min_Stack_Size+0x6628>
    6b74:	5f485441 	svcpl	0x00485441
    6b78:	41464544 	cmpmi	r6, r4, asr #10
    6b7c:	20544c55 	subscs	r4, r4, r5, asr ip
    6b80:	58450031 	stmdapl	r5, {r0, r4, r5}^
    6b84:	50324954 	eorspl	r4, r2, r4, asr r9
    6b88:	28203244 	stmdacs	r0!, {r2, r6, r9, ip, sp}
    6b8c:	49545845 	ldmdbmi	r4, {r0, r2, r6, fp, ip, lr}^
    6b90:	4950475f 	ldmdbmi	r0, {r0, r1, r2, r3, r4, r6, r8, r9, sl, lr}^
    6b94:	614d5f4f 	cmpvs	sp, pc, asr #30
    6b98:	6e697070 	mcrvs	0, 3, r7, cr9, cr0, {3}
    6b9c:	29745f67 	ldmdbcs	r4!, {r0, r1, r2, r5, r6, r8, r9, sl, fp, ip, lr}^
    6ba0:	5458457b 	ldrbpl	r4, [r8], #-1403	; 0xfffffa85
    6ba4:	2c203249 	sfmcs	f3, 4, [r0], #-292	; 0xfffffedc
    6ba8:	49504720 	ldmdbmi	r0, {r5, r8, r9, sl, lr}^
    6bac:	2c20444f 	cfstrscs	mvf4, [r0], #-316	; 0xfffffec4
    6bb0:	49504720 	ldmdbmi	r0, {r5, r8, r9, sl, lr}^
    6bb4:	49505f4f 	ldmdbmi	r0, {r0, r1, r2, r3, r6, r8, r9, sl, fp, ip, lr}^
    6bb8:	20325f4e 	eorscs	r5, r2, lr, asr #30
    6bbc:	5845202c 	stmdapl	r5, {r2, r3, r5, sp}^
    6bc0:	5f324954 	svcpl	0x00324954
    6bc4:	7d515249 	lfmvc	f5, 2, [r1, #-292]	; 0xfffffedc
    6bc8:	54584500 	ldrbpl	r4, [r8], #-1280	; 0xfffffb00
    6bcc:	43503049 	cmpmi	r0, #73	; 0x49
    6bd0:	45282030 	strmi	r2, [r8, #-48]!	; 0xffffffd0
    6bd4:	5f495458 	svcpl	0x00495458
    6bd8:	4f495047 	svcmi	0x00495047
    6bdc:	70614d5f 	rsbvc	r4, r1, pc, asr sp
    6be0:	676e6970 			; <UNDEFINED> instruction: 0x676e6970
    6be4:	7b29745f 	blvc	a63d68 <_Min_Stack_Size+0xa63968>
    6be8:	49545845 	ldmdbmi	r4, {r0, r2, r6, fp, ip, lr}^
    6bec:	202c2030 	eorcs	r2, ip, r0, lsr r0
    6bf0:	4f495047 	svcmi	0x00495047
    6bf4:	202c2043 	eorcs	r2, ip, r3, asr #32
    6bf8:	4f495047 	svcmi	0x00495047
    6bfc:	4e49505f 	mcrmi	0, 2, r5, cr9, cr15, {2}
    6c00:	2c20305f 	stccs	0, cr3, [r0], #-380	; 0xfffffe84
    6c04:	49545845 	ldmdbmi	r4, {r0, r2, r6, fp, ip, lr}^
    6c08:	52495f30 	subpl	r5, r9, #48, 30	; 0xc0
    6c0c:	007d2051 	rsbseq	r2, sp, r1, asr r0
    6c10:	48535f5f 	ldmdami	r3, {r0, r1, r2, r3, r4, r6, r8, r9, sl, fp, ip, lr}^
    6c14:	575f5452 			; <UNDEFINED> instruction: 0x575f5452
    6c18:	48544449 	ldmdami	r4, {r0, r3, r6, sl, lr}^
    6c1c:	31205f5f 			; <UNDEFINED> instruction: 0x31205f5f
    6c20:	525f0036 	subspl	r0, pc, #54	; 0x36
    6c24:	5f444145 	svcpl	0x00444145
    6c28:	54495257 	strbpl	r5, [r9], #-599	; 0xfffffda9
    6c2c:	55425f45 	strbpl	r5, [r2, #-3909]	; 0xfffff0bb
    6c30:	5a495346 	bpl	125b950 <_Min_Stack_Size+0x125b550>
    6c34:	59545f45 	ldmdbpl	r4, {r0, r2, r6, r8, r9, sl, fp, ip, lr}^
    6c38:	69204550 	stmdbvs	r0!, {r4, r6, r8, sl, lr}
    6c3c:	4900746e 	stmdbmi	r0, {r1, r2, r3, r5, r6, sl, ip, sp, lr}
    6c40:	5450544e 	ldrbpl	r5, [r0], #-1102	; 0xfffffbb2
    6c44:	414d5f52 	cmpmi	sp, r2, asr pc
    6c48:	5f282058 	svcpl	0x00282058
    6c4c:	544e495f 	strbpl	r4, [lr], #-2399	; 0xfffff6a1
    6c50:	5f525450 	svcpl	0x00525450
    6c54:	5f58414d 	svcpl	0x0058414d
    6c58:	5f00295f 	svcpl	0x0000295f
    6c5c:	504d495f 	subpl	r4, sp, pc, asr r9
    6c60:	2054524f 	subscs	r5, r4, pc, asr #4
    6c64:	41525f00 	cmpmi	r2, r0, lsl #30
    6c68:	3834444e 	ldmdacc	r4!, {r1, r2, r3, r6, sl, lr}
    6c6c:	4545535f 	strbmi	r5, [r5, #-863]	; 0xfffffca1
    6c70:	20325f44 	eorscs	r5, r2, r4, asr #30
    6c74:	31783028 	cmncc	r8, r8, lsr #32
    6c78:	29343332 	ldmdbcs	r4!, {r1, r4, r5, r8, r9, ip, sp}
    6c7c:	54505f00 	ldrbpl	r5, [r0], #-3840	; 0xfffff100
    6c80:	46494452 			; <UNDEFINED> instruction: 0x46494452
    6c84:	5f545f46 	svcpl	0x00545f46
    6c88:	4c434544 	cfstr64mi	mvdx4, [r3], {68}	; 0x44
    6c8c:	44455241 	strbmi	r5, [r5], #-577	; 0xfffffdbf
    6c90:	5f5f0020 	svcpl	0x005f0020
    6c94:	5f415355 	svcpl	0x00415355
    6c98:	54494246 	strbpl	r4, [r9], #-582	; 0xfffffdba
    6c9c:	31205f5f 			; <UNDEFINED> instruction: 0x31205f5f
    6ca0:	5f5f0036 	svcpl	0x005f0036
    6ca4:	616c6f76 	smcvs	50934	; 0xc6f6
    6ca8:	656c6974 	strbvs	r6, [ip, #-2420]!	; 0xfffff68c
    6cac:	6c6f7620 	stclvs	6, cr7, [pc], #-128	; 6c34 <_Min_Stack_Size+0x6834>
    6cb0:	6c697461 	cfstrdvs	mvd7, [r9], #-388	; 0xfffffe7c
    6cb4:	4d5f0065 	ldclmi	0, cr0, [pc, #-404]	; 6b28 <_Min_Stack_Size+0x6728>
    6cb8:	49484341 	stmdbmi	r8, {r0, r6, r8, r9, lr}^
    6cbc:	5f5f454e 	svcpl	0x005f454e
    6cc0:	45505954 	ldrbmi	r5, [r0, #-2388]	; 0xfffff6ac
    6cc4:	20485f53 	subcs	r5, r8, r3, asr pc
    6cc8:	495f5f00 	ldmdbmi	pc, {r8, r9, sl, fp, ip, lr}^	; <UNPREDICTABLE>
    6ccc:	5f454545 	svcpl	0x00454545
    6cd0:	5454494c 	ldrbpl	r4, [r4], #-2380	; 0xfffff6b4
    6cd4:	455f454c 	ldrbmi	r4, [pc, #-1356]	; 6790 <_Min_Stack_Size+0x6390>
    6cd8:	4149444e 	cmpmi	r9, lr, asr #8
    6cdc:	5f00204e 	svcpl	0x0000204e
    6ce0:	4c4c555f 	cfstr64mi	mvdx5, [ip], {95}	; 0x5f
    6ce4:	43415246 	movtmi	r5, #4678	; 0x1246
    6ce8:	494d5f54 	stmdbmi	sp, {r2, r4, r6, r8, r9, sl, fp, ip, lr}^
    6cec:	205f5f4e 	subscs	r5, pc, lr, asr #30
    6cf0:	55302e30 	ldrpl	r2, [r0, #-3632]!	; 0xfffff1d0
    6cf4:	00524c4c 	subseq	r4, r2, ip, asr #24
    6cf8:	444c5f5f 	strbmi	r5, [ip], #-3935	; 0xfffff0a1
    6cfc:	4d5f4c42 	ldclmi	12, cr4, [pc, #-264]	; 6bfc <_Min_Stack_Size+0x67fc>
    6d00:	315f4e49 	cmpcc	pc, r9, asr #28
    6d04:	58455f30 	stmdapl	r5, {r4, r5, r8, r9, sl, fp, ip, lr}^
    6d08:	205f5f50 	subscs	r5, pc, r0, asr pc	; <UNPREDICTABLE>
    6d0c:	30332d28 	eorscc	r2, r3, r8, lsr #26
    6d10:	49002937 	stmdbmi	r0, {r0, r1, r2, r4, r5, r8, fp, sp}
    6d14:	535f4332 	cmppl	pc, #-939524096	; 0xc8000000
    6d18:	535f3152 	cmppl	pc, #-2147483628	; 0x80000014
    6d1c:	46504f54 	usaxmi	r4, r0, r4
    6d20:	6b734d5f 	blvs	1cda2a4 <_Min_Stack_Size+0x1cd9ea4>
    6d24:	78302820 	ldmdavc	r0!, {r5, fp, sp}
    6d28:	204c5531 	subcs	r5, ip, r1, lsr r5
    6d2c:	49203c3c 	stmdbmi	r0!, {r2, r3, r4, r5, sl, fp, ip, sp}
    6d30:	535f4332 	cmppl	pc, #-939524096	; 0xc8000000
    6d34:	535f3152 	cmppl	pc, #-2147483628	; 0x80000014
    6d38:	46504f54 	usaxmi	r4, r0, r4
    6d3c:	736f505f 	cmnvc	pc, #95	; 0x5f
    6d40:	5f5f0029 	svcpl	0x005f0029
    6d44:	5f544c46 	svcpl	0x00544c46
    6d48:	5f534148 	svcpl	0x00534148
    6d4c:	45495551 	strbmi	r5, [r9, #-1361]	; 0xfffffaaf
    6d50:	414e5f54 	cmpmi	lr, r4, asr pc
    6d54:	205f5f4e 	subscs	r5, pc, lr, asr #30
    6d58:	525f0031 	subspl	r0, pc, #49	; 0x31
    6d5c:	544e4545 	strbpl	r4, [lr], #-1349	; 0xfffffabb
    6d60:	454d455f 	strbmi	r4, [sp, #-1375]	; 0xfffffaa1
    6d64:	4e454752 	mcrmi	7, 2, r4, cr5, cr2, {2}
    6d68:	5f285943 	svcpl	0x00285943
    6d6c:	29727470 	ldmdbcs	r2!, {r4, r5, r6, sl, ip, sp, lr}^
    6d70:	5f282820 	svcpl	0x00282820
    6d74:	29727470 	ldmdbcs	r2!, {r4, r5, r6, sl, ip, sp, lr}^
    6d78:	655f3e2d 	ldrbvs	r3, [pc, #-3629]	; 5f53 <_Min_Stack_Size+0x5b53>
    6d7c:	6772656d 	ldrbvs	r6, [r2, -sp, ror #10]!
    6d80:	79636e65 	stmdbvc	r3!, {r0, r2, r5, r6, r9, sl, fp, sp, lr}^
    6d84:	5f5f0029 	svcpl	0x005f0029
    6d88:	49465441 	stmdbmi	r6, {r0, r6, sl, ip, lr}^
    6d8c:	565f454c 	ldrbpl	r4, [pc], -ip, asr #10
    6d90:	42495349 	submi	r5, r9, #603979777	; 0x24000001
    6d94:	3120454c 			; <UNDEFINED> instruction: 0x3120454c
    6d98:	43324900 	teqmi	r2, #0, 18
    6d9c:	3152535f 	cmpcc	r2, pc, asr r3
    6da0:	4444415f 	strbmi	r4, [r4], #-351	; 0xfffffea1
    6da4:	49203031 	stmdbmi	r0!, {r0, r4, r5, ip, sp}
    6da8:	535f4332 	cmppl	pc, #-939524096	; 0xc8000000
    6dac:	415f3152 	cmpmi	pc, r2, asr r1	; <UNPREDICTABLE>
    6db0:	30314444 	eorscc	r4, r1, r4, asr #8
    6db4:	6b734d5f 	blvs	1cda338 <_Min_Stack_Size+0x1cd9f38>
    6db8:	41535500 	cmpmi	r3, r0, lsl #10
    6dbc:	5f335452 	svcpl	0x00335452
    6dc0:	20515249 	subscs	r5, r1, r9, asr #4
    6dc4:	5f003933 	svcpl	0x00003933
    6dc8:	52464c5f 	subpl	r4, r6, #24320	; 0x5f00
    6dcc:	5f544341 	svcpl	0x00544341
    6dd0:	49535045 	ldmdbmi	r3, {r0, r2, r6, ip, lr}^
    6dd4:	5f4e4f4c 	svcpl	0x004e4f4c
    6dd8:	7830205f 	ldmdavc	r0!, {r0, r1, r2, r3, r4, r6, sp}
    6ddc:	332d5031 			; <UNDEFINED> instruction: 0x332d5031
    6de0:	00524c31 	subseq	r4, r2, r1, lsr ip
    6de4:	4745425f 	smlsldmi	r4, r5, pc, r2	; <UNPREDICTABLE>
    6de8:	535f4e49 	cmppl	pc, #1168	; 0x490
    6dec:	435f4454 	cmpmi	pc, #84, 8	; 0x54000000
    6df0:	5f5f0020 	svcpl	0x005f0020
    6df4:	6c6c616d 	stfvse	f6, [ip], #-436	; 0xfffffe4c
    6df8:	6c5f636f 	mrrcvs	3, 6, r6, pc, cr15	; <UNPREDICTABLE>
    6dfc:	20656b69 	rsbcs	r6, r5, r9, ror #22
    6e00:	74615f5f 	strbtvc	r5, [r1], #-3935	; 0xfffff0a1
    6e04:	62697274 	rsbvs	r7, r9, #116, 4	; 0x40000007
    6e08:	5f657475 	svcpl	0x00657475
    6e0c:	5f28285f 	svcpl	0x0028285f
    6e10:	6c616d5f 	stclvs	13, cr6, [r1], #-380	; 0xfffffe84
    6e14:	5f636f6c 	svcpl	0x00636f6c
    6e18:	0029295f 	eoreq	r2, r9, pc, asr r9
    6e1c:	4349564e 	movtmi	r5, #38478	; 0x964e
    6e20:	5152495f 	cmppl	r2, pc, asr r9
    6e24:	58455f39 	stmdapl	r5, {r0, r3, r4, r5, r8, r9, sl, fp, ip, lr}^
    6e28:	5f334954 	svcpl	0x00334954
    6e2c:	61736944 	cmnvs	r3, r4, asr #18
    6e30:	20656c62 	rsbcs	r6, r5, r2, ror #24
    6e34:	49564e28 	ldmdbmi	r6, {r3, r5, r9, sl, fp, lr}^
    6e38:	43495f43 	movtmi	r5, #40771	; 0x9f43
    6e3c:	20305245 	eorscs	r5, r0, r5, asr #4
    6e40:	31203d7c 			; <UNDEFINED> instruction: 0x31203d7c
    6e44:	29393c3c 	ldmdbcs	r9!, {r2, r3, r4, r5, sl, fp, ip, sp}
    6e48:	54584500 	ldrbpl	r4, [r8], #-1280	; 0xfffffb00
    6e4c:	41503849 	cmpmi	r0, r9, asr #16
    6e50:	45282038 	strmi	r2, [r8, #-56]!	; 0xffffffc8
    6e54:	5f495458 	svcpl	0x00495458
    6e58:	4f495047 	svcmi	0x00495047
    6e5c:	70614d5f 	rsbvc	r4, r1, pc, asr sp
    6e60:	676e6970 			; <UNDEFINED> instruction: 0x676e6970
    6e64:	7b29745f 	blvc	a63fe8 <_Min_Stack_Size+0xa63be8>
    6e68:	49545845 	ldmdbmi	r4, {r0, r2, r6, fp, ip, lr}^
    6e6c:	47202c38 			; <UNDEFINED> instruction: 0x47202c38
    6e70:	414f4950 	cmpmi	pc, r0, asr r9	; <UNPREDICTABLE>
    6e74:	47202c20 	strmi	r2, [r0, -r0, lsr #24]!
    6e78:	5f4f4950 	svcpl	0x004f4950
    6e7c:	5f4e4950 	svcpl	0x004e4950
    6e80:	202c2038 	eorcs	r2, ip, r8, lsr r0
    6e84:	49545845 	ldmdbmi	r4, {r0, r2, r6, fp, ip, lr}^
    6e88:	52495f38 	subpl	r5, r9, #56, 30	; 0xe0
    6e8c:	007d2051 	rsbseq	r2, sp, r1, asr r0
    6e90:	52415f5f 	subpl	r5, r1, #380	; 0x17c
    6e94:	49535f4d 	ldmdbmi	r3, {r0, r2, r3, r6, r8, r9, sl, fp, ip, lr}^
    6e98:	464f455a 			; <UNDEFINED> instruction: 0x464f455a
    6e9c:	4e494d5f 	mcrmi	13, 2, r4, cr9, cr15, {2}
    6ea0:	4c414d49 	mcrrmi	13, 4, r4, r1, cr9
    6ea4:	554e455f 	strbpl	r4, [lr, #-1375]	; 0xfffffaa1
    6ea8:	0031204d 	eorseq	r2, r1, sp, asr #32
    6eac:	494f505f 	stmdbmi	pc, {r0, r1, r2, r3, r4, r6, ip, lr}^	; <UNPREDICTABLE>
    6eb0:	5245544e 	subpl	r5, r5, #1308622848	; 0x4e000000
    6eb4:	544e495f 	strbpl	r4, [lr], #-2399	; 0xfffff6a1
    6eb8:	6e6f6c20 	cdpvs	12, 6, cr6, cr15, cr0, {1}
    6ebc:	5f5f0067 	svcpl	0x005f0067
    6ec0:	33544c46 	cmpcc	r4, #17920	; 0x4600
    6ec4:	4e5f5832 	mrcmi	8, 2, r5, cr15, cr2, {1}
    6ec8:	5f4d524f 	svcpl	0x004d524f
    6ecc:	5f58414d 	svcpl	0x0058414d
    6ed0:	2e31205f 	mrccs	0, 1, r2, cr1, cr15, {2}
    6ed4:	36373937 			; <UNDEFINED> instruction: 0x36373937
    6ed8:	33313339 	teqcc	r1, #-469762048	; 0xe4000000
    6edc:	32363834 	eorscc	r3, r6, #52, 16	; 0x340000
    6ee0:	37353133 			; <UNDEFINED> instruction: 0x37353133
    6ee4:	30332b65 	eorscc	r2, r3, r5, ror #22
    6ee8:	32334638 	eorscc	r4, r3, #56, 12	; 0x3800000
    6eec:	5f5f0078 	svcpl	0x005f0078
    6ef0:	5f6d7261 	svcpl	0x006d7261
    6ef4:	0031205f 	eorseq	r2, r1, pc, asr r0
    6ef8:	495f5047 	ldmdbmi	pc, {r0, r1, r2, r6, ip, lr}^	; <UNPREDICTABLE>
    6efc:	435f5152 	cmpmi	pc, #-2147483628	; 0x80000014
    6f00:	426c6c61 	rsbmi	r6, ip, #24832	; 0x6100
    6f04:	006b6361 	rsbeq	r6, fp, r1, ror #6
    6f08:	4349564e 	movtmi	r5, #38478	; 0x964e
    6f0c:	5152495f 	cmppl	r2, pc, asr r9
    6f10:	555f3933 	ldrbpl	r3, [pc, #-2355]	; 65e5 <_Min_Stack_Size+0x61e5>
    6f14:	54524153 	ldrbpl	r4, [r2], #-339	; 0xfffffead
    6f18:	69445f33 	stmdbvs	r4, {r0, r1, r4, r5, r8, r9, sl, fp, ip, lr}^
    6f1c:	6c626173 	stfvse	f6, [r2], #-460	; 0xfffffe34
    6f20:	4e282065 	cdpmi	0, 2, cr2, cr8, cr5, {3}
    6f24:	5f434956 	svcpl	0x00434956
    6f28:	52454349 	subpl	r4, r5, #603979777	; 0x24000001
    6f2c:	3d7c2031 	ldclcc	0, cr2, [ip, #-196]!	; 0xffffff3c
    6f30:	3c3c3120 	ldfccs	f3, [ip], #-128	; 0xffffff80
    6f34:	53552028 	cmppl	r5, #40	; 0x28
    6f38:	33545241 	cmpcc	r4, #268435460	; 0x10000004
    6f3c:	5152495f 	cmppl	r2, pc, asr r9
    6f40:	3233202d 	eorscc	r2, r3, #45	; 0x2d
    6f44:	00292920 	eoreq	r2, r9, r0, lsr #18
    6f48:	52465f5f 	subpl	r5, r6, #380	; 0x17c
    6f4c:	5f544341 	svcpl	0x00544341
    6f50:	49535045 	ldmdbmi	r3, {r0, r2, r6, ip, lr}^
    6f54:	5f4e4f4c 	svcpl	0x004e4f4c
    6f58:	7830205f 	ldmdavc	r0!, {r0, r1, r2, r3, r4, r6, sp}
    6f5c:	312d5031 			; <UNDEFINED> instruction: 0x312d5031
    6f60:	5f005235 	svcpl	0x00005235
    6f64:	544c465f 	strbpl	r4, [ip], #-1631	; 0xfffff9a1
    6f68:	4d5f3233 	lfmmi	f3, 2, [pc, #-204]	; 6ea4 <_Min_Stack_Size+0x6aa4>
    6f6c:	315f4e49 	cmpcc	pc, r9, asr #28
    6f70:	58455f30 	stmdapl	r5, {r4, r5, r8, r9, sl, fp, ip, lr}^
    6f74:	205f5f50 	subscs	r5, pc, r0, asr pc	; <UNPREDICTABLE>
    6f78:	37332d28 	ldrcc	r2, [r3, -r8, lsr #26]!
    6f7c:	525f0029 	subspl	r0, pc, #41	; 0x29
    6f80:	544e4545 	strbpl	r4, [lr], #-1349	; 0xfffffabb
    6f84:	5443575f 	strbpl	r5, [r3], #-1887	; 0xfffff8a1
    6f88:	5f424d4f 	svcpl	0x00424d4f
    6f8c:	54415453 	strbpl	r5, [r1], #-1107	; 0xfffffbad
    6f90:	74702845 	ldrbtvc	r2, [r0], #-2117	; 0xfffff7bb
    6f94:	28202972 	stmdacs	r0!, {r1, r4, r5, r6, r8, fp, sp}
    6f98:	72747028 	rsbsvc	r7, r4, #40	; 0x28
    6f9c:	5f3e2d29 	svcpl	0x003e2d29
    6fa0:	6373696d 	cmnvs	r3, #1785856	; 0x1b4000
    6fa4:	775f3e2d 	ldrbvc	r3, [pc, -sp, lsr #28]
    6fa8:	6d6f7463 	cfstrdvs	mvd7, [pc, #-396]!	; 6e24 <_Min_Stack_Size+0x6a24>
    6fac:	74735f62 	ldrbtvc	r5, [r3], #-3938	; 0xfffff09e
    6fb0:	29657461 	stmdbcs	r5!, {r0, r5, r6, sl, ip, sp, lr}^
    6fb4:	49564e00 	ldmdbmi	r6, {r9, sl, fp, lr}^
    6fb8:	52495f43 	subpl	r5, r9, #268	; 0x10c
    6fbc:	5f353351 	svcpl	0x00353351
    6fc0:	31495053 	qdaddcc	r5, r3, r9
    6fc4:	7369445f 	cmnvc	r9, #1593835520	; 0x5f000000
    6fc8:	656c6261 	strbvs	r6, [ip, #-609]!	; 0xfffffd9f
    6fcc:	564e2820 	strbpl	r2, [lr], -r0, lsr #16
    6fd0:	495f4349 	ldmdbmi	pc, {r0, r3, r6, r8, r9, lr}^	; <UNPREDICTABLE>
    6fd4:	31524543 	cmpcc	r2, r3, asr #10
    6fd8:	203d7c20 	eorscs	r7, sp, r0, lsr #24
    6fdc:	283c3c31 	ldmdacs	ip!, {r0, r4, r5, sl, fp, ip, sp}
    6fe0:	49505320 	ldmdbmi	r0, {r5, r8, r9, ip, lr}^
    6fe4:	52495f31 	subpl	r5, r9, #49, 30	; 0xc4
    6fe8:	33202d51 			; <UNDEFINED> instruction: 0x33202d51
    6fec:	29292032 	stmdbcs	r9!, {r1, r4, r5, sp}
    6ff0:	495f5f00 	ldmdbmi	pc, {r8, r9, sl, fp, ip, lr}^	; <UNPREDICTABLE>
    6ff4:	435f4f53 	cmpmi	pc, #332	; 0x14c
    6ff8:	5349565f 	movtpl	r5, #38495	; 0x965f
    6ffc:	454c4249 	strbmi	r4, [ip, #-585]	; 0xfffffdb7
    7000:	31303220 	teqcc	r0, r0, lsr #4
    7004:	5f5f0031 	svcpl	0x005f0031
    7008:	5f4d5241 	svcpl	0x004d5241
    700c:	54414546 	strbpl	r4, [r1], #-1350	; 0xfffffaba
    7010:	5f455255 	svcpl	0x00455255
    7014:	36314642 	ldrtcc	r4, [r1], -r2, asr #12
    7018:	4345565f 	movtmi	r5, #22111	; 0x565f
    701c:	5f524f54 	svcpl	0x00524f54
    7020:	54495241 	strbpl	r5, [r9], #-577	; 0xfffffdbf
    7024:	54454d48 	strbpl	r4, [r5], #-3400	; 0xfffff2b8
    7028:	5f004349 	svcpl	0x00004349
    702c:	4d52415f 	ldfmie	f4, [r2, #-380]	; 0xfffffe84
    7030:	3150465f 	cmpcc	r0, pc, asr r6
    7034:	4f465f36 	svcmi	0x00465f36
    7038:	54414d52 	strbpl	r4, [r1], #-3410	; 0xfffff2ae
    703c:	544c415f 	strbpl	r4, [ip], #-351	; 0xfffffea1
    7040:	414e5245 	cmpmi	lr, r5, asr #4
    7044:	45564954 	ldrbmi	r4, [r6, #-2388]	; 0xfffff6ac
    7048:	465f5f00 	ldrbmi	r5, [pc], -r0, lsl #30
    704c:	49445342 	stmdbmi	r4, {r1, r6, r8, r9, ip, lr}^
    7050:	29732844 	ldmdbcs	r3!, {r2, r6, fp, sp}^
    7054:	72747320 	rsbsvc	r7, r4, #32, 6	; 0x80000000
    7058:	20746375 	rsbscs	r6, r4, r5, ror r3
    705c:	61685f5f 	cmnvs	r8, pc, asr pc
    7060:	5f006b63 	svcpl	0x00006b63
    7064:	42444c5f 	submi	r4, r4, #24320	; 0x5f00
    7068:	4f4e5f4c 	svcmi	0x004e5f4c
    706c:	4d5f4d52 	ldclmi	13, cr4, [pc, #-328]	; 6f2c <_Min_Stack_Size+0x6b2c>
    7070:	5f5f5841 	svcpl	0x005f5841
    7074:	372e3120 	strcc	r3, [lr, -r0, lsr #2]!
    7078:	39363739 	ldmdbcc	r6!, {r0, r3, r4, r5, r8, r9, sl, ip, sp}
    707c:	34333133 	ldrtcc	r3, [r3], #-307	; 0xfffffecd
    7080:	33323638 	teqcc	r2, #56, 12	; 0x3800000
    7084:	65373531 	ldrvs	r3, [r7, #-1329]!	; 0xfffffacf
    7088:	3830332b 	ldmdacc	r0!, {r0, r1, r3, r5, r8, r9, ip, sp}
    708c:	4e49004c 	cdpmi	0, 4, cr0, cr9, cr12, {2}
    7090:	41465f54 	cmpmi	r6, r4, asr pc
    7094:	34365453 	ldrtcc	r5, [r6], #-1107	; 0xfffffbad
    7098:	4e494d5f 	mcrmi	13, 2, r4, cr9, cr15, {2}
    709c:	5f2d2820 	svcpl	0x002d2820
    70a0:	544e495f 	strbpl	r4, [lr], #-2399	; 0xfffff6a1
    70a4:	5341465f 	movtpl	r4, #5727	; 0x165f
    70a8:	5f343654 	svcpl	0x00343654
    70ac:	5f58414d 	svcpl	0x0058414d
    70b0:	202d205f 	eorcs	r2, sp, pc, asr r0
    70b4:	5f002931 	svcpl	0x00002931
    70b8:	4843414d 	stmdami	r3, {r0, r2, r3, r6, r8, lr}^
    70bc:	5f454e49 	svcpl	0x00454e49
    70c0:	4645445f 			; <UNDEFINED> instruction: 0x4645445f
    70c4:	544c5541 	strbpl	r5, [ip], #-1345	; 0xfffffabf
    70c8:	5059545f 	subspl	r5, r9, pc, asr r4
    70cc:	485f5345 	ldmdami	pc, {r0, r2, r6, r8, r9, ip, lr}^	; <UNPREDICTABLE>
    70d0:	5f5f0020 	svcpl	0x005f0020
    70d4:	47474942 	strbmi	r4, [r7, -r2, asr #18]
    70d8:	5f545345 	svcpl	0x00545345
    70dc:	47494c41 	strbmi	r4, [r9, -r1, asr #24]
    70e0:	4e454d4e 	cdpmi	13, 4, cr4, cr5, cr14, {2}
    70e4:	205f5f54 	subscs	r5, pc, r4, asr pc	; <UNPREDICTABLE>
    70e8:	5f5f0038 	svcpl	0x005f0038
    70ec:	5f736168 	svcpl	0x00736168
    70f0:	74616566 	strbtvc	r6, [r1], #-1382	; 0xfffffa9a
    70f4:	28657275 	stmdacs	r5!, {r0, r2, r4, r5, r6, r9, ip, sp, lr}^
    70f8:	30202978 	eorcc	r2, r0, r8, ror r9
    70fc:	43475f00 	movtmi	r5, #32512	; 0x7f00
    7100:	54505f43 	ldrbpl	r5, [r0], #-3907	; 0xfffff0bd
    7104:	46494452 			; <UNDEFINED> instruction: 0x46494452
    7108:	20545f46 	subscs	r5, r4, r6, asr #30
    710c:	475f5f00 	ldrbmi	r5, [pc, -r0, lsl #30]
    7110:	4c43554e 	cfstr64mi	mvdx5, [r3], {78}	; 0x4e
    7114:	5f454b49 	svcpl	0x00454b49
    7118:	4c495542 	cfstr64mi	mvdx5, [r9], {66}	; 0x42
    711c:	5f4e4954 	svcpl	0x004e4954
    7120:	5458454e 	ldrbpl	r4, [r8], #-1358	; 0xfffffab2
    7124:	4752415f 			; <UNDEFINED> instruction: 0x4752415f
    7128:	5f003120 	svcpl	0x00003120
    712c:	5f41545f 	svcpl	0x0041545f
    7130:	54494249 	strbpl	r4, [r9], #-585	; 0xfffffdb7
    7134:	36205f5f 	qsaxcc	r5, r0, pc	; <UNPREDICTABLE>
    7138:	43520034 	cmpmi	r2, #52	; 0x34
    713c:	53555f43 	cmppl	r5, #268	; 0x10c
    7140:	33545241 	cmpcc	r4, #268435460	; 0x10000004
    7144:	7365525f 	cmnvc	r5, #-268435451	; 0xf0000005
    7148:	29287465 	stmdbcs	r8!, {r0, r2, r5, r6, sl, ip, sp, lr}
    714c:	52202820 	eorpl	r2, r0, #32, 16	; 0x200000
    7150:	3e2d4343 	cdpcc	3, 2, cr4, cr13, cr3, {2}
    7154:	31425041 	cmpcc	r2, r1, asr #32
    7158:	52545352 	subspl	r5, r4, #1207959553	; 0x48000001
    715c:	203d7c20 	eorscs	r7, sp, r0, lsr #24
    7160:	3c3c3128 	ldfccs	f3, [ip], #-160	; 0xffffff60
    7164:	20293831 	eorcs	r3, r9, r1, lsr r8
    7168:	54530029 	ldrbpl	r0, [r3], #-41	; 0xffffffd7
    716c:	2032334d 	eorscs	r3, r2, sp, asr #6
    7170:	5f5f0031 	svcpl	0x005f0031
    7174:	5341454c 	movtpl	r4, #5452	; 0x154c
    7178:	20343654 	eorscs	r3, r4, r4, asr r6
    717c:	226c6c22 	rsbcs	r6, ip, #8704	; 0x2200
    7180:	52524500 	subspl	r4, r2, #0, 10
    7184:	3020524f 	eorcc	r5, r0, pc, asr #4
    7188:	54584500 	ldrbpl	r4, [r8], #-1280	; 0xfffffb00
    718c:	34203449 	strtcc	r3, [r0], #-1097	; 0xfffffbb7
    7190:	725f5f00 	subsvc	r5, pc, #0, 30
    7194:	746e6565 	strbtvc	r6, [lr], #-1381	; 0xfffffa9b
    7198:	7373615f 	cmnvc	r3, #-1073741801	; 0xc0000017
    719c:	28747265 	ldmdacs	r4!, {r0, r2, r5, r6, r9, ip, sp, lr}^
    71a0:	28202978 	stmdacs	r0!, {r3, r4, r5, r6, r8, fp, sp}
    71a4:	20297828 	eorcs	r7, r9, r8, lsr #16
    71a8:	7628203f 			; <UNDEFINED> instruction: 0x7628203f
    71ac:	2964696f 	stmdbcs	r4!, {r0, r1, r2, r3, r5, r6, r8, fp, sp, lr}^
    71b0:	203a2030 	eorscs	r2, sl, r0, lsr r0
    71b4:	73615f5f 	cmnvc	r1, #380	; 0x17c
    71b8:	74726573 	ldrbtvc	r6, [r2], #-1395	; 0xfffffa8d
    71bc:	6e75665f 	mrcvs	6, 3, r6, cr5, cr15, {2}
    71c0:	5f5f2863 	svcpl	0x005f2863
    71c4:	454c4946 	strbmi	r4, [ip, #-2374]	; 0xfffff6ba
    71c8:	202c5f5f 	eorcs	r5, ip, pc, asr pc
    71cc:	494c5f5f 	stmdbmi	ip, {r0, r1, r2, r3, r4, r6, r8, r9, sl, fp, ip, lr}^
    71d0:	5f5f454e 	svcpl	0x005f454e
    71d4:	6328202c 			; <UNDEFINED> instruction: 0x6328202c
    71d8:	20726168 	rsbscs	r6, r2, r8, ror #2
    71dc:	2c30292a 			; <UNDEFINED> instruction: 0x2c30292a
    71e0:	45522220 	ldrbmi	r2, [r2, #-544]	; 0xfffffde0
    71e4:	20544e45 	subscs	r4, r4, r5, asr #28
    71e8:	6c6c616d 	stfvse	f6, [ip], #-436	; 0xfffffe4c
    71ec:	7320636f 			; <UNDEFINED> instruction: 0x7320636f
    71f0:	65636375 	strbvs	r6, [r3, #-885]!	; 0xfffffc8b
    71f4:	64656465 	strbtvs	r6, [r5], #-1125	; 0xfffffb9b
    71f8:	00292922 	eoreq	r2, r9, r2, lsr #18
    71fc:	4f495047 	svcmi	0x00495047
    7200:	444f4d5f 	strbmi	r4, [pc], #-3423	; 7208 <_Min_Stack_Size+0x6e08>
    7204:	4e415f45 	cdpmi	15, 4, cr5, cr1, cr5, {2}
    7208:	474f4c41 	strbmi	r4, [pc, -r1, asr #24]
    720c:	30783020 	rsbscc	r3, r8, r0, lsr #32
    7210:	30303030 	eorscc	r3, r0, r0, lsr r0
    7214:	75303030 	ldrvc	r3, [r0, #-48]!	; 0xffffffd0
    7218:	415f5f00 	cmpmi	pc, r0, lsl #30
    721c:	465f4d52 			; <UNDEFINED> instruction: 0x465f4d52
    7220:	55544145 	ldrbpl	r4, [r4, #-325]	; 0xfffffebb
    7224:	515f4552 	cmppl	pc, r2, asr r5	; <UNPREDICTABLE>
    7228:	584d4452 	stmdapl	sp, {r1, r4, r6, sl, lr}^
    722c:	54584500 	ldrbpl	r4, [r8], #-1280	; 0xfffffb00
    7230:	44503449 	ldrbmi	r3, [r0], #-1097	; 0xfffffbb7
    7234:	45282034 	strmi	r2, [r8, #-52]!	; 0xffffffcc
    7238:	5f495458 	svcpl	0x00495458
    723c:	4f495047 	svcmi	0x00495047
    7240:	70614d5f 	rsbvc	r4, r1, pc, asr sp
    7244:	676e6970 			; <UNDEFINED> instruction: 0x676e6970
    7248:	7b29745f 	blvc	a643cc <_Min_Stack_Size+0xa63fcc>
    724c:	49545845 	ldmdbmi	r4, {r0, r2, r6, fp, ip, lr}^
    7250:	202c2034 	eorcs	r2, ip, r4, lsr r0
    7254:	4f495047 	svcmi	0x00495047
    7258:	202c2044 	eorcs	r2, ip, r4, asr #32
    725c:	4f495047 	svcmi	0x00495047
    7260:	4e49505f 	mcrmi	0, 2, r5, cr9, cr15, {2}
    7264:	2c20345f 	cfstrscs	mvf3, [r0], #-380	; 0xfffffe84
    7268:	54584520 	ldrbpl	r4, [r8], #-1312	; 0xfffffae0
    726c:	495f3449 	ldmdbmi	pc, {r0, r3, r6, sl, ip, sp}^	; <UNPREDICTABLE>
    7270:	007d5152 	rsbseq	r5, sp, r2, asr r1
    7274:	52415f5f 	subpl	r5, r1, #380	; 0x17c
    7278:	52415f4d 	subpl	r5, r1, #308	; 0x134
    727c:	495f4843 	ldmdbmi	pc, {r0, r1, r6, fp, lr}^	; <UNPREDICTABLE>
    7280:	545f4153 	ldrbpl	r4, [pc], #-339	; 7288 <_Min_Stack_Size+0x6e88>
    7284:	424d5548 	submi	r5, sp, #72, 10	; 0x12000000
    7288:	45003220 	strmi	r3, [r0, #-544]	; 0xfffffde0
    728c:	33495458 	movtcc	r5, #37976	; 0x9458
    7290:	20334350 	eorscs	r4, r3, r0, asr r3
    7294:	54584528 	ldrbpl	r4, [r8], #-1320	; 0xfffffad8
    7298:	50475f49 	subpl	r5, r7, r9, asr #30
    729c:	4d5f4f49 	ldclmi	15, cr4, [pc, #-292]	; 7180 <_Min_Stack_Size+0x6d80>
    72a0:	69707061 	ldmdbvs	r0!, {r0, r5, r6, ip, sp, lr}^
    72a4:	745f676e 	ldrbvc	r6, [pc], #-1902	; 72ac <_Min_Stack_Size+0x6eac>
    72a8:	58457b29 	stmdapl	r5, {r0, r3, r5, r8, r9, fp, ip, sp, lr}^
    72ac:	20334954 	eorscs	r4, r3, r4, asr r9
    72b0:	5047202c 	subpl	r2, r7, ip, lsr #32
    72b4:	20434f49 	subcs	r4, r3, r9, asr #30
    72b8:	5047202c 	subpl	r2, r7, ip, lsr #32
    72bc:	505f4f49 	subspl	r4, pc, r9, asr #30
    72c0:	335f4e49 	cmpcc	pc, #1168	; 0x490
    72c4:	58452c20 	stmdapl	r5, {r5, sl, fp, sp}^
    72c8:	5f334954 	svcpl	0x00334954
    72cc:	20515249 	subscs	r5, r1, r9, asr #4
    72d0:	5f5f007d 	svcpl	0x005f007d
    72d4:	474e4f4c 	strbmi	r4, [lr, -ip, asr #30]
    72d8:	4e4f4c5f 	mcrmi	12, 2, r4, cr15, cr15, {2}
    72dc:	414d5f47 	cmpmi	sp, r7, asr #30
    72e0:	205f5f58 	subscs	r5, pc, r8, asr pc	; <UNPREDICTABLE>
    72e4:	66377830 			; <UNDEFINED> instruction: 0x66377830
    72e8:	66666666 	strbtvs	r6, [r6], -r6, ror #12
    72ec:	66666666 	strbtvs	r6, [r6], -r6, ror #12
    72f0:	66666666 	strbtvs	r6, [r6], -r6, ror #12
    72f4:	4c4c6666 	mcrrmi	6, 6, r6, ip, cr6
    72f8:	54584500 	ldrbpl	r4, [r8], #-1280	; 0xfffffb00
    72fc:	43503149 	cmpmi	r0, #1073741842	; 0x40000012
    7300:	45282031 	strmi	r2, [r8, #-49]!	; 0xffffffcf
    7304:	5f495458 	svcpl	0x00495458
    7308:	4f495047 	svcmi	0x00495047
    730c:	70614d5f 	rsbvc	r4, r1, pc, asr sp
    7310:	676e6970 			; <UNDEFINED> instruction: 0x676e6970
    7314:	7b29745f 	blvc	a64498 <_Min_Stack_Size+0xa64098>
    7318:	49545845 	ldmdbmi	r4, {r0, r2, r6, fp, ip, lr}^
    731c:	202c2031 	eorcs	r2, ip, r1, lsr r0
    7320:	4f495047 	svcmi	0x00495047
    7324:	202c2043 	eorcs	r2, ip, r3, asr #32
    7328:	4f495047 	svcmi	0x00495047
    732c:	4e49505f 	mcrmi	0, 2, r5, cr9, cr15, {2}
    7330:	2c20315f 	stfcss	f3, [r0], #-380	; 0xfffffe84
    7334:	49545845 	ldmdbmi	r4, {r0, r2, r6, fp, ip, lr}^
    7338:	52495f31 	subpl	r5, r9, #49, 30	; 0xc4
    733c:	007d2051 	rsbseq	r2, sp, r1, asr r0
    7340:	72615f5f 	rsbvc	r5, r1, #380	; 0x17c
    7344:	79745f67 	ldmdbvc	r4!, {r0, r1, r2, r5, r6, r8, r9, sl, fp, ip, lr}^
    7348:	745f6570 	ldrbvc	r6, [pc], #-1392	; 7350 <_Min_Stack_Size+0x6f50>
    734c:	61286761 			; <UNDEFINED> instruction: 0x61286761
    7350:	6b5f6772 	blvs	17e1120 <_Min_Stack_Size+0x17e0d20>
    7354:	2c646e69 	stclcs	14, cr6, [r4], #-420	; 0xfffffe5c
    7358:	5f677261 	svcpl	0x00677261
    735c:	2c786469 	cfldrdcs	mvd6, [r8], #-420	; 0xfffffe5c
    7360:	65707974 	ldrbvs	r7, [r0, #-2420]!	; 0xfffff68c
    7364:	6761745f 			; <UNDEFINED> instruction: 0x6761745f
    7368:	7864695f 	stmdavc	r4!, {r0, r1, r2, r3, r4, r6, r8, fp, sp, lr}^
    736c:	53002029 	movwpl	r2, #41	; 0x29
    7370:	5f314950 	svcpl	0x00314950
    7374:	20515249 	subscs	r5, r1, r9, asr #4
    7378:	5f003533 	svcpl	0x00003533
    737c:	5254535f 	subspl	r5, r4, #2080374785	; 0x7c000001
    7380:	28474e49 	stmdacs	r7, {r0, r3, r6, r9, sl, fp, lr}^
    7384:	23202978 			; <UNDEFINED> instruction: 0x23202978
    7388:	32490078 	subcc	r0, r9, #120	; 0x78
    738c:	52535f43 	subspl	r5, r3, #268	; 0x10c
    7390:	58525f31 	ldmdapl	r2, {r0, r4, r5, r8, r9, sl, fp, ip, lr}^
    7394:	505f454e 	subspl	r4, pc, lr, asr #10
    7398:	2820736f 	stmdacs	r0!, {r0, r1, r2, r3, r5, r6, r8, r9, ip, sp, lr}
    739c:	00295536 	eoreq	r5, r9, r6, lsr r5
    73a0:	726f6873 	rsbvc	r6, pc, #7536640	; 0x730000
    73a4:	525f0074 	subspl	r0, pc, #116	; 0x74
    73a8:	544e4545 	strbpl	r4, [lr], #-1349	; 0xfffffabb
    73ac:	494e495f 	stmdbmi	lr, {r0, r1, r2, r3, r4, r6, r8, fp, lr}^
    73b0:	54505f54 	ldrbpl	r5, [r0], #-3924	; 0xfffff0ac
    73b4:	61762852 	cmnvs	r6, r2, asr r8
    73b8:	7b202972 	blvc	811988 <_Min_Stack_Size+0x811588>
    73bc:	6d656d20 	stclvs	13, cr6, [r5, #-128]!	; 0xffffff80
    73c0:	28746573 	ldmdacs	r4!, {r0, r1, r4, r5, r6, r8, sl, sp, lr}^
    73c4:	72617628 	rsbvc	r7, r1, #40, 12	; 0x2800000
    73c8:	30202c29 	eorcc	r2, r0, r9, lsr #24
    73cc:	6973202c 	ldmdbvs	r3!, {r2, r3, r5, sp}^
    73d0:	666f657a 			; <UNDEFINED> instruction: 0x666f657a
    73d4:	76282a28 	strtvc	r2, [r8], -r8, lsr #20
    73d8:	29297261 	stmdbcs	r9!, {r0, r5, r6, r9, ip, sp, lr}
    73dc:	5f203b29 	svcpl	0x00203b29
    73e0:	4e454552 	mcrmi	5, 2, r4, cr5, cr2, {2}
    73e4:	4e495f54 	mcrmi	15, 2, r5, cr9, cr4, {2}
    73e8:	505f5449 	subspl	r5, pc, r9, asr #8
    73ec:	5a5f5254 	bpl	17dbd44 <_Min_Stack_Size+0x17db944>
    73f0:	454f5245 	strbmi	r5, [pc, #-581]	; 71b3 <_Min_Stack_Size+0x6db3>
    73f4:	61762844 	cmnvs	r6, r4, asr #16
    73f8:	203b2972 	eorscs	r2, fp, r2, ror r9
    73fc:	5f5f007d 	svcpl	0x005f007d
    7400:	59504f43 	ldmdbpl	r0, {r0, r1, r6, r8, r9, sl, fp, lr}^
    7404:	48474952 	stmdami	r7, {r1, r4, r6, r8, fp, lr}^
    7408:	29732854 	ldmdbcs	r3!, {r2, r4, r6, fp, sp}^
    740c:	72747320 	rsbsvc	r7, r4, #32, 6	; 0x80000000
    7410:	20746375 	rsbscs	r6, r4, r5, ror r3
    7414:	61685f5f 	cmnvs	r8, pc, asr pc
    7418:	5f006b63 	svcpl	0x00006b63
    741c:	5246555f 	subpl	r5, r6, #398458880	; 0x17c00000
    7420:	5f544341 	svcpl	0x00544341
    7424:	54494249 	strbpl	r4, [r9], #-585	; 0xfffffdb7
    7428:	30205f5f 	eorcc	r5, r0, pc, asr pc
    742c:	415f5f00 	cmpmi	pc, r0, lsl #30
    7430:	335f4d52 	cmpcc	pc, #5248	; 0x1480
    7434:	54494232 	strbpl	r4, [r9], #-562	; 0xfffffdce
    7438:	4154535f 	cmpmi	r4, pc, asr r3
    743c:	31204554 			; <UNDEFINED> instruction: 0x31204554
    7440:	41434d00 	cmpmi	r3, r0, lsl #26
    7444:	58455f4c 	stmdapl	r5, {r2, r3, r6, r8, r9, sl, fp, ip, lr}^
    7448:	475f4954 			; <UNDEFINED> instruction: 0x475f4954
    744c:	5f4f4950 	svcpl	0x004f4950
    7450:	74696e69 	strbtvc	r6, [r9], #-3689	; 0xfffff197
    7454:	43324900 	teqmi	r2, #0, 18
    7458:	3252435f 	subscc	r4, r2, #2080374785	; 0x7c000001
    745c:	53414c5f 	movtpl	r4, #7263	; 0x1c5f
    7460:	32492054 	subcc	r2, r9, #84	; 0x54
    7464:	52435f43 	subpl	r5, r3, #268	; 0x10c
    7468:	414c5f32 	cmpmi	ip, r2, lsr pc
    746c:	4d5f5453 	cfldrdmi	mvd5, [pc, #-332]	; 7328 <_Min_Stack_Size+0x6f28>
    7470:	5f006b73 	svcpl	0x00006b73
    7474:	544e495f 	strbpl	r4, [lr], #-2399	; 0xfffff6a1
    7478:	28435f38 	stmdacs	r3, {r3, r4, r5, r8, r9, sl, fp, ip, lr}^
    747c:	63202963 			; <UNDEFINED> instruction: 0x63202963
    7480:	4c5f5f00 	mrrcmi	15, 0, r5, pc, cr0	; <UNPREDICTABLE>
    7484:	43415246 	movtmi	r5, #4678	; 0x1246
    7488:	42495f54 	submi	r5, r9, #84, 30	; 0x150
    748c:	5f5f5449 	svcpl	0x005f5449
    7490:	49003020 	stmdbmi	r0, {r5, ip, sp}
    7494:	435f4332 	cmpmi	pc, #-939524096	; 0xc8000000
    7498:	535f3152 	cmppl	pc, #-2147483628	; 0x80000014
    749c:	54524154 	ldrbpl	r4, [r2], #-340	; 0xfffffeac
    74a0:	6b734d5f 	blvs	1cdaa24 <_Min_Stack_Size+0x1cda624>
    74a4:	78302820 	ldmdavc	r0!, {r5, fp, sp}
    74a8:	204c5531 	subcs	r5, ip, r1, lsr r5
    74ac:	49203c3c 	stmdbmi	r0!, {r2, r3, r4, r5, sl, fp, ip, sp}
    74b0:	435f4332 	cmpmi	pc, #-939524096	; 0xc8000000
    74b4:	535f3152 	cmppl	pc, #-2147483628	; 0x80000014
    74b8:	54524154 	ldrbpl	r4, [r2], #-340	; 0xfffffeac
    74bc:	736f505f 	cmnvc	pc, #95	; 0x5f
    74c0:	535f0029 	cmppl	pc, #41	; 0x29
    74c4:	45444454 	strbmi	r4, [r4, #-1108]	; 0xfffffbac
    74c8:	5f485f46 	svcpl	0x00485f46
    74cc:	50470020 	subpl	r0, r7, r0, lsr #32
    74d0:	535f4f49 	cmppl	pc, #292	; 0x124
    74d4:	44454550 	strbmi	r4, [r5], #-1360	; 0xfffffab0
    74d8:	4d30315f 	ldfmis	f3, [r0, #-380]!	; 0xfffffe84
    74dc:	30783020 	rsbscc	r3, r8, r0, lsr #32
    74e0:	30303030 	eorscc	r3, r0, r0, lsr r0
    74e4:	75313030 	ldrvc	r3, [r1, #-48]!	; 0xffffffd0
    74e8:	54584500 	ldrbpl	r4, [r8], #-1280	; 0xfffffb00
    74ec:	50313149 	eorspl	r3, r1, r9, asr #2
    74f0:	20313142 	eorscs	r3, r1, r2, asr #2
    74f4:	54584528 	ldrbpl	r4, [r8], #-1320	; 0xfffffad8
    74f8:	50475f49 	subpl	r5, r7, r9, asr #30
    74fc:	4d5f4f49 	ldclmi	15, cr4, [pc, #-292]	; 73e0 <_Min_Stack_Size+0x6fe0>
    7500:	69707061 	ldmdbvs	r0!, {r0, r5, r6, ip, sp, lr}^
    7504:	745f676e 	ldrbvc	r6, [pc], #-1902	; 750c <_Min_Stack_Size+0x710c>
    7508:	58457b29 	stmdapl	r5, {r0, r3, r5, r8, r9, fp, ip, sp, lr}^
    750c:	31314954 	teqcc	r1, r4, asr r9
    7510:	5047202c 	subpl	r2, r7, ip, lsr #32
    7514:	20424f49 	subcs	r4, r2, r9, asr #30
    7518:	5047202c 	subpl	r2, r7, ip, lsr #32
    751c:	505f4f49 	subspl	r4, pc, r9, asr #30
    7520:	315f4e49 	cmpcc	pc, r9, asr #28
    7524:	452c2031 	strmi	r2, [ip, #-49]!	; 0xffffffcf
    7528:	31495458 	cmpcc	r9, r8, asr r4
    752c:	52495f31 	subpl	r5, r9, #49, 30	; 0xc4
    7530:	007d2051 	rsbseq	r2, sp, r1, asr r0
    7534:	42445f5f 	submi	r5, r4, #380	; 0x17c
    7538:	494d5f4c 	stmdbmi	sp, {r2, r3, r6, r8, r9, sl, fp, ip, lr}^
    753c:	58455f4e 	stmdapl	r5, {r1, r2, r3, r6, r8, r9, sl, fp, ip, lr}^
    7540:	205f5f50 	subscs	r5, pc, r0, asr pc	; <UNPREDICTABLE>
    7544:	30312d28 	eorscc	r2, r1, r8, lsr #26
    7548:	00293132 	eoreq	r3, r9, r2, lsr r1
    754c:	49535f5f 	ldmdbmi	r3, {r0, r1, r2, r3, r4, r6, r8, r9, sl, fp, ip, lr}^
    7550:	545f455a 	ldrbpl	r4, [pc], #-1370	; 7558 <_Min_Stack_Size+0x7158>
    7554:	5f5f0020 	svcpl	0x005f0020
    7558:	4c42444c 	cfstrdmi	mvd4, [r2], {76}	; 0x4c
    755c:	5341485f 	movtpl	r4, #6239	; 0x185f
    7560:	4e45445f 	mcrmi	4, 2, r4, cr5, cr15, {2}
    7564:	5f4d524f 	svcpl	0x004d524f
    7568:	0031205f 	eorseq	r2, r1, pc, asr r0
    756c:	5f433249 	svcpl	0x00433249
    7570:	5f315243 	svcpl	0x00315243
    7574:	53525753 	cmppl	r2, #21757952	; 0x14c0000
    7578:	734d5f54 	movtvc	r5, #57172	; 0xdf54
    757c:	3028206b 	eorcc	r2, r8, fp, rrx
    7580:	4c553178 	ldfmie	f3, [r5], {120}	; 0x78
    7584:	203c3c20 	eorscs	r3, ip, r0, lsr #24
    7588:	5f433249 	svcpl	0x00433249
    758c:	5f315243 	svcpl	0x00315243
    7590:	53525753 	cmppl	r2, #21757952	; 0x14c0000
    7594:	6f505f54 	svcvs	0x00505f54
    7598:	5f002973 	svcpl	0x00002973
    759c:	6972705f 	ldmdbvs	r2!, {r0, r1, r2, r3, r4, r6, ip, sp, lr}^
    75a0:	3066746e 	rsbcc	r7, r6, lr, ror #8
    75a4:	656b696c 	strbvs	r6, [fp, #-2412]!	; 0xfffff694
    75a8:	746d6628 	strbtvc	r6, [sp], #-1576	; 0xfffff9d8
    75ac:	2c677261 	sfmcs	f7, 2, [r7], #-388	; 0xfffffe7c
    75b0:	73726966 	cmnvc	r2, #1671168	; 0x198000
    75b4:	72617674 	rsbvc	r7, r1, #116, 12	; 0x7400000
    75b8:	29677261 	stmdbcs	r7!, {r0, r5, r6, r9, ip, sp, lr}^
    75bc:	43520020 	cmpmi	r2, #32
    75c0:	50475f43 	subpl	r5, r7, r3, asr #30
    75c4:	5f444f49 	svcpl	0x00444f49
    75c8:	5f4b4c43 	svcpl	0x004b4c43
    75cc:	29284e45 	stmdbcs	r8!, {r0, r2, r6, r9, sl, fp, lr}
    75d0:	52202820 	eorpl	r2, r0, #32, 16	; 0x200000
    75d4:	3e2d4343 	cdpcc	3, 2, cr4, cr13, cr3, {2}
    75d8:	32425041 	subcc	r5, r2, #65	; 0x41
    75dc:	20524e45 	subscs	r4, r2, r5, asr #28
    75e0:	28203d7c 	stmdacs	r0!, {r2, r3, r4, r5, r6, r8, sl, fp, ip, sp}
    75e4:	353c3c31 	ldrcc	r3, [ip, #-3121]!	; 0xfffff3cf
    75e8:	00292029 	eoreq	r2, r9, r9, lsr #32
    75ec:	5f433249 	svcpl	0x00433249
    75f0:	5f315243 	svcpl	0x00315243
    75f4:	504f5453 	subpl	r5, pc, r3, asr r4	; <UNPREDICTABLE>
    75f8:	736f505f 	cmnvc	pc, #95	; 0x5f
    75fc:	55392820 	ldrpl	r2, [r9, #-2080]!	; 0xfffff7e0
    7600:	5f5f0029 	svcpl	0x005f0029
    7604:	33544c46 	cmpcc	r4, #17920	; 0x4600
    7608:	49445f32 	stmdbmi	r4, {r1, r4, r5, r8, r9, sl, fp, ip, lr}^
    760c:	205f5f47 	subscs	r5, pc, r7, asr #30
    7610:	32490036 	subcc	r0, r9, #54	; 0x36
    7614:	52535f43 	subspl	r5, r3, #268	; 0x10c
    7618:	534d5f32 	movtpl	r5, #57138	; 0xdf32
    761c:	3249204c 	subcc	r2, r9, #76	; 0x4c
    7620:	52535f43 	subspl	r5, r3, #268	; 0x10c
    7624:	534d5f32 	movtpl	r5, #57138	; 0xdf32
    7628:	734d5f4c 	movtvc	r5, #57164	; 0xdf4c
    762c:	5f5f006b 	svcpl	0x005f006b
    7630:	64616564 	strbtvs	r6, [r1], #-1380	; 0xfffffa9c
    7634:	5f5f2032 	svcpl	0x005f2032
    7638:	72747461 	rsbsvc	r7, r4, #1627389952	; 0x61000000
    763c:	74756269 	ldrbtvc	r6, [r5], #-617	; 0xfffffd97
    7640:	285f5f65 	ldmdacs	pc, {r0, r2, r5, r6, r8, r9, sl, fp, ip, lr}^	; <UNPREDICTABLE>
    7644:	6e5f5f28 	cdpvs	15, 5, cr5, cr15, cr8, {1}
    7648:	7465726f 	strbtvc	r7, [r5], #-623	; 0xfffffd91
    764c:	5f6e7275 	svcpl	0x006e7275
    7650:	0029295f 	eoreq	r2, r9, pc, asr r9
    7654:	4f495047 	svcmi	0x00495047
    7658:	444f4d5f 	strbmi	r4, [pc], #-3423	; 7660 <_Min_Stack_Size+0x7260>
    765c:	554f5f45 	strbpl	r5, [pc, #-3909]	; 671f <_Min_Stack_Size+0x631f>
    7660:	54555054 	ldrbpl	r5, [r5], #-84	; 0xffffffac
    7664:	5f46415f 	svcpl	0x0046415f
    7668:	3020444f 	eorcc	r4, r0, pc, asr #8
    766c:	30303078 	eorscc	r3, r0, r8, ror r0
    7670:	30303030 	eorscc	r3, r0, r0, lsr r0
    7674:	5f007537 	svcpl	0x00007537
    7678:	6d6f635f 	stclvs	3, cr6, [pc, #-380]!	; 7504 <_Min_Stack_Size+0x7104>
    767c:	5f726170 	svcpl	0x00726170
    7680:	745f6e66 	ldrbvc	r6, [pc], #-3686	; 7688 <_Min_Stack_Size+0x7288>
    7684:	6665645f 			; <UNDEFINED> instruction: 0x6665645f
    7688:	64656e69 	strbtvs	r6, [r5], #-3689	; 0xfffff197
    768c:	49550020 	ldmdbmi	r5, {r5}^
    7690:	414d544e 	cmpmi	sp, lr, asr #8
    7694:	28435f58 	stmdacs	r3, {r3, r4, r6, r8, r9, sl, fp, ip, lr}^
    7698:	5f202978 	svcpl	0x00202978
    769c:	4e49555f 	mcrmi	5, 2, r5, cr9, cr15, {2}
    76a0:	58414d54 	stmdapl	r1, {r2, r4, r6, r8, sl, fp, lr}^
    76a4:	7828435f 	stmdavc	r8!, {r0, r1, r2, r3, r4, r6, r8, r9, lr}
    76a8:	5f5f0029 	svcpl	0x005f0029
    76ac:	4353494d 	cmpmi	r3, #1261568	; 0x134000
    76b0:	5349565f 	movtpl	r5, #38495	; 0x965f
    76b4:	454c4249 	strbmi	r4, [ip, #-585]	; 0xfffffdb7
    76b8:	45003120 	strmi	r3, [r0, #-288]	; 0xfffffee0
    76bc:	31495458 	cmpcc	r9, r8, asr r4
    76c0:	31415032 	cmpcc	r1, r2, lsr r0
    76c4:	45282032 	strmi	r2, [r8, #-50]!	; 0xffffffce
    76c8:	5f495458 	svcpl	0x00495458
    76cc:	4f495047 	svcmi	0x00495047
    76d0:	70614d5f 	rsbvc	r4, r1, pc, asr sp
    76d4:	676e6970 			; <UNDEFINED> instruction: 0x676e6970
    76d8:	7b29745f 	blvc	a6485c <_Min_Stack_Size+0xa6445c>
    76dc:	49545845 	ldmdbmi	r4, {r0, r2, r6, fp, ip, lr}^
    76e0:	202c3231 	eorcs	r3, ip, r1, lsr r2
    76e4:	4f495047 	svcmi	0x00495047
    76e8:	202c2041 	eorcs	r2, ip, r1, asr #32
    76ec:	4f495047 	svcmi	0x00495047
    76f0:	4e49505f 	mcrmi	0, 2, r5, cr9, cr15, {2}
    76f4:	2032315f 	eorscs	r3, r2, pc, asr r1
    76f8:	5845202c 	stmdapl	r5, {r2, r3, r5, sp}^
    76fc:	32314954 	eorscc	r4, r1, #84, 18	; 0x150000
    7700:	5152495f 	cmppl	r2, pc, asr r9
    7704:	5f007d20 	svcpl	0x00007d20
    7708:	5058455f 	subspl	r4, r8, pc, asr r5
    770c:	5f5f5f00 	svcpl	0x005f5f00
    7710:	36746e69 	ldrbtcc	r6, [r4], -r9, ror #28
    7714:	5f745f34 	svcpl	0x00745f34
    7718:	69666564 	stmdbvs	r6!, {r2, r5, r6, r8, sl, sp, lr}^
    771c:	2064656e 	rsbcs	r6, r4, lr, ror #10
    7720:	57530031 	smmlarpl	r3, r1, r0, r0
    7724:	00524549 	subseq	r4, r2, r9, asr #10
    7728:	41485f5f 	cmpmi	r8, pc, asr pc
    772c:	535f4556 	cmppl	pc, #360710144	; 0x15800000
    7730:	55434550 	strbpl	r4, [r3, #-1360]	; 0xfffffab0
    7734:	4954414c 	ldmdbmi	r4, {r2, r3, r6, r8, lr}^
    7738:	535f4e4f 	cmppl	pc, #1264	; 0x4f0
    773c:	5f454641 	svcpl	0x00454641
    7740:	554c4156 	strbpl	r4, [ip, #-342]	; 0xfffffeaa
    7744:	00312045 	eorseq	r2, r1, r5, asr #32
    7748:	41535f5f 	cmpmi	r3, pc, asr pc
    774c:	4d554343 	ldclmi	3, cr4, [r5, #-268]	; 0xfffffef4
    7750:	4942465f 	stmdbmi	r2, {r0, r1, r2, r3, r4, r6, r9, sl, lr}^
    7754:	205f5f54 	subscs	r5, pc, r4, asr pc	; <UNPREDICTABLE>
    7758:	5f5f0037 	svcpl	0x005f0037
    775c:	5f434347 	svcpl	0x00434347
    7760:	45564148 	ldrbmi	r4, [r6, #-328]	; 0xfffffeb8
    7764:	4e59535f 	mrcmi	3, 2, r5, cr9, cr15, {2}
    7768:	4f435f43 	svcmi	0x00435f43
    776c:	5241504d 	subpl	r5, r1, #77	; 0x4d
    7770:	4e415f45 	cdpmi	15, 4, cr5, cr1, cr5, {2}
    7774:	57535f44 	ldrbpl	r5, [r3, -r4, asr #30]
    7778:	345f5041 	ldrbcc	r5, [pc], #-65	; 7780 <_Min_Stack_Size+0x7380>
    777c:	49003120 	stmdbmi	r0, {r5, r8, ip, sp}
    7780:	535f4332 	cmppl	pc, #-939524096	; 0xc8000000
    7784:	535f3252 	cmppl	pc, #536870917	; 0x20000005
    7788:	4544424d 	strbmi	r4, [r4, #-589]	; 0xfffffdb3
    778c:	4c554146 	ldfmie	f4, [r5], {70}	; 0x46
    7790:	734d5f54 	movtvc	r5, #57172	; 0xdf54
    7794:	3028206b 	eorcc	r2, r8, fp, rrx
    7798:	4c553178 	ldfmie	f3, [r5], {120}	; 0x78
    779c:	203c3c20 	eorscs	r3, ip, r0, lsr #24
    77a0:	5f433249 	svcpl	0x00433249
    77a4:	5f325253 	svcpl	0x00325253
    77a8:	44424d53 	strbmi	r4, [r2], #-3411	; 0xfffff2ad
    77ac:	55414645 	strbpl	r4, [r1, #-1605]	; 0xfffff9bb
    77b0:	505f544c 	subspl	r5, pc, ip, asr #8
    77b4:	0029736f 	eoreq	r7, r9, pc, ror #6
    77b8:	5f433249 	svcpl	0x00433249
    77bc:	5f325243 	svcpl	0x00325243
    77c0:	55425449 	strbpl	r5, [r2, #-1097]	; 0xfffffbb7
    77c4:	5f4e4546 	svcpl	0x004e4546
    77c8:	206b734d 	rsbcs	r7, fp, sp, asr #6
    77cc:	31783028 	cmncc	r8, r8, lsr #32
    77d0:	3c204c55 	stccc	12, cr4, [r0], #-340	; 0xfffffeac
    77d4:	3249203c 	subcc	r2, r9, #60	; 0x3c
    77d8:	52435f43 	subpl	r5, r3, #268	; 0x10c
    77dc:	54495f32 	strbpl	r5, [r9], #-3890	; 0xfffff0ce
    77e0:	45465542 	strbmi	r5, [r6, #-1346]	; 0xfffffabe
    77e4:	6f505f4e 	svcvs	0x00505f4e
    77e8:	5f002973 	svcpl	0x00002973
    77ec:	4745425f 	smlsldmi	r4, r5, pc, r2	; <UNPREDICTABLE>
    77f0:	445f4e49 	ldrbmi	r4, [pc], #-3657	; 77f8 <_Min_Stack_Size+0x73f8>
    77f4:	534c4345 	movtpl	r4, #49989	; 0xc345
    77f8:	5f5f0020 	svcpl	0x005f0020
    77fc:	55434341 	strbpl	r4, [r3, #-833]	; 0xfffffcbf
    7800:	494d5f4d 	stmdbmi	sp, {r0, r2, r3, r6, r8, r9, sl, fp, ip, lr}^
    7804:	205f5f4e 	subscs	r5, pc, lr, asr #30
    7808:	58302d28 	ldmdapl	r0!, {r3, r5, r8, sl, fp, sp}
    780c:	35315031 	ldrcc	r5, [r1, #-49]!	; 0xffffffcf
    7810:	58302d4b 	ldmdapl	r0!, {r0, r1, r3, r6, r8, sl, fp, sp}
    7814:	35315031 	ldrcc	r5, [r1, #-49]!	; 0xffffffcf
    7818:	4500294b 	strmi	r2, [r0, #-2379]	; 0xfffff6b5
    781c:	31495458 	cmpcc	r9, r8, asr r4
    7820:	31445031 	cmpcc	r4, r1, lsr r0
    7824:	45282031 	strmi	r2, [r8, #-49]!	; 0xffffffcf
    7828:	5f495458 	svcpl	0x00495458
    782c:	4f495047 	svcmi	0x00495047
    7830:	70614d5f 	rsbvc	r4, r1, pc, asr sp
    7834:	676e6970 			; <UNDEFINED> instruction: 0x676e6970
    7838:	7b29745f 	blvc	a649bc <_Min_Stack_Size+0xa645bc>
    783c:	49545845 	ldmdbmi	r4, {r0, r2, r6, fp, ip, lr}^
    7840:	2c203131 	stfcss	f3, [r0], #-196	; 0xffffff3c
    7844:	49504720 	ldmdbmi	r0, {r5, r8, r9, sl, lr}^
    7848:	2c20444f 	cfstrscs	mvf4, [r0], #-316	; 0xfffffec4
    784c:	49504720 	ldmdbmi	r0, {r5, r8, r9, sl, lr}^
    7850:	49505f4f 	ldmdbmi	r0, {r0, r1, r2, r3, r6, r8, r9, sl, fp, ip, lr}^
    7854:	31315f4e 	teqcc	r1, lr, asr #30
    7858:	45202c20 	strmi	r2, [r0, #-3104]!	; 0xfffff3e0
    785c:	31495458 	cmpcc	r9, r8, asr r4
    7860:	52495f31 	subpl	r5, r9, #49, 30	; 0xc4
    7864:	45007d51 	strmi	r7, [r0, #-3409]	; 0xfffff2af
    7868:	30495458 	subcc	r5, r9, r8, asr r4
    786c:	5f003020 	svcpl	0x00003020
    7870:	554e475f 	strbpl	r4, [lr, #-1887]	; 0xfffff8a1
    7874:	41565f43 	cmpmi	r6, r3, asr #30
    7878:	53494c5f 	movtpl	r4, #40031	; 0x9c5f
    787c:	4f435f54 	svcmi	0x00435f54
    7880:	5441504d 	strbpl	r5, [r1], #-77	; 0xffffffb3
    7884:	4c494249 	sfmmi	f4, 2, [r9], {73}	; 0x49
    7888:	20595449 	subscs	r5, r9, r9, asr #8
    788c:	5f5f0031 	svcpl	0x005f0031
    7890:	5f4d5241 	svcpl	0x004d5241
    7894:	54414546 	strbpl	r4, [r1], #-1350	; 0xfffffaba
    7898:	5f455255 	svcpl	0x00455255
    789c:	50595243 	subspl	r5, r9, r3, asr #4
    78a0:	5f004f54 	svcpl	0x00004f54
    78a4:	544e495f 	strbpl	r4, [lr], #-2399	; 0xfffff6a1
    78a8:	41454c5f 	cmpmi	r5, pc, asr ip
    78ac:	32335453 	eorscc	r5, r3, #1392508928	; 0x53000000
    78b0:	5059545f 	subspl	r5, r9, pc, asr r4
    78b4:	205f5f45 	subscs	r5, pc, r5, asr #30
    78b8:	676e6f6c 	strbvs	r6, [lr, -ip, ror #30]!
    78bc:	746e6920 	strbtvc	r6, [lr], #-2336	; 0xfffff6e0
    78c0:	54584500 	ldrbpl	r4, [r8], #-1280	; 0xfffffb00
    78c4:	495f3449 	ldmdbmi	pc, {r0, r3, r6, sl, ip, sp}^	; <UNPREDICTABLE>
    78c8:	31205152 			; <UNDEFINED> instruction: 0x31205152
    78cc:	32490030 	subcc	r0, r9, #48	; 0x30
    78d0:	52435f43 	subpl	r5, r3, #268	; 0x10c
    78d4:	57535f31 	smmlarpl	r3, r1, pc, r5	; <UNPREDICTABLE>
    78d8:	5f545352 	svcpl	0x00545352
    78dc:	20736f50 	rsbscs	r6, r3, r0, asr pc
    78e0:	55353128 	ldrpl	r3, [r5, #-296]!	; 0xfffffed8
    78e4:	5f5f0029 	svcpl	0x005f0029
    78e8:	544e4955 	strbpl	r4, [lr], #-2389	; 0xfffff6ab
    78ec:	41454c5f 	cmpmi	r5, pc, asr ip
    78f0:	34365453 	ldrtcc	r5, [r6], #-1107	; 0xfffffbad
    78f4:	58414d5f 	stmdapl	r1, {r0, r1, r2, r3, r4, r6, r8, sl, fp, lr}^
    78f8:	30205f5f 	eorcc	r5, r0, pc, asr pc
    78fc:	66666678 			; <UNDEFINED> instruction: 0x66666678
    7900:	66666666 	strbtvs	r6, [r6], -r6, ror #12
    7904:	66666666 	strbtvs	r6, [r6], -r6, ror #12
    7908:	66666666 	strbtvs	r6, [r6], -r6, ror #12
    790c:	4c4c5566 	cfstr64mi	mvdx5, [ip], {102}	; 0x66
    7910:	465f5f00 	ldrbmi	r5, [pc], -r0, lsl #30
    7914:	54434152 	strbpl	r4, [r3], #-338	; 0xfffffeae
    7918:	4942495f 	stmdbmi	r2, {r0, r1, r2, r3, r4, r6, r8, fp, lr}^
    791c:	205f5f54 	subscs	r5, pc, r4, asr pc	; <UNPREDICTABLE>
    7920:	575f0030 	smmlarpl	pc, r0, r0, r0	; <UNPREDICTABLE>
    7924:	5f544e41 	svcpl	0x00544e41
    7928:	5f455355 	svcpl	0x00455355
    792c:	4f544447 	svcmi	0x00544447
    7930:	00312041 	eorseq	r2, r1, r1, asr #32
    7934:	4c465f5f 	mcrrmi	15, 5, r5, r6, cr15
    7938:	5f343654 	svcpl	0x00343654
    793c:	495f5349 	ldmdbmi	pc, {r0, r3, r6, r8, r9, ip, lr}^	; <UNPREDICTABLE>
    7940:	365f4345 	ldrbcc	r4, [pc], -r5, asr #6
    7944:	39353530 	ldmdbcc	r5!, {r4, r5, r8, sl, ip, sp}
    7948:	32205f5f 	eorcc	r5, r0, #380	; 0x17c
    794c:	4e5f5f00 	cdpmi	15, 5, cr5, cr15, cr0, {0}
    7950:	494c5745 	stmdbmi	ip, {r0, r2, r6, r8, r9, sl, ip, lr}^
    7954:	41505f42 	cmpmi	r0, r2, asr #30
    7958:	4c484354 	mcrrmi	3, 5, r4, r8, cr4
    795c:	4c455645 	mcrrmi	6, 4, r5, r5, cr5
    7960:	30205f5f 	eorcc	r5, r0, pc, asr pc
    7964:	54584500 	ldrbpl	r4, [r8], #-1280	; 0xfffffb00
    7968:	79545f49 	ldmdbvc	r4, {r0, r3, r6, r8, r9, sl, fp, ip, lr}^
    796c:	65446570 	strbvs	r6, [r4, #-1392]	; 0xfffffa90
    7970:	564e0066 	strbpl	r0, [lr], -r6, rrx
    7974:	495f4349 	ldmdbmi	pc, {r0, r3, r6, r8, r9, lr}^	; <UNPREDICTABLE>
    7978:	38335152 	ldmdacc	r3!, {r1, r4, r6, r8, ip, lr}
    797c:	4153555f 	cmpmi	r3, pc, asr r5
    7980:	5f325452 	svcpl	0x00325452
    7984:	62616e45 	rsbvs	r6, r1, #1104	; 0x450
    7988:	2820656c 	stmdacs	r0!, {r2, r3, r5, r6, r8, sl, sp, lr}
    798c:	4349564e 	movtmi	r5, #38478	; 0x964e
    7990:	4553495f 	ldrbmi	r4, [r3, #-2399]	; 0xfffff6a1
    7994:	7c203152 	stfvcs	f3, [r0], #-328	; 0xfffffeb8
    7998:	3c31203d 	ldccc	0, cr2, [r1], #-244	; 0xffffff0c
    799c:	5520283c 	strpl	r2, [r0, #-2108]!	; 0xfffff7c4
    79a0:	54524153 	ldrbpl	r4, [r2], #-339	; 0xfffffead
    79a4:	52495f32 	subpl	r5, r9, #50, 30	; 0xc8
    79a8:	202d2051 	eorcs	r2, sp, r1, asr r0
    79ac:	29203233 	stmdbcs	r0!, {r0, r1, r4, r5, r9, ip, sp}
    79b0:	5f5f0029 	svcpl	0x005f0029
    79b4:	4544524f 	strbmi	r5, [r4, #-591]	; 0xfffffdb1
    79b8:	494c5f52 	stmdbmi	ip, {r1, r4, r6, r8, r9, sl, fp, ip, lr}^
    79bc:	454c5454 	strbmi	r5, [ip, #-1108]	; 0xfffffbac
    79c0:	444e455f 	strbmi	r4, [lr], #-1375	; 0xfffffaa1
    79c4:	5f4e4149 	svcpl	0x004e4149
    79c8:	3231205f 	eorscc	r2, r1, #95	; 0x5f
    79cc:	5f003433 	svcpl	0x00003433
    79d0:	7a69735f 	bvc	1a64754 <_Min_Stack_Size+0x1a64354>
    79d4:	00745f65 	rsbseq	r5, r4, r5, ror #30
    79d8:	4c465f5f 	mcrrmi	15, 5, r5, r6, cr15
    79dc:	4f4e5f54 	svcmi	0x004e5f54
    79e0:	4d5f4d52 	ldclmi	13, cr4, [pc, #-328]	; 78a0 <_Min_Stack_Size+0x74a0>
    79e4:	5f5f5841 	svcpl	0x005f5841
    79e8:	342e3320 	strtcc	r3, [lr], #-800	; 0xfffffce0
    79ec:	32383230 	eorscc	r3, r8, #48, 4
    79f0:	36363433 			; <UNDEFINED> instruction: 0x36363433
    79f4:	32353833 	eorscc	r3, r5, #3342336	; 0x330000
    79f8:	65363838 	ldrvs	r3, [r6, #-2104]!	; 0xfffff7c8
    79fc:	4638332b 	ldrtmi	r3, [r8], -fp, lsr #6
    7a00:	445f5f00 	ldrbmi	r5, [pc], #-3840	; 7a08 <_Min_Stack_Size+0x7608>
    7a04:	2053544f 	subscs	r5, r3, pc, asr #8
    7a08:	2e2e202c 	cdpcs	0, 2, cr2, cr14, cr12, {1}
    7a0c:	525f002e 	subspl	r0, pc, #46	; 0x2e
    7a10:	544e4545 	strbpl	r4, [lr], #-1349	; 0xfffffabb
    7a14:	5445475f 	strbpl	r4, [r5], #-1887	; 0xfffff8a1
    7a18:	45544144 	ldrbmi	r4, [r4, #-324]	; 0xfffffebc
    7a1c:	5252455f 	subspl	r4, r2, #398458880	; 0x17c00000
    7a20:	7028505f 	eorvc	r5, r8, pc, asr r0
    7a24:	20297274 	eorcs	r7, r9, r4, ror r2
    7a28:	28282628 	stmdacs	r8!, {r3, r5, r9, sl, sp}
    7a2c:	29727470 	ldmdbcs	r2!, {r4, r5, r6, sl, ip, sp, lr}^
    7a30:	6d5f3e2d 	ldclvs	14, cr3, [pc, #-180]	; 7984 <_Min_Stack_Size+0x7584>
    7a34:	2d637369 	stclcs	3, cr7, [r3, #-420]!	; 0xfffffe5c
    7a38:	65675f3e 	strbvs	r5, [r7, #-3902]!	; 0xfffff0c2
    7a3c:	74616474 	strbtvc	r6, [r1], #-1140	; 0xfffffb8c
    7a40:	72655f65 	rsbvc	r5, r5, #404	; 0x194
    7a44:	00292972 	eoreq	r2, r9, r2, ror r9
    7a48:	4c465f5f 	mcrrmi	15, 5, r5, r6, cr15
    7a4c:	494d5f54 	stmdbmi	sp, {r2, r4, r6, r8, r9, sl, fp, ip, lr}^
    7a50:	30315f4e 	eorscc	r5, r1, lr, asr #30
    7a54:	5058455f 	subspl	r4, r8, pc, asr r5
    7a58:	28205f5f 	stmdacs	r0!, {r0, r1, r2, r3, r4, r6, r8, r9, sl, fp, ip, lr}
    7a5c:	2937332d 	ldmdbcs	r7!, {r0, r2, r3, r5, r8, r9, ip, sp}
    7a60:	43324900 	teqmi	r2, #0, 18
    7a64:	3152435f 	cmpcc	r2, pc, asr r3
    7a68:	454c415f 	strbmi	r4, [ip, #-351]	; 0xfffffea1
    7a6c:	4d5f5452 	cfldrdmi	mvd5, [pc, #-328]	; 792c <_Min_Stack_Size+0x752c>
    7a70:	28206b73 	stmdacs	r0!, {r0, r1, r4, r5, r6, r8, r9, fp, sp, lr}
    7a74:	55317830 	ldrpl	r7, [r1, #-2096]!	; 0xfffff7d0
    7a78:	3c3c204c 	ldccc	0, cr2, [ip], #-304	; 0xfffffed0
    7a7c:	43324920 	teqmi	r2, #32, 18	; 0x80000
    7a80:	3152435f 	cmpcc	r2, pc, asr r3
    7a84:	454c415f 	strbmi	r4, [ip, #-351]	; 0xfffffea1
    7a88:	505f5452 	subspl	r5, pc, r2, asr r4	; <UNPREDICTABLE>
    7a8c:	0029736f 	eoreq	r7, r9, pc, ror #6
    7a90:	4f495047 	svcmi	0x00495047
    7a94:	4e49505f 	mcrmi	0, 2, r5, cr9, cr15, {2}
    7a98:	2820315f 	stmdacs	r0!, {r0, r1, r2, r3, r4, r6, r8, ip, sp}
    7a9c:	6e697528 	cdpvs	5, 6, cr7, cr9, cr8, {1}
    7aa0:	5f363174 	svcpl	0x00363174
    7aa4:	78302974 	ldmdavc	r0!, {r2, r4, r5, r6, r8, fp, sp}
    7aa8:	32303030 	eorscc	r3, r0, #48	; 0x30
    7aac:	5f5f0029 	svcpl	0x005f0029
    7ab0:	43414c55 	movtmi	r4, #7253	; 0x1c55
    7ab4:	5f4d5543 	svcpl	0x004d5543
    7ab8:	54494249 	strbpl	r4, [r9], #-585	; 0xfffffdb7
    7abc:	33205f5f 			; <UNDEFINED> instruction: 0x33205f5f
    7ac0:	5f5f0032 	svcpl	0x005f0032
    7ac4:	54524853 	ldrbpl	r4, [r2], #-2131	; 0xfffff7ad
    7ac8:	58414d5f 	stmdapl	r1, {r0, r1, r2, r3, r4, r6, r8, sl, fp, lr}^
    7acc:	30205f5f 	eorcc	r5, r0, pc, asr pc
    7ad0:	66663778 			; <UNDEFINED> instruction: 0x66663778
    7ad4:	5f5f0066 	svcpl	0x005f0066
    7ad8:	4c42444c 	cfstrdmi	mvd4, [r2], {76}	; 0x4c
    7adc:	5f53495f 	svcpl	0x0053495f
    7ae0:	5f434549 	svcpl	0x00434549
    7ae4:	35353036 	ldrcc	r3, [r5, #-54]!	; 0xffffffca
    7ae8:	205f5f39 	subscs	r5, pc, r9, lsr pc	; <UNPREDICTABLE>
    7aec:	5f5f0032 	svcpl	0x005f0032
    7af0:	615f7369 	cmpvs	pc, r9, ror #6
    7af4:	6e67696c 	vnmulvs.f16	s13, s14, s25	; <UNPREDICTABLE>
    7af8:	78286465 	stmdavc	r8!, {r0, r2, r5, r6, sl, sp, lr}
    7afc:	2029792c 	eorcs	r7, r9, ip, lsr #18
    7b00:	75625f5f 	strbvc	r5, [r2, #-3935]!	; 0xfffff0a1
    7b04:	69746c69 	ldmdbvs	r4!, {r0, r3, r5, r6, sl, fp, sp, lr}^
    7b08:	73695f6e 	cmnvc	r9, #440	; 0x1b8
    7b0c:	696c615f 	stmdbvs	ip!, {r0, r1, r2, r3, r4, r6, r8, sp, lr}^
    7b10:	64656e67 	strbtvs	r6, [r5], #-3687	; 0xfffff199
    7b14:	202c7828 	eorcs	r7, ip, r8, lsr #16
    7b18:	5f002979 	svcpl	0x00002979
    7b1c:	4c4c555f 	cfstr64mi	mvdx5, [ip], {95}	; 0x5f
    7b20:	55434341 	strbpl	r4, [r3, #-833]	; 0xfffffcbf
    7b24:	50455f4d 	subpl	r5, r5, sp, asr #30
    7b28:	4f4c4953 	svcmi	0x004c4953
    7b2c:	205f5f4e 	subscs	r5, pc, lr, asr #30
    7b30:	50317830 	eorspl	r7, r1, r0, lsr r8
    7b34:	5532332d 	ldrpl	r3, [r2, #-813]!	; 0xfffffcd3
    7b38:	004b4c4c 	subeq	r4, fp, ip, asr #24
    7b3c:	5a49535f 	bpl	125c8c0 <_Min_Stack_Size+0x125c4c0>
    7b40:	5f545f45 	svcpl	0x00545f45
    7b44:	49464544 	stmdbmi	r6, {r2, r6, r8, sl, lr}^
    7b48:	2044454e 	subcs	r4, r4, lr, asr #10
    7b4c:	445f5f00 	ldrbmi	r5, [pc], #-3840	; 7b54 <_Min_Stack_Size+0x7754>
    7b50:	42465f51 	submi	r5, r6, #324	; 0x144
    7b54:	5f5f5449 	svcpl	0x005f5449
    7b58:	00333620 	eorseq	r3, r3, r0, lsr #12
    7b5c:	5f433249 	svcpl	0x00433249
    7b60:	5f325253 	svcpl	0x00325253
    7b64:	4c415544 	cfstr64mi	mvdx5, [r1], {68}	; 0x44
    7b68:	734d5f46 	movtvc	r5, #57158	; 0xdf46
    7b6c:	3028206b 	eorcc	r2, r8, fp, rrx
    7b70:	4c553178 	ldfmie	f3, [r5], {120}	; 0x78
    7b74:	203c3c20 	eorscs	r3, ip, r0, lsr #24
    7b78:	5f433249 	svcpl	0x00433249
    7b7c:	5f325253 	svcpl	0x00325253
    7b80:	4c415544 	cfstr64mi	mvdx5, [r1], {68}	; 0x44
    7b84:	6f505f46 	svcvs	0x00505f46
    7b88:	5f002973 	svcpl	0x00002973
    7b8c:	554e475f 	strbpl	r4, [lr, #-1887]	; 0xfffff8a1
    7b90:	5349565f 	movtpl	r5, #38495	; 0x965f
    7b94:	454c4249 	strbmi	r4, [ip, #-585]	; 0xfffffdb7
    7b98:	5f003020 	svcpl	0x00003020
    7b9c:	4341535f 	movtmi	r5, #4959	; 0x135f
    7ba0:	5f4d5543 	svcpl	0x004d5543
    7ba4:	54494249 	strbpl	r4, [r9], #-585	; 0xfffffdb7
    7ba8:	38205f5f 	stmdacc	r0!, {r0, r1, r2, r3, r4, r6, r8, r9, sl, fp, ip, lr}
    7bac:	505f5f00 	subspl	r5, pc, r0, lsl #30
    7bb0:	49445254 	stmdbmi	r4, {r2, r4, r6, r9, ip, lr}^
    7bb4:	545f4646 	ldrbpl	r4, [pc], #-1606	; 7bbc <_Min_Stack_Size+0x77bc>
    7bb8:	5f5f0020 	svcpl	0x005f0020
    7bbc:	5f514855 	svcpl	0x00514855
    7bc0:	54494249 	strbpl	r4, [r9], #-585	; 0xfffffdb7
    7bc4:	30205f5f 	eorcc	r5, r0, pc, asr pc
    7bc8:	43324900 	teqmi	r2, #0, 18
    7bcc:	3152535f 	cmpcc	r2, pc, asr r3
    7bd0:	4654425f 			; <UNDEFINED> instruction: 0x4654425f
    7bd4:	736f505f 	cmnvc	pc, #95	; 0x5f
    7bd8:	55322820 	ldrpl	r2, [r2, #-2080]!	; 0xfffff7e0
    7bdc:	50470029 	subpl	r0, r7, r9, lsr #32
    7be0:	505f4f49 	subspl	r4, pc, r9, asr #30
    7be4:	355f4e49 	ldrbcc	r4, [pc, #-3657]	; 6da3 <_Min_Stack_Size+0x69a3>
    7be8:	75282820 	strvc	r2, [r8, #-2080]!	; 0xfffff7e0
    7bec:	31746e69 	cmncc	r4, r9, ror #28
    7bf0:	29745f36 	ldmdbcs	r4!, {r1, r2, r4, r5, r8, r9, sl, fp, ip, lr}^
    7bf4:	30307830 	eorscc	r7, r0, r0, lsr r8
    7bf8:	00293032 	eoreq	r3, r9, r2, lsr r0
    7bfc:	4f495047 	svcmi	0x00495047
    7c00:	41425f43 	cmpmi	r2, r3, asr #30
    7c04:	28204553 	stmdacs	r0!, {r0, r1, r4, r6, r8, sl, lr}
    7c08:	69726550 	ldmdbvs	r2!, {r4, r6, r8, sl, sp, lr}^
    7c0c:	72656870 	rsbvc	r6, r5, #112, 16	; 0x700000
    7c10:	5f736c61 	svcpl	0x00736c61
    7c14:	45534142 	ldrbmi	r4, [r3, #-322]	; 0xfffffebe
    7c18:	30202b20 	eorcc	r2, r0, r0, lsr #22
    7c1c:	30303078 	eorscc	r3, r0, r8, ror r0
    7c20:	30303131 	eorscc	r3, r0, r1, lsr r1
    7c24:	294c5530 	stmdbcs	ip, {r4, r5, r8, sl, ip, lr}^
    7c28:	54584500 	ldrbpl	r4, [r8], #-1280	; 0xfffffb00
    7c2c:	42503849 	subsmi	r3, r0, #4784128	; 0x490000
    7c30:	45282038 	strmi	r2, [r8, #-56]!	; 0xffffffc8
    7c34:	5f495458 	svcpl	0x00495458
    7c38:	4f495047 	svcmi	0x00495047
    7c3c:	70614d5f 	rsbvc	r4, r1, pc, asr sp
    7c40:	676e6970 			; <UNDEFINED> instruction: 0x676e6970
    7c44:	7b29745f 	blvc	a64dc8 <_Min_Stack_Size+0xa649c8>
    7c48:	49545845 	ldmdbmi	r4, {r0, r2, r6, fp, ip, lr}^
    7c4c:	47202c38 			; <UNDEFINED> instruction: 0x47202c38
    7c50:	424f4950 	submi	r4, pc, #80, 18	; 0x140000
    7c54:	47202c20 	strmi	r2, [r0, -r0, lsr #24]!
    7c58:	5f4f4950 	svcpl	0x004f4950
    7c5c:	5f4e4950 	svcpl	0x004e4950
    7c60:	452c2038 	strmi	r2, [ip, #-56]!	; 0xffffffc8
    7c64:	38495458 	stmdacc	r9, {r3, r4, r6, sl, ip, lr}^
    7c68:	5152495f 	cmppl	r2, pc, asr r9
    7c6c:	49007d20 	stmdbmi	r0, {r5, r8, sl, fp, ip, sp, lr}
    7c70:	535f4332 	cmppl	pc, #-939524096	; 0xc8000000
    7c74:	475f3252 			; <UNDEFINED> instruction: 0x475f3252
    7c78:	41434e45 	cmpmi	r3, r5, asr #28
    7c7c:	49204c4c 	stmdbmi	r0!, {r2, r3, r6, sl, fp, lr}
    7c80:	535f4332 	cmppl	pc, #-939524096	; 0xc8000000
    7c84:	475f3252 			; <UNDEFINED> instruction: 0x475f3252
    7c88:	41434e45 	cmpmi	r3, r5, asr #28
    7c8c:	4d5f4c4c 	ldclmi	12, cr4, [pc, #-304]	; 7b64 <_Min_Stack_Size+0x7764>
    7c90:	5f006b73 	svcpl	0x00006b73
    7c94:	544e495f 	strbpl	r4, [lr], #-2399	; 0xfffff6a1
    7c98:	5341465f 	movtpl	r4, #5727	; 0x165f
    7c9c:	5f363154 	svcpl	0x00363154
    7ca0:	45505954 	ldrbmi	r5, [r0, #-2388]	; 0xfffff6ac
    7ca4:	69205f5f 	stmdbvs	r0!, {r0, r1, r2, r3, r4, r6, r8, r9, sl, fp, ip, lr}
    7ca8:	5f00746e 	svcpl	0x0000746e
    7cac:	544e4955 	strbpl	r4, [lr], #-2389	; 0xfffff6ab
    7cb0:	5f58414d 	svcpl	0x0058414d
    7cb4:	45445f54 	strbmi	r5, [r4, #-3924]	; 0xfffff0ac
    7cb8:	52414c43 	subpl	r4, r1, #17152	; 0x4300
    7cbc:	00204445 	eoreq	r4, r0, r5, asr #8
    7cc0:	41535f5f 	cmpmi	r3, pc, asr pc
    7cc4:	4d554343 	ldclmi	3, cr4, [r5, #-268]	; 0xfffffef4
    7cc8:	4e494d5f 	mcrmi	13, 2, r4, cr9, cr15, {2}
    7ccc:	28205f5f 	stmdacs	r0!, {r0, r1, r2, r3, r4, r6, r8, r9, sl, fp, ip, lr}
    7cd0:	3158302d 	cmpcc	r8, sp, lsr #32
    7cd4:	4b483750 	blmi	1215a1c <_Min_Stack_Size+0x121561c>
    7cd8:	3158302d 	cmpcc	r8, sp, lsr #32
    7cdc:	4b483750 	blmi	1215a24 <_Min_Stack_Size+0x1215624>
    7ce0:	5f5f0029 	svcpl	0x005f0029
    7ce4:	52464c55 	subpl	r4, r6, #21760	; 0x5500
    7ce8:	5f544341 	svcpl	0x00544341
    7cec:	5f58414d 	svcpl	0x0058414d
    7cf0:	5830205f 	ldmdapl	r0!, {r0, r1, r2, r3, r4, r6, sp}
    7cf4:	46464646 	strbmi	r4, [r6], -r6, asr #12
    7cf8:	46464646 	strbmi	r4, [r6], -r6, asr #12
    7cfc:	32332d50 	eorscc	r2, r3, #80, 26	; 0x1400
    7d00:	00524c55 	subseq	r4, r2, r5, asr ip
    7d04:	49555f5f 	ldmdbmi	r5, {r0, r1, r2, r3, r4, r6, r8, r9, sl, fp, ip, lr}^
    7d08:	4c5f544e 	cfldrdmi	mvd5, [pc], {78}	; 0x4e
    7d0c:	54534145 	ldrbpl	r4, [r3], #-325	; 0xfffffebb
    7d10:	545f3631 	ldrbpl	r3, [pc], #-1585	; 7d18 <_Min_Stack_Size+0x7918>
    7d14:	5f455059 	svcpl	0x00455059
    7d18:	6873205f 	ldmdavs	r3!, {r0, r1, r2, r3, r4, r6, sp}^
    7d1c:	2074726f 	rsbscs	r7, r4, pc, ror #4
    7d20:	69736e75 	ldmdbvs	r3!, {r0, r2, r4, r5, r6, r9, sl, fp, sp, lr}^
    7d24:	64656e67 	strbtvs	r6, [r5], #-3687	; 0xfffff199
    7d28:	746e6920 	strbtvc	r6, [lr], #-2336	; 0xfffff6e0
    7d2c:	415f5f00 	cmpmi	pc, r0, lsl #30
    7d30:	465f4d52 			; <UNDEFINED> instruction: 0x465f4d52
    7d34:	55544145 	ldrbpl	r4, [r4, #-325]	; 0xfffffebb
    7d38:	465f4552 			; <UNDEFINED> instruction: 0x465f4552
    7d3c:	5f00414d 	svcpl	0x0000414d
    7d40:	43414c5f 	movtmi	r4, #7263	; 0x1c5f
    7d44:	5f4d5543 	svcpl	0x004d5543
    7d48:	5f58414d 	svcpl	0x0058414d
    7d4c:	5830205f 	ldmdapl	r0!, {r0, r1, r2, r3, r4, r6, sp}
    7d50:	46464637 			; <UNDEFINED> instruction: 0x46464637
    7d54:	46464646 	strbmi	r4, [r6], -r6, asr #12
    7d58:	46464646 	strbmi	r4, [r6], -r6, asr #12
    7d5c:	46464646 	strbmi	r4, [r6], -r6, asr #12
    7d60:	31332d50 	teqcc	r3, r0, asr sp
    7d64:	5f004b4c 	svcpl	0x00004b4c
    7d68:	4148435f 	cmpmi	r8, pc, asr r3
    7d6c:	5f363152 	svcpl	0x00363152
    7d70:	45505954 	ldrbmi	r5, [r0, #-2388]	; 0xfffff6ac
    7d74:	73205f5f 			; <UNDEFINED> instruction: 0x73205f5f
    7d78:	74726f68 	ldrbtvc	r6, [r2], #-3944	; 0xfffff098
    7d7c:	736e7520 	cmnvc	lr, #32, 10	; 0x8000000
    7d80:	656e6769 	strbvs	r6, [lr, #-1897]!	; 0xfffff897
    7d84:	6e692064 	cdpvs	0, 6, cr2, cr9, cr4, {3}
    7d88:	50470074 	subpl	r0, r7, r4, ror r0
    7d8c:	505f4f49 	subspl	r4, pc, r9, asr #30
    7d90:	0074726f 	rsbseq	r7, r4, pc, ror #4
    7d94:	31495053 	qdaddcc	r5, r3, r9
    7d98:	5341425f 	movtpl	r4, #4703	; 0x125f
    7d9c:	50282045 	eorpl	r2, r8, r5, asr #32
    7da0:	70697265 	rsbvc	r7, r9, r5, ror #4
    7da4:	61726568 	cmnvs	r2, r8, ror #10
    7da8:	425f736c 	subsmi	r7, pc, #108, 6	; 0xb0000001
    7dac:	20455341 	subcs	r5, r5, r1, asr #6
    7db0:	7830202b 	ldmdavc	r0!, {r0, r1, r3, r5, sp}
    7db4:	31303030 	teqcc	r0, r0, lsr r0
    7db8:	30303033 	eorscc	r3, r0, r3, lsr r0
    7dbc:	00294c55 	eoreq	r4, r9, r5, asr ip
    7dc0:	4c465f5f 	mcrrmi	15, 5, r5, r6, cr15
    7dc4:	58323354 	ldmdapl	r2!, {r2, r4, r6, r8, r9, ip, sp}
    7dc8:	4749445f 	smlsldmi	r4, r9, pc, r4	; <UNPREDICTABLE>
    7dcc:	31205f5f 			; <UNDEFINED> instruction: 0x31205f5f
    7dd0:	5f5f0035 	svcpl	0x005f0035
    7dd4:	6e676973 			; <UNDEFINED> instruction: 0x6e676973
    7dd8:	73206465 			; <UNDEFINED> instruction: 0x73206465
    7ddc:	656e6769 	strbvs	r6, [lr, #-1897]!	; 0xfffff897
    7de0:	564e0064 	strbpl	r0, [lr], -r4, rrx
    7de4:	495f4349 	ldmdbmi	pc, {r0, r3, r6, r8, r9, lr}^	; <UNPREDICTABLE>
    7de8:	30524553 	subscc	r4, r2, r3, asr r5
    7dec:	76282a20 	strtvc	r2, [r8], -r0, lsr #20
    7df0:	74616c6f 	strbtvc	r6, [r1], #-3183	; 0xfffff391
    7df4:	20656c69 	rsbcs	r6, r5, r9, ror #24
    7df8:	746e6975 	strbtvc	r6, [lr], #-2421	; 0xfffff68b
    7dfc:	745f3233 	ldrbvc	r3, [pc], #-563	; 7e04 <_Min_Stack_Size+0x7a04>
    7e00:	20292a20 	eorcs	r2, r9, r0, lsr #20
    7e04:	49564e28 	ldmdbmi	r6, {r3, r5, r9, sl, fp, lr}^
    7e08:	61425f43 	cmpvs	r2, r3, asr #30
    7e0c:	2b206573 	blcs	8213e0 <_Min_Stack_Size+0x820fe0>
    7e10:	30783020 	rsbscc	r3, r8, r0, lsr #32
    7e14:	49002920 	stmdbmi	r0, {r5, r8, fp, sp}
    7e18:	455f5152 	ldrbmi	r5, [pc, #-338]	; 7cce <_Min_Stack_Size+0x78ce>
    7e1c:	5f5f004e 	svcpl	0x005f004e
    7e20:	5f515455 	svcpl	0x00515455
    7e24:	54494246 	strbpl	r4, [r9], #-582	; 0xfffffdba
    7e28:	31205f5f 			; <UNDEFINED> instruction: 0x31205f5f
    7e2c:	49003832 	stmdbmi	r0, {r1, r4, r5, fp, ip, sp}
    7e30:	435f4332 	cmpmi	pc, #-939524096	; 0xc8000000
    7e34:	4e5f3152 	mrcmi	1, 2, r3, cr15, cr2, {2}
    7e38:	5254534f 	subspl	r5, r4, #1006632961	; 0x3c000001
    7e3c:	48435445 	stmdami	r3, {r0, r2, r6, sl, ip, lr}^
    7e40:	6b734d5f 	blvs	1cdb3c4 <_Min_Stack_Size+0x1cdafc4>
    7e44:	78302820 	ldmdavc	r0!, {r5, fp, sp}
    7e48:	204c5531 	subcs	r5, ip, r1, lsr r5
    7e4c:	49203c3c 	stmdbmi	r0!, {r2, r3, r4, r5, sl, fp, ip, sp}
    7e50:	435f4332 	cmpmi	pc, #-939524096	; 0xc8000000
    7e54:	4e5f3152 	mrcmi	1, 2, r3, cr15, cr2, {2}
    7e58:	5254534f 	subspl	r5, r4, #1006632961	; 0x3c000001
    7e5c:	48435445 	stmdami	r3, {r0, r2, r6, sl, ip, lr}^
    7e60:	736f505f 	cmnvc	pc, #95	; 0x5f
    7e64:	525f0029 	subspl	r0, pc, #41	; 0x29
    7e68:	544e4545 	strbpl	r4, [lr], #-1349	; 0xfffffabb
    7e6c:	5456435f 	ldrbpl	r4, [r6], #-863	; 0xfffffca1
    7e70:	284e454c 	stmdacs	lr, {r2, r3, r6, r8, sl, lr}^
    7e74:	7274705f 	rsbsvc	r7, r4, #95	; 0x5f
    7e78:	28282029 	stmdacs	r8!, {r0, r3, r5, sp}
    7e7c:	7274705f 	rsbsvc	r7, r4, #95	; 0x5f
    7e80:	5f3e2d29 	svcpl	0x003e2d29
    7e84:	6c747663 	ldclvs	6, cr7, [r4], #-396	; 0xfffffe74
    7e88:	00296e65 	eoreq	r6, r9, r5, ror #28
    7e8c:	5f433249 	svcpl	0x00433249
    7e90:	5f315253 	svcpl	0x00315253
    7e94:	454e5852 	strbmi	r5, [lr, #-2130]	; 0xfffff7ae
    7e98:	6b734d5f 	blvs	1cdb41c <_Min_Stack_Size+0x1cdb01c>
    7e9c:	78302820 	ldmdavc	r0!, {r5, fp, sp}
    7ea0:	204c5531 	subcs	r5, ip, r1, lsr r5
    7ea4:	49203c3c 	stmdbmi	r0!, {r2, r3, r4, r5, sl, fp, ip, sp}
    7ea8:	535f4332 	cmppl	pc, #-939524096	; 0xc8000000
    7eac:	525f3152 	subspl	r3, pc, #-2147483628	; 0x80000014
    7eb0:	5f454e58 	svcpl	0x00454e58
    7eb4:	29736f50 	ldmdbcs	r3!, {r4, r6, r8, r9, sl, fp, sp, lr}^
    7eb8:	465f5f00 	ldrbmi	r5, [pc], -r0, lsl #30
    7ebc:	54494e49 	strbpl	r4, [r9], #-3657	; 0xfffff1b7
    7ec0:	414d5f45 	cmpmi	sp, r5, asr #30
    7ec4:	4f5f4854 	svcmi	0x005f4854
    7ec8:	5f594c4e 	svcpl	0x00594c4e
    7ecc:	0030205f 	eorseq	r2, r0, pc, asr r0
    7ed0:	4e495f5f 	mcrmi	15, 2, r5, cr9, cr15, {2}
    7ed4:	41465f54 	cmpmi	r6, r4, asr pc
    7ed8:	36315453 			; <UNDEFINED> instruction: 0x36315453
    7edc:	58414d5f 	stmdapl	r1, {r0, r1, r2, r3, r4, r6, r8, sl, fp, lr}^
    7ee0:	30205f5f 	eorcc	r5, r0, pc, asr pc
    7ee4:	66663778 			; <UNDEFINED> instruction: 0x66663778
    7ee8:	66666666 	strbtvs	r6, [r6], -r6, ror #12
    7eec:	5f5f0066 	svcpl	0x005f0066
    7ef0:	65766168 	ldrbvs	r6, [r6, #-360]!	; 0xfffffe98
    7ef4:	6e6f6c5f 	mcrvs	12, 3, r6, cr15, cr15, {2}
    7ef8:	6e6f6c67 	cdpvs	12, 6, cr6, cr15, cr7, {3}
    7efc:	20343667 	eorscs	r3, r4, r7, ror #12
    7f00:	414d0031 	cmpmi	sp, r1, lsr r0
    7f04:	49005250 	stmdbmi	r0, {r4, r6, r9, ip, lr}
    7f08:	435f4332 	cmpmi	pc, #-939524096	; 0xc8000000
    7f0c:	4c5f3252 	lfmmi	f3, 2, [pc], {82}	; 0x52
    7f10:	5f545341 	svcpl	0x00545341
    7f14:	20736f50 	rsbscs	r6, r3, r0, asr pc
    7f18:	55323128 	ldrpl	r3, [r2, #-296]!	; 0xfffffed8
    7f1c:	58450029 	stmdapl	r5, {r0, r3, r5}^
    7f20:	35314954 	ldrcc	r4, [r1, #-2388]!	; 0xfffff6ac
    7f24:	5152495f 	cmppl	r2, pc, asr r9
    7f28:	00303420 	eorseq	r3, r0, r0, lsr #8
    7f2c:	4e49555f 	mcrmi	5, 2, r5, cr9, cr15, {2}
    7f30:	545f3854 	ldrbpl	r3, [pc], #-2132	; 7f38 <_Min_Stack_Size+0x7b38>
    7f34:	4345445f 	movtmi	r4, #21599	; 0x545f
    7f38:	4552414c 	ldrbmi	r4, [r2, #-332]	; 0xfffffeb4
    7f3c:	45002044 	strmi	r2, [r0, #-68]	; 0xffffffbc
    7f40:	32495458 	subcc	r5, r9, #88, 8	; 0x58000000
    7f44:	5152495f 	cmppl	r2, pc, asr r9
    7f48:	646e6148 	strbtvs	r6, [lr], #-328	; 0xfffffeb8
    7f4c:	0072656c 	rsbseq	r6, r2, ip, ror #10
    7f50:	5f434352 	svcpl	0x00434352
    7f54:	31433249 	cmpcc	r3, r9, asr #4
    7f58:	4b4c435f 	blmi	1318cdc <_Min_Stack_Size+0x13188dc>
    7f5c:	284e455f 	stmdacs	lr, {r0, r1, r2, r3, r4, r6, r8, sl, lr}^
    7f60:	52282029 	eorpl	r2, r8, #41	; 0x29
    7f64:	3e2d4343 	cdpcc	3, 2, cr4, cr13, cr3, {2}
    7f68:	31425041 	cmpcc	r2, r1, asr #32
    7f6c:	20524e45 	subscs	r4, r2, r5, asr #28
    7f70:	31203d7c 			; <UNDEFINED> instruction: 0x31203d7c
    7f74:	31323c3c 	teqcc	r2, ip, lsr ip
    7f78:	5f5f0029 	svcpl	0x005f0029
    7f7c:	6b636f6c 	blvs	18e3d34 <_Min_Stack_Size+0x18e3934>
    7f80:	7972745f 	ldmdbvc	r2!, {r0, r1, r2, r3, r4, r6, sl, ip, sp, lr}^
    7f84:	7163615f 	cmnvc	r3, pc, asr r1
    7f88:	65726975 	ldrbvs	r6, [r2, #-2421]!	; 0xfffff68b
    7f8c:	636f6c28 	cmnvs	pc, #40, 24	; 0x2800
    7f90:	5f20296b 	svcpl	0x0020296b
    7f94:	7465725f 	strbtvc	r7, [r5], #-607	; 0xfffffda1
    7f98:	65677261 	strbvs	r7, [r7, #-609]!	; 0xfffffd9f
    7f9c:	6f6c5f74 	svcvs	0x006c5f74
    7fa0:	745f6b63 	ldrbvc	r6, [pc], #-2915	; 7fa8 <_Min_Stack_Size+0x7ba8>
    7fa4:	615f7972 	cmpvs	pc, r2, ror r9	; <UNPREDICTABLE>
    7fa8:	69757163 	ldmdbvs	r5!, {r0, r1, r5, r6, r8, ip, sp, lr}^
    7fac:	6c286572 	cfstr32vs	mvfx6, [r8], #-456	; 0xfffffe38
    7fb0:	296b636f 	stmdbcs	fp!, {r0, r1, r2, r3, r5, r6, r8, r9, sp, lr}^
    7fb4:	49555f00 	ldmdbmi	r5, {r8, r9, sl, fp, ip, lr}^
    7fb8:	5450544e 	ldrbpl	r5, [r0], #-1102	; 0xfffffbb2
    7fbc:	5f545f52 	svcpl	0x00545f52
    7fc0:	4c434544 	cfstr64mi	mvdx4, [r3], {68}	; 0x44
    7fc4:	44455241 	strbmi	r5, [r5], #-577	; 0xfffffdbf
    7fc8:	43520020 	cmpmi	r2, #32
    7fcc:	50535f43 	subspl	r5, r3, r3, asr #30
    7fd0:	525f3249 	subspl	r3, pc, #-1879048188	; 0x90000004
    7fd4:	74657365 	strbtvc	r7, [r5], #-869	; 0xfffffc9b
    7fd8:	28202928 	stmdacs	r0!, {r3, r5, r8, fp, sp}
    7fdc:	43435220 	movtmi	r5, #12832	; 0x3220
    7fe0:	50413e2d 	subpl	r3, r1, sp, lsr #28
    7fe4:	53523142 	cmppl	r2, #-2147483632	; 0x80000010
    7fe8:	7c205254 	sfmvc	f5, 4, [r0], #-336	; 0xfffffeb0
    7fec:	3128203d 			; <UNDEFINED> instruction: 0x3128203d
    7ff0:	34313c3c 	ldrtcc	r3, [r1], #-3132	; 0xfffff3c4
    7ff4:	00292029 	eoreq	r2, r9, r9, lsr #32
    7ff8:	4843575f 	stmdami	r3, {r0, r1, r2, r3, r4, r6, r8, r9, sl, ip, lr}^
    7ffc:	545f5241 	ldrbpl	r5, [pc], #-577	; 8004 <_Min_Stack_Size+0x7c04>
    8000:	4645445f 			; <UNDEFINED> instruction: 0x4645445f
    8004:	44454e49 	strbmi	r4, [r5], #-3657	; 0xfffff1b7
    8008:	5f5f0020 	svcpl	0x005f0020
    800c:	43414c55 	movtmi	r4, #7253	; 0x1c55
    8010:	5f4d5543 	svcpl	0x004d5543
    8014:	5f58414d 	svcpl	0x0058414d
    8018:	5830205f 	ldmdapl	r0!, {r0, r1, r2, r3, r4, r6, sp}
    801c:	46464646 	strbmi	r4, [r6], -r6, asr #12
    8020:	46464646 	strbmi	r4, [r6], -r6, asr #12
    8024:	46464646 	strbmi	r4, [r6], -r6, asr #12
    8028:	46464646 	strbmi	r4, [r6], -r6, asr #12
    802c:	32332d50 	eorscc	r2, r3, #80, 26	; 0x1400
    8030:	004b4c55 	subeq	r4, fp, r5, asr ip
    8034:	72745f5f 	rsbsvc	r5, r4, #380	; 0x17c
    8038:	636f6c79 	cmnvs	pc, #30976	; 0x7900
    803c:	655f736b 	ldrbvs	r7, [pc, #-875]	; 7cd9 <_Min_Stack_Size+0x78d9>
    8040:	756c6378 	strbvc	r6, [ip, #-888]!	; 0xfffffc88
    8044:	65766973 	ldrbvs	r6, [r6, #-2419]!	; 0xfffff68d
    8048:	2e2e2e28 	cdpcs	14, 2, cr2, cr14, cr8, {1}
    804c:	5f5f2029 	svcpl	0x005f2029
    8050:	6b636f6c 	blvs	18e3e08 <_Min_Stack_Size+0x18e3a08>
    8054:	6e6e615f 	mcrvs	1, 3, r6, cr14, cr15, {2}
    8058:	7461746f 	strbtvc	r7, [r1], #-1135	; 0xfffffb91
    805c:	78652865 	stmdavc	r5!, {r0, r2, r5, r6, fp, sp}^
    8060:	73756c63 	cmnvc	r5, #25344	; 0x6300
    8064:	5f657669 	svcpl	0x00657669
    8068:	6c797274 	lfmvs	f7, 2, [r9], #-464	; 0xfffffe30
    806c:	5f6b636f 	svcpl	0x006b636f
    8070:	636e7566 	cmnvs	lr, #427819008	; 0x19800000
    8074:	6e6f6974 			; <UNDEFINED> instruction: 0x6e6f6974
    8078:	565f5f28 	ldrbpl	r5, [pc], -r8, lsr #30
    807c:	52415f41 	subpl	r5, r1, #260	; 0x104
    8080:	5f5f5347 	svcpl	0x005f5347
    8084:	53002929 	movwpl	r2, #2345	; 0x929
    8088:	5f4d4152 	svcpl	0x004d4152
    808c:	45534142 	ldrbmi	r4, [r3, #-322]	; 0xfffffebe
    8090:	32783020 	rsbscc	r3, r8, #32
    8094:	30303030 	eorscc	r3, r0, r0, lsr r0
    8098:	55303030 	ldrpl	r3, [r0, #-48]!	; 0xffffffd0
    809c:	525f004c 	subspl	r0, pc, #76	; 0x4c
    80a0:	544e4545 	strbpl	r4, [lr], #-1349	; 0xfffffabb
    80a4:	4e41525f 	mcrmi	2, 2, r5, cr1, cr15, {2}
    80a8:	454e5f44 	strbmi	r5, [lr, #-3908]	; 0xfffff0bc
    80ac:	70285458 	eorvc	r5, r8, r8, asr r4
    80b0:	20297274 	eorcs	r7, r9, r4, ror r2
    80b4:	74702828 	ldrbtvc	r2, [r0], #-2088	; 0xfffff7d8
    80b8:	3e2d2972 			; <UNDEFINED> instruction: 0x3e2d2972
    80bc:	3834725f 	ldmdacc	r4!, {r0, r1, r2, r3, r4, r6, r9, ip, sp, lr}
    80c0:	725f3e2d 	subsvc	r3, pc, #720	; 0x2d0
    80c4:	5f646e61 	svcpl	0x00646e61
    80c8:	7478656e 	ldrbtvc	r6, [r8], #-1390	; 0xfffffa92
    80cc:	564e0029 	strbpl	r0, [lr], -r9, lsr #32
    80d0:	495f4349 	ldmdbmi	pc, {r0, r3, r6, r8, r9, lr}^	; <UNPREDICTABLE>
    80d4:	5f365152 	svcpl	0x00365152
    80d8:	49545845 	ldmdbmi	r4, {r0, r2, r6, fp, ip, lr}^
    80dc:	69445f30 	stmdbvs	r4, {r4, r5, r8, r9, sl, fp, ip, lr}^
    80e0:	6c626173 	stfvse	f6, [r2], #-460	; 0xfffffe34
    80e4:	4e282065 	cdpmi	0, 2, cr2, cr8, cr5, {3}
    80e8:	5f434956 	svcpl	0x00434956
    80ec:	52454349 	subpl	r4, r5, #603979777	; 0x24000001
    80f0:	3d7c2030 	ldclcc	0, cr2, [ip, #-192]!	; 0xffffff40
    80f4:	3c3c3120 	ldfccs	f3, [ip], #-128	; 0xffffff80
    80f8:	45002936 	strmi	r2, [r0, #-2358]	; 0xfffff6ca
    80fc:	30495458 	subcc	r5, r9, r8, asr r4
    8100:	5152495f 	cmppl	r2, pc, asr r9
    8104:	5f003620 	svcpl	0x00003620
    8108:	464c555f 			; <UNDEFINED> instruction: 0x464c555f
    810c:	54434152 	strbpl	r4, [r3], #-338	; 0xfffffeae
    8110:	4e494d5f 	mcrmi	13, 2, r4, cr9, cr15, {2}
    8114:	30205f5f 	eorcc	r5, r0, pc, asr pc
    8118:	4c55302e 	mrrcmi	0, 2, r3, r5, cr14
    811c:	49530052 	ldmdbmi	r3, {r1, r4, r6}^
    8120:	4d5f455a 	cfldr64mi	mvdx4, [pc, #-360]	; 7fc0 <_Min_Stack_Size+0x7bc0>
    8124:	28205841 	stmdacs	r0!, {r0, r6, fp, ip, lr}
    8128:	49535f5f 	ldmdbmi	r3, {r0, r1, r2, r3, r4, r6, r8, r9, sl, fp, ip, lr}^
    812c:	4d5f455a 	cfldr64mi	mvdx4, [pc, #-360]	; 7fcc <_Min_Stack_Size+0x7bcc>
    8130:	5f5f5841 	svcpl	0x005f5841
    8134:	5f5f0029 	svcpl	0x005f0029
    8138:	495f5144 	ldmdbmi	pc, {r2, r6, r8, ip, lr}^	; <UNPREDICTABLE>
    813c:	5f544942 	svcpl	0x00544942
    8140:	0030205f 	eorseq	r2, r0, pc, asr r0
    8144:	52415f5f 	subpl	r5, r1, #380	; 0x17c
    8148:	46425f4d 	strbmi	r5, [r2], -sp, asr #30
    814c:	465f3631 			; <UNDEFINED> instruction: 0x465f3631
    8150:	414d524f 	cmpmi	sp, pc, asr #4
    8154:	4c415f54 	mcrrmi	15, 5, r5, r1, cr4
    8158:	4e524554 	mrcmi	5, 2, r4, cr2, cr4, {2}
    815c:	56495441 	strbpl	r5, [r9], -r1, asr #8
    8160:	5f5f0045 	svcpl	0x005f0045
    8164:	33544e49 	cmpcc	r4, #1168	; 0x490
    8168:	59545f32 	ldmdbpl	r4, {r1, r4, r5, r8, r9, sl, fp, ip, lr}^
    816c:	5f5f4550 	svcpl	0x005f4550
    8170:	6e6f6c20 	cdpvs	12, 6, cr6, cr15, cr0, {1}
    8174:	6e692067 	cdpvs	0, 6, cr2, cr9, cr7, {3}
    8178:	5f5f0074 	svcpl	0x005f0074
    817c:	544e4955 	strbpl	r4, [lr], #-2389	; 0xfffff6ab
    8180:	41454c5f 	cmpmi	r5, pc, asr ip
    8184:	5f385453 	svcpl	0x00385453
    8188:	5f58414d 	svcpl	0x0058414d
    818c:	7830205f 	ldmdavc	r0!, {r0, r1, r2, r3, r4, r6, sp}
    8190:	49006666 	stmdbmi	r0, {r1, r2, r5, r6, r9, sl, sp, lr}
    8194:	435f4332 	cmpmi	pc, #-939524096	; 0xc8000000
    8198:	4e5f3152 	mrcmi	1, 2, r3, cr15, cr2, {2}
    819c:	5254534f 	subspl	r5, r4, #1006632961	; 0x3c000001
    81a0:	48435445 	stmdami	r3, {r0, r2, r6, sl, ip, lr}^
    81a4:	736f505f 	cmnvc	pc, #95	; 0x5f
    81a8:	55372820 	ldrpl	r2, [r7, #-2080]!	; 0xfffff7e0
    81ac:	415f0029 	cmpmi	pc, r9, lsr #32
    81b0:	49584554 	ldmdbmi	r8, {r2, r4, r6, r8, sl, lr}^
    81b4:	49535f54 	ldmdbmi	r3, {r2, r4, r6, r8, r9, sl, fp, ip, lr}^
    81b8:	3320455a 			; <UNDEFINED> instruction: 0x3320455a
    81bc:	5f5f0032 	svcpl	0x005f0032
    81c0:	746e6f63 	strbtvc	r6, [lr], #-3939	; 0xfffff09d
    81c4:	656e6961 	strbvs	r6, [lr, #-2401]!	; 0xfffff69f
    81c8:	28666f72 	stmdacs	r6!, {r1, r4, r5, r6, r8, r9, sl, fp, sp, lr}^
    81cc:	2c732c78 	ldclcs	12, cr2, [r3], #-480	; 0xfffffe20
    81d0:	2820296d 	stmdacs	r0!, {r0, r2, r3, r5, r6, r8, fp, sp}
    81d4:	6f63207b 	svcvs	0x0063207b
    81d8:	2074736e 	rsbscs	r7, r4, lr, ror #6
    81dc:	616c6f76 	smcvs	50934	; 0xc6f6
    81e0:	656c6974 	strbvs	r6, [ip, #-2420]!	; 0xfffff68c
    81e4:	745f5f20 	ldrbvc	r5, [pc], #-3872	; 81ec <_Min_Stack_Size+0x7dec>
    81e8:	6f657079 	svcvs	0x00657079
    81ec:	28282866 	stmdacs	r8!, {r1, r2, r5, r6, fp, sp}
    81f0:	292a2073 	stmdbcs	sl!, {r0, r1, r4, r5, r6, sp}
    81f4:	3e2d2930 			; <UNDEFINED> instruction: 0x3e2d2930
    81f8:	2a20296d 	bcs	8127b4 <_Min_Stack_Size+0x8123b4>
    81fc:	20785f5f 	rsbscs	r5, r8, pc, asr pc
    8200:	7828203d 	stmdavc	r8!, {r0, r2, r3, r4, r5, sp}
    8204:	5f203b29 	svcpl	0x00203b29
    8208:	5145445f 	cmppl	r5, pc, asr r4
    820c:	494c4155 	stmdbmi	ip, {r0, r2, r4, r6, r8, lr}^
    8210:	73285946 			; <UNDEFINED> instruction: 0x73285946
    8214:	202c2a20 	eorcs	r2, ip, r0, lsr #20
    8218:	6e6f6328 	cdpvs	3, 6, cr6, cr15, cr8, {1}
    821c:	76207473 			; <UNDEFINED> instruction: 0x76207473
    8220:	74616c6f 	strbtvc	r6, [r1], #-3183	; 0xfffff391
    8224:	20656c69 	rsbcs	r6, r5, r9, ror #24
    8228:	72616863 	rsbvc	r6, r1, #6488064	; 0x630000
    822c:	5f292a20 	svcpl	0x00292a20
    8230:	2d20785f 	stccs	8, cr7, [r0, #-380]!	; 0xfffffe84
    8234:	6f5f5f20 	svcvs	0x005f5f20
    8238:	65736666 	ldrbvs	r6, [r3, #-1638]!	; 0xfffff99a
    823c:	28666f74 	stmdacs	r6!, {r2, r4, r5, r6, r8, r9, sl, fp, sp, lr}^
    8240:	6d202c73 	stcvs	12, cr2, [r0, #-460]!	; 0xfffffe34
    8244:	7d3b2929 			; <UNDEFINED> instruction: 0x7d3b2929
    8248:	58450029 	stmdapl	r5, {r0, r3, r5}^
    824c:	50364954 	eorspl	r4, r6, r4, asr r9
    8250:	28203641 	stmdacs	r0!, {r0, r6, r9, sl, ip, sp}
    8254:	49545845 	ldmdbmi	r4, {r0, r2, r6, fp, ip, lr}^
    8258:	4950475f 	ldmdbmi	r0, {r0, r1, r2, r3, r4, r6, r8, r9, sl, lr}^
    825c:	614d5f4f 	cmpvs	sp, pc, asr #30
    8260:	6e697070 	mcrvs	0, 3, r7, cr9, cr0, {3}
    8264:	29745f67 	ldmdbcs	r4!, {r0, r1, r2, r5, r6, r8, r9, sl, fp, ip, lr}^
    8268:	5458457b 	ldrbpl	r4, [r8], #-1403	; 0xfffffa85
    826c:	202c3649 	eorcs	r3, ip, r9, asr #12
    8270:	4f495047 	svcmi	0x00495047
    8274:	202c2041 	eorcs	r2, ip, r1, asr #32
    8278:	4f495047 	svcmi	0x00495047
    827c:	4e49505f 	mcrmi	0, 2, r5, cr9, cr15, {2}
    8280:	2c20365f 	stccs	6, cr3, [r0], #-380	; 0xfffffe84
    8284:	54584520 	ldrbpl	r4, [r8], #-1312	; 0xfffffae0
    8288:	495f3649 	ldmdbmi	pc, {r0, r3, r6, r9, sl, ip, sp}^	; <UNPREDICTABLE>
    828c:	7d205152 	stfvcs	f5, [r0, #-328]!	; 0xfffffeb8
    8290:	53425f00 	movtpl	r5, #12032	; 0x2f00
    8294:	49535f44 	ldmdbmi	r3, {r2, r6, r8, r9, sl, fp, ip, lr}^
    8298:	545f455a 	ldrbpl	r4, [pc], #-1370	; 82a0 <_Min_Stack_Size+0x7ea0>
    829c:	5f00205f 	svcpl	0x0000205f
    82a0:	746e695f 	strbtvc	r6, [lr], #-2399	; 0xfffff6a1
    82a4:	5f5f3032 	svcpl	0x005f3032
    82a8:	00322b20 	eorseq	r2, r2, r0, lsr #22
    82ac:	6f6e5f5f 	svcvs	0x006e5f5f
    82b0:	636f6c5f 	cmnvs	pc, #24320	; 0x5f00
    82b4:	6e615f6b 	cdpvs	15, 6, cr5, cr1, cr11, {3}
    82b8:	73796c61 	cmnvc	r9, #24832	; 0x6100
    82bc:	5f207369 	svcpl	0x00207369
    82c0:	636f6c5f 	cmnvs	pc, #24320	; 0x5f00
    82c4:	6e615f6b 	cdpvs	15, 6, cr5, cr1, cr11, {3}
    82c8:	61746f6e 	cmnvs	r4, lr, ror #30
    82cc:	6e286574 	mcrvs	5, 1, r6, cr8, cr4, {3}
    82d0:	68745f6f 	ldmdavs	r4!, {r0, r1, r2, r3, r5, r6, r8, r9, sl, fp, ip, lr}^
    82d4:	64616572 	strbtvs	r6, [r1], #-1394	; 0xfffffa8e
    82d8:	6661735f 			; <UNDEFINED> instruction: 0x6661735f
    82dc:	5f797465 	svcpl	0x00797465
    82e0:	6c616e61 	stclvs	14, cr6, [r1], #-388	; 0xfffffe7c
    82e4:	73697379 	cmnvc	r9, #-469762047	; 0xe4000001
    82e8:	495f0029 	ldmdbmi	pc, {r0, r3, r5}^	; <UNPREDICTABLE>
    82ec:	3436544e 	ldrtcc	r5, [r6], #-1102	; 0xfffffbb2
    82f0:	445f545f 	ldrbmi	r5, [pc], #-1119	; 82f8 <_Min_Stack_Size+0x7ef8>
    82f4:	414c4345 	cmpmi	ip, r5, asr #6
    82f8:	20444552 	subcs	r4, r4, r2, asr r5
    82fc:	54584500 	ldrbpl	r4, [r8], #-1280	; 0xfffffb00
    8300:	50353149 	eorspl	r3, r5, r9, asr #2
    8304:	20353142 	eorscs	r3, r5, r2, asr #2
    8308:	54584528 	ldrbpl	r4, [r8], #-1320	; 0xfffffad8
    830c:	50475f49 	subpl	r5, r7, r9, asr #30
    8310:	4d5f4f49 	ldclmi	15, cr4, [pc, #-292]	; 81f4 <_Min_Stack_Size+0x7df4>
    8314:	69707061 	ldmdbvs	r0!, {r0, r5, r6, ip, sp, lr}^
    8318:	745f676e 	ldrbvc	r6, [pc], #-1902	; 8320 <_Min_Stack_Size+0x7f20>
    831c:	58457b29 	stmdapl	r5, {r0, r3, r5, r8, r9, fp, ip, sp, lr}^
    8320:	35314954 	ldrcc	r4, [r1, #-2388]!	; 0xfffff6ac
    8324:	5047202c 	subpl	r2, r7, ip, lsr #32
    8328:	20424f49 	subcs	r4, r2, r9, asr #30
    832c:	5047202c 	subpl	r2, r7, ip, lsr #32
    8330:	505f4f49 	subspl	r4, pc, r9, asr #30
    8334:	315f4e49 	cmpcc	pc, r9, asr #28
    8338:	452c2035 	strmi	r2, [ip, #-53]!	; 0xffffffcb
    833c:	31495458 	cmpcc	r9, r8, asr r4
    8340:	52495f35 	subpl	r5, r9, #53, 30	; 0xd4
    8344:	007d2051 	rsbseq	r2, sp, r1, asr r0
    8348:	4f495047 	svcmi	0x00495047
    834c:	4e49505f 	mcrmi	0, 2, r5, cr9, cr15, {2}
    8350:	43324900 	teqmi	r2, #0, 18
    8354:	28282032 	stmdacs	r8!, {r1, r4, r5, sp}
    8358:	5f433249 	svcpl	0x00433249
    835c:	65707954 	ldrbvs	r7, [r0, #-2388]!	; 0xfffff6ac
    8360:	20666544 	rsbcs	r6, r6, r4, asr #10
    8364:	3249292a 	subcc	r2, r9, #688128	; 0xa8000
    8368:	425f3243 	subsmi	r3, pc, #805306372	; 0x30000004
    836c:	29455341 	stmdbcs	r5, {r0, r6, r8, r9, ip, lr}^
    8370:	5f545f00 	svcpl	0x00545f00
    8374:	41484357 	cmpmi	r8, r7, asr r3
    8378:	49002052 	stmdbmi	r0, {r1, r4, r6, sp}
    837c:	535f4332 	cmppl	pc, #-939524096	; 0xc8000000
    8380:	545f3252 	ldrbpl	r3, [pc], #-594	; 8388 <_Min_Stack_Size+0x7f88>
    8384:	4d5f4152 	ldfmie	f4, [pc, #-328]	; 8244 <_Min_Stack_Size+0x7e44>
    8388:	28206b73 	stmdacs	r0!, {r0, r1, r4, r5, r6, r8, r9, fp, sp, lr}
    838c:	55317830 	ldrpl	r7, [r1, #-2096]!	; 0xfffff7d0
    8390:	3c3c204c 	ldccc	0, cr2, [ip], #-304	; 0xfffffed0
    8394:	43324920 	teqmi	r2, #32, 18	; 0x80000
    8398:	3252535f 	subscc	r5, r2, #2080374785	; 0x7c000001
    839c:	4152545f 	cmpmi	r2, pc, asr r4
    83a0:	736f505f 	cmnvc	pc, #95	; 0x5f
    83a4:	525f0029 	subspl	r0, pc, #41	; 0x29
    83a8:	544e4545 	strbpl	r4, [lr], #-1349	; 0xfffffabb
    83ac:	5f504d5f 	svcpl	0x00504d5f
    83b0:	45455246 	strbmi	r5, [r5, #-582]	; 0xfffffdba
    83b4:	5453494c 	ldrbpl	r4, [r3], #-2380	; 0xfffff6b4
    83b8:	72747028 	rsbsvc	r7, r4, #40	; 0x28
    83bc:	28282029 	stmdacs	r8!, {r0, r3, r5, sp}
    83c0:	29727470 	ldmdbcs	r2!, {r4, r5, r6, sl, ip, sp, lr}^
    83c4:	6d5f3e2d 	ldclvs	14, cr3, [pc, #-180]	; 8318 <_Min_Stack_Size+0x7f18>
    83c8:	5f3e2d70 	svcpl	0x003e2d70
    83cc:	65657266 	strbvs	r7, [r5, #-614]!	; 0xfffffd9a
    83d0:	7473696c 	ldrbtvc	r6, [r3], #-2412	; 0xfffff694
    83d4:	6c610029 	stclvs	0, cr0, [r1], #-164	; 0xffffff5c
    83d8:	61636f6c 	cmnvs	r3, ip, ror #30
    83dc:	7a697328 	bvc	1a65084 <_Min_Stack_Size+0x1a64c84>
    83e0:	5f202965 	svcpl	0x00202965
    83e4:	6975625f 	ldmdbvs	r5!, {r0, r1, r2, r3, r4, r6, r9, sp, lr}^
    83e8:	6e69746c 	cdpvs	4, 6, cr7, cr9, cr12, {3}
    83ec:	6c6c615f 	stfvse	f6, [ip], #-380	; 0xfffffe84
    83f0:	2861636f 	stmdacs	r1!, {r0, r1, r2, r3, r5, r6, r8, r9, sp, lr}^
    83f4:	657a6973 	ldrbvs	r6, [sl, #-2419]!	; 0xfffff68d
    83f8:	435f0029 	cmpmi	pc, #41	; 0x29
    83fc:	4b434f4c 	blmi	10dc134 <_Min_Stack_Size+0x10dbd34>
    8400:	545f4449 	ldrbpl	r4, [pc], #-1097	; 8408 <_Min_Stack_Size+0x8008>
    8404:	6e75205f 	mrcvs	0, 3, r2, cr5, cr15, {2}
    8408:	6e676973 			; <UNDEFINED> instruction: 0x6e676973
    840c:	6c206465 	cfstrsvs	mvf6, [r0], #-404	; 0xfffffe6c
    8410:	00676e6f 	rsbeq	r6, r7, pc, ror #28
    8414:	5f433249 	svcpl	0x00433249
    8418:	5f315253 	svcpl	0x00315253
    841c:	20455854 	subcs	r5, r5, r4, asr r8
    8420:	5f433249 	svcpl	0x00433249
    8424:	5f315253 	svcpl	0x00315253
    8428:	5f455854 	svcpl	0x00455854
    842c:	006b734d 	rsbeq	r7, fp, sp, asr #6
    8430:	4349564e 	movtmi	r5, #38478	; 0x964e
    8434:	5152495f 	cmppl	r2, pc, asr r9
    8438:	535f3533 	cmppl	pc, #213909504	; 0xcc00000
    843c:	5f314950 	svcpl	0x00314950
    8440:	62616e45 	rsbvs	r6, r1, #1104	; 0x450
    8444:	2820656c 	stmdacs	r0!, {r2, r3, r5, r6, r8, sl, sp, lr}
    8448:	4349564e 	movtmi	r5, #38478	; 0x964e
    844c:	4553495f 	ldrbmi	r4, [r3, #-2399]	; 0xfffff6a1
    8450:	7c203152 	stfvcs	f3, [r0], #-328	; 0xfffffeb8
    8454:	3c31203d 	ldccc	0, cr2, [r1], #-244	; 0xffffff0c
    8458:	5320283c 			; <UNDEFINED> instruction: 0x5320283c
    845c:	5f314950 	svcpl	0x00314950
    8460:	20515249 	subscs	r5, r1, r9, asr #4
    8464:	3233202d 	eorscc	r2, r3, #45	; 0x2d
    8468:	00292920 	eoreq	r2, r9, r0, lsr #18
    846c:	49545845 	ldmdbmi	r4, {r0, r2, r6, fp, ip, lr}^
    8470:	37425037 	smlaldxcc	r5, r2, r7, r0
    8474:	58452820 	stmdapl	r5, {r5, fp, sp}^
    8478:	475f4954 			; <UNDEFINED> instruction: 0x475f4954
    847c:	5f4f4950 	svcpl	0x004f4950
    8480:	7070614d 	rsbsvc	r6, r0, sp, asr #2
    8484:	5f676e69 	svcpl	0x00676e69
    8488:	457b2974 	ldrbmi	r2, [fp, #-2420]!	; 0xfffff68c
    848c:	37495458 	smlsldcc	r5, r9, r8, r4
    8490:	5047202c 	subpl	r2, r7, ip, lsr #32
    8494:	20424f49 	subcs	r4, r2, r9, asr #30
    8498:	5047202c 	subpl	r2, r7, ip, lsr #32
    849c:	505f4f49 	subspl	r4, pc, r9, asr #30
    84a0:	375f4e49 	ldrbcc	r4, [pc, -r9, asr #28]
    84a4:	58452c20 	stmdapl	r5, {r5, sl, fp, sp}^
    84a8:	5f374954 	svcpl	0x00374954
    84ac:	20515249 	subscs	r5, r1, r9, asr #4
    84b0:	5f5f007d 	svcpl	0x005f007d
    84b4:	5f515455 	svcpl	0x00515455
    84b8:	54494249 	strbpl	r4, [r9], #-585	; 0xfffffdb7
    84bc:	30205f5f 	eorcc	r5, r0, pc, asr pc
    84c0:	54584500 	ldrbpl	r4, [r8], #-1280	; 0xfffffb00
    84c4:	32203249 	eorcc	r3, r0, #-1879048188	; 0x90000004
    84c8:	535f5f00 	cmppl	pc, #0, 30
    84cc:	42465f41 	submi	r5, r6, #260	; 0x104
    84d0:	5f5f5449 	svcpl	0x005f5449
    84d4:	00353120 	eorseq	r3, r5, r0, lsr #2
    84d8:	4e495f5f 	mcrmi	15, 2, r5, cr9, cr15, {2}
    84dc:	43575f54 	cmpmi	r7, #84, 30	; 0x150
    84e0:	5f524148 	svcpl	0x00524148
    84e4:	20485f54 	subcs	r5, r8, r4, asr pc
    84e8:	465f5f00 	ldrbmi	r5, [pc], -r0, lsl #30
    84ec:	3233544c 	eorscc	r5, r3, #76, 8	; 0x4c000000
    84f0:	414d5f58 	cmpmi	sp, r8, asr pc
    84f4:	205f5f58 	subscs	r5, pc, r8, asr pc	; <UNPREDICTABLE>
    84f8:	39372e31 	ldmdbcc	r7!, {r0, r4, r5, r9, sl, fp, sp}
    84fc:	33393637 	teqcc	r9, #57671680	; 0x3700000
    8500:	38343331 	ldmdacc	r4!, {r0, r4, r5, r8, r9, ip, sp}
    8504:	31333236 	teqcc	r3, r6, lsr r2
    8508:	2b653735 	blcs	19561e4 <_Min_Stack_Size+0x1955de4>
    850c:	46383033 			; <UNDEFINED> instruction: 0x46383033
    8510:	00783233 	rsbseq	r3, r8, r3, lsr r2
    8514:	4349564e 	movtmi	r5, #38478	; 0x964e
    8518:	5152495f 	cmppl	r2, pc, asr r9
    851c:	495f3333 	ldmdbmi	pc, {r0, r1, r4, r5, r8, r9, ip, sp}^	; <UNPREDICTABLE>
    8520:	5f324332 	svcpl	0x00324332
    8524:	445f5645 	ldrbmi	r5, [pc], #-1605	; 852c <_Min_Stack_Size+0x812c>
    8528:	62617369 	rsbvs	r7, r1, #-1543503871	; 0xa4000001
    852c:	2820656c 	stmdacs	r0!, {r2, r3, r5, r6, r8, sl, sp, lr}
    8530:	4349564e 	movtmi	r5, #38478	; 0x964e
    8534:	4543495f 	strbmi	r4, [r3, #-2399]	; 0xfffff6a1
    8538:	7c203152 	stfvcs	f3, [r0], #-328	; 0xfffffeb8
    853c:	3c31203d 	ldccc	0, cr2, [r1], #-244	; 0xffffff0c
    8540:	4920283c 	stmdbmi	r0!, {r2, r3, r4, r5, fp, sp}
    8544:	5f324332 	svcpl	0x00324332
    8548:	495f5645 	ldmdbmi	pc, {r0, r2, r6, r9, sl, ip, lr}^	; <UNPREDICTABLE>
    854c:	2d205152 	stfcss	f5, [r0, #-328]!	; 0xfffffeb8
    8550:	20323320 	eorscs	r3, r2, r0, lsr #6
    8554:	5f002929 	svcpl	0x00002929
    8558:	554e475f 	strbpl	r4, [lr, #-1887]	; 0xfffff8a1
    855c:	4b494c43 	blmi	125b670 <_Min_Stack_Size+0x125b270>
    8560:	55425f45 	strbpl	r5, [r2, #-3909]	; 0xfffff0bb
    8564:	49544c49 	ldmdbmi	r4, {r0, r3, r6, sl, fp, lr}^
    8568:	41565f4e 	cmpmi	r6, lr, asr #30
    856c:	53494c41 	movtpl	r4, #40001	; 0x9c41
    8570:	00312054 	eorseq	r2, r1, r4, asr r0
    8574:	52415f5f 	subpl	r5, r1, #380	; 0x17c
    8578:	41455f4d 	cmpmi	r5, sp, asr #30
    857c:	5f5f4942 	svcpl	0x005f4942
    8580:	5f003120 	svcpl	0x00003120
    8584:	45564148 	ldrbmi	r4, [r6, #-328]	; 0xfffffeb8
    8588:	494e495f 	stmdbmi	lr, {r0, r1, r2, r3, r4, r6, r8, fp, lr}^
    858c:	4e494654 	mcrmi	6, 2, r4, cr9, cr4, {2}
    8590:	52415f49 	subpl	r5, r1, #292	; 0x124
    8594:	20594152 	subscs	r4, r9, r2, asr r1
    8598:	5f5f0031 	svcpl	0x005f0031
    859c:	4e4d5341 	cdpmi	3, 4, cr5, cr13, cr1, {2}
    85a0:	28454d41 	stmdacs	r5, {r0, r6, r8, sl, fp, lr}^
    85a4:	6d616e63 	stclvs	14, cr6, [r1, #-396]!	; 0xfffffe74
    85a8:	5f202965 	svcpl	0x00202965
    85ac:	5453585f 	ldrbpl	r5, [r3], #-2143	; 0xfffff7a1
    85b0:	474e4952 	smlsldmi	r4, lr, r2, r9
    85b4:	5f5f2820 	svcpl	0x005f2820
    85b8:	52455355 	subpl	r5, r5, #1409286145	; 0x54000001
    85bc:	42414c5f 	submi	r4, r1, #24320	; 0x5f00
    85c0:	505f4c45 	subspl	r4, pc, r5, asr #24
    85c4:	49464552 	stmdbmi	r6, {r1, r4, r6, r8, sl, lr}^
    85c8:	295f5f58 	ldmdbcs	pc, {r3, r4, r6, r8, r9, sl, fp, ip, lr}^	; <UNPREDICTABLE>
    85cc:	616e6320 	cmnvs	lr, r0, lsr #6
    85d0:	5f00656d 	svcpl	0x0000656d
    85d4:	544c465f 	strbpl	r4, [ip], #-1631	; 0xfffff9a1
    85d8:	5f53495f 	svcpl	0x0053495f
    85dc:	5f434549 	svcpl	0x00434549
    85e0:	35353036 	ldrcc	r3, [r5, #-54]!	; 0xffffffca
    85e4:	205f5f39 	subscs	r5, pc, r9, lsr pc	; <UNPREDICTABLE>
    85e8:	5f5f0032 	svcpl	0x005f0032
    85ec:	4d554854 	ldclmi	8, cr4, [r5, #-336]	; 0xfffffeb0
    85f0:	5f4c4542 	svcpl	0x004c4542
    85f4:	0031205f 	eorseq	r2, r1, pc, asr r0
    85f8:	49545845 	ldmdbmi	r4, {r0, r2, r6, fp, ip, lr}^
    85fc:	44503031 	ldrbmi	r3, [r0], #-49	; 0xffffffcf
    8600:	28203031 	stmdacs	r0!, {r0, r4, r5, ip, sp}
    8604:	49545845 	ldmdbmi	r4, {r0, r2, r6, fp, ip, lr}^
    8608:	4950475f 	ldmdbmi	r0, {r0, r1, r2, r3, r4, r6, r8, r9, sl, lr}^
    860c:	614d5f4f 	cmpvs	sp, pc, asr #30
    8610:	6e697070 	mcrvs	0, 3, r7, cr9, cr0, {3}
    8614:	29745f67 	ldmdbcs	r4!, {r0, r1, r2, r5, r6, r8, r9, sl, fp, ip, lr}^
    8618:	5458457b 	ldrbpl	r4, [r8], #-1403	; 0xfffffa85
    861c:	20303149 	eorscs	r3, r0, r9, asr #2
    8620:	5047202c 	subpl	r2, r7, ip, lsr #32
    8624:	20444f49 	subcs	r4, r4, r9, asr #30
    8628:	5047202c 	subpl	r2, r7, ip, lsr #32
    862c:	505f4f49 	subspl	r4, pc, r9, asr #30
    8630:	315f4e49 	cmpcc	pc, r9, asr #28
    8634:	202c2030 	eorcs	r2, ip, r0, lsr r0
    8638:	49545845 	ldmdbmi	r4, {r0, r2, r6, fp, ip, lr}^
    863c:	495f3031 	ldmdbmi	pc, {r0, r4, r5, ip, sp}^	; <UNPREDICTABLE>
    8640:	007d5152 	rsbseq	r5, sp, r2, asr r1
    8644:	49545845 	ldmdbmi	r4, {r0, r2, r6, fp, ip, lr}^
    8648:	5f355f39 	svcpl	0x00355f39
    864c:	48515249 	ldmdami	r1, {r0, r3, r6, r9, ip, lr}^
    8650:	6c646e61 	stclvs	14, cr6, [r4], #-388	; 0xfffffe7c
    8654:	45007265 	strmi	r7, [r0, #-613]	; 0xfffffd9b
    8658:	31495458 	cmpcc	r9, r8, asr r4
    865c:	49003120 	stmdbmi	r0, {r5, r8, ip, sp}
    8660:	20314332 	eorscs	r4, r1, r2, lsr r3
    8664:	32492828 	subcc	r2, r9, #40, 16	; 0x280000
    8668:	79545f43 	ldmdbvc	r4, {r0, r1, r6, r8, r9, sl, fp, ip, lr}^
    866c:	65446570 	strbvs	r6, [r4, #-1392]	; 0xfffffa90
    8670:	292a2066 	stmdbcs	sl!, {r1, r2, r5, r6, sp}
    8674:	31433249 	cmpcc	r3, r9, asr #4
    8678:	5341425f 	movtpl	r4, #4703	; 0x125f
    867c:	5f002945 	svcpl	0x00002945
    8680:	5f445342 	svcpl	0x00445342
    8684:	41484357 	cmpmi	r8, r7, asr r3
    8688:	5f545f52 	svcpl	0x00545f52
    868c:	58450020 	stmdapl	r5, {r5}^
    8690:	32314954 	eorscc	r4, r1, #84, 18	; 0x150000
    8694:	32314450 	eorscc	r4, r1, #80, 8	; 0x50000000
    8698:	58452820 	stmdapl	r5, {r5, fp, sp}^
    869c:	475f4954 			; <UNDEFINED> instruction: 0x475f4954
    86a0:	5f4f4950 	svcpl	0x004f4950
    86a4:	7070614d 	rsbsvc	r6, r0, sp, asr #2
    86a8:	5f676e69 	svcpl	0x00676e69
    86ac:	457b2974 	ldrbmi	r2, [fp, #-2420]!	; 0xfffff68c
    86b0:	31495458 	cmpcc	r9, r8, asr r4
    86b4:	202c2032 	eorcs	r2, ip, r2, lsr r0
    86b8:	4f495047 	svcmi	0x00495047
    86bc:	202c2044 	eorcs	r2, ip, r4, asr #32
    86c0:	4f495047 	svcmi	0x00495047
    86c4:	4e49505f 	mcrmi	0, 2, r5, cr9, cr15, {2}
    86c8:	2032315f 	eorscs	r3, r2, pc, asr r1
    86cc:	5845202c 	stmdapl	r5, {r2, r3, r5, sp}^
    86d0:	32314954 	eorscc	r4, r1, #84, 18	; 0x150000
    86d4:	5152495f 	cmppl	r2, pc, asr r9
    86d8:	5f5f007d 	svcpl	0x005f007d
    86dc:	495f5151 	ldmdbmi	pc, {r0, r4, r6, r8, ip, lr}^	; <UNPREDICTABLE>
    86e0:	5f544942 	svcpl	0x00544942
    86e4:	0030205f 	eorseq	r2, r0, pc, asr r0
    86e8:	5f433249 	svcpl	0x00433249
    86ec:	5f325253 	svcpl	0x00325253
    86f0:	5f415254 	svcpl	0x00415254
    86f4:	20736f50 	rsbscs	r6, r3, r0, asr pc
    86f8:	29553228 	ldmdbcs	r5, {r3, r5, r9, ip, sp}^
    86fc:	43435200 	movtmi	r5, #12800	; 0x3200
    8700:	4153555f 	cmpmi	r3, pc, asr r5
    8704:	5f315452 	svcpl	0x00315452
    8708:	5f4b4c43 	svcpl	0x004b4c43
    870c:	29284e45 	stmdbcs	r8!, {r0, r2, r6, r9, sl, fp, lr}
    8710:	52202820 	eorpl	r2, r0, #32, 16	; 0x200000
    8714:	3e2d4343 	cdpcc	3, 2, cr4, cr13, cr3, {2}
    8718:	32425041 	subcc	r5, r2, #65	; 0x41
    871c:	20524e45 	subscs	r4, r2, r5, asr #28
    8720:	28203d7c 	stmdacs	r0!, {r2, r3, r4, r5, r6, r8, sl, fp, ip, sp}
    8724:	313c3c31 	teqcc	ip, r1, lsr ip
    8728:	29202934 	stmdbcs	r0!, {r2, r4, r5, r8, fp, sp}
    872c:	61747300 	cmnvs	r4, r0, lsl #6
    8730:	5f636974 	svcpl	0x00636974
    8734:	65737361 	ldrbvs	r7, [r3, #-865]!	; 0xfffffc9f
    8738:	5f207472 	svcpl	0x00207472
    873c:	74617453 	strbtvc	r7, [r1], #-1107	; 0xfffffbad
    8740:	615f6369 	cmpvs	pc, r9, ror #6
    8744:	72657373 	rsbvc	r7, r5, #-872415231	; 0xcc000001
    8748:	5f5f0074 	svcpl	0x005f0074
    874c:	4b434f4c 	blmi	10dc484 <_Min_Stack_Size+0x10dc084>
    8750:	494e495f 	stmdbmi	lr, {r0, r1, r2, r3, r4, r6, r8, fp, lr}^
    8754:	45525f54 	ldrbmi	r5, [r2, #-3924]	; 0xfffff0ac
    8758:	53525543 	cmppl	r2, #281018368	; 0x10c00000
    875c:	28455649 	stmdacs	r5, {r0, r3, r6, r9, sl, ip, lr}^
    8760:	73616c63 	cmnvc	r1, #25344	; 0x6300
    8764:	6f6c2c73 	svcvs	0x006c2c73
    8768:	20296b63 	eorcs	r6, r9, r3, ror #22
    876c:	4f4c5f5f 	svcmi	0x004c5f5f
    8770:	495f4b43 	ldmdbmi	pc, {r0, r1, r6, r8, r9, fp, lr}^	; <UNPREDICTABLE>
    8774:	2854494e 	ldmdacs	r4, {r1, r2, r3, r6, r8, fp, lr}^
    8778:	73616c63 	cmnvc	r1, #25344	; 0x6300
    877c:	6f6c2c73 	svcvs	0x006c2c73
    8780:	00296b63 	eoreq	r6, r9, r3, ror #22
    8784:	4c4c5f5f 	mcrrmi	15, 5, r5, ip, cr15
    8788:	55434341 	strbpl	r4, [r3, #-833]	; 0xfffffcbf
    878c:	42465f4d 	submi	r5, r6, #308	; 0x134
    8790:	5f5f5449 	svcpl	0x005f5449
    8794:	00313320 	eorseq	r3, r1, r0, lsr #6
    8798:	5f434352 	svcpl	0x00434352
    879c:	31495053 	qdaddcc	r5, r3, r9
    87a0:	4b4c435f 	blmi	1319524 <_Min_Stack_Size+0x1319124>
    87a4:	284e455f 	stmdacs	lr, {r0, r1, r2, r3, r4, r6, r8, sl, lr}^
    87a8:	20282029 	eorcs	r2, r8, r9, lsr #32
    87ac:	2d434352 	stclcs	3, cr4, [r3, #-328]	; 0xfffffeb8
    87b0:	4250413e 	subsmi	r4, r0, #-2147483633	; 0x8000000f
    87b4:	524e4532 	subpl	r4, lr, #209715200	; 0xc800000
    87b8:	203d7c20 	eorscs	r7, sp, r0, lsr #24
    87bc:	3c3c3128 	ldfccs	f3, [ip], #-160	; 0xffffff60
    87c0:	20293231 	eorcs	r3, r9, r1, lsr r2
    87c4:	5f5f0029 	svcpl	0x005f0029
    87c8:	544e4955 	strbpl	r4, [lr], #-2389	; 0xfffff6ab
    87cc:	5f58414d 	svcpl	0x0058414d
    87d0:	45505954 	ldrbmi	r5, [r0, #-2388]	; 0xfffff6ac
    87d4:	6c205f5f 	stcvs	15, cr5, [r0], #-380	; 0xfffffe84
    87d8:	20676e6f 	rsbcs	r6, r7, pc, ror #28
    87dc:	676e6f6c 	strbvs	r6, [lr, -ip, ror #30]!
    87e0:	736e7520 	cmnvc	lr, #32, 10	; 0x8000000
    87e4:	656e6769 	strbvs	r6, [lr, #-1897]!	; 0xfffff897
    87e8:	6e692064 	cdpvs	0, 6, cr2, cr9, cr4, {3}
    87ec:	32490074 	subcc	r0, r9, #116	; 0x74
    87f0:	52535f43 	subspl	r5, r3, #268	; 0x10c
    87f4:	49545f31 	ldmdbmi	r4, {r0, r4, r5, r8, r9, sl, fp, ip, lr}^
    87f8:	554f454d 	strbpl	r4, [pc, #-1357]	; 82b3 <_Min_Stack_Size+0x7eb3>
    87fc:	32492054 	subcc	r2, r9, #84	; 0x54
    8800:	52535f43 	subspl	r5, r3, #268	; 0x10c
    8804:	49545f31 	ldmdbmi	r4, {r0, r4, r5, r8, r9, sl, fp, ip, lr}^
    8808:	554f454d 	strbpl	r4, [pc, #-1357]	; 82c3 <_Min_Stack_Size+0x7ec3>
    880c:	734d5f54 	movtvc	r5, #57172	; 0xdf54
    8810:	4955006b 	ldmdbmi	r5, {r0, r1, r3, r5, r6}^
    8814:	4c5f544e 	cfldrdmi	mvd5, [pc], {78}	; 0x4e
    8818:	54534145 	ldrbpl	r4, [r3], #-325	; 0xfffffebb
    881c:	414d5f38 	cmpmi	sp, r8, lsr pc
    8820:	5f282058 	svcpl	0x00282058
    8824:	4e49555f 	mcrmi	5, 2, r5, cr9, cr15, {2}
    8828:	454c5f54 	strbmi	r5, [ip, #-3924]	; 0xfffff0ac
    882c:	38545341 	ldmdacc	r4, {r0, r6, r8, r9, ip, lr}^
    8830:	58414d5f 	stmdapl	r1, {r0, r1, r2, r3, r4, r6, r8, sl, fp, lr}^
    8834:	00295f5f 	eoreq	r5, r9, pc, asr pc
    8838:	53555f5f 	cmppl	r5, #380	; 0x17c
    883c:	42495f51 	submi	r5, r9, #324	; 0x144
    8840:	5f5f5449 	svcpl	0x005f5449
    8844:	5f003020 	svcpl	0x00003020
    8848:	554e475f 	strbpl	r4, [lr, #-1887]	; 0xfffff8a1
    884c:	494d5f43 	stmdbmi	sp, {r0, r1, r6, r8, r9, sl, fp, ip, lr}^
    8850:	5f524f4e 	svcpl	0x00524f4e
    8854:	0033205f 	eorseq	r2, r3, pc, asr r0
    8858:	4c465f5f 	mcrrmi	15, 5, r5, r6, cr15
    885c:	58323354 	ldmdapl	r2!, {r2, r4, r6, r8, r9, ip, sp}
    8860:	4e494d5f 	mcrmi	13, 2, r4, cr9, cr15, {2}
    8864:	5058455f 	subspl	r4, r8, pc, asr r5
    8868:	28205f5f 	stmdacs	r0!, {r0, r1, r2, r3, r4, r6, r8, r9, sl, fp, ip, lr}
    886c:	3230312d 	eorscc	r3, r0, #1073741835	; 0x4000000b
    8870:	5f002931 	svcpl	0x00002931
    8874:	4e49555f 	mcrmi	5, 2, r5, cr9, cr15, {2}
    8878:	454c5f54 	strbmi	r5, [ip, #-3924]	; 0xfffff0ac
    887c:	33545341 	cmpcc	r4, #67108865	; 0x4000001
    8880:	59545f32 	ldmdbpl	r4, {r1, r4, r5, r8, r9, sl, fp, ip, lr}^
    8884:	5f5f4550 	svcpl	0x005f4550
    8888:	6e6f6c20 	cdpvs	12, 6, cr6, cr15, cr0, {1}
    888c:	6e752067 	cdpvs	0, 7, cr2, cr5, cr7, {3}
    8890:	6e676973 			; <UNDEFINED> instruction: 0x6e676973
    8894:	69206465 	stmdbvs	r0!, {r0, r2, r5, r6, sl, sp, lr}
    8898:	4500746e 	strmi	r7, [r0, #-1134]	; 0xfffffb92
    889c:	35495458 	strbcc	r5, [r9, #-1112]	; 0xfffffba8
    88a0:	20354150 	eorscs	r4, r5, r0, asr r1
    88a4:	54584528 	ldrbpl	r4, [r8], #-1320	; 0xfffffad8
    88a8:	50475f49 	subpl	r5, r7, r9, asr #30
    88ac:	4d5f4f49 	ldclmi	15, cr4, [pc, #-292]	; 8790 <_Min_Stack_Size+0x8390>
    88b0:	69707061 	ldmdbvs	r0!, {r0, r5, r6, ip, sp, lr}^
    88b4:	745f676e 	ldrbvc	r6, [pc], #-1902	; 88bc <_Min_Stack_Size+0x84bc>
    88b8:	58457b29 	stmdapl	r5, {r0, r3, r5, r8, r9, fp, ip, sp, lr}^
    88bc:	2c354954 			; <UNDEFINED> instruction: 0x2c354954
    88c0:	49504720 	ldmdbmi	r0, {r5, r8, r9, sl, lr}^
    88c4:	2c20414f 	stfcss	f4, [r0], #-316	; 0xfffffec4
    88c8:	49504720 	ldmdbmi	r0, {r5, r8, r9, sl, lr}^
    88cc:	49505f4f 	ldmdbmi	r0, {r0, r1, r2, r3, r6, r8, r9, sl, fp, ip, lr}^
    88d0:	20355f4e 	eorscs	r5, r5, lr, asr #30
    88d4:	5845202c 	stmdapl	r5, {r2, r3, r5, sp}^
    88d8:	5f354954 	svcpl	0x00354954
    88dc:	20515249 	subscs	r5, r1, r9, asr #4
    88e0:	5f5f007d 	svcpl	0x005f007d
    88e4:	5f4d5241 	svcpl	0x004d5241
    88e8:	54414546 	strbpl	r4, [r1], #-1350	; 0xfffffaba
    88ec:	5f455255 	svcpl	0x00455255
    88f0:	454d554e 	strbmi	r5, [sp, #-1358]	; 0xfffffab2
    88f4:	5f434952 	svcpl	0x00434952
    88f8:	4d58414d 	ldfmie	f4, [r8, #-308]	; 0xfffffecc
    88fc:	5f004e49 	svcpl	0x00004e49
    8900:	444e4152 	strbmi	r4, [lr], #-338	; 0xfffffeae
    8904:	4d5f3834 	ldclmi	8, cr3, [pc, #-208]	; 883c <_Min_Stack_Size+0x843c>
    8908:	5f544c55 	svcpl	0x00544c55
    890c:	30282031 	eorcc	r2, r8, r1, lsr r0
    8910:	65656478 	strbvs	r6, [r5, #-1144]!	; 0xfffffb88
    8914:	5f002963 	svcpl	0x00002963
    8918:	544e495f 	strbpl	r4, [lr], #-2399	; 0xfffff6a1
    891c:	5f58414d 	svcpl	0x0058414d
    8920:	45505954 	ldrbmi	r5, [r0, #-2388]	; 0xfffff6ac
    8924:	6c205f5f 	stcvs	15, cr5, [r0], #-380	; 0xfffffe84
    8928:	20676e6f 	rsbcs	r6, r7, pc, ror #28
    892c:	676e6f6c 	strbvs	r6, [lr, -ip, ror #30]!
    8930:	746e6920 	strbtvc	r6, [lr], #-2336	; 0xfffff6e0
    8934:	475f5f00 	ldrbmi	r5, [pc, -r0, lsl #30]
    8938:	415f4343 	cmpmi	pc, r3, asr #6
    893c:	494d4f54 	stmdbmi	sp, {r2, r4, r6, r8, r9, sl, fp, lr}^
    8940:	4e495f43 	cdpmi	15, 4, cr5, cr9, cr3, {2}
    8944:	4f4c5f54 	svcmi	0x004c5f54
    8948:	465f4b43 	ldrbmi	r4, [pc], -r3, asr #22
    894c:	20454552 	subcs	r4, r5, r2, asr r5
    8950:	525f0032 	subspl	r0, pc, #50	; 0x32
    8954:	34444e41 	strbcc	r4, [r4], #-3649	; 0xfffff1bf
    8958:	45535f38 	ldrbmi	r5, [r3, #-3896]	; 0xfffff0c8
    895c:	305f4445 	subscc	r4, pc, r5, asr #8
    8960:	78302820 	ldmdavc	r0!, {r5, fp, sp}
    8964:	65303333 	ldrvs	r3, [r0, #-819]!	; 0xfffffccd
    8968:	475f0029 	ldrbmi	r0, [pc, -r9, lsr #32]
    896c:	4d5f4343 	ldclmi	3, cr4, [pc, #-268]	; 8868 <_Min_Stack_Size+0x8468>
    8970:	415f5841 	cmpmi	pc, r1, asr #16
    8974:	4e47494c 	vmlsmi.f16	s9, s14, s24	; <UNPREDICTABLE>
    8978:	0020545f 	eoreq	r5, r0, pc, asr r4
    897c:	6f4c5f5f 	svcvs	0x004c5f5f
    8980:	6c20676e 	stcvs	7, cr6, [r0], #-440	; 0xfffffe48
    8984:	00676e6f 	rsbeq	r6, r7, pc, ror #28
    8988:	52415f5f 	subpl	r5, r1, #380	; 0x17c
    898c:	45465f4d 	strbmi	r5, [r6, #-3917]	; 0xfffff0b3
    8990:	52555441 	subspl	r5, r5, #1090519040	; 0x41000000
    8994:	50465f45 	subpl	r5, r6, r5, asr #30
    8998:	535f3631 	cmppl	pc, #51380224	; 0x3100000
    899c:	414c4143 	cmpmi	ip, r3, asr #2
    89a0:	52415f52 	subpl	r5, r1, #328	; 0x148
    89a4:	4d485449 	cfstrdmi	mvd5, [r8, #-292]	; 0xfffffedc
    89a8:	43495445 	movtmi	r5, #37957	; 0x9445
    89ac:	49504700 	ldmdbmi	r0, {r8, r9, sl, lr}^
    89b0:	4f4d5f4f 	svcmi	0x004d5f4f
    89b4:	495f4544 	ldmdbmi	pc, {r2, r6, r8, sl, lr}^	; <UNPREDICTABLE>
    89b8:	5455504e 	ldrbpl	r5, [r5], #-78	; 0xffffffb2
    89bc:	4f4c465f 	svcmi	0x004c465f
    89c0:	30783020 	rsbscc	r3, r8, r0, lsr #32
    89c4:	30303030 	eorscc	r3, r0, r0, lsr r0
    89c8:	75313030 	ldrvc	r3, [r1, #-48]!	; 0xffffffd0
    89cc:	54535f00 	ldrbpl	r5, [r3], #-3840	; 0xfffff100
    89d0:	42494c44 	submi	r4, r9, #68, 24	; 0x4400
    89d4:	205f485f 	subscs	r4, pc, pc, asr r8	; <UNPREDICTABLE>
    89d8:	445f5f00 	ldrbmi	r5, [pc], #-3840	; 89e0 <_Min_Stack_Size+0x85e0>
    89dc:	485f4c42 	ldmdami	pc, {r1, r6, sl, fp, lr}^	; <UNPREDICTABLE>
    89e0:	515f5341 	cmppl	pc, r1, asr #6
    89e4:	54454955 	strbpl	r4, [r5], #-2389	; 0xfffff6ab
    89e8:	4e414e5f 	mcrmi	14, 2, r4, cr1, cr15, {2}
    89ec:	31205f5f 			; <UNDEFINED> instruction: 0x31205f5f
    89f0:	49504700 	ldmdbmi	r0, {r8, r9, sl, lr}^
    89f4:	49505f4f 	ldmdbmi	r0, {r0, r1, r2, r3, r6, r8, r9, sl, fp, ip, lr}^
    89f8:	20375f4e 	eorscs	r5, r7, lr, asr #30
    89fc:	69752828 	ldmdbvs	r5!, {r3, r5, fp, sp}^
    8a00:	3631746e 	ldrtcc	r7, [r1], -lr, ror #8
    8a04:	3029745f 	eorcc	r7, r9, pc, asr r4
    8a08:	38303078 	ldmdacc	r0!, {r3, r4, r5, r6, ip, sp}
    8a0c:	49002930 	stmdbmi	r0, {r4, r5, r8, fp, sp}
    8a10:	3233544e 	eorscc	r5, r3, #1308622848	; 0x4e000000
    8a14:	7828435f 	stmdavc	r8!, {r0, r1, r2, r3, r4, r6, r8, r9, lr}
    8a18:	5f5f2029 	svcpl	0x005f2029
    8a1c:	33544e49 	cmpcc	r4, #1168	; 0x490
    8a20:	28435f32 	stmdacs	r3, {r1, r4, r5, r8, r9, sl, fp, ip, lr}^
    8a24:	5f002978 	svcpl	0x00002978
    8a28:	7274705f 	rsbsvc	r7, r4, #95	; 0x5f
    8a2c:	756c6176 	strbvc	r6, [ip, #-374]!	; 0xfffffe8a
    8a30:	5f002065 	svcpl	0x00002065
    8a34:	4e494f4e 	cdpmi	15, 4, cr4, cr9, cr14, {2}
    8a38:	454e494c 	strbmi	r4, [lr, #-2380]	; 0xfffff6b4
    8a3c:	4154535f 	cmpmi	r4, pc, asr r3
    8a40:	20434954 	subcs	r4, r3, r4, asr r9
    8a44:	494f4e5f 	stmdbmi	pc, {r0, r1, r2, r3, r4, r6, r9, sl, fp, lr}^	; <UNPREDICTABLE>
    8a48:	4e494c4e 	cdpmi	12, 4, cr4, cr9, cr14, {2}
    8a4c:	74732045 	ldrbtvc	r2, [r3], #-69	; 0xffffffbb
    8a50:	63697461 	cmnvs	r9, #1627389952	; 0x61000000
    8a54:	4c5f5f00 	mrrcmi	15, 0, r5, pc, cr0	; <UNPREDICTABLE>
    8a58:	4152464c 	cmpmi	r2, ip, asr #12
    8a5c:	4d5f5443 	cfldrdmi	mvd5, [pc, #-268]	; 8958 <_Min_Stack_Size+0x8558>
    8a60:	5f5f5841 	svcpl	0x005f5841
    8a64:	37583020 	ldrbcc	r3, [r8, -r0, lsr #32]
    8a68:	46464646 	strbmi	r4, [r6], -r6, asr #12
    8a6c:	46464646 	strbmi	r4, [r6], -r6, asr #12
    8a70:	46464646 	strbmi	r4, [r6], -r6, asr #12
    8a74:	50464646 	subpl	r4, r6, r6, asr #12
    8a78:	4c33362d 	ldcmi	6, cr3, [r3], #-180	; 0xffffff4c
    8a7c:	5f00524c 	svcpl	0x0000524c
    8a80:	6e6f635f 	mcrvs	3, 3, r6, cr15, cr15, {2}
    8a84:	63207473 			; <UNDEFINED> instruction: 0x63207473
    8a88:	74736e6f 	ldrbtvc	r6, [r3], #-3695	; 0xfffff191
    8a8c:	4e495500 	cdpmi	5, 4, cr5, cr9, cr0, {0}
    8a90:	454c5f54 	strbmi	r5, [ip, #-3924]	; 0xfffff0ac
    8a94:	33545341 	cmpcc	r4, #67108865	; 0x4000001
    8a98:	414d5f32 	cmpmi	sp, r2, lsr pc
    8a9c:	5f282058 	svcpl	0x00282058
    8aa0:	4e49555f 	mcrmi	5, 2, r5, cr9, cr15, {2}
    8aa4:	454c5f54 	strbmi	r5, [ip, #-3924]	; 0xfffff0ac
    8aa8:	33545341 	cmpcc	r4, #67108865	; 0x4000001
    8aac:	414d5f32 	cmpmi	sp, r2, lsr pc
    8ab0:	295f5f58 	ldmdbcs	pc, {r3, r4, r6, r8, r9, sl, fp, ip, lr}^	; <UNPREDICTABLE>
    8ab4:	475f5f00 	ldrbmi	r5, [pc, -r0, lsl #30]
    8ab8:	5f43554e 	svcpl	0x0043554e
    8abc:	52455250 	subpl	r5, r5, #80, 4
    8ac0:	5f5f5145 	svcpl	0x005f5145
    8ac4:	2c616d28 	stclcs	13, cr6, [r1], #-160	; 0xffffff60
    8ac8:	2029696d 	eorcs	r6, r9, sp, ror #18
    8acc:	4e475f5f 	mcrmi	15, 2, r5, cr7, cr15, {2}
    8ad0:	505f4355 	subspl	r4, pc, r5, asr r3	; <UNPREDICTABLE>
    8ad4:	45524552 	ldrbmi	r4, [r2, #-1362]	; 0xfffffaae
    8ad8:	616d2851 	cmnvs	sp, r1, asr r8
    8adc:	696d202c 	stmdbvs	sp!, {r2, r3, r5, sp}^
    8ae0:	32490029 	subcc	r0, r9, #41	; 0x29
    8ae4:	52535f43 	subspl	r5, r3, #268	; 0x10c
    8ae8:	44415f31 	strbmi	r5, [r1], #-3889	; 0xfffff0cf
    8aec:	4d5f5244 	lfmmi	f5, 2, [pc, #-272]	; 89e4 <_Min_Stack_Size+0x85e4>
    8af0:	28206b73 	stmdacs	r0!, {r0, r1, r4, r5, r6, r8, r9, fp, sp, lr}
    8af4:	55317830 	ldrpl	r7, [r1, #-2096]!	; 0xfffff7d0
    8af8:	3c3c204c 	ldccc	0, cr2, [ip], #-304	; 0xfffffed0
    8afc:	43324920 	teqmi	r2, #32, 18	; 0x80000
    8b00:	3152535f 	cmpcc	r2, pc, asr r3
    8b04:	4444415f 	strbmi	r4, [r4], #-351	; 0xfffffea1
    8b08:	6f505f52 	svcvs	0x00505f52
    8b0c:	47002973 	smlsdxmi	r0, r3, r9, r2
    8b10:	5f4f4950 	svcpl	0x004f4950
    8b14:	4e6e6950 			; <UNDEFINED> instruction: 0x4e6e6950
    8b18:	65626d75 	strbvs	r6, [r2, #-3445]!	; 0xfffff28b
    8b1c:	5f5f0072 	svcpl	0x005f0072
    8b20:	50544e49 	subspl	r4, r4, r9, asr #28
    8b24:	545f5254 	ldrbpl	r5, [pc], #-596	; 8b2c <_Min_Stack_Size+0x872c>
    8b28:	5f455059 	svcpl	0x00455059
    8b2c:	6e69205f 	mcrvs	0, 3, r2, cr9, cr15, {2}
    8b30:	58450074 	stmdapl	r5, {r2, r4, r5, r6}^
    8b34:	5f384954 	svcpl	0x00384954
    8b38:	20515249 	subscs	r5, r1, r9, asr #4
    8b3c:	5f003332 	svcpl	0x00003332
    8b40:	4e454552 	mcrmi	5, 2, r4, cr5, cr2, {2}
    8b44:	4c435f54 	mcrrmi	15, 5, r5, r3, cr4
    8b48:	554e4145 	strbpl	r4, [lr, #-325]	; 0xfffffebb
    8b4c:	705f2850 	subsvc	r2, pc, r0, asr r8	; <UNPREDICTABLE>
    8b50:	20297274 	eorcs	r7, r9, r4, ror r2
    8b54:	705f2828 	subsvc	r2, pc, r8, lsr #16
    8b58:	2d297274 	sfmcs	f7, 4, [r9, #-464]!	; 0xfffffe30
    8b5c:	635f5f3e 	cmpvs	pc, #62, 30	; 0xf8
    8b60:	6e61656c 	cdpvs	5, 6, cr6, cr1, cr12, {3}
    8b64:	00297075 	eoreq	r7, r9, r5, ror r0
    8b68:	5f433249 	svcpl	0x00433249
    8b6c:	5f315253 	svcpl	0x00315253
    8b70:	5f52564f 	svcpl	0x0052564f
    8b74:	20736f50 	rsbscs	r6, r3, r0, asr pc
    8b78:	55313128 	ldrpl	r3, [r1, #-296]!	; 0xfffffed8
    8b7c:	5f5f0029 	svcpl	0x005f0029
    8b80:	49474552 	stmdbmi	r7, {r1, r4, r6, r8, sl, lr}^
    8b84:	52455453 	subpl	r5, r5, #1392508928	; 0x53000000
    8b88:	4552505f 	ldrbmi	r5, [r2, #-95]	; 0xffffffa1
    8b8c:	5f584946 	svcpl	0x00584946
    8b90:	5f00205f 	svcpl	0x0000205f
    8b94:	544c465f 	strbpl	r4, [ip], #-1631	; 0xfffff9a1
    8b98:	4d5f3233 	lfmmi	f3, 2, [pc, #-204]	; 8ad4 <_Min_Stack_Size+0x86d4>
    8b9c:	5f5f5841 	svcpl	0x005f5841
    8ba0:	342e3320 	strtcc	r3, [lr], #-800	; 0xfffffce0
    8ba4:	32383230 	eorscc	r3, r8, #48, 4
    8ba8:	36363433 			; <UNDEFINED> instruction: 0x36363433
    8bac:	32353833 	eorscc	r3, r5, #3342336	; 0x330000
    8bb0:	65363838 	ldrvs	r3, [r6, #-2104]!	; 0xfffff7c8
    8bb4:	4638332b 	ldrtmi	r3, [r8], -fp, lsr #6
    8bb8:	5f003233 	svcpl	0x00003233
    8bbc:	4c42445f 	cfstrdmi	mvd4, [r2], {95}	; 0x5f
    8bc0:	4749445f 	smlsldmi	r4, r9, pc, r4	; <UNPREDICTABLE>
    8bc4:	31205f5f 			; <UNDEFINED> instruction: 0x31205f5f
    8bc8:	5f5f0035 	svcpl	0x005f0035
    8bcc:	52464c55 	subpl	r4, r6, #21760	; 0x5500
    8bd0:	5f544341 	svcpl	0x00544341
    8bd4:	49535045 	ldmdbmi	r3, {r0, r2, r6, ip, lr}^
    8bd8:	5f4e4f4c 	svcpl	0x004e4f4c
    8bdc:	7830205f 	ldmdavc	r0!, {r0, r1, r2, r3, r4, r6, sp}
    8be0:	332d5031 			; <UNDEFINED> instruction: 0x332d5031
    8be4:	524c5532 	subpl	r5, ip, #209715200	; 0xc800000
    8be8:	525f5f00 	subspl	r5, pc, #0, 30
    8bec:	44495343 	strbmi	r5, [r9], #-835	; 0xfffffcbd
    8bf0:	20297328 	eorcs	r7, r9, r8, lsr #6
    8bf4:	75727473 	ldrbvc	r7, [r2, #-1139]!	; 0xfffffb8d
    8bf8:	5f207463 	svcpl	0x00207463
    8bfc:	6361685f 	cmnvs	r1, #6225920	; 0x5f0000
    8c00:	5047006b 	subpl	r0, r7, fp, rrx
    8c04:	4d5f4f49 	ldclmi	15, cr4, [pc, #-292]	; 8ae8 <_Min_Stack_Size+0x86e8>
    8c08:	5f45444f 	svcpl	0x0045444f
    8c0c:	5054554f 	subspl	r5, r4, pc, asr #10
    8c10:	505f5455 	subspl	r5, pc, r5, asr r4	; <UNPREDICTABLE>
    8c14:	78302050 	ldmdavc	r0!, {r4, r6, sp}
    8c18:	30303030 	eorscc	r3, r0, r0, lsr r0
    8c1c:	34303030 	ldrtcc	r3, [r0], #-48	; 0xffffffd0
    8c20:	525f0075 	subspl	r0, pc, #117	; 0x75
    8c24:	544e4545 	strbpl	r4, [lr], #-1349	; 0xfffffabb
    8c28:	494e495f 	stmdbmi	lr, {r0, r1, r2, r3, r4, r6, r8, fp, lr}^
    8c2c:	45525f54 	ldrbmi	r5, [r2, #-3924]	; 0xfffff0ac
    8c30:	56524553 			; <UNDEFINED> instruction: 0x56524553
    8c34:	365f4445 	ldrbcc	r4, [pc], -r5, asr #8
    8c38:	0020375f 	eoreq	r3, r0, pc, asr r7
    8c3c:	4545525f 	strbmi	r5, [r5, #-607]	; 0xfffffda1
    8c40:	4c5f544e 	cfldrdmi	mvd5, [pc], {78}	; 0x4e
    8c44:	5f413436 	svcpl	0x00413436
    8c48:	28465542 	stmdacs	r6, {r1, r6, r8, sl, ip, lr}^
    8c4c:	29727470 	ldmdbcs	r2!, {r4, r5, r6, sl, ip, sp, lr}^
    8c50:	70282820 	eorvc	r2, r8, r0, lsr #16
    8c54:	2d297274 	sfmcs	f7, 4, [r9, #-464]!	; 0xfffffe30
    8c58:	696d5f3e 	stmdbvs	sp!, {r1, r2, r3, r4, r5, r8, r9, sl, fp, ip, lr}^
    8c5c:	3e2d6373 	mcrcc	3, 1, r6, cr13, cr3, {3}
    8c60:	34366c5f 	ldrtcc	r6, [r6], #-3167	; 0xfffff3a1
    8c64:	75625f61 	strbvc	r5, [r2, #-3937]!	; 0xfffff09f
    8c68:	5f002966 	svcpl	0x00002966
    8c6c:	5a49535f 	bpl	125d9f0 <_Min_Stack_Size+0x125d5f0>
    8c70:	5f464f45 	svcpl	0x00464f45
    8c74:	455a4953 	ldrbmi	r4, [sl, #-2387]	; 0xfffff6ad
    8c78:	5f5f545f 	svcpl	0x005f545f
    8c7c:	45003420 	strmi	r3, [r0, #-1056]	; 0xfffffbe0
    8c80:	31495458 	cmpcc	r9, r8, asr r4
    8c84:	31425030 	cmpcc	r2, r0, lsr r0
    8c88:	45282030 	strmi	r2, [r8, #-48]!	; 0xffffffd0
    8c8c:	5f495458 	svcpl	0x00495458
    8c90:	4f495047 	svcmi	0x00495047
    8c94:	70614d5f 	rsbvc	r4, r1, pc, asr sp
    8c98:	676e6970 			; <UNDEFINED> instruction: 0x676e6970
    8c9c:	7b29745f 	blvc	a65e20 <_Min_Stack_Size+0xa65a20>
    8ca0:	49545845 	ldmdbmi	r4, {r0, r2, r6, fp, ip, lr}^
    8ca4:	202c3031 	eorcs	r3, ip, r1, lsr r0
    8ca8:	4f495047 	svcmi	0x00495047
    8cac:	202c2042 	eorcs	r2, ip, r2, asr #32
    8cb0:	4f495047 	svcmi	0x00495047
    8cb4:	4e49505f 	mcrmi	0, 2, r5, cr9, cr15, {2}
    8cb8:	2030315f 	eorscs	r3, r0, pc, asr r1
    8cbc:	5458452c 	ldrbpl	r4, [r8], #-1324	; 0xfffffad4
    8cc0:	5f303149 	svcpl	0x00303149
    8cc4:	20515249 	subscs	r5, r1, r9, asr #4
    8cc8:	5f5f007d 	svcpl	0x005f007d
    8ccc:	544e4955 	strbpl	r4, [lr], #-2389	; 0xfffff6ab
    8cd0:	545f3436 	ldrbpl	r3, [pc], #-1078	; 8cd8 <_Min_Stack_Size+0x88d8>
    8cd4:	5f455059 	svcpl	0x00455059
    8cd8:	6f6c205f 	svcvs	0x006c205f
    8cdc:	6c20676e 	stcvs	7, cr6, [r0], #-440	; 0xfffffe48
    8ce0:	20676e6f 	rsbcs	r6, r7, pc, ror #28
    8ce4:	69736e75 	ldmdbvs	r3!, {r0, r2, r4, r5, r6, r9, sl, fp, sp, lr}^
    8ce8:	64656e67 	strbtvs	r6, [r5], #-3687	; 0xfffff199
    8cec:	746e6920 	strbtvc	r6, [lr], #-2336	; 0xfffff6e0
    8cf0:	495f5f00 	ldmdbmi	pc, {r8, r9, sl, fp, ip, lr}^	; <UNPREDICTABLE>
    8cf4:	3436544e 	ldrtcc	r5, [r6], #-1102	; 0xfffffbb2
    8cf8:	6328435f 			; <UNDEFINED> instruction: 0x6328435f
    8cfc:	20632029 	rsbcs	r2, r3, r9, lsr #32
    8d00:	4c202323 	stcmi	3, cr2, [r0], #-140	; 0xffffff74
    8d04:	5f5f004c 	svcpl	0x005f004c
    8d08:	43554e47 	cmpmi	r5, #1136	; 0x470
    8d0c:	454b494c 	strbmi	r4, [fp, #-2380]	; 0xfffff6b4
    8d10:	4f54435f 	svcmi	0x0054435f
    8d14:	45535f52 	ldrbmi	r5, [r3, #-3922]	; 0xfffff0ae
    8d18:	4f495443 	svcmi	0x00495443
    8d1c:	41485f4e 	cmpmi	r8, lr, asr #30
    8d20:	494c444e 	stmdbmi	ip, {r1, r2, r3, r6, sl, lr}^
    8d24:	3120474e 			; <UNDEFINED> instruction: 0x3120474e
    8d28:	6c5f5f00 	mrrcvs	15, 0, r5, pc, cr0	; <UNPREDICTABLE>
    8d2c:	616b636f 	cmnvs	fp, pc, ror #6
    8d30:	20656c62 	rsbcs	r6, r5, r2, ror #24
    8d34:	6f6c5f5f 	svcvs	0x006c5f5f
    8d38:	615f6b63 	cmpvs	pc, r3, ror #22
    8d3c:	746f6e6e 	strbtvc	r6, [pc], #-3694	; 8d44 <_Min_Stack_Size+0x8944>
    8d40:	28657461 	stmdacs	r5!, {r0, r5, r6, sl, ip, sp, lr}^
    8d44:	6b636f6c 	blvs	18e4afc <_Min_Stack_Size+0x18e46fc>
    8d48:	656c6261 	strbvs	r6, [ip, #-609]!	; 0xfffffd9f
    8d4c:	50470029 	subpl	r0, r7, r9, lsr #32
    8d50:	505f4f49 	subspl	r4, pc, r9, asr #30
    8d54:	315f4e49 	cmpcc	pc, r9, asr #28
    8d58:	28282034 	stmdacs	r8!, {r2, r4, r5, sp}
    8d5c:	746e6975 	strbtvc	r6, [lr], #-2421	; 0xfffff68b
    8d60:	745f3631 	ldrbvc	r3, [pc], #-1585	; 8d68 <_Min_Stack_Size+0x8968>
    8d64:	34783029 	ldrbtcc	r3, [r8], #-41	; 0xffffffd7
    8d68:	29303030 	ldmdbcs	r0!, {r4, r5, ip, sp}
    8d6c:	455f5f00 	ldrbmi	r5, [pc, #-3840]	; 7e74 <_Min_Stack_Size+0x7a74>
    8d70:	445f444e 	ldrbmi	r4, [pc], #-1102	; 8d78 <_Min_Stack_Size+0x8978>
    8d74:	534c4345 	movtpl	r4, #49989	; 0xc345
    8d78:	43520020 	cmpmi	r2, #32
    8d7c:	41425f43 	cmpmi	r2, r3, asr #30
    8d80:	28204553 	stmdacs	r0!, {r0, r1, r4, r6, r8, sl, lr}
    8d84:	69726550 	ldmdbvs	r2!, {r4, r6, r8, sl, sp, lr}^
    8d88:	72656870 	rsbvc	r6, r5, #112, 16	; 0x700000
    8d8c:	5f736c61 	svcpl	0x00736c61
    8d90:	45534142 	ldrbmi	r4, [r3, #-322]	; 0xfffffebe
    8d94:	30202b20 	eorcc	r2, r0, r0, lsr #22
    8d98:	30303078 	eorscc	r3, r0, r8, ror r0
    8d9c:	30303132 	eorscc	r3, r0, r2, lsr r1
    8da0:	294c5530 	stmdbcs	ip, {r4, r5, r8, sl, ip, lr}^
    8da4:	43324900 	teqmi	r2, #0, 18
    8da8:	3152535f 	cmpcc	r2, pc, asr r3
    8dac:	424d535f 	submi	r5, sp, #2080374785	; 0x7c000001
    8db0:	52454c41 	subpl	r4, r5, #16640	; 0x4100
    8db4:	32492054 	subcc	r2, r9, #84	; 0x54
    8db8:	52535f43 	subspl	r5, r3, #268	; 0x10c
    8dbc:	4d535f31 	ldclmi	15, cr5, [r3, #-196]	; 0xffffff3c
    8dc0:	454c4142 	strbmi	r4, [ip, #-322]	; 0xfffffebe
    8dc4:	4d5f5452 	cfldrdmi	mvd5, [pc, #-328]	; 8c84 <_Min_Stack_Size+0x8884>
    8dc8:	5f006b73 	svcpl	0x00006b73
    8dcc:	42444c5f 	submi	r4, r4, #24320	; 0x5f00
    8dd0:	494d5f4c 	stmdbmi	sp, {r2, r3, r6, r8, r9, sl, fp, ip, lr}^
    8dd4:	205f5f4e 	subscs	r5, pc, lr, asr #30
    8dd8:	32322e32 	eorscc	r2, r2, #800	; 0x320
    8ddc:	33373035 	teqcc	r7, #53	; 0x35
    8de0:	35383538 	ldrcc	r3, [r8, #-1336]!	; 0xfffffac8
    8de4:	30323730 	eorscc	r3, r2, r0, lsr r7
    8de8:	2d653431 	cfstrdcs	mvd3, [r5, #-196]!	; 0xffffff3c
    8dec:	4c383033 	ldcmi	0, cr3, [r8], #-204	; 0xffffff34
    8df0:	415f5f00 	cmpmi	pc, r0, lsl #30
    8df4:	465f4d52 			; <UNDEFINED> instruction: 0x465f4d52
    8df8:	55544145 	ldrbpl	r4, [r4, #-325]	; 0xfffffebb
    8dfc:	435f4552 	cmpmi	pc, #343932928	; 0x14800000
    8e00:	5f004544 	svcpl	0x00004544
    8e04:	4343415f 	movtmi	r4, #12639	; 0x315f
    8e08:	495f4d55 	ldmdbmi	pc, {r0, r2, r4, r6, r8, sl, fp, lr}^	; <UNPREDICTABLE>
    8e0c:	5f544942 	svcpl	0x00544942
    8e10:	3631205f 			; <UNDEFINED> instruction: 0x3631205f
    8e14:	43324900 	teqmi	r2, #0, 18
    8e18:	3152535f 	cmpcc	r2, pc, asr r3
    8e1c:	4444415f 	strbmi	r4, [r4], #-351	; 0xfffffea1
    8e20:	6f505f52 	svcvs	0x00505f52
    8e24:	31282073 			; <UNDEFINED> instruction: 0x31282073
    8e28:	75002955 	strvc	r2, [r0, #-2389]	; 0xfffff6ab
    8e2c:	6769736e 	strbvs	r7, [r9, -lr, ror #6]!
    8e30:	0064656e 	rsbeq	r6, r4, lr, ror #10
    8e34:	454c5f5f 	strbmi	r5, [ip, #-3935]	; 0xfffff0a1
    8e38:	38545341 	ldmdacc	r4, {r0, r6, r8, r9, ip, lr}^
    8e3c:	68682220 	stmdavs	r8!, {r5, r9, sp}^
    8e40:	32490022 	subcc	r0, r9, #34	; 0x22
    8e44:	455f3243 	ldrbmi	r3, [pc, #-579]	; 8c09 <_Min_Stack_Size+0x8809>
    8e48:	52495f52 	subpl	r5, r9, #328	; 0x148
    8e4c:	34332051 	ldrtcc	r2, [r3], #-81	; 0xffffffaf
    8e50:	705f5f00 	subsvc	r5, pc, r0, lsl #30
    8e54:	75675f74 	strbvc	r5, [r7, #-3956]!	; 0xfffff08c
    8e58:	65647261 	strbvs	r7, [r4, #-609]!	; 0xfffffd9f
    8e5c:	79625f64 	stmdbvc	r2!, {r2, r5, r6, r8, r9, sl, fp, ip, lr}^
    8e60:	20297828 	eorcs	r7, r9, r8, lsr #16
    8e64:	6f6c5f5f 	svcvs	0x006c5f5f
    8e68:	615f6b63 	cmpvs	pc, r3, ror #22
    8e6c:	746f6e6e 	strbtvc	r6, [pc], #-3694	; 8e74 <_Min_Stack_Size+0x8a74>
    8e70:	28657461 	stmdacs	r5!, {r0, r5, r6, sl, ip, sp, lr}^
    8e74:	675f7470 			; <UNDEFINED> instruction: 0x675f7470
    8e78:	64726175 	ldrbtvs	r6, [r2], #-373	; 0xfffffe8b
    8e7c:	625f6465 	subsvs	r6, pc, #1694498816	; 0x65000000
    8e80:	29782879 	ldmdbcs	r8!, {r0, r3, r4, r5, r6, fp, sp}^
    8e84:	5f5f0029 	svcpl	0x005f0029
    8e88:	72617567 	rsbvc	r7, r1, #432013312	; 0x19c00000
    8e8c:	5f646564 	svcpl	0x00646564
    8e90:	78287962 	stmdavc	r8!, {r1, r5, r6, r8, fp, ip, sp, lr}
    8e94:	5f5f2029 	svcpl	0x005f2029
    8e98:	6b636f6c 	blvs	18e4c50 <_Min_Stack_Size+0x18e4850>
    8e9c:	6e6e615f 	mcrvs	1, 3, r6, cr14, cr15, {2}
    8ea0:	7461746f 	strbtvc	r7, [r1], #-1135	; 0xfffffb91
    8ea4:	75672865 	strbvc	r2, [r7, #-2149]!	; 0xfffff79b
    8ea8:	65647261 	strbvs	r7, [r4, #-609]!	; 0xfffffd9f
    8eac:	79625f64 	stmdbvc	r2!, {r2, r5, r6, r8, r9, sl, fp, ip, lr}^
    8eb0:	29297828 	stmdbcs	r9!, {r3, r5, fp, ip, sp, lr}
    8eb4:	54584500 	ldrbpl	r4, [r8], #-1280	; 0xfffffb00
    8eb8:	5f323149 	svcpl	0x00323149
    8ebc:	20515249 	subscs	r5, r1, r9, asr #4
    8ec0:	5f003034 	svcpl	0x00003034
    8ec4:	4e49555f 	mcrmi	5, 2, r5, cr9, cr15, {2}
    8ec8:	5f363154 	svcpl	0x00363154
    8ecc:	29632843 	stmdbcs	r3!, {r0, r1, r6, fp, sp}^
    8ed0:	5f006320 	svcpl	0x00006320
    8ed4:	544c465f 	strbpl	r4, [ip], #-1631	; 0xfffff9a1
    8ed8:	4d5f3436 	cfldrdmi	mvd3, [pc, #-216]	; 8e08 <_Min_Stack_Size+0x8a08>
    8edc:	455f4e49 	ldrbmi	r4, [pc, #-3657]	; 809b <_Min_Stack_Size+0x7c9b>
    8ee0:	5f5f5058 	svcpl	0x005f5058
    8ee4:	312d2820 			; <UNDEFINED> instruction: 0x312d2820
    8ee8:	29313230 	ldmdbcs	r1!, {r4, r5, r9, ip, sp}
    8eec:	735f5f00 	cmpvc	pc, #0, 30
    8ef0:	635f6d79 	cmpvs	pc, #7744	; 0x1e40
    8ef4:	61706d6f 	cmnvs	r0, pc, ror #26
    8ef8:	79732874 	ldmdbvc	r3!, {r2, r4, r5, r6, fp, sp}^
    8efc:	6d692c6d 	stclvs	12, cr2, [r9, #-436]!	; 0xfffffe4c
    8f00:	762c6c70 			; <UNDEFINED> instruction: 0x762c6c70
    8f04:	64697265 	strbtvs	r7, [r9], #-613	; 0xfffffd9b
    8f08:	5f5f2029 	svcpl	0x005f2029
    8f0c:	5f6d7361 	svcpl	0x006d7361
    8f10:	2e22285f 	mcrcs	8, 1, r2, cr2, cr15, {2}
    8f14:	766d7973 			; <UNDEFINED> instruction: 0x766d7973
    8f18:	22207265 	eorcs	r7, r0, #1342177286	; 0x50000006
    8f1c:	6d692320 	stclvs	3, cr2, [r9, #-128]!	; 0xffffff80
    8f20:	22206c70 	eorcs	r6, r0, #112, 24	; 0x7000
    8f24:	2022202c 	eorcs	r2, r2, ip, lsr #32
    8f28:	6d797323 	ldclvs	3, cr7, [r9, #-140]!	; 0xffffff74
    8f2c:	22402220 	subcs	r2, r0, #32, 4
    8f30:	65762320 	ldrbvs	r2, [r6, #-800]!	; 0xfffffce0
    8f34:	29646972 	stmdbcs	r4!, {r1, r4, r5, r6, r8, fp, sp, lr}^
    8f38:	435f5f00 	cmpmi	pc, #0, 30
    8f3c:	55535f43 	ldrbpl	r5, [r3, #-3907]	; 0xfffff0bd
    8f40:	524f5050 	subpl	r5, pc, #80	; 0x50
    8f44:	5f5f5354 	svcpl	0x005f5354
    8f48:	4c4e495f 	mcrrmi	9, 5, r4, lr, cr15	; <UNPREDICTABLE>
    8f4c:	5f454e49 	svcpl	0x00454e49
    8f50:	0031205f 	eorseq	r2, r1, pc, asr r0
    8f54:	44555f5f 	ldrbmi	r5, [r5], #-3935	; 0xfffff0a1
    8f58:	42495f41 	submi	r5, r9, #260	; 0x104
    8f5c:	5f5f5449 	svcpl	0x005f5449
    8f60:	00323320 	eorseq	r3, r2, r0, lsr #6
    8f64:	454c5f5f 	strbmi	r5, [ip, #-3935]	; 0xfffff0a1
    8f68:	31545341 	cmpcc	r4, r1, asr #6
    8f6c:	68222036 	stmdavs	r2!, {r1, r2, r4, r5, sp}
    8f70:	5f5f0022 	svcpl	0x005f0022
    8f74:	6e697270 	mcrvs	2, 3, r7, cr9, cr0, {3}
    8f78:	696c6674 	stmdbvs	ip!, {r2, r4, r5, r6, r9, sl, sp, lr}^
    8f7c:	6628656b 	strtvs	r6, [r8], -fp, ror #10
    8f80:	7261746d 	rsbvc	r7, r1, #1828716544	; 0x6d000000
    8f84:	69662c67 	stmdbvs	r6!, {r0, r1, r2, r5, r6, sl, fp, sp}^
    8f88:	76747372 			; <UNDEFINED> instruction: 0x76747372
    8f8c:	72617261 	rsbvc	r7, r1, #268435462	; 0x10000006
    8f90:	5f202967 	svcpl	0x00202967
    8f94:	7474615f 	ldrbtvc	r6, [r4], #-351	; 0xfffffea1
    8f98:	75626972 	strbvc	r6, [r2, #-2418]!	; 0xfffff68e
    8f9c:	5f5f6574 	svcpl	0x005f6574
    8fa0:	5f5f2828 	svcpl	0x005f2828
    8fa4:	6d726f66 	ldclvs	15, cr6, [r2, #-408]!	; 0xfffffe68
    8fa8:	5f5f7461 	svcpl	0x005f7461
    8fac:	5f5f2820 	svcpl	0x005f2820
    8fb0:	6e697270 	mcrvs	2, 3, r7, cr9, cr0, {3}
    8fb4:	5f5f6674 	svcpl	0x005f6674
    8fb8:	6d66202c 	stclvs	0, cr2, [r6, #-176]!	; 0xffffff50
    8fbc:	67726174 			; <UNDEFINED> instruction: 0x67726174
    8fc0:	6966202c 	stmdbvs	r6!, {r2, r3, r5, sp}^
    8fc4:	76747372 			; <UNDEFINED> instruction: 0x76747372
    8fc8:	72617261 	rsbvc	r7, r1, #268435462	; 0x10000006
    8fcc:	29292967 	stmdbcs	r9!, {r0, r1, r2, r5, r6, r8, fp, sp}
    8fd0:	4e5f5f00 	cdpmi	15, 5, cr5, cr15, cr0, {0}
    8fd4:	4e495f4f 	cdpmi	15, 4, cr5, cr9, cr15, {2}
    8fd8:	454e494c 	strbmi	r4, [lr, #-2380]	; 0xfffff6b4
    8fdc:	31205f5f 			; <UNDEFINED> instruction: 0x31205f5f
    8fe0:	665f5f00 	ldrbvs	r5, [pc], -r0, lsl #30
    8fe4:	63747361 	cmnvs	r4, #-2080374783	; 0x84000001
    8fe8:	206c6c61 	rsbcs	r6, ip, r1, ror #24
    8fec:	74615f5f 	strbtvc	r5, [r1], #-3935	; 0xfffff0a1
    8ff0:	62697274 	rsbvs	r7, r9, #116, 4	; 0x40000007
    8ff4:	5f657475 	svcpl	0x00657475
    8ff8:	5f28285f 	svcpl	0x0028285f
    8ffc:	7361665f 	cmnvc	r1, #99614720	; 0x5f00000
    9000:	6c616374 	stclvs	3, cr6, [r1], #-464	; 0xfffffe30
    9004:	295f5f6c 	ldmdbcs	pc, {r2, r3, r5, r6, r8, r9, sl, fp, ip, lr}^	; <UNPREDICTABLE>
    9008:	32490029 	subcc	r0, r9, #41	; 0x29
    900c:	52535f43 	subspl	r5, r3, #268	; 0x10c
    9010:	4d535f32 	ldclmi	15, cr5, [r3, #-200]	; 0xffffff38
    9014:	534f4842 	movtpl	r4, #63554	; 0xf842
    9018:	6f505f54 	svcvs	0x00505f54
    901c:	36282073 			; <UNDEFINED> instruction: 0x36282073
    9020:	49002955 	stmdbmi	r0, {r0, r2, r4, r6, r8, fp, sp}
    9024:	3436544e 	ldrtcc	r5, [r6], #-1102	; 0xfffffbb2
    9028:	4e494d5f 	mcrmi	13, 2, r4, cr9, cr15, {2}
    902c:	5f2d2820 	svcpl	0x002d2820
    9030:	544e495f 	strbpl	r4, [lr], #-2399	; 0xfffff6a1
    9034:	4d5f3436 	cfldrdmi	mvd3, [pc, #-216]	; 8f64 <_Min_Stack_Size+0x8b64>
    9038:	5f5f5841 	svcpl	0x005f5841
    903c:	31202d20 			; <UNDEFINED> instruction: 0x31202d20
    9040:	5f5f0029 	svcpl	0x005f0029
    9044:	6b636f6c 	blvs	18e4dfc <_Min_Stack_Size+0x18e49fc>
    9048:	6e6e615f 	mcrvs	1, 3, r6, cr14, cr15, {2}
    904c:	7461746f 	strbtvc	r7, [r1], #-1135	; 0xfffffb91
    9050:	29782865 	ldmdbcs	r8!, {r0, r2, r5, r6, fp, sp}^
    9054:	4c5f0020 	mrrcmi	0, 2, r0, pc, cr0	; <UNPREDICTABLE>
    9058:	5f455449 	svcpl	0x00455449
    905c:	54495845 	strbpl	r5, [r9], #-2117	; 0xfffff7bb
    9060:	49003120 	stmdbmi	r0, {r5, r8, ip, sp}
    9064:	535f4332 	cmppl	pc, #-939524096	; 0xc8000000
    9068:	535f3152 	cmppl	pc, #-2147483628	; 0x80000014
    906c:	6f505f42 	svcvs	0x00505f42
    9070:	30282073 	eorcc	r2, r8, r3, ror r0
    9074:	5f002955 	svcpl	0x00002955
    9078:	4f54415f 	svcmi	0x0054415f
    907c:	5f43494d 	svcpl	0x0043494d
    9080:	414c4552 	cmpmi	ip, r2, asr r5
    9084:	20444558 	subcs	r4, r4, r8, asr r5
    9088:	415f0030 	cmpmi	pc, r0, lsr r0	; <UNPREDICTABLE>
    908c:	49525454 	ldmdbmi	r2, {r2, r4, r6, sl, ip, lr}^
    9090:	45545542 	ldrbmi	r5, [r4, #-1346]	; 0xfffffabe
    9094:	74746128 	ldrbtvc	r6, [r4], #-296	; 0xfffffed8
    9098:	20297372 	eorcs	r7, r9, r2, ror r3
    909c:	74615f5f 	strbtvc	r5, [r1], #-3935	; 0xfffff0a1
    90a0:	62697274 	rsbvs	r7, r9, #116, 4	; 0x40000007
    90a4:	5f657475 	svcpl	0x00657475
    90a8:	6128205f 	qsubvs	r2, pc, r8	; <UNPREDICTABLE>
    90ac:	73727474 	cmnvc	r2, #116, 8	; 0x74000000
    90b0:	5f5f0029 	svcpl	0x005f0029
    90b4:	5f4d5241 	svcpl	0x004d5241
    90b8:	54414546 	strbpl	r4, [r1], #-1350	; 0xfffffaba
    90bc:	5f455255 	svcpl	0x00455255
    90c0:	52504f43 	subspl	r4, r0, #268	; 0x10c
    90c4:	5f00434f 	svcpl	0x0000434f
    90c8:	5341465f 	movtpl	r4, #5727	; 0x165f
    90cc:	00203854 	eoreq	r3, r0, r4, asr r8
    90d0:	4f494641 	svcmi	0x00494641
    90d4:	7079545f 	rsbsvc	r5, r9, pc, asr r4
    90d8:	66654465 	strbtvs	r4, [r5], -r5, ror #8
    90dc:	445f5f00 	ldrbmi	r5, [pc], #-3840	; 90e4 <_Min_Stack_Size+0x8ce4>
    90e0:	485f4c42 	ldmdami	pc, {r1, r6, sl, fp, lr}^	; <UNPREDICTABLE>
    90e4:	495f5341 	ldmdbmi	pc, {r0, r6, r8, r9, ip, lr}^	; <UNPREDICTABLE>
    90e8:	4e49464e 	cdpmi	6, 4, cr4, cr9, cr14, {2}
    90ec:	5f595449 	svcpl	0x00595449
    90f0:	0031205f 	eorseq	r2, r1, pc, asr r0
    90f4:	49535f5f 	ldmdbmi	r3, {r0, r1, r2, r3, r4, r6, r8, r9, sl, fp, ip, lr}^
    90f8:	54415f47 	strbpl	r5, [r1], #-3911	; 0xfffff0b9
    90fc:	43494d4f 	movtmi	r4, #40271	; 0x9d4f
    9100:	58414d5f 	stmdapl	r1, {r0, r1, r2, r3, r4, r6, r8, sl, fp, lr}^
    9104:	30205f5f 	eorcc	r5, r0, pc, asr pc
    9108:	66663778 			; <UNDEFINED> instruction: 0x66663778
    910c:	66666666 	strbtvs	r6, [r6], -r6, ror #12
    9110:	525f0066 	subspl	r0, pc, #102	; 0x66
    9114:	34444e41 	strbcc	r4, [r4], #-3649	; 0xfffff1bf
    9118:	554d5f38 	strbpl	r5, [sp, #-3896]	; 0xfffff0c8
    911c:	305f544c 	subscc	r5, pc, ip, asr #8
    9120:	78302820 	ldmdavc	r0!, {r5, fp, sp}
    9124:	64363665 	ldrtvs	r3, [r6], #-1637	; 0xfffff99b
    9128:	32490029 	subcc	r0, r9, #41	; 0x29
    912c:	52535f43 	subspl	r5, r3, #268	; 0x10c
    9130:	45505f31 	ldrbmi	r5, [r0, #-3889]	; 0xfffff0cf
    9134:	52524543 	subspl	r4, r2, #281018368	; 0x10c00000
    9138:	6b734d5f 	blvs	1cdc6bc <_Min_Stack_Size+0x1cdc2bc>
    913c:	78302820 	ldmdavc	r0!, {r5, fp, sp}
    9140:	204c5531 	subcs	r5, ip, r1, lsr r5
    9144:	49203c3c 	stmdbmi	r0!, {r2, r3, r4, r5, sl, fp, ip, sp}
    9148:	535f4332 	cmppl	pc, #-939524096	; 0xc8000000
    914c:	505f3152 	subspl	r3, pc, r2, asr r1	; <UNPREDICTABLE>
    9150:	52454345 	subpl	r4, r5, #335544321	; 0x14000001
    9154:	6f505f52 	svcvs	0x00505f52
    9158:	5f002973 	svcpl	0x00002973
    915c:	4e454552 	mcrmi	5, 2, r4, cr5, cr2, {2}
    9160:	48435f54 	stmdami	r3, {r2, r4, r6, r8, r9, sl, fp, ip, lr}^
    9164:	5f4b4345 	svcpl	0x004b4345
    9168:	444e4152 	strbmi	r4, [lr], #-338	; 0xfffffeae
    916c:	76283834 			; <UNDEFINED> instruction: 0x76283834
    9170:	20297261 	eorcs	r7, r9, r1, ror #4
    9174:	4545525f 	strbmi	r5, [r5, #-607]	; 0xfffffda1
    9178:	435f544e 	cmpmi	pc, #1308622848	; 0x4e000000
    917c:	4b434548 	blmi	10da6a4 <_Min_Stack_Size+0x10da2a4>
    9180:	72617628 	rsbvc	r7, r1, #40, 12	; 0x2800000
    9184:	725f202c 	subsvc	r2, pc, #44	; 0x2c
    9188:	202c3834 	eorcs	r3, ip, r4, lsr r8
    918c:	75727473 	ldrbvc	r7, [r2, #-1139]!	; 0xfffffb8d
    9190:	5f207463 	svcpl	0x00207463
    9194:	646e6172 	strbtvs	r6, [lr], #-370	; 0xfffffe8e
    9198:	2a203834 	bcs	817270 <_Min_Stack_Size+0x816e70>
    919c:	6973202c 	ldmdbvs	r3!, {r2, r3, r5, sp}^
    91a0:	666f657a 			; <UNDEFINED> instruction: 0x666f657a
    91a4:	28282a20 	stmdacs	r8!, {r5, r9, fp, sp}
    91a8:	29726176 	ldmdbcs	r2!, {r1, r2, r4, r5, r6, r8, sp, lr}^
    91ac:	725f3e2d 	subsvc	r3, pc, #720	; 0x2d0
    91b0:	2c293834 	stccs	8, cr3, [r9], #-208	; 0xffffff30
    91b4:	45525f20 	ldrbmi	r5, [r2, #-3872]	; 0xfffff0e0
    91b8:	5f544e45 	svcpl	0x00544e45
    91bc:	54494e49 	strbpl	r4, [r9], #-3657	; 0xfffff1b7
    91c0:	4e41525f 	mcrmi	2, 2, r5, cr1, cr15, {2}
    91c4:	28383444 	ldmdacs	r8!, {r2, r6, sl, ip, sp}
    91c8:	72617628 	rsbvc	r7, r1, #40, 12	; 0x2800000
    91cc:	00292929 	eoreq	r2, r9, r9, lsr #18
    91d0:	5445525f 	strbpl	r5, [r5], #-607	; 0xfffffda1
    91d4:	45475241 	strbmi	r5, [r7, #-577]	; 0xfffffdbf
    91d8:	4c424154 	stfmie	f4, [r2], {84}	; 0x54
    91dc:	4f4c5f45 	svcmi	0x004c5f45
    91e0:	4e494b43 	vmlsmi.f64	d20, d9, d3
    91e4:	00312047 	eorseq	r2, r1, r7, asr #32
    91e8:	49545845 	ldmdbmi	r4, {r0, r2, r6, fp, ip, lr}^
    91ec:	52495f33 	subpl	r5, r9, #51, 30	; 0xcc
    91f0:	6e614851 	mcrvs	8, 3, r4, cr1, cr1, {2}
    91f4:	72656c64 	rsbvc	r6, r5, #100, 24	; 0x6400
    91f8:	54584500 	ldrbpl	r4, [r8], #-1280	; 0xfffffb00
    91fc:	495f3749 	ldmdbmi	pc, {r0, r3, r6, r8, r9, sl, ip, sp}^	; <UNPREDICTABLE>
    9200:	32205152 	eorcc	r5, r0, #-2147483628	; 0x80000014
    9204:	5f5f0033 	svcpl	0x005f0033
    9208:	676e6172 			; <UNDEFINED> instruction: 0x676e6172
    920c:	28666f65 	stmdacs	r6!, {r0, r2, r5, r6, r8, r9, sl, fp, sp, lr}^
    9210:	65707974 	ldrbvs	r7, [r0, #-2420]!	; 0xfffff68c
    9214:	6174732c 	cmnvs	r4, ip, lsr #6
    9218:	652c7472 	strvs	r7, [ip, #-1138]!	; 0xfffffb8e
    921c:	2029646e 	eorcs	r6, r9, lr, ror #8
    9220:	6f5f5f28 	svcvs	0x005f5f28
    9224:	65736666 	ldrbvs	r6, [r3, #-1638]!	; 0xfffff99a
    9228:	28666f74 	stmdacs	r6!, {r2, r4, r5, r6, r8, r9, sl, fp, sp, lr}^
    922c:	65707974 	ldrbvs	r7, [r0, #-2420]!	; 0xfffff68c
    9230:	6e65202c 	cdpvs	0, 6, cr2, cr5, cr12, {1}
    9234:	2d202964 			; <UNDEFINED> instruction: 0x2d202964
    9238:	6f5f5f20 	svcvs	0x005f5f20
    923c:	65736666 	ldrbvs	r6, [r3, #-1638]!	; 0xfffff99a
    9240:	28666f74 	stmdacs	r6!, {r2, r4, r5, r6, r8, r9, sl, fp, sp, lr}^
    9244:	65707974 	ldrbvs	r7, [r0, #-2420]!	; 0xfffff68c
    9248:	7473202c 	ldrbtvc	r2, [r3], #-44	; 0xffffffd4
    924c:	29747261 	ldmdbcs	r4!, {r0, r5, r6, r9, ip, sp, lr}^
    9250:	58450029 	stmdapl	r5, {r0, r3, r5}^
    9254:	50314954 	eorspl	r4, r1, r4, asr r9
    9258:	28203144 	stmdacs	r0!, {r2, r6, r8, ip, sp}
    925c:	49545845 	ldmdbmi	r4, {r0, r2, r6, fp, ip, lr}^
    9260:	4950475f 	ldmdbmi	r0, {r0, r1, r2, r3, r4, r6, r8, r9, sl, lr}^
    9264:	614d5f4f 	cmpvs	sp, pc, asr #30
    9268:	6e697070 	mcrvs	0, 3, r7, cr9, cr0, {3}
    926c:	29745f67 	ldmdbcs	r4!, {r0, r1, r2, r5, r6, r8, r9, sl, fp, ip, lr}^
    9270:	5458457b 	ldrbpl	r4, [r8], #-1403	; 0xfffffa85
    9274:	2c203149 	stfcss	f3, [r0], #-292	; 0xfffffedc
    9278:	49504720 	ldmdbmi	r0, {r5, r8, r9, sl, lr}^
    927c:	2c20444f 	cfstrscs	mvf4, [r0], #-316	; 0xfffffec4
    9280:	49504720 	ldmdbmi	r0, {r5, r8, r9, sl, lr}^
    9284:	49505f4f 	ldmdbmi	r0, {r0, r1, r2, r3, r6, r8, r9, sl, fp, ip, lr}^
    9288:	20315f4e 	eorscs	r5, r1, lr, asr #30
    928c:	5845202c 	stmdapl	r5, {r2, r3, r5, sp}^
    9290:	5f314954 	svcpl	0x00314954
    9294:	7d515249 	lfmvc	f5, 2, [r1, #-292]	; 0xfffffedc
    9298:	554e5f00 	strbpl	r5, [lr, #-3840]	; 0xfffff100
    929c:	30204c4c 	eorcc	r4, r0, ip, asr #24
    92a0:	555f5f00 	ldrbpl	r5, [pc, #-3840]	; 83a8 <_Min_Stack_Size+0x7fa8>
    92a4:	5f534553 	svcpl	0x00534553
    92a8:	54494e49 	strbpl	r4, [r9], #-3657	; 0xfffff1b7
    92ac:	494e4946 	stmdbmi	lr, {r1, r2, r6, r8, fp, lr}^
    92b0:	31205f5f 			; <UNDEFINED> instruction: 0x31205f5f
    92b4:	4e495500 	cdpmi	5, 4, cr5, cr9, cr0, {0}
    92b8:	435f3854 	cmpmi	pc, #84, 16	; 0x540000
    92bc:	20297828 	eorcs	r7, r9, r8, lsr #16
    92c0:	49555f5f 	ldmdbmi	r5, {r0, r1, r2, r3, r4, r6, r8, r9, sl, fp, ip, lr}^
    92c4:	5f38544e 	svcpl	0x0038544e
    92c8:	29782843 	ldmdbcs	r8!, {r0, r1, r6, fp, sp}^
    92cc:	43324900 	teqmi	r2, #0, 18
    92d0:	3152535f 	cmpcc	r2, pc, asr r3
    92d4:	4e58525f 	mrcmi	2, 2, r5, cr8, cr15, {2}
    92d8:	32492045 	subcc	r2, r9, #69	; 0x45
    92dc:	52535f43 	subspl	r5, r3, #268	; 0x10c
    92e0:	58525f31 	ldmdapl	r2, {r0, r4, r5, r8, r9, sl, fp, ip, lr}^
    92e4:	4d5f454e 	cfldr64mi	mvdx4, [pc, #-312]	; 91b4 <_Min_Stack_Size+0x8db4>
    92e8:	5f006b73 	svcpl	0x00006b73
    92ec:	65656e5f 	strbvs	r6, [r5, #-3679]!	; 0xfffff1a1
    92f0:	74705f64 	ldrbtvc	r5, [r0], #-3940	; 0xfffff09c
    92f4:	66696472 			; <UNDEFINED> instruction: 0x66696472
    92f8:	00745f66 	rsbseq	r5, r4, r6, ror #30
    92fc:	5f495445 	svcpl	0x00495445
    9300:	75706e49 	ldrbvc	r6, [r0, #-3657]!	; 0xfffff1b7
    9304:	6e694c74 	mcrvs	12, 3, r4, cr9, cr4, {3}
    9308:	6d754e65 	ldclvs	14, cr4, [r5, #-404]!	; 0xfffffe6c
    930c:	00726562 	rsbseq	r6, r2, r2, ror #10
    9310:	42445f5f 	submi	r5, r4, #380	; 0x17c
    9314:	45445f4c 	strbmi	r5, [r4, #-3916]	; 0xfffff0b4
    9318:	414d4943 	cmpmi	sp, r3, asr #18
    931c:	49445f4c 	stmdbmi	r4, {r2, r3, r6, r8, r9, sl, fp, ip, lr}^
    9320:	205f5f47 	subscs	r5, pc, r7, asr #30
    9324:	5f003731 	svcpl	0x00003731
    9328:	4d52415f 	ldfmie	f4, [r2, #-380]	; 0xfffffe84
    932c:	4145465f 	cmpmi	r5, pc, asr r6
    9330:	45525554 	ldrbmi	r5, [r2, #-1364]	; 0xfffffaac
    9334:	5441535f 	strbpl	r5, [r1], #-863	; 0xfffffca1
    9338:	5f003120 	svcpl	0x00003120
    933c:	7661685f 			; <UNDEFINED> instruction: 0x7661685f
    9340:	6f6c5f65 	svcvs	0x006c5f65
    9344:	3233676e 	eorscc	r6, r3, #28835840	; 0x1b80000
    9348:	49003120 	stmdbmi	r0, {r5, r8, ip, sp}
    934c:	4c5f544e 	cfldrdmi	mvd5, [pc], {78}	; 0x4e
    9350:	54534145 	ldrbpl	r4, [r3], #-325	; 0xfffffebb
    9354:	494d5f38 	stmdbmi	sp, {r3, r4, r5, r8, r9, sl, fp, ip, lr}^
    9358:	2d28204e 	stccs	0, cr2, [r8, #-312]!	; 0xfffffec8
    935c:	4e495f5f 	mcrmi	15, 2, r5, cr9, cr15, {2}
    9360:	454c5f54 	strbmi	r5, [ip, #-3924]	; 0xfffff0ac
    9364:	38545341 	ldmdacc	r4, {r0, r6, r8, r9, ip, lr}^
    9368:	58414d5f 	stmdapl	r1, {r0, r1, r2, r3, r4, r6, r8, sl, fp, lr}^
    936c:	2d205f5f 	stccs	15, cr5, [r0, #-380]!	; 0xfffffe84
    9370:	00293120 	eoreq	r3, r9, r0, lsr #2
    9374:	5f433249 	svcpl	0x00433249
    9378:	5f315243 	svcpl	0x00315243
    937c:	45504e45 	ldrbmi	r4, [r0, #-3653]	; 0xfffff1bb
    9380:	32492043 	subcc	r2, r9, #67	; 0x43
    9384:	52435f43 	subpl	r5, r3, #268	; 0x10c
    9388:	4e455f31 	mcrmi	15, 2, r5, cr5, cr1, {1}
    938c:	5f434550 	svcpl	0x00434550
    9390:	006b734d 	rsbeq	r7, fp, sp, asr #6
    9394:	4c555f5f 	mrrcmi	15, 5, r5, r5, cr15	; <UNPREDICTABLE>
    9398:	55434341 	strbpl	r4, [r3, #-833]	; 0xfffffcbf
    939c:	42465f4d 	submi	r5, r6, #308	; 0x134
    93a0:	5f5f5449 	svcpl	0x005f5449
    93a4:	00323320 	eorseq	r3, r2, r0, lsr #6
    93a8:	6c665f5f 	stclvs	15, cr5, [r6], #-380	; 0xfffffe84
    93ac:	72617865 	rsbvc	r7, r1, #6619136	; 0x650000
    93b0:	305b2072 	subscc	r2, fp, r2, ror r0
    93b4:	3249005d 	subcc	r0, r9, #93	; 0x5d
    93b8:	52535f43 	subspl	r5, r3, #268	; 0x10c
    93bc:	4d535f32 	ldclmi	15, cr5, [r3, #-200]	; 0xffffff38
    93c0:	46454442 	strbmi	r4, [r5], -r2, asr #8
    93c4:	544c5541 	strbpl	r5, [ip], #-1345	; 0xfffffabf
    93c8:	43324920 	teqmi	r2, #32, 18	; 0x80000
    93cc:	3252535f 	subscc	r5, r2, #2080374785	; 0x7c000001
    93d0:	424d535f 	submi	r5, sp, #2080374785	; 0x7c000001
    93d4:	41464544 	cmpmi	r6, r4, asr #10
    93d8:	5f544c55 	svcpl	0x00544c55
    93dc:	006b734d 	rsbeq	r7, fp, sp, asr #6
    93e0:	544e4955 	strbpl	r4, [lr], #-2389	; 0xfffff6ab
    93e4:	435f3436 	cmpmi	pc, #905969664	; 0x36000000
    93e8:	20297828 	eorcs	r7, r9, r8, lsr #16
    93ec:	49555f5f 	ldmdbmi	r5, {r0, r1, r2, r3, r4, r6, r8, r9, sl, fp, ip, lr}^
    93f0:	3436544e 	ldrtcc	r5, [r6], #-1102	; 0xfffffbb2
    93f4:	7828435f 	stmdavc	r8!, {r0, r1, r2, r3, r4, r6, r8, r9, lr}
    93f8:	5f5f0029 	svcpl	0x005f0029
    93fc:	31544e49 	cmpcc	r4, r9, asr #28
    9400:	414d5f36 	cmpmi	sp, r6, lsr pc
    9404:	205f5f58 	subscs	r5, pc, r8, asr pc	; <UNPREDICTABLE>
    9408:	66377830 			; <UNDEFINED> instruction: 0x66377830
    940c:	5f006666 	svcpl	0x00006666
    9410:	5359535f 	cmppl	r9, #2080374785	; 0x7c000001
    9414:	4e4f435f 	mcrmi	3, 2, r4, cr15, cr15, {2}
    9418:	5f474946 	svcpl	0x00474946
    941c:	205f5f48 	subscs	r5, pc, r8, asr #30
    9420:	475f5f00 	ldrbmi	r5, [pc, -r0, lsl #30]
    9424:	415f4343 	cmpmi	pc, r3, asr #6
    9428:	494d4f54 	stmdbmi	sp, {r2, r4, r6, r8, r9, sl, fp, lr}^
    942c:	48435f43 	stmdami	r3, {r0, r1, r6, r8, r9, sl, fp, ip, lr}^
    9430:	4c5f5241 	lfmmi	f5, 2, [pc], {65}	; 0x41
    9434:	5f4b434f 	svcpl	0x004b434f
    9438:	45455246 	strbmi	r5, [r5, #-582]	; 0xfffffdba
    943c:	49003220 	stmdbmi	r0, {r5, r9, ip, sp}
    9440:	535f4332 	cmppl	pc, #-939524096	; 0xc8000000
    9444:	415f3152 	cmpmi	pc, r2, asr r1	; <UNPREDICTABLE>
    9448:	5f4f4c52 	svcpl	0x004f4c52
    944c:	20736f50 	rsbscs	r6, r3, r0, asr pc
    9450:	29553928 	ldmdbcs	r5, {r3, r5, r8, fp, ip, sp}^
    9454:	445f5f00 	ldrbmi	r5, [pc], #-3840	; 945c <_Min_Stack_Size+0x905c>
    9458:	4c4f5645 	mcrrmi	6, 4, r5, pc, cr5
    945c:	4c495441 	cfstrdmi	mvd5, [r9], {65}	; 0x41
    9460:	79742845 	ldmdbvc	r4!, {r0, r2, r6, fp, sp}^
    9464:	762c6570 			; <UNDEFINED> instruction: 0x762c6570
    9468:	20297261 	eorcs	r7, r9, r1, ror #4
    946c:	79742828 	ldmdbvc	r4!, {r3, r5, fp, sp}^
    9470:	28296570 	stmdacs	r9!, {r4, r5, r6, r8, sl, sp, lr}
    9474:	69755f5f 	ldmdbvs	r5!, {r0, r1, r2, r3, r4, r6, r8, r9, sl, fp, ip, lr}^
    9478:	7470746e 	ldrbtvc	r7, [r0], #-1134	; 0xfffffb92
    947c:	29745f72 	ldmdbcs	r4!, {r1, r4, r5, r6, r8, r9, sl, fp, ip, lr}^
    9480:	6c6f7628 	stclvs	6, cr7, [pc], #-160	; 93e8 <_Min_Stack_Size+0x8fe8>
    9484:	6c697461 	cfstrdvs	mvd7, [r9], #-388	; 0xfffffe7c
    9488:	6f762065 	svcvs	0x00762065
    948c:	2a206469 	bcs	822638 <_Min_Stack_Size+0x822238>
    9490:	61762829 	cmnvs	r6, r9, lsr #16
    9494:	00292972 	eoreq	r2, r9, r2, ror r9
    9498:	4f495047 	svcmi	0x00495047
    949c:	4e49505f 	mcrmi	0, 2, r5, cr9, cr15, {2}
    94a0:	2035315f 	eorscs	r3, r5, pc, asr r1
    94a4:	69752828 	ldmdbvs	r5!, {r3, r5, fp, sp}^
    94a8:	3631746e 	ldrtcc	r7, [r1], -lr, ror #8
    94ac:	3029745f 	eorcc	r7, r9, pc, asr r4
    94b0:	30303878 	eorscc	r3, r0, r8, ror r8
    94b4:	5f002930 	svcpl	0x00002930
    94b8:	5053535f 	subspl	r5, r3, pc, asr r3
    94bc:	524f465f 	subpl	r4, pc, #99614720	; 0x5f00000
    94c0:	59464954 	stmdbpl	r6, {r2, r4, r6, r8, fp, lr}^
    94c4:	56454c5f 			; <UNDEFINED> instruction: 0x56454c5f
    94c8:	30204c45 	eorcc	r4, r0, r5, asr #24
    94cc:	475f5f00 	ldrbmi	r5, [pc, -r0, lsl #30]
    94d0:	4c43554e 	cfstr64mi	mvdx5, [r3], {78}	; 0x4e
    94d4:	5f454b49 	svcpl	0x00454b49
    94d8:	4c495542 	cfstr64mi	mvdx5, [r9], {66}	; 0x42
    94dc:	5f4e4954 	svcpl	0x004e4954
    94e0:	41445453 	cmpmi	r4, r3, asr r4
    94e4:	31204752 			; <UNDEFINED> instruction: 0x31204752
    94e8:	43324900 	teqmi	r2, #0, 18
    94ec:	3152435f 	cmpcc	r2, pc, asr r3
    94f0:	534f505f 	movtpl	r5, #61535	; 0xf05f
    94f4:	6b734d5f 	blvs	1cdca78 <_Min_Stack_Size+0x1cdc678>
    94f8:	78302820 	ldmdavc	r0!, {r5, fp, sp}
    94fc:	204c5531 	subcs	r5, ip, r1, lsr r5
    9500:	49203c3c 	stmdbmi	r0!, {r2, r3, r4, r5, sl, fp, ip, sp}
    9504:	435f4332 	cmpmi	pc, #-939524096	; 0xc8000000
    9508:	505f3152 	subspl	r3, pc, r2, asr r1	; <UNPREDICTABLE>
    950c:	505f534f 	subspl	r5, pc, pc, asr #6
    9510:	0029736f 	eoreq	r7, r9, pc, ror #6
    9514:	53585f5f 	cmppl	r8, #380	; 0x17c
    9518:	49565f49 	ldmdbmi	r6, {r0, r3, r6, r8, r9, sl, fp, ip, lr}^
    951c:	4c424953 	mcrrmi	9, 5, r4, r2, cr3	; <UNPREDICTABLE>
    9520:	00302045 	eorseq	r2, r0, r5, asr #32
    9524:	4f494641 	svcmi	0x00494641
    9528:	5458455f 	ldrbpl	r4, [r8], #-1375	; 0xfffffaa1
    952c:	5f524349 	svcpl	0x00524349
    9530:	65646e69 	strbvs	r6, [r4, #-3689]!	; 0xfffff197
    9534:	32490078 	subcc	r0, r9, #120	; 0x78
    9538:	52435f43 	subpl	r5, r3, #268	; 0x10c
    953c:	52465f32 	subpl	r5, r6, #50, 30	; 0xc8
    9540:	4d5f5145 	ldfmie	f5, [pc, #-276]	; 9434 <_Min_Stack_Size+0x9034>
    9544:	28206b73 	stmdacs	r0!, {r0, r1, r4, r5, r6, r8, r9, fp, sp, lr}
    9548:	46337830 			; <UNDEFINED> instruction: 0x46337830
    954c:	3c204c55 	stccc	12, cr4, [r0], #-340	; 0xfffffeac
    9550:	3249203c 	subcc	r2, r9, #60	; 0x3c
    9554:	52435f43 	subpl	r5, r3, #268	; 0x10c
    9558:	52465f32 	subpl	r5, r6, #50, 30	; 0xc8
    955c:	505f5145 	subspl	r5, pc, r5, asr #2
    9560:	0029736f 	eoreq	r7, r9, pc, ror #6
    9564:	52525342 	subspl	r5, r2, #134217729	; 0x8000001
    9568:	45525f00 	ldrbmi	r5, [r2, #-3840]	; 0xfffff100
    956c:	5f544e45 	svcpl	0x00544e45
    9570:	54494e49 	strbpl	r4, [r9], #-3657	; 0xfffff1b7
    9574:	5345525f 	movtpl	r5, #21087	; 0x525f
    9578:	45565245 	ldrbmi	r5, [r6, #-581]	; 0xfffffdbb
    957c:	20325f44 	eorscs	r5, r2, r4, asr #30
    9580:	465f5f00 	ldrbmi	r5, [pc], -r0, lsl #30
    9584:	33545341 	cmpcc	r4, #67108865	; 0x4000001
    9588:	53002032 	movwpl	r2, #50	; 0x32
    958c:	5f324950 	svcpl	0x00324950
    9590:	45534142 	ldrbmi	r4, [r3, #-322]	; 0xfffffebe
    9594:	65502820 	ldrbvs	r2, [r0, #-2080]	; 0xfffff7e0
    9598:	68706972 	ldmdavs	r0!, {r1, r4, r5, r6, r8, fp, sp, lr}^
    959c:	6c617265 	sfmvs	f7, 2, [r1], #-404	; 0xfffffe6c
    95a0:	41425f73 	hvcmi	9715	; 0x25f3
    95a4:	2b204553 	blcs	81aaf8 <_Min_Stack_Size+0x81a6f8>
    95a8:	30783020 	rsbscc	r3, r8, r0, lsr #32
    95ac:	33303030 	teqcc	r0, #48	; 0x30
    95b0:	55303038 	ldrpl	r3, [r0, #-56]!	; 0xffffffc8
    95b4:	5f00294c 	svcpl	0x0000294c
    95b8:	4749535f 	smlsldmi	r5, r9, pc, r3	; <UNPREDICTABLE>
    95bc:	4f54415f 	svcmi	0x0054415f
    95c0:	5f43494d 	svcpl	0x0043494d
    95c4:	54444957 	strbpl	r4, [r4], #-2391	; 0xfffff6a9
    95c8:	205f5f48 	subscs	r5, pc, r8, asr #30
    95cc:	5f003233 	svcpl	0x00003233
    95d0:	544c465f 	strbpl	r4, [ip], #-1631	; 0xfffff9a1
    95d4:	455f3436 	ldrbmi	r3, [pc, #-1078]	; 91a6 <_Min_Stack_Size+0x8da6>
    95d8:	4c495350 	mcrrmi	3, 5, r5, r9, cr0
    95dc:	5f5f4e4f 	svcpl	0x005f4e4f
    95e0:	322e3220 	eorcc	r3, lr, #32, 4
    95e4:	34343032 	ldrtcc	r3, [r4], #-50	; 0xffffffce
    95e8:	39343036 	ldmdbcc	r4!, {r1, r2, r4, r5, ip, sp}
    95ec:	33303532 	teqcc	r0, #209715200	; 0xc800000
    95f0:	65313331 	ldrvs	r3, [r1, #-817]!	; 0xfffffccf
    95f4:	4636312d 	ldrtmi	r3, [r6], -sp, lsr #2
    95f8:	4e003436 	cfmvdhrmi	mvd0, r3
    95fc:	5f434956 	svcpl	0x00434956
    9600:	33515249 	cmpcc	r1, #-1879048188	; 0x90000004
    9604:	53555f37 	cmppl	r5, #55, 30	; 0xdc
    9608:	31545241 	cmpcc	r4, r1, asr #4
    960c:	7369445f 	cmnvc	r9, #1593835520	; 0x5f000000
    9610:	656c6261 	strbvs	r6, [ip, #-609]!	; 0xfffffd9f
    9614:	564e2820 	strbpl	r2, [lr], -r0, lsr #16
    9618:	495f4349 	ldmdbmi	pc, {r0, r3, r6, r8, r9, lr}^	; <UNPREDICTABLE>
    961c:	31524543 	cmpcc	r2, r3, asr #10
    9620:	203d7c20 	eorscs	r7, sp, r0, lsr #24
    9624:	283c3c31 	ldmdacs	ip!, {r0, r4, r5, sl, fp, ip, sp}
    9628:	41535520 	cmpmi	r3, r0, lsr #10
    962c:	5f315452 	svcpl	0x00315452
    9630:	2d515249 	lfmcs	f5, 2, [r1, #-292]	; 0xfffffedc
    9634:	20323320 	eorscs	r3, r2, r0, lsr #6
    9638:	47002929 	strmi	r2, [r0, -r9, lsr #18]
    963c:	424f4950 	submi	r4, pc, #80, 18	; 0x140000
    9640:	5341425f 	movtpl	r4, #4703	; 0x125f
    9644:	50282045 	eorpl	r2, r8, r5, asr #32
    9648:	70697265 	rsbvc	r7, r9, r5, ror #4
    964c:	61726568 	cmnvs	r2, r8, ror #10
    9650:	425f736c 	subsmi	r7, pc, #108, 6	; 0xb0000001
    9654:	20455341 	subcs	r5, r5, r1, asr #6
    9658:	7830202b 	ldmdavc	r0!, {r0, r1, r3, r5, sp}
    965c:	31303030 	teqcc	r0, r0, lsr r0
    9660:	30304330 	eorscc	r4, r0, r0, lsr r3
    9664:	00294c55 	eoreq	r4, r9, r5, asr ip
    9668:	49545845 	ldmdbmi	r4, {r0, r2, r6, fp, ip, lr}^
    966c:	52495f30 	subpl	r5, r9, #48, 30	; 0xc0
    9670:	6e614851 	mcrvs	8, 3, r4, cr1, cr1, {2}
    9674:	72656c64 	rsbvc	r6, r5, #100, 24	; 0x6400
    9678:	555f5f00 	ldrbpl	r5, [pc, #-3840]	; 8780 <_Min_Stack_Size+0x8380>
    967c:	495f4154 	ldmdbmi	pc, {r2, r4, r6, r8, lr}^	; <UNPREDICTABLE>
    9680:	5f544942 	svcpl	0x00544942
    9684:	3436205f 	ldrtcc	r2, [r6], #-95	; 0xffffffa1
    9688:	555f5f00 	ldrbpl	r5, [pc, #-3840]	; 8790 <_Min_Stack_Size+0x8390>
    968c:	43414c4c 	movtmi	r4, #7244	; 0x1c4c
    9690:	5f4d5543 	svcpl	0x004d5543
    9694:	54494249 	strbpl	r4, [r9], #-585	; 0xfffffdb7
    9698:	33205f5f 			; <UNDEFINED> instruction: 0x33205f5f
    969c:	32490032 	subcc	r0, r9, #50	; 0x32
    96a0:	52535f43 	subspl	r5, r3, #268	; 0x10c
    96a4:	46415f31 			; <UNDEFINED> instruction: 0x46415f31
    96a8:	43324920 	teqmi	r2, #32, 18	; 0x80000
    96ac:	3152535f 	cmpcc	r2, pc, asr r3
    96b0:	5f46415f 	svcpl	0x0046415f
    96b4:	006b734d 	rsbeq	r7, fp, sp, asr #6
    96b8:	52415f5f 	subpl	r5, r1, #380	; 0x17c
    96bc:	45465f4d 	strbmi	r5, [r6, #-3917]	; 0xfffff0b3
    96c0:	52555441 	subspl	r5, r5, #1090519040	; 0x41000000
    96c4:	52435f45 	subpl	r5, r3, #276	; 0x114
    96c8:	00323343 	eorseq	r3, r2, r3, asr #6
    96cc:	74735f5f 	ldrbtvc	r5, [r3], #-3935	; 0xfffff0a1
    96d0:	676e6f72 			; <UNDEFINED> instruction: 0x676e6f72
    96d4:	6665725f 			; <UNDEFINED> instruction: 0x6665725f
    96d8:	6e657265 	cdpvs	2, 6, cr7, cr5, cr5, {3}
    96dc:	73286563 			; <UNDEFINED> instruction: 0x73286563
    96e0:	612c6d79 			; <UNDEFINED> instruction: 0x612c6d79
    96e4:	7361696c 	cmnvc	r1, #108, 18	; 0x1b0000
    96e8:	296d7973 	stmdbcs	sp!, {r0, r1, r4, r5, r6, r8, fp, ip, sp, lr}^
    96ec:	74786520 	ldrbtvc	r6, [r8], #-1312	; 0xfffffae0
    96f0:	206e7265 	rsbcs	r7, lr, r5, ror #4
    96f4:	79745f5f 	ldmdbvc	r4!, {r0, r1, r2, r3, r4, r6, r8, r9, sl, fp, ip, lr}^
    96f8:	666f6570 			; <UNDEFINED> instruction: 0x666f6570
    96fc:	79732820 	ldmdbvc	r3!, {r5, fp, sp}^
    9700:	6120296d 			; <UNDEFINED> instruction: 0x6120296d
    9704:	7361696c 	cmnvc	r1, #108, 18	; 0x1b0000
    9708:	206d7973 	rsbcs	r7, sp, r3, ror r9
    970c:	74615f5f 	strbtvc	r5, [r1], #-3935	; 0xfffff0a1
    9710:	62697274 	rsbvs	r7, r9, #116, 4	; 0x40000007
    9714:	5f657475 	svcpl	0x00657475
    9718:	2828205f 	stmdacs	r8!, {r0, r1, r2, r3, r4, r6, sp}
    971c:	6c615f5f 	stclvs	15, cr5, [r1], #-380	; 0xfffffe84
    9720:	5f736169 	svcpl	0x00736169
    9724:	2328205f 			; <UNDEFINED> instruction: 0x2328205f
    9728:	296d7973 	stmdbcs	sp!, {r0, r1, r4, r5, r6, r8, fp, ip, sp, lr}^
    972c:	47002929 	strmi	r2, [r0, -r9, lsr #18]
    9730:	5f4f4950 	svcpl	0x004f4950
    9734:	65707954 	ldrbvs	r7, [r0, #-2388]!	; 0xfffff6ac
    9738:	00666544 	rsbeq	r6, r6, r4, asr #10
    973c:	4c555f5f 	mrrcmi	15, 5, r5, r5, cr15	; <UNPREDICTABLE>
    9740:	4152464c 	cmpmi	r2, ip, asr #12
    9744:	455f5443 	ldrbmi	r5, [pc, #-1091]	; 9309 <_Min_Stack_Size+0x8f09>
    9748:	4c495350 	mcrrmi	3, 5, r5, r9, cr0
    974c:	5f5f4e4f 	svcpl	0x005f4e4f
    9750:	31783020 	cmncc	r8, r0, lsr #32
    9754:	34362d50 	ldrtcc	r2, [r6], #-3408	; 0xfffff2b0
    9758:	524c4c55 	subpl	r4, ip, #21760	; 0x5500
    975c:	755f5f00 	ldrbvc	r5, [pc, #-3840]	; 8864 <_Min_Stack_Size+0x8464>
    9760:	6165726e 	cmnvs	r5, lr, ror #4
    9764:	62616863 	rsbvs	r6, r1, #6488064	; 0x630000
    9768:	2928656c 	stmdbcs	r8!, {r2, r3, r5, r6, r8, sl, sp, lr}
    976c:	625f5f20 	subsvs	r5, pc, #32, 30	; 0x80
    9770:	746c6975 	strbtvc	r6, [ip], #-2421	; 0xfffff68b
    9774:	755f6e69 	ldrbvc	r6, [pc, #-3689]	; 8913 <_Min_Stack_Size+0x8513>
    9778:	6165726e 	cmnvs	r5, lr, ror #4
    977c:	62616863 	rsbvs	r6, r1, #6488064	; 0x630000
    9780:	2928656c 	stmdbcs	r8!, {r2, r3, r5, r6, r8, sl, sp, lr}
    9784:	535f5f00 	cmppl	pc, #0, 30
    9788:	4f455a49 	svcmi	0x00455a49
    978c:	49575f46 	ldmdbmi	r7, {r1, r2, r6, r8, r9, sl, fp, ip, lr}^
    9790:	545f544e 	ldrbpl	r5, [pc], #-1102	; 9798 <_Min_Stack_Size+0x9398>
    9794:	34205f5f 	strtcc	r5, [r0], #-3935	; 0xfffff0a1
    9798:	43324900 	teqmi	r2, #0, 18
    979c:	3152535f 	cmpcc	r2, pc, asr r3
    97a0:	4444415f 	strbmi	r4, [r4], #-351	; 0xfffffea1
    97a4:	32492052 	subcc	r2, r9, #82	; 0x52
    97a8:	52535f43 	subspl	r5, r3, #268	; 0x10c
    97ac:	44415f31 	strbmi	r5, [r1], #-3889	; 0xfffff0cf
    97b0:	4d5f5244 	lfmmi	f5, 2, [pc, #-272]	; 96a8 <_Min_Stack_Size+0x92a8>
    97b4:	5f006b73 	svcpl	0x00006b73
    97b8:	4d52415f 	ldfmie	f4, [r2, #-380]	; 0xfffffe84
    97bc:	4145465f 	cmpmi	r5, pc, asr r6
    97c0:	45525554 	ldrbmi	r5, [r2, #-1364]	; 0xfffffaac
    97c4:	414e555f 	cmpmi	lr, pc, asr r5
    97c8:	4e47494c 	vmlsmi.f16	s9, s14, s24	; <UNPREDICTABLE>
    97cc:	31204445 			; <UNDEFINED> instruction: 0x31204445
    97d0:	535f5f00 	cmppl	pc, #0, 30
    97d4:	5f434454 	svcpl	0x00434454
    97d8:	0031205f 	eorseq	r2, r1, pc, asr r0
    97dc:	444c5f5f 	strbmi	r5, [ip], #-3935	; 0xfffff0a1
    97e0:	445f4c42 	ldrbmi	r4, [pc], #-3138	; 97e8 <_Min_Stack_Size+0x93e8>
    97e4:	4d494345 	stclmi	3, cr4, [r9, #-276]	; 0xfffffeec
    97e8:	445f4c41 	ldrbmi	r4, [pc], #-3137	; 97f0 <_Min_Stack_Size+0x93f0>
    97ec:	5f5f4749 	svcpl	0x005f4749
    97f0:	00373120 	eorseq	r3, r7, r0, lsr #2
    97f4:	4e475f5f 	mcrmi	15, 2, r5, cr7, cr15, {2}
    97f8:	494c4355 	stmdbmi	ip, {r0, r2, r4, r6, r8, r9, lr}^
    97fc:	415f454b 	cmpmi	pc, fp, asr #10
    9800:	33204d53 			; <UNDEFINED> instruction: 0x33204d53
    9804:	4c5f5f00 	mrrcmi	15, 0, r5, pc, cr0	; <UNPREDICTABLE>
    9808:	55434341 	strbpl	r4, [r3, #-833]	; 0xfffffcbf
    980c:	494d5f4d 	stmdbmi	sp, {r0, r2, r3, r6, r8, r9, sl, fp, ip, lr}^
    9810:	205f5f4e 	subscs	r5, pc, lr, asr #30
    9814:	58302d28 	ldmdapl	r0!, {r3, r5, r8, sl, fp, sp}
    9818:	31335031 	teqcc	r3, r1, lsr r0
    981c:	302d4b4c 	eorcc	r4, sp, ip, asr #22
    9820:	33503158 	cmpcc	r0, #88, 2
    9824:	294b4c31 	stmdbcs	fp, {r0, r4, r5, sl, fp, lr}^
    9828:	495f5f00 	ldmdbmi	pc, {r8, r9, sl, fp, ip, lr}^	; <UNPREDICTABLE>
    982c:	465f544e 	ldrbmi	r5, [pc], -lr, asr #8
    9830:	38545341 	ldmdacc	r4, {r0, r6, r8, r9, ip, lr}^
    9834:	58414d5f 	stmdapl	r1, {r0, r1, r2, r3, r4, r6, r8, sl, fp, lr}^
    9838:	30205f5f 	eorcc	r5, r0, pc, asr pc
    983c:	66663778 			; <UNDEFINED> instruction: 0x66663778
    9840:	66666666 	strbtvs	r6, [r6], -r6, ror #12
    9844:	5f5f0066 	svcpl	0x005f0066
    9848:	33544c46 	cmpcc	r4, #17920	; 0x4600
    984c:	41485f32 	cmpmi	r8, r2, lsr pc
    9850:	45445f53 	strbmi	r5, [r4, #-3923]	; 0xfffff0ad
    9854:	4d524f4e 	ldclmi	15, cr4, [r2, #-312]	; 0xfffffec8
    9858:	31205f5f 			; <UNDEFINED> instruction: 0x31205f5f
    985c:	735f5f00 	cmpvc	pc, #0, 30
    9860:	666e6163 	strbtvs	r6, [lr], -r3, ror #2
    9864:	656b696c 	strbvs	r6, [fp, #-2412]!	; 0xfffff694
    9868:	746d6628 	strbtvc	r6, [sp], #-1576	; 0xfffff9d8
    986c:	2c677261 	sfmcs	f7, 2, [r7], #-388	; 0xfffffe7c
    9870:	73726966 	cmnvc	r2, #1671168	; 0x198000
    9874:	72617674 	rsbvc	r7, r1, #116, 12	; 0x7400000
    9878:	29677261 	stmdbcs	r7!, {r0, r5, r6, r9, ip, sp, lr}^
    987c:	615f5f20 	cmpvs	pc, r0, lsr #30
    9880:	69727474 	ldmdbvs	r2!, {r2, r4, r5, r6, sl, ip, sp, lr}^
    9884:	65747562 	ldrbvs	r7, [r4, #-1378]!	; 0xfffffa9e
    9888:	28285f5f 	stmdacs	r8!, {r0, r1, r2, r3, r4, r6, r8, r9, sl, fp, ip, lr}
    988c:	6f665f5f 	svcvs	0x00665f5f
    9890:	74616d72 	strbtvc	r6, [r1], #-3442	; 0xfffff28e
    9894:	28205f5f 	stmdacs	r0!, {r0, r1, r2, r3, r4, r6, r8, r9, sl, fp, ip, lr}
    9898:	63735f5f 	cmnvs	r3, #380	; 0x17c
    989c:	5f666e61 	svcpl	0x00666e61
    98a0:	66202c5f 			; <UNDEFINED> instruction: 0x66202c5f
    98a4:	7261746d 	rsbvc	r7, r1, #1828716544	; 0x6d000000
    98a8:	66202c67 	strtvs	r2, [r0], -r7, ror #24
    98ac:	74737269 	ldrbtvc	r7, [r3], #-617	; 0xfffffd97
    98b0:	61726176 	cmnvs	r2, r6, ror r1
    98b4:	29296772 	stmdbcs	r9!, {r1, r4, r5, r6, r8, r9, sl, sp, lr}
    98b8:	50470029 	subpl	r0, r7, r9, lsr #32
    98bc:	20454f49 	subcs	r4, r5, r9, asr #30
    98c0:	50472828 	subpl	r2, r7, r8, lsr #16
    98c4:	545f4f49 	ldrbpl	r4, [pc], #-3913	; 98cc <_Min_Stack_Size+0x94cc>
    98c8:	44657079 	strbtmi	r7, [r5], #-121	; 0xffffff87
    98cc:	2a206665 	bcs	823268 <_Min_Stack_Size+0x822e68>
    98d0:	49504729 	ldmdbmi	r0, {r0, r3, r5, r8, r9, sl, lr}^
    98d4:	425f454f 	subsmi	r4, pc, #331350016	; 0x13c00000
    98d8:	29455341 	stmdbcs	r5, {r0, r6, r8, r9, ip, lr}^
    98dc:	45525f00 	ldrbmi	r5, [r2, #-3840]	; 0xfffff100
    98e0:	5f544e45 	svcpl	0x00544e45
    98e4:	4c414d53 	mcrrmi	13, 5, r4, r1, cr3
    98e8:	4700204c 	strmi	r2, [r0, -ip, asr #32]
    98ec:	5f4f4950 	svcpl	0x004f4950
    98f0:	45444f4d 	strbmi	r4, [r4, #-3917]	; 0xfffff0b3
    98f4:	54554f5f 	ldrbpl	r4, [r5], #-3935	; 0xfffff0a1
    98f8:	5f545550 	svcpl	0x00545550
    98fc:	505f4641 	subspl	r4, pc, r1, asr #12
    9900:	78302050 	ldmdavc	r0!, {r4, r6, sp}
    9904:	30303030 	eorscc	r3, r0, r0, lsr r0
    9908:	36303030 			; <UNDEFINED> instruction: 0x36303030
    990c:	5f5f0075 	svcpl	0x005f0075
    9910:	414c4c55 	cmpmi	ip, r5, asr ip
    9914:	4d554343 	ldclmi	3, cr4, [r5, #-268]	; 0xfffffef4
    9918:	4e494d5f 	mcrmi	13, 2, r4, cr9, cr15, {2}
    991c:	30205f5f 	eorcc	r5, r0, pc, asr pc
    9920:	4c55302e 	mrrcmi	0, 2, r3, r5, cr14
    9924:	5f004b4c 	svcpl	0x00004b4c
    9928:	5f535953 	svcpl	0x00535953
    992c:	5059545f 	subspl	r5, r9, pc, asr r4
    9930:	485f5345 	ldmdami	pc, {r0, r2, r6, r8, r9, ip, lr}^	; <UNPREDICTABLE>
    9934:	415f0020 	cmpmi	pc, r0, lsr #32
    9938:	49584554 	ldmdbmi	r8, {r2, r4, r6, r8, sl, lr}^
    993c:	4e495f54 	mcrmi	15, 2, r5, cr9, cr4, {2}
    9940:	7b205449 	blvc	81ea6c <_Min_Stack_Size+0x81e66c>
    9944:	4c554e5f 	mrrcmi	14, 5, r4, r5, cr15
    9948:	30202c4c 	eorcc	r2, r0, ip, asr #24
    994c:	5f7b202c 	svcpl	0x007b202c
    9950:	4c4c554e 	cfstr64mi	mvdx5, [ip], {78}	; 0x4e
    9954:	5f202c7d 	svcpl	0x00202c7d
    9958:	4c4c554e 	cfstr64mi	mvdx5, [ip], {78}	; 0x4e
    995c:	5f5f007d 	svcpl	0x005f007d
    9960:	746e695f 	strbtvc	r6, [lr], #-2399	; 0xfffff6a1
    9964:	6863775f 	stmdavs	r3!, {r0, r1, r2, r3, r4, r6, r8, r9, sl, ip, sp, lr}^
    9968:	745f7261 	ldrbvc	r7, [pc], #-609	; 9970 <_Min_Stack_Size+0x9570>
    996c:	0020685f 	eoreq	r6, r0, pc, asr r8
    9970:	4f495047 	svcmi	0x00495047
    9974:	4e49505f 	mcrmi	0, 2, r5, cr9, cr15, {2}
    9978:	2820345f 	stmdacs	r0!, {r0, r1, r2, r3, r4, r6, sl, ip, sp}
    997c:	6e697528 	cdpvs	5, 6, cr7, cr9, cr8, {1}
    9980:	5f363174 	svcpl	0x00363174
    9984:	78302974 	ldmdavc	r0!, {r2, r4, r5, r6, r8, fp, sp}
    9988:	30313030 	eorscc	r3, r1, r0, lsr r0
    998c:	50470029 	subpl	r0, r7, r9, lsr #32
    9990:	505f4f49 	subspl	r4, pc, r9, asr #30
    9994:	365f4e49 	ldrbcc	r4, [pc], -r9, asr #28
    9998:	75282820 	strvc	r2, [r8, #-2080]!	; 0xfffff7e0
    999c:	31746e69 	cmncc	r4, r9, ror #28
    99a0:	29745f36 	ldmdbcs	r4!, {r1, r2, r4, r5, r8, r9, sl, fp, ip, lr}^
    99a4:	30307830 	eorscc	r7, r0, r0, lsr r8
    99a8:	00293034 	eoreq	r3, r9, r4, lsr r0
    99ac:	4545525f 	strbmi	r5, [r5, #-607]	; 0xfffffda1
    99b0:	435f544e 	cmpmi	pc, #1308622848	; 0x4e000000
    99b4:	55425456 	strbpl	r5, [r2, #-1110]	; 0xfffffbaa
    99b8:	705f2846 	subsvc	r2, pc, r6, asr #16
    99bc:	20297274 	eorcs	r7, r9, r4, ror r2
    99c0:	705f2828 	subsvc	r2, pc, r8, lsr #16
    99c4:	2d297274 	sfmcs	f7, 4, [r9, #-464]!	; 0xfffffe30
    99c8:	76635f3e 	uqasxvc	r5, r3, lr
    99cc:	66756274 			; <UNDEFINED> instruction: 0x66756274
    99d0:	56450029 	strbpl	r0, [r5], -r9, lsr #32
    99d4:	5f005243 	svcpl	0x00005243
    99d8:	4c57454e 	cfldr64mi	mvdx4, [r7], {78}	; 0x4e
    99dc:	415f4249 	cmpmi	pc, r9, asr #4
    99e0:	434f4c4c 	movtmi	r4, #64588	; 0xfc4c
    99e4:	20485f41 	subcs	r5, r8, r1, asr #30
    99e8:	495f5f00 	ldmdbmi	pc, {r8, r9, sl, fp, ip, lr}^	; <UNPREDICTABLE>
    99ec:	3233544e 	eorscc	r5, r3, #1308622848	; 0x4e000000
    99f0:	226c2220 	rsbcs	r2, ip, #32, 4
    99f4:	415f5f00 	cmpmi	pc, r0, lsl #30
    99f8:	415f4d52 	cmpmi	pc, r2, asr sp	; <UNPREDICTABLE>
    99fc:	535f4d53 	cmppl	pc, #5312	; 0x14c0
    9a00:	41544e59 	cmpmi	r4, r9, asr lr
    9a04:	4e555f58 	mrcmi	15, 2, r5, cr5, cr8, {2}
    9a08:	45494649 	strbmi	r4, [r9, #-1609]	; 0xfffff9b7
    9a0c:	205f5f44 	subscs	r5, pc, r4, asr #30
    9a10:	564e0031 			; <UNDEFINED> instruction: 0x564e0031
    9a14:	495f4349 	ldmdbmi	pc, {r0, r3, r6, r8, r9, lr}^	; <UNPREDICTABLE>
    9a18:	32335152 	eorscc	r5, r3, #-2147483628	; 0x80000014
    9a1c:	4332495f 	teqmi	r2, #1556480	; 0x17c000
    9a20:	52455f31 	subpl	r5, r5, #49, 30	; 0xc4
    9a24:	7369445f 	cmnvc	r9, #1593835520	; 0x5f000000
    9a28:	656c6261 	strbvs	r6, [ip, #-609]!	; 0xfffffd9f
    9a2c:	564e2820 	strbpl	r2, [lr], -r0, lsr #16
    9a30:	495f4349 	ldmdbmi	pc, {r0, r3, r6, r8, r9, lr}^	; <UNPREDICTABLE>
    9a34:	31524543 	cmpcc	r2, r3, asr #10
    9a38:	203d7c20 	eorscs	r7, sp, r0, lsr #24
    9a3c:	283c3c31 	ldmdacs	ip!, {r0, r4, r5, sl, fp, ip, sp}
    9a40:	43324920 	teqmi	r2, #32, 18	; 0x80000
    9a44:	52455f31 	subpl	r5, r5, #49, 30	; 0xc4
    9a48:	5152495f 	cmppl	r2, pc, asr r9
    9a4c:	33202d20 			; <UNDEFINED> instruction: 0x33202d20
    9a50:	29292032 	stmdbcs	r9!, {r1, r4, r5, sp}
    9a54:	49504700 	ldmdbmi	r0, {r8, r9, sl, lr}^
    9a58:	49505f4f 	ldmdbmi	r0, {r0, r1, r2, r3, r6, r8, r9, sl, fp, ip, lr}^
    9a5c:	6c415f4e 	mcrrvs	15, 4, r5, r1, cr14
    9a60:	2828206c 	stmdacs	r8!, {r2, r3, r5, r6, sp}
    9a64:	746e6975 	strbtvc	r6, [lr], #-2421	; 0xfffff68b
    9a68:	745f3631 	ldrbvc	r3, [pc], #-1585	; 9a70 <_Min_Stack_Size+0x9670>
    9a6c:	46783029 	ldrbtmi	r3, [r8], -r9, lsr #32
    9a70:	29464646 	stmdbcs	r6, {r1, r2, r6, r9, sl, lr}^
    9a74:	72747300 	rsbsvc	r7, r4, #0, 6
    9a78:	66646f74 	uqsub16vs	r6, r4, r4
    9a7c:	72747320 	rsbsvc	r7, r4, #32, 6	; 0x80000000
    9a80:	00666f74 	rsbeq	r6, r6, r4, ror pc
    9a84:	5f433249 	svcpl	0x00433249
    9a88:	5f325253 	svcpl	0x00325253
    9a8c:	59535542 	ldmdbpl	r3, {r1, r6, r8, sl, ip, lr}^
    9a90:	6b734d5f 	blvs	1cdd014 <_Min_Stack_Size+0x1cdcc14>
    9a94:	78302820 	ldmdavc	r0!, {r5, fp, sp}
    9a98:	204c5531 	subcs	r5, ip, r1, lsr r5
    9a9c:	49203c3c 	stmdbmi	r0!, {r2, r3, r4, r5, sl, fp, ip, sp}
    9aa0:	535f4332 	cmppl	pc, #-939524096	; 0xc8000000
    9aa4:	425f3252 	subsmi	r3, pc, #536870917	; 0x20000005
    9aa8:	5f595355 	svcpl	0x00595355
    9aac:	29736f50 	ldmdbcs	r3!, {r4, r6, r8, r9, sl, fp, sp, lr}^
    9ab0:	555f5f00 	ldrbpl	r5, [pc, #-3840]	; 8bb8 <_Min_Stack_Size+0x87b8>
    9ab4:	33544e49 	cmpcc	r4, #1168	; 0x490
    9ab8:	59545f32 	ldmdbpl	r4, {r1, r4, r5, r8, r9, sl, fp, ip, lr}^
    9abc:	5f5f4550 	svcpl	0x005f4550
    9ac0:	6e6f6c20 	cdpvs	12, 6, cr6, cr15, cr0, {1}
    9ac4:	6e752067 	cdpvs	0, 7, cr2, cr5, cr7, {3}
    9ac8:	6e676973 			; <UNDEFINED> instruction: 0x6e676973
    9acc:	69206465 	stmdbvs	r0!, {r0, r2, r5, r6, sl, sp, lr}
    9ad0:	5f00746e 	svcpl	0x0000746e
    9ad4:	4d52415f 	ldfmie	f4, [r2, #-380]	; 0xfffffe84
    9ad8:	4145465f 	cmpmi	r5, pc, asr r6
    9adc:	45525554 	ldrbmi	r5, [r2, #-1364]	; 0xfffffaac
    9ae0:	544f445f 	strbpl	r4, [pc], #-1119	; 9ae8 <_Min_Stack_Size+0x96e8>
    9ae4:	444f5250 	strbmi	r5, [pc], #-592	; 9aec <_Min_Stack_Size+0x96ec>
    9ae8:	745f5f00 	ldrbvc	r5, [pc], #-3840	; 9af0 <_Min_Stack_Size+0x96f0>
    9aec:	626d7568 	rsbvs	r7, sp, #104, 10	; 0x1a000000
    9af0:	205f5f32 	subscs	r5, pc, r2, lsr pc	; <UNPREDICTABLE>
    9af4:	49550031 	ldmdbmi	r5, {r0, r4, r5}^
    9af8:	3631544e 	ldrtcc	r5, [r1], -lr, asr #8
    9afc:	58414d5f 	stmdapl	r1, {r0, r1, r2, r3, r4, r6, r8, sl, fp, lr}^
    9b00:	5f5f2820 	svcpl	0x005f2820
    9b04:	544e4955 	strbpl	r4, [lr], #-2389	; 0xfffff6ab
    9b08:	4d5f3631 	ldclmi	6, cr3, [pc, #-196]	; 9a4c <_Min_Stack_Size+0x964c>
    9b0c:	5f5f5841 	svcpl	0x005f5841
    9b10:	445f0029 	ldrbmi	r0, [pc], #-41	; 9b18 <_Min_Stack_Size+0x9718>
    9b14:	55414645 	strbpl	r4, [r1, #-1605]	; 0xfffff9bb
    9b18:	535f544c 	cmppl	pc, #76, 8	; 0x4c000000
    9b1c:	4352554f 	cmpmi	r2, #331350016	; 0x13c00000
    9b20:	5f5f0045 	svcpl	0x005f0045
    9b24:	5f434347 	svcpl	0x00434347
    9b28:	45564148 	ldrbmi	r4, [r6, #-328]	; 0xfffffeb8
    9b2c:	4e59535f 	mrcmi	3, 2, r5, cr9, cr15, {2}
    9b30:	4f435f43 	svcmi	0x00435f43
    9b34:	5241504d 	subpl	r5, r1, #77	; 0x4d
    9b38:	4e415f45 	cdpmi	15, 4, cr5, cr1, cr5, {2}
    9b3c:	57535f44 	ldrbpl	r5, [r3, -r4, asr #30]
    9b40:	325f5041 	subscc	r5, pc, #65	; 0x41
    9b44:	73003120 	movwvc	r3, #288	; 0x120
    9b48:	74726f68 	ldrbtvc	r6, [r2], #-3944	; 0xfffff098
    9b4c:	00312b20 	eorseq	r2, r1, r0, lsr #22
    9b50:	4343475f 	movtmi	r4, #14175	; 0x375f
    9b54:	5a49535f 	bpl	125e8d8 <_Min_Stack_Size+0x125e4d8>
    9b58:	20545f45 	subscs	r5, r4, r5, asr #30
    9b5c:	54584500 	ldrbpl	r4, [r8], #-1280	; 0xfffffb00
    9b60:	5f353149 	svcpl	0x00353149
    9b64:	495f3031 	ldmdbmi	pc, {r0, r4, r5, ip, sp}^	; <UNPREDICTABLE>
    9b68:	61485152 	cmpvs	r8, r2, asr r1
    9b6c:	656c646e 	strbvs	r6, [ip, #-1134]!	; 0xfffffb92
    9b70:	5f5f0072 	svcpl	0x005f0072
    9b74:	535f4343 	cmppl	pc, #201326593	; 0xc000001
    9b78:	4f505055 	svcmi	0x00505055
    9b7c:	5f535452 	svcpl	0x00535452
    9b80:	4e524157 	mrcmi	1, 2, r4, cr2, cr7, {2}
    9b84:	20474e49 	subcs	r4, r7, r9, asr #28
    9b88:	5f5f0031 	svcpl	0x005f0031
    9b8c:	544e4957 	strbpl	r4, [lr], #-2391	; 0xfffff6a9
    9b90:	4449575f 	strbmi	r5, [r9], #-1887	; 0xfffff8a1
    9b94:	5f5f4854 	svcpl	0x005f4854
    9b98:	00323320 	eorseq	r3, r2, r0, lsr #6
    9b9c:	6f6c5f5f 	svcvs	0x006c5f5f
    9ba0:	635f6b63 	cmpvs	pc, #101376	; 0x18c00
    9ba4:	65736f6c 	ldrbvs	r6, [r3, #-3948]!	; 0xfffff094
    9ba8:	636f6c28 	cmnvs	pc, #40, 24	; 0x2800
    9bac:	5f20296b 	svcpl	0x0020296b
    9bb0:	7465725f 	strbtvc	r7, [r5], #-607	; 0xfffffda1
    9bb4:	65677261 	strbvs	r7, [r7, #-609]!	; 0xfffffd9f
    9bb8:	6f6c5f74 	svcvs	0x006c5f74
    9bbc:	635f6b63 	cmpvs	pc, #101376	; 0x18c00
    9bc0:	65736f6c 	ldrbvs	r6, [r3, #-3948]!	; 0xfffff094
    9bc4:	636f6c28 	cmnvs	pc, #40, 24	; 0x2800
    9bc8:	5300296b 	movwpl	r2, #2411	; 0x96b
    9bcc:	65747379 	ldrbvs	r7, [r4, #-889]!	; 0xfffffc87
    9bd0:	654d5f6d 	strbvs	r5, [sp, #-3949]	; 0xfffff093
    9bd4:	79726f6d 	ldmdbvc	r2!, {r0, r2, r3, r5, r6, r8, r9, sl, fp, sp, lr}^
    9bd8:	5341425f 	movtpl	r4, #4703	; 0x125f
    9bdc:	78302045 	ldmdavc	r0!, {r0, r2, r6, sp}
    9be0:	46464631 			; <UNDEFINED> instruction: 0x46464631
    9be4:	30303046 	eorscc	r3, r0, r6, asr #32
    9be8:	49004c55 	stmdbmi	r0, {r0, r2, r4, r6, sl, fp, lr}
    9bec:	535f4332 	cmppl	pc, #-939524096	; 0xc8000000
    9bf0:	425f3252 	subsmi	r3, pc, #536870917	; 0x20000005
    9bf4:	5f595355 	svcpl	0x00595355
    9bf8:	20736f50 	rsbscs	r6, r3, r0, asr pc
    9bfc:	29553128 	ldmdbcs	r5, {r3, r5, r8, ip, sp}^
    9c00:	4e495f00 	cdpmi	15, 4, cr5, cr9, cr0, {0}
    9c04:	545f3854 	ldrbpl	r3, [pc], #-2132	; 9c0c <_Min_Stack_Size+0x980c>
    9c08:	4345445f 	movtmi	r4, #21599	; 0x545f
    9c0c:	4552414c 	ldrbmi	r4, [r2, #-332]	; 0xfffffeb4
    9c10:	5f002044 	svcpl	0x00002044
    9c14:	33544e49 	cmpcc	r4, #1168	; 0x490
    9c18:	5f545f32 	svcpl	0x00545f32
    9c1c:	4c434544 	cfstr64mi	mvdx4, [r3], {68}	; 0x44
    9c20:	44455241 	strbmi	r5, [r5], #-577	; 0xfffffdbf
    9c24:	5f5f0020 	svcpl	0x005f0020
    9c28:	455a4953 	ldrbmi	r4, [sl, #-2387]	; 0xfffff6ad
    9c2c:	495f464f 	ldmdbmi	pc, {r0, r1, r2, r3, r6, r9, sl, lr}^	; <UNPREDICTABLE>
    9c30:	5f5f544e 	svcpl	0x005f544e
    9c34:	5f003420 	svcpl	0x00003420
    9c38:	5f445342 	svcpl	0x00445342
    9c3c:	41484357 	cmpmi	r8, r7, asr r3
    9c40:	5f545f52 	svcpl	0x00545f52
    9c44:	49464100 	stmdbmi	r6, {r8, lr}^
    9c48:	2828204f 	stmdacs	r8!, {r0, r1, r2, r3, r6, sp}
    9c4c:	4f494641 	svcmi	0x00494641
    9c50:	7079545f 	rsbsvc	r5, r9, pc, asr r4
    9c54:	66654465 	strbtvs	r4, [r5], -r5, ror #8
    9c58:	41292a20 			; <UNDEFINED> instruction: 0x41292a20
    9c5c:	5f4f4946 	svcpl	0x004f4946
    9c60:	45534142 	ldrbmi	r4, [r3, #-322]	; 0xfffffebe
    9c64:	5f5f0029 	svcpl	0x005f0029
    9c68:	52464c4c 	subpl	r4, r6, #76, 24	; 0x4c00
    9c6c:	5f544341 	svcpl	0x00544341
    9c70:	54494249 	strbpl	r4, [r9], #-585	; 0xfffffdb7
    9c74:	30205f5f 	eorcc	r5, r0, pc, asr pc
    9c78:	435f5f00 	cmpmi	pc, #0, 30
    9c7c:	55535f43 	ldrbpl	r5, [r3, #-3907]	; 0xfffff0bd
    9c80:	524f5050 	subpl	r5, pc, #80	; 0x50
    9c84:	565f5354 			; <UNDEFINED> instruction: 0x565f5354
    9c88:	44415241 	strbmi	r5, [r1], #-577	; 0xfffffdbf
    9c8c:	585f4349 	ldmdapl	pc, {r0, r3, r6, r8, r9, lr}^	; <UNPREDICTABLE>
    9c90:	31205858 			; <UNDEFINED> instruction: 0x31205858
    9c94:	43324900 	teqmi	r2, #0, 18
    9c98:	3152435f 	cmpcc	r2, pc, asr r3
    9c9c:	474e455f 	smlsldmi	r4, lr, pc, r5	; <UNPREDICTABLE>
    9ca0:	6f505f43 	svcvs	0x00505f43
    9ca4:	36282073 			; <UNDEFINED> instruction: 0x36282073
    9ca8:	45002955 	strmi	r2, [r0, #-2389]	; 0xfffff6ab
    9cac:	31495458 	cmpcc	r9, r8, asr r4
    9cb0:	31415031 	cmpcc	r1, r1, lsr r0
    9cb4:	45282031 	strmi	r2, [r8, #-49]!	; 0xffffffcf
    9cb8:	5f495458 	svcpl	0x00495458
    9cbc:	4f495047 	svcmi	0x00495047
    9cc0:	70614d5f 	rsbvc	r4, r1, pc, asr sp
    9cc4:	676e6970 			; <UNDEFINED> instruction: 0x676e6970
    9cc8:	7b29745f 	blvc	a66e4c <_Min_Stack_Size+0xa66a4c>
    9ccc:	49545845 	ldmdbmi	r4, {r0, r2, r6, fp, ip, lr}^
    9cd0:	202c3131 	eorcs	r3, ip, r1, lsr r1
    9cd4:	4f495047 	svcmi	0x00495047
    9cd8:	202c2041 	eorcs	r2, ip, r1, asr #32
    9cdc:	4f495047 	svcmi	0x00495047
    9ce0:	4e49505f 	mcrmi	0, 2, r5, cr9, cr15, {2}
    9ce4:	2031315f 	eorscs	r3, r1, pc, asr r1
    9ce8:	5845202c 	stmdapl	r5, {r2, r3, r5, sp}^
    9cec:	31314954 	teqcc	r1, r4, asr r9
    9cf0:	5152495f 	cmppl	r2, pc, asr r9
    9cf4:	52007d20 	andpl	r7, r0, #32, 26	; 0x800
    9cf8:	495f4343 	ldmdbmi	pc, {r0, r1, r6, r8, r9, lr}^	; <UNPREDICTABLE>
    9cfc:	5f314332 	svcpl	0x00314332
    9d00:	65736552 	ldrbvs	r6, [r3, #-1362]!	; 0xfffffaae
    9d04:	20292874 	eorcs	r2, r9, r4, ror r8
    9d08:	43435228 	movtmi	r5, #12840	; 0x3228
    9d0c:	50413e2d 	subpl	r3, r1, sp, lsr #28
    9d10:	53523142 	cmppl	r2, #-2147483632	; 0x80000010
    9d14:	7c205254 	sfmvc	f5, 4, [r0], #-336	; 0xfffffeb0
    9d18:	3c31203d 	ldccc	0, cr2, [r1], #-244	; 0xffffff0c
    9d1c:	2931323c 	ldmdbcs	r1!, {r2, r3, r4, r5, r9, ip, sp}
    9d20:	49464100 	stmdbmi	r6, {r8, lr}^
    9d24:	41425f4f 	cmpmi	r2, pc, asr #30
    9d28:	28204553 	stmdacs	r0!, {r0, r1, r4, r6, r8, sl, lr}
    9d2c:	69726550 	ldmdbvs	r2!, {r4, r6, r8, sl, sp, lr}^
    9d30:	72656870 	rsbvc	r6, r5, #112, 16	; 0x700000
    9d34:	5f736c61 	svcpl	0x00736c61
    9d38:	45534142 	ldrbmi	r4, [r3, #-322]	; 0xfffffebe
    9d3c:	30202b20 	eorcc	r2, r0, r0, lsr #22
    9d40:	30303078 	eorscc	r3, r0, r8, ror r0
    9d44:	30303031 	eorscc	r3, r0, r1, lsr r0
    9d48:	294c5530 	stmdbcs	ip, {r4, r5, r8, sl, ip, lr}^
    9d4c:	535f5f00 	cmppl	pc, #0, 30
    9d50:	55434341 	strbpl	r4, [r3, #-833]	; 0xfffffcbf
    9d54:	50455f4d 	subpl	r5, r5, sp, asr #30
    9d58:	4f4c4953 	svcmi	0x004c4953
    9d5c:	205f5f4e 	subscs	r5, pc, lr, asr #30
    9d60:	50317830 	eorspl	r7, r1, r0, lsr r8
    9d64:	4b48372d 	blmi	1217a20 <_Min_Stack_Size+0x1217620>
    9d68:	475f5f00 	ldrbmi	r5, [pc, -r0, lsl #30]
    9d6c:	415f4343 	cmpmi	pc, r3, asr #6
    9d70:	465f4d53 			; <UNDEFINED> instruction: 0x465f4d53
    9d74:	5f47414c 	svcpl	0x0047414c
    9d78:	5054554f 	subspl	r5, r4, pc, asr #10
    9d7c:	5f535455 	svcpl	0x00535455
    9d80:	0031205f 	eorseq	r2, r1, pc, asr r0
    9d84:	4545525f 	strbmi	r5, [r5, #-607]	; 0xfffffda1
    9d88:	535f544e 	cmppl	pc, #1308622848	; 0x4e000000
    9d8c:	554f4454 	strbpl	r4, [pc, #-1108]	; 9940 <_Min_Stack_Size+0x9540>
    9d90:	705f2854 	subsvc	r2, pc, r4, asr r8	; <UNPREDICTABLE>
    9d94:	20297274 	eorcs	r7, r9, r4, ror r2
    9d98:	705f2828 	subsvc	r2, pc, r8, lsr #16
    9d9c:	2d297274 	sfmcs	f7, 4, [r9, #-464]!	; 0xfffffe30
    9da0:	74735f3e 	ldrbtvc	r5, [r3], #-3902	; 0xfffff0c2
    9da4:	74756f64 	ldrbtvc	r6, [r5], #-3940	; 0xfffff09c
    9da8:	5f5f0029 	svcpl	0x005f0029
    9dac:	455a4953 	ldrbmi	r4, [sl, #-2387]	; 0xfffff6ad
    9db0:	575f464f 	ldrbpl	r4, [pc, -pc, asr #12]
    9db4:	52414843 	subpl	r4, r1, #4390912	; 0x430000
    9db8:	5f5f545f 	svcpl	0x005f545f
    9dbc:	5f003420 	svcpl	0x00003420
    9dc0:	4e454552 	mcrmi	5, 2, r4, cr5, cr2, {2}
    9dc4:	48435f54 	stmdami	r3, {r2, r4, r6, r8, r9, sl, fp, ip, lr}^
    9dc8:	5f4b4345 	svcpl	0x004b4345
    9dcc:	49524556 	ldmdbmi	r2, {r1, r2, r4, r6, r8, sl, lr}^
    9dd0:	31205946 			; <UNDEFINED> instruction: 0x31205946
    9dd4:	4f505f00 	svcmi	0x00505f00
    9dd8:	5f584953 	svcpl	0x00584953
    9ddc:	52554f53 	subspl	r4, r5, #332	; 0x14c
    9de0:	31204543 			; <UNDEFINED> instruction: 0x31204543
    9de4:	43435200 	movtmi	r5, #12800	; 0x3200
    9de8:	4153555f 	cmpmi	r3, pc, asr r5
    9dec:	5f335452 	svcpl	0x00335452
    9df0:	5f4b4c43 	svcpl	0x004b4c43
    9df4:	29284e45 	stmdbcs	r8!, {r0, r2, r6, r9, sl, fp, lr}
    9df8:	52202820 	eorpl	r2, r0, #32, 16	; 0x200000
    9dfc:	3e2d4343 	cdpcc	3, 2, cr4, cr13, cr3, {2}
    9e00:	31425041 	cmpcc	r2, r1, asr #32
    9e04:	20524e45 	subscs	r4, r2, r5, asr #28
    9e08:	28203d7c 	stmdacs	r0!, {r2, r3, r4, r5, r6, r8, sl, fp, ip, sp}
    9e0c:	313c3c31 	teqcc	ip, r1, lsr ip
    9e10:	29202938 	stmdbcs	r0!, {r3, r4, r5, r8, fp, sp}
    9e14:	49504700 	ldmdbmi	r0, {r8, r9, sl, lr}^
    9e18:	4f4d5f4f 	svcmi	0x004d5f4f
    9e1c:	415f4544 	cmpmi	pc, r4, asr #10
    9e20:	4e495f46 	cdpmi	15, 4, cr5, cr9, cr6, {2}
    9e24:	20545550 	subscs	r5, r4, r0, asr r5
    9e28:	30307830 	eorscc	r7, r0, r0, lsr r8
    9e2c:	30303030 	eorscc	r3, r0, r0, lsr r0
    9e30:	00753830 	rsbseq	r3, r5, r0, lsr r8
    9e34:	49555f5f 	ldmdbmi	r5, {r0, r1, r2, r3, r4, r6, r8, r9, sl, fp, ip, lr}^
    9e38:	465f544e 	ldrbmi	r5, [pc], -lr, asr #8
    9e3c:	31545341 	cmpcc	r4, r1, asr #6
    9e40:	59545f36 	ldmdbpl	r4, {r1, r2, r4, r5, r8, r9, sl, fp, ip, lr}^
    9e44:	5f5f4550 	svcpl	0x005f4550
    9e48:	736e7520 	cmnvc	lr, #32, 10	; 0x8000000
    9e4c:	656e6769 	strbvs	r6, [lr, #-1897]!	; 0xfffff897
    9e50:	6e692064 	cdpvs	0, 6, cr2, cr9, cr4, {3}
    9e54:	32490074 	subcc	r0, r9, #116	; 0x74
    9e58:	455f3143 	ldrbmi	r3, [pc, #-323]	; 9d1d <_Min_Stack_Size+0x991d>
    9e5c:	52495f52 	subpl	r5, r9, #328	; 0x148
    9e60:	32332051 	eorscc	r2, r3, #81	; 0x51
    9e64:	45525f00 	ldrbmi	r5, [r2, #-3840]	; 0xfffff100
    9e68:	5f544e45 	svcpl	0x00544e45
    9e6c:	454c424d 	strbmi	r4, [ip, #-589]	; 0xfffffdb3
    9e70:	54535f4e 	ldrbpl	r5, [r3], #-3918	; 0xfffff0b2
    9e74:	28455441 	stmdacs	r5, {r0, r6, sl, ip, lr}^
    9e78:	29727470 	ldmdbcs	r2!, {r4, r5, r6, sl, ip, sp, lr}^
    9e7c:	70282820 	eorvc	r2, r8, r0, lsr #16
    9e80:	2d297274 	sfmcs	f7, 4, [r9, #-464]!	; 0xfffffe30
    9e84:	696d5f3e 	stmdbvs	sp!, {r1, r2, r3, r4, r5, r8, r9, sl, fp, ip, lr}^
    9e88:	3e2d6373 	mcrcc	3, 1, r6, cr13, cr3, {3}
    9e8c:	6c626d5f 	stclvs	13, cr6, [r2], #-380	; 0xfffffe84
    9e90:	735f6e65 	cmpvc	pc, #1616	; 0x650
    9e94:	65746174 	ldrbvs	r6, [r4, #-372]!	; 0xfffffe8c
    9e98:	5f5f0029 	svcpl	0x005f0029
    9e9c:	43554e47 	cmpmi	r5, #1136	; 0x470
    9ea0:	4454535f 	ldrbmi	r5, [r4], #-863	; 0xfffffca1
    9ea4:	4e495f43 	cdpmi	15, 4, cr5, cr9, cr3, {2}
    9ea8:	454e494c 	strbmi	r4, [lr, #-2380]	; 0xfffff6b4
    9eac:	31205f5f 			; <UNDEFINED> instruction: 0x31205f5f
    9eb0:	6e5f5f00 	cdpvs	15, 5, cr5, cr15, cr0, {0}
    9eb4:	5f646565 	svcpl	0x00646565
    9eb8:	746e6977 	strbtvc	r6, [lr], #-2423	; 0xfffff689
    9ebc:	0020745f 	eoreq	r7, r0, pc, asr r4
    9ec0:	43415f5f 	movtmi	r5, #8031	; 0x1f5f
    9ec4:	5f4d5543 	svcpl	0x004d5543
    9ec8:	49535045 	ldmdbmi	r3, {r0, r2, r6, ip, lr}^
    9ecc:	5f4e4f4c 	svcpl	0x004e4f4c
    9ed0:	7830205f 	ldmdavc	r0!, {r0, r1, r2, r3, r4, r6, sp}
    9ed4:	312d5031 			; <UNDEFINED> instruction: 0x312d5031
    9ed8:	5f004b35 	svcpl	0x00004b35
    9edc:	414c555f 	cmpmi	ip, pc, asr r5
    9ee0:	4d554343 	ldclmi	3, cr4, [r5, #-268]	; 0xfffffef4
    9ee4:	5350455f 	cmppl	r0, #398458880	; 0x17c00000
    9ee8:	4e4f4c49 	cdpmi	12, 4, cr4, cr15, cr9, {2}
    9eec:	30205f5f 	eorcc	r5, r0, pc, asr pc
    9ef0:	2d503178 	ldfcse	f3, [r0, #-480]	; 0xfffffe20
    9ef4:	4c553233 	lfmmi	f3, 2, [r5], {51}	; 0x33
    9ef8:	5f5f004b 	svcpl	0x005f004b
    9efc:	4c42444c 	cfstrdmi	mvd4, [r2], {76}	; 0x4c
    9f00:	4749445f 	smlsldmi	r4, r9, pc, r4	; <UNPREDICTABLE>
    9f04:	31205f5f 			; <UNDEFINED> instruction: 0x31205f5f
    9f08:	32490035 	subcc	r0, r9, #53	; 0x35
    9f0c:	52535f43 	subspl	r5, r3, #268	; 0x10c
    9f10:	55445f32 	strbpl	r5, [r4, #-3890]	; 0xfffff0ce
    9f14:	5f464c41 	svcpl	0x00464c41
    9f18:	20736f50 	rsbscs	r6, r3, r0, asr pc
    9f1c:	29553728 	ldmdbcs	r5, {r3, r5, r8, r9, sl, ip, sp}^
    9f20:	535f5f00 	cmppl	pc, #0, 30
    9f24:	5f455a49 	svcpl	0x00455a49
    9f28:	54444957 	strbpl	r4, [r4], #-2391	; 0xfffff6a9
    9f2c:	205f5f48 	subscs	r5, pc, r8, asr #30
    9f30:	5f003233 	svcpl	0x00003233
    9f34:	4e454552 	mcrmi	5, 2, r4, cr5, cr2, {2}
    9f38:	504d5f54 	subpl	r5, sp, r4, asr pc
    9f3c:	5345525f 	movtpl	r5, #21087	; 0x525f
    9f40:	28544c55 	ldmdacs	r4, {r0, r2, r4, r6, sl, fp, lr}^
    9f44:	29727470 	ldmdbcs	r2!, {r4, r5, r6, sl, ip, sp, lr}^
    9f48:	70282820 	eorvc	r2, r8, r0, lsr #16
    9f4c:	2d297274 	sfmcs	f7, 4, [r9, #-464]!	; 0xfffffe30
    9f50:	706d5f3e 	rsbvc	r5, sp, lr, lsr pc
    9f54:	725f3e2d 	subsvc	r3, pc, #720	; 0x2d0
    9f58:	6c757365 	ldclvs	3, cr7, [r5], #-404	; 0xfffffe6c
    9f5c:	49002974 	stmdbmi	r0, {r2, r4, r5, r6, r8, fp, sp}
    9f60:	435f4332 	cmpmi	pc, #-939524096	; 0xc8000000
    9f64:	415f3152 	cmpmi	pc, r2, asr r1	; <UNPREDICTABLE>
    9f68:	49204b43 	stmdbmi	r0!, {r0, r1, r6, r8, r9, fp, lr}
    9f6c:	435f4332 	cmpmi	pc, #-939524096	; 0xc8000000
    9f70:	415f3152 	cmpmi	pc, r2, asr r1	; <UNPREDICTABLE>
    9f74:	4d5f4b43 	vldrmi	d20, [pc, #-268]	; 9e70 <_Min_Stack_Size+0x9a70>
    9f78:	5f006b73 	svcpl	0x00006b73
    9f7c:	4e49575f 	mcrmi	7, 2, r5, cr9, cr15, {2}
    9f80:	494d5f54 	stmdbmi	sp, {r2, r4, r6, r8, r9, sl, fp, ip, lr}^
    9f84:	205f5f4e 	subscs	r5, pc, lr, asr #30
    9f88:	45005530 	strmi	r5, [r0, #-1328]	; 0xfffffad0
    9f8c:	31495458 	cmpcc	r9, r8, asr r4
    9f90:	20314250 	eorscs	r4, r1, r0, asr r2
    9f94:	54584528 	ldrbpl	r4, [r8], #-1320	; 0xfffffad8
    9f98:	50475f49 	subpl	r5, r7, r9, asr #30
    9f9c:	4d5f4f49 	ldclmi	15, cr4, [pc, #-292]	; 9e80 <_Min_Stack_Size+0x9a80>
    9fa0:	69707061 	ldmdbvs	r0!, {r0, r5, r6, ip, sp, lr}^
    9fa4:	745f676e 	ldrbvc	r6, [pc], #-1902	; 9fac <_Min_Stack_Size+0x9bac>
    9fa8:	58457b29 	stmdapl	r5, {r0, r3, r5, r8, r9, fp, ip, sp, lr}^
    9fac:	2c314954 			; <UNDEFINED> instruction: 0x2c314954
    9fb0:	49504720 	ldmdbmi	r0, {r5, r8, r9, sl, lr}^
    9fb4:	2c20424f 	sfmcs	f4, 4, [r0], #-316	; 0xfffffec4
    9fb8:	49504720 	ldmdbmi	r0, {r5, r8, r9, sl, lr}^
    9fbc:	49505f4f 	ldmdbmi	r0, {r0, r1, r2, r3, r6, r8, r9, sl, fp, ip, lr}^
    9fc0:	20315f4e 	eorscs	r5, r1, lr, asr #30
    9fc4:	5458452c 	ldrbpl	r4, [r8], #-1324	; 0xfffffad4
    9fc8:	495f3149 	ldmdbmi	pc, {r0, r3, r6, r8, ip, sp}^	; <UNPREDICTABLE>
    9fcc:	7d205152 	stfvcs	f5, [r0, #-328]!	; 0xfffffeb8
    9fd0:	465f5f00 	ldrbmi	r5, [pc], -r0, lsl #30
    9fd4:	3436544c 	ldrtcc	r5, [r6], #-1100	; 0xfffffbb4
    9fd8:	4749445f 	smlsldmi	r4, r9, pc, r4	; <UNPREDICTABLE>
    9fdc:	31205f5f 			; <UNDEFINED> instruction: 0x31205f5f
    9fe0:	495f0035 	ldmdbmi	pc, {r0, r2, r4, r5}^	; <UNPREDICTABLE>
    9fe4:	3233544e 	eorscc	r5, r3, #1308622848	; 0x4e000000
    9fe8:	5f51455f 	svcpl	0x0051455f
    9fec:	474e4f4c 	strbmi	r4, [lr, -ip, asr #30]
    9ff0:	58450020 	stmdapl	r5, {r5}^
    9ff4:	35314954 	ldrcc	r4, [r1, #-2388]!	; 0xfffff6ac
    9ff8:	00353120 	eorseq	r3, r5, r0, lsr #2
    9ffc:	49575f5f 	ldmdbmi	r7, {r0, r1, r2, r3, r4, r6, r8, r9, sl, fp, ip, lr}^
    a000:	4d5f544e 	cfldrdmi	mvd5, [pc, #-312]	; 9ed0 <_Min_Stack_Size+0x9ad0>
    a004:	5f5f5841 	svcpl	0x005f5841
    a008:	66783020 	ldrbtvs	r3, [r8], -r0, lsr #32
    a00c:	66666666 	strbtvs	r6, [r6], -r6, ror #12
    a010:	55666666 	strbpl	r6, [r6, #-1638]!	; 0xfffff99a
    a014:	495f5f00 	ldmdbmi	pc, {r8, r9, sl, fp, ip, lr}^	; <UNPREDICTABLE>
    a018:	4c5f544e 	cfldrdmi	mvd5, [pc], {78}	; 0x4e
    a01c:	54534145 	ldrbpl	r4, [r3], #-325	; 0xfffffebb
    a020:	49575f38 	ldmdbmi	r7, {r3, r4, r5, r8, r9, sl, fp, ip, lr}^
    a024:	5f485444 	svcpl	0x00485444
    a028:	0038205f 	eorseq	r2, r8, pc, asr r0
    a02c:	6f6c5f5f 	svcvs	0x006c5f5f
    a030:	645f676e 	ldrbvs	r6, [pc], #-1902	; a038 <_Min_Stack_Size+0x9c38>
    a034:	6c62756f 	cfstr64vs	mvdx7, [r2], #-444	; 0xfffffe44
    a038:	20745f65 	rsbscs	r5, r4, r5, ror #30
    a03c:	676e6f6c 	strbvs	r6, [lr, -ip, ror #30]!
    a040:	756f6420 	strbvc	r6, [pc, #-1056]!	; 9c28 <_Min_Stack_Size+0x9828>
    a044:	00656c62 	rsbeq	r6, r5, r2, ror #24
    a048:	4e495f5f 	mcrmi	15, 2, r5, cr9, cr15, {2}
    a04c:	454c5f54 	strbmi	r5, [ip, #-3924]	; 0xfffff0ac
    a050:	31545341 	cmpcc	r4, r1, asr #6
    a054:	59545f36 	ldmdbpl	r4, {r1, r2, r4, r5, r8, r9, sl, fp, ip, lr}^
    a058:	5f5f4550 	svcpl	0x005f4550
    a05c:	6f687320 	svcvs	0x00687320
    a060:	69207472 	stmdbvs	r0!, {r1, r4, r5, r6, sl, ip, sp, lr}
    a064:	5f00746e 	svcpl	0x0000746e
    a068:	5f51515f 	svcpl	0x0051515f
    a06c:	54494246 	strbpl	r4, [r9], #-582	; 0xfffffdba
    a070:	37205f5f 			; <UNDEFINED> instruction: 0x37205f5f
    a074:	43324900 	teqmi	r2, #0, 18
    a078:	3252535f 	subscc	r5, r2, #2080374785	; 0x7c000001
    a07c:	4345505f 	movtmi	r5, #20575	; 0x505f
    a080:	6b734d5f 	blvs	1cdd604 <_Min_Stack_Size+0x1cdd204>
    a084:	78302820 	ldmdavc	r0!, {r5, fp, sp}
    a088:	4c554646 	mrrcmi	6, 4, r4, r5, cr6
    a08c:	203c3c20 	eorscs	r3, ip, r0, lsr #24
    a090:	5f433249 	svcpl	0x00433249
    a094:	5f325253 	svcpl	0x00325253
    a098:	5f434550 	svcpl	0x00434550
    a09c:	29736f50 	ldmdbcs	r3!, {r4, r6, r8, r9, sl, fp, sp, lr}^
    a0a0:	445f5f00 	ldrbmi	r5, [pc], #-3840	; a0a8 <_Min_Stack_Size+0x9ca8>
    a0a4:	4d5f4c42 	ldclmi	12, cr4, [pc, #-264]	; 9fa4 <_Min_Stack_Size+0x9ba4>
    a0a8:	5f5f5841 	svcpl	0x005f5841
    a0ac:	64282820 	strtvs	r2, [r8], #-2080	; 0xfffff7e0
    a0b0:	6c62756f 	cfstr64vs	mvdx7, [r2], #-444	; 0xfffffe44
    a0b4:	2e312965 	vsubcs.f16	s4, s2, s11	; <UNPREDICTABLE>
    a0b8:	36373937 			; <UNDEFINED> instruction: 0x36373937
    a0bc:	33313339 	teqcc	r1, #-469762048	; 0xe4000000
    a0c0:	32363834 	eorscc	r3, r6, #52, 16	; 0x340000
    a0c4:	37353133 			; <UNDEFINED> instruction: 0x37353133
    a0c8:	30332b65 	eorscc	r2, r3, r5, ror #22
    a0cc:	00294c38 	eoreq	r4, r9, r8, lsr ip
    a0d0:	5f433249 	svcpl	0x00433249
    a0d4:	5f315243 	svcpl	0x00315243
    a0d8:	52414e45 	subpl	r4, r1, #1104	; 0x450
    a0dc:	734d5f50 	movtvc	r5, #57168	; 0xdf50
    a0e0:	3028206b 	eorcc	r2, r8, fp, rrx
    a0e4:	4c553178 	ldfmie	f3, [r5], {120}	; 0x78
    a0e8:	203c3c20 	eorscs	r3, ip, r0, lsr #24
    a0ec:	5f433249 	svcpl	0x00433249
    a0f0:	5f315243 	svcpl	0x00315243
    a0f4:	52414e45 	subpl	r4, r1, #1104	; 0x450
    a0f8:	6f505f50 	svcvs	0x00505f50
    a0fc:	5f002973 	svcpl	0x00002973
    a100:	464c4c5f 			; <UNDEFINED> instruction: 0x464c4c5f
    a104:	54434152 	strbpl	r4, [r3], #-338	; 0xfffffeae
    a108:	4942465f 	stmdbmi	r2, {r0, r1, r2, r3, r4, r6, r9, sl, lr}^
    a10c:	205f5f54 	subscs	r5, pc, r4, asr pc	; <UNPREDICTABLE>
    a110:	5f003336 	svcpl	0x00003336
    a114:	544c465f 	strbpl	r4, [ip], #-1631	; 0xfffff9a1
    a118:	485f3233 	ldmdami	pc, {r0, r1, r4, r5, r9, ip, sp}^	; <UNPREDICTABLE>
    a11c:	495f5341 	ldmdbmi	pc, {r0, r6, r8, r9, ip, lr}^	; <UNPREDICTABLE>
    a120:	4e49464e 	cdpmi	6, 4, cr4, cr9, cr14, {2}
    a124:	5f595449 	svcpl	0x00595449
    a128:	0031205f 	eorseq	r2, r1, pc, asr r0
    a12c:	4545525f 	strbmi	r5, [r5, #-607]	; 0xfffffda1
    a130:	495f544e 	ldmdbmi	pc, {r1, r2, r3, r6, sl, ip, lr}^	; <UNPREDICTABLE>
    a134:	2854494e 	ldmdacs	r4, {r1, r2, r3, r6, r8, fp, lr}^
    a138:	29726176 	ldmdbcs	r2!, {r1, r2, r4, r5, r6, r8, sp, lr}^
    a13c:	30207b20 	eorcc	r7, r0, r0, lsr #22
    a140:	5f26202c 	svcpl	0x0026202c
    a144:	5b66735f 	blpl	19a6ec8 <_Min_Stack_Size+0x19a6ac8>
    a148:	202c5d30 	eorcs	r5, ip, r0, lsr sp
    a14c:	735f5f26 	cmpvc	pc, #38, 30	; 0x98
    a150:	5d315b66 	vldmdbpl	r1!, {d5-<overflow reg d55>}
    a154:	5f26202c 	svcpl	0x0026202c
    a158:	5b66735f 	blpl	19a6edc <_Min_Stack_Size+0x19a6adc>
    a15c:	202c5d32 	eorcs	r5, ip, r2, lsr sp
    a160:	5f202c30 	svcpl	0x00202c30
    a164:	4c4c554e 	cfstr64mi	mvdx5, [ip], {78}	; 0x4e
    a168:	525f202c 	subspl	r2, pc, #44	; 0x2c
    a16c:	544e4545 	strbpl	r4, [lr], #-1349	; 0xfffffabb
    a170:	494e495f 	stmdbmi	lr, {r0, r1, r2, r3, r4, r6, r8, fp, lr}^
    a174:	45525f54 	ldrbmi	r5, [r2, #-3924]	; 0xfffff0ac
    a178:	56524553 			; <UNDEFINED> instruction: 0x56524553
    a17c:	305f4445 	subscc	r4, pc, r5, asr #8
    a180:	45525f20 	ldrbmi	r5, [r2, #-3872]	; 0xfffff0e0
    a184:	5f544e45 	svcpl	0x00544e45
    a188:	54494e49 	strbpl	r4, [r9], #-3657	; 0xfffff1b7
    a18c:	5345525f 	movtpl	r5, #21087	; 0x525f
    a190:	45565245 	ldrbmi	r5, [r6, #-581]	; 0xfffffdbb
    a194:	20315f44 	eorscs	r5, r1, r4, asr #30
    a198:	4c554e5f 	mrrcmi	14, 5, r4, r5, cr15
    a19c:	5f202c4c 	svcpl	0x00202c4c
    a1a0:	4c4c554e 	cfstr64mi	mvdx5, [ip], {78}	; 0x4e
    a1a4:	4e5f202c 	cdpmi	0, 5, cr2, cr15, cr12, {1}
    a1a8:	2c4c4c55 	mcrrcs	12, 5, r4, ip, cr5
    a1ac:	202c3020 	eorcs	r3, ip, r0, lsr #32
    a1b0:	5f202c30 	svcpl	0x00202c30
    a1b4:	4c4c554e 	cfstr64mi	mvdx5, [ip], {78}	; 0x4e
    a1b8:	4e5f202c 	cdpmi	0, 5, cr2, cr15, cr12, {1}
    a1bc:	2c4c4c55 	mcrrcs	12, 5, r4, ip, cr5
    a1c0:	554e5f20 	strbpl	r5, [lr, #-3872]	; 0xfffff0e0
    a1c4:	202c4c4c 	eorcs	r4, ip, ip, asr #24
    a1c8:	4c554e5f 	mrrcmi	14, 5, r4, r5, cr15
    a1cc:	5f202c4c 	svcpl	0x00202c4c
    a1d0:	4c4c554e 	cfstr64mi	mvdx5, [ip], {78}	; 0x4e
    a1d4:	525f202c 	subspl	r2, pc, #44	; 0x2c
    a1d8:	544e4545 	strbpl	r4, [lr], #-1349	; 0xfffffabb
    a1dc:	494e495f 	stmdbmi	lr, {r0, r1, r2, r3, r4, r6, r8, fp, lr}^
    a1e0:	45525f54 	ldrbmi	r5, [r2, #-3924]	; 0xfffff0ac
    a1e4:	56524553 			; <UNDEFINED> instruction: 0x56524553
    a1e8:	365f4445 	ldrbcc	r4, [pc], -r5, asr #8
    a1ec:	5f20375f 	svcpl	0x0020375f
    a1f0:	4e454552 	mcrmi	5, 2, r4, cr5, cr2, {2}
    a1f4:	4e495f54 	mcrmi	15, 2, r5, cr9, cr4, {2}
    a1f8:	525f5449 	subspl	r5, pc, #1224736768	; 0x49000000
    a1fc:	52455345 	subpl	r5, r5, #335544321	; 0x14000001
    a200:	5f444556 	svcpl	0x00444556
    a204:	4e5f2038 	mrcmi	0, 2, r2, cr15, cr8, {1}
    a208:	2c4c4c55 	mcrrcs	12, 5, r4, ip, cr5
    a20c:	554e5f20 	strbpl	r5, [lr, #-3872]	; 0xfffff0e0
    a210:	202c4c4c 	eorcs	r4, ip, ip, asr #24
    a214:	4c554e5f 	mrrcmi	14, 5, r4, r5, cr15
    a218:	007d204c 	rsbseq	r2, sp, ip, asr #32
    a21c:	49545845 	ldmdbmi	r4, {r0, r2, r6, fp, ip, lr}^
    a220:	43503231 	cmpmi	r0, #268435459	; 0x10000003
    a224:	28203231 	stmdacs	r0!, {r0, r4, r5, r9, ip, sp}
    a228:	49545845 	ldmdbmi	r4, {r0, r2, r6, fp, ip, lr}^
    a22c:	4950475f 	ldmdbmi	r0, {r0, r1, r2, r3, r4, r6, r8, r9, sl, lr}^
    a230:	614d5f4f 	cmpvs	sp, pc, asr #30
    a234:	6e697070 	mcrvs	0, 3, r7, cr9, cr0, {3}
    a238:	29745f67 	ldmdbcs	r4!, {r0, r1, r2, r5, r6, r8, r9, sl, fp, ip, lr}^
    a23c:	5458457b 	ldrbpl	r4, [r8], #-1403	; 0xfffffa85
    a240:	20323149 	eorscs	r3, r2, r9, asr #2
    a244:	5047202c 	subpl	r2, r7, ip, lsr #32
    a248:	20434f49 	subcs	r4, r3, r9, asr #30
    a24c:	5047202c 	subpl	r2, r7, ip, lsr #32
    a250:	505f4f49 	subspl	r4, pc, r9, asr #30
    a254:	315f4e49 	cmpcc	pc, r9, asr #28
    a258:	452c2032 	strmi	r2, [ip, #-50]!	; 0xffffffce
    a25c:	31495458 	cmpcc	r9, r8, asr r4
    a260:	52495f32 	subpl	r5, r9, #50, 30	; 0xc8
    a264:	007d2051 	rsbseq	r2, sp, r1, asr r0
    a268:	49545845 	ldmdbmi	r4, {r0, r2, r6, fp, ip, lr}^
    a26c:	34415034 	strbcc	r5, [r1], #-52	; 0xffffffcc
    a270:	58452820 	stmdapl	r5, {r5, fp, sp}^
    a274:	475f4954 			; <UNDEFINED> instruction: 0x475f4954
    a278:	5f4f4950 	svcpl	0x004f4950
    a27c:	7070614d 	rsbsvc	r6, r0, sp, asr #2
    a280:	5f676e69 	svcpl	0x00676e69
    a284:	457b2974 	ldrbmi	r2, [fp, #-2420]!	; 0xfffff68c
    a288:	34495458 	strbcc	r5, [r9], #-1112	; 0xfffffba8
    a28c:	5047202c 	subpl	r2, r7, ip, lsr #32
    a290:	20414f49 	subcs	r4, r1, r9, asr #30
    a294:	5047202c 	subpl	r2, r7, ip, lsr #32
    a298:	505f4f49 	subspl	r4, pc, r9, asr #30
    a29c:	345f4e49 	ldrbcc	r4, [pc], #-3657	; a2a4 <_Min_Stack_Size+0x9ea4>
    a2a0:	45202c20 	strmi	r2, [r0, #-3104]!	; 0xfffff3e0
    a2a4:	34495458 	strbcc	r5, [r9], #-1112	; 0xfffffba8
    a2a8:	5152495f 	cmppl	r2, pc, asr r9
    a2ac:	5f007d20 	svcpl	0x00007d20
    a2b0:	4d52415f 	ldfmie	f4, [r2, #-380]	; 0xfffffe84
    a2b4:	5f5f4c45 	svcpl	0x005f4c45
    a2b8:	5f003120 	svcpl	0x00003120
    a2bc:	4d544e49 	ldclmi	14, cr4, [r4, #-292]	; 0xfffffedc
    a2c0:	545f5841 	ldrbpl	r5, [pc], #-2113	; a2c8 <_Min_Stack_Size+0x9ec8>
    a2c4:	4345445f 	movtmi	r4, #21599	; 0x545f
    a2c8:	4552414c 	ldrbmi	r4, [r2, #-332]	; 0xfffffeb4
    a2cc:	5f002044 	svcpl	0x00002044
    a2d0:	726f665f 	rsbvc	r6, pc, #99614720	; 0x5f00000
    a2d4:	5f74616d 	svcpl	0x0074616d
    a2d8:	28677261 	stmdacs	r7!, {r0, r5, r6, r9, ip, sp, lr}^
    a2dc:	61746d66 	cmnvs	r4, r6, ror #26
    a2e0:	20296772 	eorcs	r6, r9, r2, ror r7
    a2e4:	74615f5f 	strbtvc	r5, [r1], #-3935	; 0xfffff0a1
    a2e8:	62697274 	rsbvs	r7, r9, #116, 4	; 0x40000007
    a2ec:	5f657475 	svcpl	0x00657475
    a2f0:	5f28285f 	svcpl	0x0028285f
    a2f4:	726f665f 	rsbvc	r6, pc, #99614720	; 0x5f00000
    a2f8:	5f74616d 	svcpl	0x0074616d
    a2fc:	5f677261 	svcpl	0x00677261
    a300:	6628205f 			; <UNDEFINED> instruction: 0x6628205f
    a304:	7261746d 	rsbvc	r7, r1, #1828716544	; 0x6d000000
    a308:	29292967 	stmdbcs	r9!, {r0, r1, r2, r5, r6, r8, fp, sp}
    a30c:	635f5f00 	cmpvs	pc, #0, 30
    a310:	69706d6f 	ldmdbvs	r0!, {r0, r1, r2, r3, r5, r6, r8, sl, fp, sp, lr}^
    a314:	5f72656c 	svcpl	0x0072656c
    a318:	626d656d 	rsbvs	r6, sp, #457179136	; 0x1b400000
    a31c:	29287261 	stmdbcs	r8!, {r0, r5, r6, r9, ip, sp, lr}
    a320:	615f5f20 	cmpvs	pc, r0, lsr #30
    a324:	5f206d73 	svcpl	0x00206d73
    a328:	6c6f765f 	stclvs	6, cr7, [pc], #-380	; a1b4 <_Min_Stack_Size+0x9db4>
    a32c:	6c697461 	cfstrdvs	mvd7, [r9], #-388	; 0xfffffe7c
    a330:	20222865 	eorcs	r2, r2, r5, ror #16
    a334:	203a2022 	eorscs	r2, sl, r2, lsr #32
    a338:	203a203a 	eorscs	r2, sl, sl, lsr r0
    a33c:	6d656d22 	stclvs	13, cr6, [r5, #-136]!	; 0xffffff78
    a340:	2279726f 	rsbscs	r7, r9, #-268435450	; 0xf0000006
    a344:	5f5f0029 	svcpl	0x005f0029
    a348:	465f5148 	ldrbmi	r5, [pc], -r8, asr #2
    a34c:	5f544942 	svcpl	0x00544942
    a350:	3531205f 	ldrcc	r2, [r1, #-95]!	; 0xffffffa1
    a354:	49564e00 	ldmdbmi	r6, {r9, sl, fp, lr}^
    a358:	52495f43 	subpl	r5, r9, #268	; 0x10c
    a35c:	5f343351 	svcpl	0x00343351
    a360:	32433249 	subcc	r3, r3, #-1879048188	; 0x90000004
    a364:	5f52455f 	svcpl	0x0052455f
    a368:	61736944 	cmnvs	r3, r4, asr #18
    a36c:	20656c62 	rsbcs	r6, r5, r2, ror #24
    a370:	49564e28 	ldmdbmi	r6, {r3, r5, r9, sl, fp, lr}^
    a374:	43495f43 	movtmi	r5, #40771	; 0x9f43
    a378:	20315245 	eorscs	r5, r1, r5, asr #4
    a37c:	31203d7c 			; <UNDEFINED> instruction: 0x31203d7c
    a380:	20283c3c 	eorcs	r3, r8, ip, lsr ip
    a384:	32433249 	subcc	r3, r3, #-1879048188	; 0x90000004
    a388:	5f52455f 	svcpl	0x0052455f
    a38c:	20515249 	subscs	r5, r1, r9, asr #4
    a390:	3233202d 	eorscc	r2, r3, #45	; 0x2d
    a394:	00292920 	eoreq	r2, r9, r0, lsr #18
    a398:	61645f5f 	cmnvs	r4, pc, asr pc
    a39c:	79746174 	ldmdbvc	r4!, {r2, r4, r5, r6, r8, sp, lr}^
    a3a0:	745f6570 	ldrbvc	r6, [pc], #-1392	; a3a8 <_Min_Stack_Size+0x9fa8>
    a3a4:	5f657079 	svcpl	0x00657079
    a3a8:	28676174 	stmdacs	r7!, {r2, r4, r5, r6, r8, sp, lr}^
    a3ac:	646e696b 	strbtvs	r6, [lr], #-2411	; 0xfffff695
    a3b0:	7079742c 	rsbsvc	r7, r9, ip, lsr #8
    a3b4:	00202965 	eoreq	r2, r0, r5, ror #18
    a3b8:	49535f5f 	ldmdbmi	r3, {r0, r1, r2, r3, r4, r6, r8, r9, sl, fp, ip, lr}^
    a3bc:	4d5f455a 	cfldr64mi	mvdx4, [pc, #-360]	; a25c <_Min_Stack_Size+0x9e5c>
    a3c0:	5f5f5841 	svcpl	0x005f5841
    a3c4:	66783020 	ldrbtvs	r3, [r8], -r0, lsr #32
    a3c8:	66666666 	strbtvs	r6, [r6], -r6, ror #12
    a3cc:	55666666 	strbpl	r6, [r6, #-1638]!	; 0xfffff99a
    a3d0:	43324900 	teqmi	r2, #0, 18
    a3d4:	3252435f 	subscc	r4, r2, #2080374785	; 0x7c000001
    a3d8:	4552465f 	ldrbmi	r4, [r2, #-1631]	; 0xfffff9a1
    a3dc:	32492051 	subcc	r2, r9, #81	; 0x51
    a3e0:	52435f43 	subpl	r5, r3, #268	; 0x10c
    a3e4:	52465f32 	subpl	r5, r6, #50, 30	; 0xc8
    a3e8:	4d5f5145 	ldfmie	f5, [pc, #-276]	; a2dc <_Min_Stack_Size+0x9edc>
    a3ec:	49006b73 	stmdbmi	r0, {r0, r1, r4, r5, r6, r8, r9, fp, sp, lr}
    a3f0:	5f324332 	svcpl	0x00324332
    a3f4:	45534142 	ldrbmi	r4, [r3, #-322]	; 0xfffffebe
    a3f8:	78302820 	ldmdavc	r0!, {r5, fp, sp}
    a3fc:	30303034 	eorscc	r3, r0, r4, lsr r0
    a400:	30303835 	eorscc	r3, r0, r5, lsr r8
    a404:	00294c55 	eoreq	r4, r9, r5, asr ip
    a408:	4e495f5f 	mcrmi	15, 2, r5, cr9, cr15, {2}
    a40c:	20343654 	eorscs	r3, r4, r4, asr r6
    a410:	226c6c22 	rsbcs	r6, ip, #8704	; 0x2200
    a414:	615f5f00 	cmpvs	pc, r0, lsl #30
    a418:	7961776c 	stmdbvc	r1!, {r2, r3, r5, r6, r8, r9, sl, ip, sp, lr}^
    a41c:	6e695f73 	mcrvs	15, 3, r5, cr9, cr3, {3}
    a420:	656e696c 	strbvs	r6, [lr, #-2412]!	; 0xfffff694
    a424:	695f5f20 	ldmdbvs	pc, {r5, r8, r9, sl, fp, ip, lr}^	; <UNPREDICTABLE>
    a428:	6e696c6e 	cdpvs	12, 6, cr6, cr9, cr14, {3}
    a42c:	205f5f65 	subscs	r5, pc, r5, ror #30
    a430:	74615f5f 	strbtvc	r5, [r1], #-3935	; 0xfffff0a1
    a434:	62697274 	rsbvs	r7, r9, #116, 4	; 0x40000007
    a438:	5f657475 	svcpl	0x00657475
    a43c:	5f28285f 	svcpl	0x0028285f
    a440:	776c615f 			; <UNDEFINED> instruction: 0x776c615f
    a444:	5f737961 	svcpl	0x00737961
    a448:	696c6e69 	stmdbvs	ip!, {r0, r3, r5, r6, r9, sl, fp, sp, lr}^
    a44c:	5f5f656e 	svcpl	0x005f656e
    a450:	5f002929 	svcpl	0x00002929
    a454:	4d52415f 	ldfmie	f4, [r2, #-380]	; 0xfffffe84
    a458:	4352415f 	cmpmi	r2, #-1073741801	; 0xc0000017
    a45c:	58450048 	stmdapl	r5, {r3, r6}^
    a460:	34314954 	ldrtcc	r4, [r1], #-2388	; 0xfffff6ac
    a464:	34314450 	ldrtcc	r4, [r1], #-1104	; 0xfffffbb0
    a468:	58452820 	stmdapl	r5, {r5, fp, sp}^
    a46c:	475f4954 			; <UNDEFINED> instruction: 0x475f4954
    a470:	5f4f4950 	svcpl	0x004f4950
    a474:	7070614d 	rsbsvc	r6, r0, sp, asr #2
    a478:	5f676e69 	svcpl	0x00676e69
    a47c:	457b2974 	ldrbmi	r2, [fp, #-2420]!	; 0xfffff68c
    a480:	31495458 	cmpcc	r9, r8, asr r4
    a484:	202c2034 	eorcs	r2, ip, r4, lsr r0
    a488:	4f495047 	svcmi	0x00495047
    a48c:	202c2044 	eorcs	r2, ip, r4, asr #32
    a490:	4f495047 	svcmi	0x00495047
    a494:	4e49505f 	mcrmi	0, 2, r5, cr9, cr15, {2}
    a498:	2034315f 	eorscs	r3, r4, pc, asr r1
    a49c:	5845202c 	stmdapl	r5, {r2, r3, r5, sp}^
    a4a0:	34314954 	ldrtcc	r4, [r1], #-2388	; 0xfffff6ac
    a4a4:	5152495f 	cmppl	r2, pc, asr r9
    a4a8:	4955007d 	ldmdbmi	r5, {r0, r2, r3, r4, r5, r6}^
    a4ac:	5f38544e 	svcpl	0x0038544e
    a4b0:	2058414d 	subscs	r4, r8, sp, asr #2
    a4b4:	555f5f28 	ldrbpl	r5, [pc, #-3880]	; 9594 <_Min_Stack_Size+0x9194>
    a4b8:	38544e49 	ldmdacc	r4, {r0, r3, r6, r9, sl, fp, lr}^
    a4bc:	58414d5f 	stmdapl	r1, {r0, r1, r2, r3, r4, r6, r8, sl, fp, lr}^
    a4c0:	00295f5f 	eoreq	r5, r9, pc, asr pc
    a4c4:	4f4c5f5f 	svcmi	0x004c5f5f
    a4c8:	4d5f474e 	ldclmi	7, cr4, [pc, #-312]	; a398 <_Min_Stack_Size+0x9f98>
    a4cc:	5f5f5841 	svcpl	0x005f5841
    a4d0:	37783020 	ldrbcc	r3, [r8, -r0, lsr #32]!
    a4d4:	66666666 	strbtvs	r6, [r6], -r6, ror #12
    a4d8:	4c666666 	stclmi	6, cr6, [r6], #-408	; 0xfffffe68
    a4dc:	43324900 	teqmi	r2, #0, 18
    a4e0:	3152535f 	cmpcc	r2, pc, asr r3
    a4e4:	5f46415f 	svcpl	0x0046415f
    a4e8:	20736f50 	rsbscs	r6, r3, r0, asr pc
    a4ec:	55303128 	ldrpl	r3, [r0, #-296]!	; 0xfffffed8
    a4f0:	535f0029 	cmppl	pc, #41	; 0x29
    a4f4:	435f5359 	cmpmi	pc, #1677721601	; 0x64000001
    a4f8:	53464544 	movtpl	r4, #25924	; 0x6544
    a4fc:	205f485f 	subscs	r4, pc, pc, asr r8	; <UNPREDICTABLE>
    a500:	4e495500 	cdpmi	5, 4, cr5, cr9, cr0, {0}
    a504:	41465f54 	cmpmi	r6, r4, asr pc
    a508:	5f385453 	svcpl	0x00385453
    a50c:	2058414d 	subscs	r4, r8, sp, asr #2
    a510:	555f5f28 	ldrbpl	r5, [pc, #-3880]	; 95f0 <_Min_Stack_Size+0x91f0>
    a514:	5f544e49 	svcpl	0x00544e49
    a518:	54534146 	ldrbpl	r4, [r3], #-326	; 0xfffffeba
    a51c:	414d5f38 	cmpmi	sp, r8, lsr pc
    a520:	295f5f58 	ldmdbcs	pc, {r3, r4, r6, r8, r9, sl, fp, ip, lr}^	; <UNPREDICTABLE>
    a524:	43324900 	teqmi	r2, #0, 18
    a528:	3152435f 	cmpcc	r2, pc, asr r3
    a52c:	424d535f 	submi	r5, sp, #2080374785	; 0x7c000001
    a530:	45505954 	ldrbmi	r5, [r0, #-2388]	; 0xfffff6ac
    a534:	736f505f 	cmnvc	pc, #95	; 0x5f
    a538:	55332820 	ldrpl	r2, [r3, #-2080]!	; 0xfffff7e0
    a53c:	6f6c0029 	svcvs	0x006c0029
    a540:	2b20676e 	blcs	824300 <_Min_Stack_Size+0x823f00>
    a544:	58450034 	stmdapl	r5, {r2, r4, r5}^
    a548:	20334954 	eorscs	r4, r3, r4, asr r9
    a54c:	5f5f0033 	svcpl	0x005f0033
    a550:	6e6e6f6e 	cdpvs	15, 6, cr6, cr14, cr14, {3}
    a554:	286c6c75 	stmdacs	ip!, {r0, r2, r4, r5, r6, sl, fp, sp, lr}^
    a558:	5f202978 	svcpl	0x00202978
    a55c:	7474615f 	ldrbtvc	r6, [r4], #-351	; 0xfffffea1
    a560:	75626972 	strbvc	r6, [r2, #-2418]!	; 0xfffff68e
    a564:	5f5f6574 	svcpl	0x005f6574
    a568:	5f5f2828 	svcpl	0x005f2828
    a56c:	6e6e6f6e 	cdpvs	15, 6, cr6, cr14, cr14, {3}
    a570:	5f6c6c75 	svcpl	0x006c6c75
    a574:	2978205f 	ldmdbcs	r8!, {r0, r1, r2, r3, r4, r6, sp}^
    a578:	525f0029 	subspl	r0, pc, #41	; 0x29
    a57c:	34444e41 	strbcc	r4, [r4], #-3649	; 0xfffff1bf
    a580:	44415f38 	strbmi	r5, [r1], #-3896	; 0xfffff0c8
    a584:	30282044 	eorcc	r2, r8, r4, asr #32
    a588:	30303078 	eorscc	r3, r0, r8, ror r0
    a58c:	45002962 	strmi	r2, [r0, #-2402]	; 0xfffff69e
    a590:	5f544958 	svcpl	0x00544958
    a594:	4c494146 	stfmie	f4, [r9], {70}	; 0x46
    a598:	20455255 	subcs	r5, r5, r5, asr r2
    a59c:	58450031 	stmdapl	r5, {r0, r4, r5}^
    a5a0:	5f314954 	svcpl	0x00314954
    a5a4:	20515249 	subscs	r5, r1, r9, asr #4
    a5a8:	58450037 	stmdapl	r5, {r0, r1, r2, r4, r5}^
    a5ac:	33314954 	teqcc	r1, #84, 18	; 0x150000
    a5b0:	00333120 	eorseq	r3, r3, r0, lsr #2
    a5b4:	52415f5f 	subpl	r5, r1, #380	; 0x17c
    a5b8:	45465f4d 	strbmi	r5, [r6, #-3917]	; 0xfffff0b3
    a5bc:	52555441 	subspl	r5, r5, #1090519040	; 0x41000000
    a5c0:	444c5f45 	strbmi	r5, [ip], #-3909	; 0xfffff0bb
    a5c4:	20584552 	subscs	r4, r8, r2, asr r5
    a5c8:	5f5f0037 	svcpl	0x005f0037
    a5cc:	6b636f6c 	blvs	18e6384 <_Min_Stack_Size+0x18e5f84>
    a5d0:	7163615f 	cmnvc	r3, pc, asr r1
    a5d4:	65726975 	ldrbvs	r6, [r2, #-2421]!	; 0xfffff68b
    a5d8:	6365725f 	cmnvs	r5, #-268435451	; 0xf0000005
    a5dc:	69737275 	ldmdbvs	r3!, {r0, r2, r4, r5, r6, r9, ip, sp, lr}^
    a5e0:	6c286576 	cfstr32vs	mvfx6, [r8], #-472	; 0xfffffe28
    a5e4:	296b636f 	stmdbcs	fp!, {r0, r1, r2, r3, r5, r6, r8, r9, sp, lr}^
    a5e8:	725f5f20 	subsvc	r5, pc, #32, 30	; 0x80
    a5ec:	72617465 	rsbvc	r7, r1, #1694498816	; 0x65000000
    a5f0:	5f746567 	svcpl	0x00746567
    a5f4:	6b636f6c 	blvs	18e63ac <_Min_Stack_Size+0x18e5fac>
    a5f8:	7163615f 	cmnvc	r3, pc, asr r1
    a5fc:	65726975 	ldrbvs	r6, [r2, #-2421]!	; 0xfffff68b
    a600:	6365725f 	cmnvs	r5, #-268435451	; 0xf0000005
    a604:	69737275 	ldmdbvs	r3!, {r0, r2, r4, r5, r6, r9, ip, sp, lr}^
    a608:	6c286576 	cfstr32vs	mvfx6, [r8], #-472	; 0xfffffe28
    a60c:	296b636f 	stmdbcs	fp!, {r0, r1, r2, r3, r5, r6, r8, r9, sp, lr}^
    a610:	43435200 	movtmi	r5, #12800	; 0x3200
    a614:	4332495f 	teqmi	r2, #1556480	; 0x17c000
    a618:	65525f32 	ldrbvs	r5, [r2, #-3890]	; 0xfffff0ce
    a61c:	28746573 	ldmdacs	r4!, {r0, r1, r4, r5, r6, r8, sl, sp, lr}^
    a620:	52282029 	eorpl	r2, r8, #41	; 0x29
    a624:	3e2d4343 	cdpcc	3, 2, cr4, cr13, cr3, {2}
    a628:	31425041 	cmpcc	r2, r1, asr #32
    a62c:	52545352 	subspl	r5, r4, #1207959553	; 0x48000001
    a630:	203d7c20 	eorscs	r7, sp, r0, lsr #24
    a634:	323c3c31 	eorscc	r3, ip, #12544	; 0x3100
    a638:	45002932 	strmi	r2, [r0, #-2354]	; 0xfffff6ce
    a63c:	33495458 	movtcc	r5, #37976	; 0x9458
    a640:	20334450 	eorscs	r4, r3, r0, asr r4
    a644:	54584528 	ldrbpl	r4, [r8], #-1320	; 0xfffffad8
    a648:	50475f49 	subpl	r5, r7, r9, asr #30
    a64c:	4d5f4f49 	ldclmi	15, cr4, [pc, #-292]	; a530 <_Min_Stack_Size+0xa130>
    a650:	69707061 	ldmdbvs	r0!, {r0, r5, r6, ip, sp, lr}^
    a654:	745f676e 	ldrbvc	r6, [pc], #-1902	; a65c <_Min_Stack_Size+0xa25c>
    a658:	58457b29 	stmdapl	r5, {r0, r3, r5, r8, r9, fp, ip, sp, lr}^
    a65c:	20334954 	eorscs	r4, r3, r4, asr r9
    a660:	5047202c 	subpl	r2, r7, ip, lsr #32
    a664:	20444f49 	subcs	r4, r4, r9, asr #30
    a668:	5047202c 	subpl	r2, r7, ip, lsr #32
    a66c:	505f4f49 	subspl	r4, pc, r9, asr #30
    a670:	335f4e49 	cmpcc	pc, #1168	; 0x490
    a674:	45202c20 	strmi	r2, [r0, #-3104]!	; 0xfffff3e0
    a678:	33495458 	movtcc	r5, #37976	; 0x9458
    a67c:	5152495f 	cmppl	r2, pc, asr r9
    a680:	5f5f007d 	svcpl	0x005f007d
    a684:	52464c4c 	subpl	r4, r6, #76, 24	; 0x4c00
    a688:	5f544341 	svcpl	0x00544341
    a68c:	49535045 	ldmdbmi	r3, {r0, r2, r6, ip, lr}^
    a690:	5f4e4f4c 	svcpl	0x004e4f4c
    a694:	7830205f 	ldmdavc	r0!, {r0, r1, r2, r3, r4, r6, sp}
    a698:	362d5031 			; <UNDEFINED> instruction: 0x362d5031
    a69c:	524c4c33 	subpl	r4, ip, #13056	; 0x3300
    a6a0:	415f5f00 	cmpmi	pc, r0, lsl #30
    a6a4:	465f4d52 			; <UNDEFINED> instruction: 0x465f4d52
    a6a8:	55544145 	ldrbpl	r4, [r4, #-325]	; 0xfffffebb
    a6ac:	535f4552 	cmppl	pc, #343932928	; 0x14800000
    a6b0:	33444d49 	movtcc	r4, #19785	; 0x4d49
    a6b4:	5f5f0032 	svcpl	0x005f0032
    a6b8:	33544c46 	cmpcc	r4, #17920	; 0x4600
    a6bc:	4d5f5832 	ldclmi	8, cr5, [pc, #-200]	; a5fc <_Min_Stack_Size+0xa1fc>
    a6c0:	5f544e41 	svcpl	0x00544e41
    a6c4:	5f474944 	svcpl	0x00474944
    a6c8:	3335205f 	teqcc	r5, #95	; 0x5f
    a6cc:	54584500 	ldrbpl	r4, [r8], #-1280	; 0xfffffb00
    a6d0:	38203849 	stmdacc	r0!, {r0, r3, r6, fp, ip, sp}
    a6d4:	49504700 	ldmdbmi	r0, {r8, r9, sl, lr}^
    a6d8:	49505f4f 	ldmdbmi	r0, {r0, r1, r2, r3, r6, r8, r9, sl, fp, ip, lr}^
    a6dc:	31315f4e 	teqcc	r1, lr, asr #30
    a6e0:	75282820 	strvc	r2, [r8, #-2080]!	; 0xfffff7e0
    a6e4:	31746e69 	cmncc	r4, r9, ror #28
    a6e8:	29745f36 	ldmdbcs	r4!, {r1, r2, r4, r5, r8, r9, sl, fp, ip, lr}^
    a6ec:	38307830 	ldmdacc	r0!, {r4, r5, fp, ip, sp, lr}
    a6f0:	00293030 	eoreq	r3, r9, r0, lsr r0
    a6f4:	43575f5f 	cmpmi	r7, #380	; 0x17c
    a6f8:	5f524148 	svcpl	0x00524148
    a6fc:	54444957 	strbpl	r4, [r4], #-2391	; 0xfffff6a9
    a700:	205f5f48 	subscs	r5, pc, r8, asr #30
    a704:	47003233 	smladxmi	r0, r3, r2, r3
    a708:	5f4f4950 	svcpl	0x004f4950
    a70c:	45444f4d 	strbmi	r4, [r4, #-3917]	; 0xfffff0b3
    a710:	54554f5f 	ldrbpl	r4, [r5], #-3935	; 0xfffff0a1
    a714:	5f545550 	svcpl	0x00545550
    a718:	3020444f 	eorcc	r4, r0, pc, asr #8
    a71c:	30303078 	eorscc	r3, r0, r8, ror r0
    a720:	30303030 	eorscc	r3, r0, r0, lsr r0
    a724:	49007535 	stmdbmi	r0, {r0, r2, r4, r5, r8, sl, ip, sp, lr}
    a728:	435f4332 	cmpmi	pc, #-939524096	; 0xc8000000
    a72c:	4c5f3252 	lfmmi	f3, 2, [pc], {82}	; 0x52
    a730:	5f545341 	svcpl	0x00545341
    a734:	206b734d 	rsbcs	r7, fp, sp, asr #6
    a738:	31783028 	cmncc	r8, r8, lsr #32
    a73c:	3c204c55 	stccc	12, cr4, [r0], #-340	; 0xfffffeac
    a740:	3249203c 	subcc	r2, r9, #60	; 0x3c
    a744:	52435f43 	subpl	r5, r3, #268	; 0x10c
    a748:	414c5f32 	cmpmi	ip, r2, lsr pc
    a74c:	505f5453 	subspl	r5, pc, r3, asr r4	; <UNPREDICTABLE>
    a750:	0029736f 	eoreq	r7, r9, pc, ror #6
    a754:	4e495f5f 	mcrmi	15, 2, r5, cr9, cr15, {2}
    a758:	5f363154 	svcpl	0x00363154
    a75c:	29632843 	stmdbcs	r3!, {r0, r1, r6, fp, sp}^
    a760:	49006320 	stmdbmi	r0, {r5, r8, r9, sp, lr}
    a764:	495f5456 	ldmdbmi	pc, {r1, r2, r4, r6, sl, ip, lr}^	; <UNPREDICTABLE>
    a768:	4e5f5152 	mrcmi	1, 2, r5, cr15, cr2, {2}
    a76c:	65626d75 	strbvs	r6, [r2, #-3445]!	; 0xfffff28b
    a770:	5f5f0072 	svcpl	0x005f0072
    a774:	495f4144 	ldmdbmi	pc, {r2, r6, r8, lr}^	; <UNPREDICTABLE>
    a778:	5f544942 	svcpl	0x00544942
    a77c:	3233205f 	eorscc	r2, r3, #95	; 0x5f
    a780:	73694400 	cmnvc	r9, #0, 8
    a784:	656c6261 	strbvs	r6, [ip, #-609]!	; 0xfffffd9f
    a788:	49564e5f 	ldmdbmi	r6, {r0, r1, r2, r3, r4, r6, r9, sl, fp, lr}^
    a78c:	5f5f0043 	svcpl	0x005f0043
    a790:	66727473 			; <UNDEFINED> instruction: 0x66727473
    a794:	656d6974 	strbvs	r6, [sp, #-2420]!	; 0xfffff68c
    a798:	656b696c 	strbvs	r6, [fp, #-2412]!	; 0xfffff694
    a79c:	746d6628 	strbtvc	r6, [sp], #-1576	; 0xfffff9d8
    a7a0:	2c677261 	sfmcs	f7, 2, [r7], #-388	; 0xfffffe7c
    a7a4:	73726966 	cmnvc	r2, #1671168	; 0x198000
    a7a8:	72617674 	rsbvc	r7, r1, #116, 12	; 0x7400000
    a7ac:	29677261 	stmdbcs	r7!, {r0, r5, r6, r9, ip, sp, lr}^
    a7b0:	615f5f20 	cmpvs	pc, r0, lsr #30
    a7b4:	69727474 	ldmdbvs	r2!, {r2, r4, r5, r6, sl, ip, sp, lr}^
    a7b8:	65747562 	ldrbvs	r7, [r4, #-1378]!	; 0xfffffa9e
    a7bc:	28285f5f 	stmdacs	r8!, {r0, r1, r2, r3, r4, r6, r8, r9, sl, fp, ip, lr}
    a7c0:	6f665f5f 	svcvs	0x00665f5f
    a7c4:	74616d72 	strbtvc	r6, [r1], #-3442	; 0xfffff28e
    a7c8:	28205f5f 	stmdacs	r0!, {r0, r1, r2, r3, r4, r6, r8, r9, sl, fp, ip, lr}
    a7cc:	74735f5f 	ldrbtvc	r5, [r3], #-3935	; 0xfffff0a1
    a7d0:	69746672 	ldmdbvs	r4!, {r1, r4, r5, r6, r9, sl, sp, lr}^
    a7d4:	5f5f656d 	svcpl	0x005f656d
    a7d8:	6d66202c 	stclvs	0, cr2, [r6, #-176]!	; 0xffffff50
    a7dc:	67726174 			; <UNDEFINED> instruction: 0x67726174
    a7e0:	6966202c 	stmdbvs	r6!, {r2, r3, r5, sp}^
    a7e4:	76747372 			; <UNDEFINED> instruction: 0x76747372
    a7e8:	72617261 	rsbvc	r7, r1, #268435462	; 0x10000006
    a7ec:	29292967 	stmdbcs	r9!, {r0, r1, r2, r5, r6, r8, fp, sp}
    a7f0:	54584500 	ldrbpl	r4, [r8], #-1280	; 0xfffffb00
    a7f4:	495f3149 	ldmdbmi	pc, {r0, r3, r6, r8, ip, sp}^	; <UNPREDICTABLE>
    a7f8:	61485152 	cmpvs	r8, r2, asr r1
    a7fc:	656c646e 	strbvs	r6, [ip, #-1134]!	; 0xfffffb92
    a800:	5f5f0072 	svcpl	0x005f0072
    a804:	55514544 	ldrbpl	r4, [r1, #-1348]	; 0xfffffabc
    a808:	46494c41 	strbmi	r4, [r9], -r1, asr #24
    a80c:	79742859 	ldmdbvc	r4!, {r0, r3, r4, r6, fp, sp}^
    a810:	762c6570 			; <UNDEFINED> instruction: 0x762c6570
    a814:	20297261 	eorcs	r7, r9, r1, ror #4
    a818:	79742828 	ldmdbvc	r4!, {r3, r5, fp, sp}^
    a81c:	28296570 	stmdacs	r9!, {r4, r5, r6, r8, sl, sp, lr}
    a820:	69755f5f 	ldmdbvs	r5!, {r0, r1, r2, r3, r4, r6, r8, r9, sl, fp, ip, lr}^
    a824:	7470746e 	ldrbtvc	r7, [r0], #-1134	; 0xfffffb92
    a828:	29745f72 	ldmdbcs	r4!, {r1, r4, r5, r6, r8, r9, sl, fp, ip, lr}^
    a82c:	6e6f6328 	cdpvs	3, 6, cr6, cr15, cr8, {1}
    a830:	76207473 			; <UNDEFINED> instruction: 0x76207473
    a834:	74616c6f 	strbtvc	r6, [r1], #-3183	; 0xfffff391
    a838:	20656c69 	rsbcs	r6, r5, r9, ror #24
    a83c:	64696f76 	strbtvs	r6, [r9], #-3958	; 0xfffff08a
    a840:	28292a20 	stmdacs	r9!, {r5, r9, fp, sp}
    a844:	29726176 	ldmdbcs	r2!, {r1, r2, r4, r5, r6, r8, sp, lr}^
    a848:	32490029 	subcc	r0, r9, #41	; 0x29
    a84c:	52535f43 	subspl	r5, r3, #268	; 0x10c
    a850:	45505f32 	ldrbmi	r5, [r0, #-3890]	; 0xfffff0ce
    a854:	32492043 	subcc	r2, r9, #67	; 0x43
    a858:	52535f43 	subspl	r5, r3, #268	; 0x10c
    a85c:	45505f32 	ldrbmi	r5, [r0, #-3890]	; 0xfffff0ce
    a860:	734d5f43 	movtvc	r5, #57155	; 0xdf43
    a864:	5f5f006b 	svcpl	0x005f006b
    a868:	6b636f6c 	blvs	18e6620 <_Min_Stack_Size+0x18e6220>
    a86c:	696e695f 	stmdbvs	lr!, {r0, r1, r2, r3, r4, r6, r8, fp, sp, lr}^
    a870:	65725f74 	ldrbvs	r5, [r2, #-3956]!	; 0xfffff08c
    a874:	73727563 	cmnvc	r2, #415236096	; 0x18c00000
    a878:	28657669 	stmdacs	r5!, {r0, r3, r5, r6, r9, sl, ip, sp, lr}^
    a87c:	6b636f6c 	blvs	18e6634 <_Min_Stack_Size+0x18e6234>
    a880:	5f5f2029 	svcpl	0x005f2029
    a884:	61746572 	cmnvs	r4, r2, ror r5
    a888:	74656772 	strbtvc	r6, [r5], #-1906	; 0xfffff88e
    a88c:	636f6c5f 	cmnvs	pc, #24320	; 0x5f00
    a890:	6e695f6b 	cdpvs	15, 6, cr5, cr9, cr11, {3}
    a894:	725f7469 	subsvc	r7, pc, #1761607680	; 0x69000000
    a898:	72756365 	rsbsvc	r6, r5, #-1811939327	; 0x94000001
    a89c:	65766973 	ldrbvs	r6, [r6, #-2419]!	; 0xfffff68d
    a8a0:	6f6c2628 	svcvs	0x006c2628
    a8a4:	00296b63 	eoreq	r6, r9, r3, ror #22
    a8a8:	54415f5f 	strbpl	r5, [r1], #-3935	; 0xfffff0a1
    a8ac:	43494d4f 	movtmi	r4, #40271	; 0x9d4f
    a8b0:	5143415f 	cmppl	r3, pc, asr r1
    a8b4:	4c45525f 	sfmmi	f5, 2, [r5], {95}	; 0x5f
    a8b8:	4e003420 	cfcpydmi	mvd3, mvd0
    a8bc:	5f434956 	svcpl	0x00434956
    a8c0:	52455349 	subpl	r5, r5, #603979777	; 0x24000001
    a8c4:	282a2031 	stmdacs	sl!, {r0, r4, r5, sp}
    a8c8:	616c6f76 	smcvs	50934	; 0xc6f6
    a8cc:	656c6974 	strbvs	r6, [ip, #-2420]!	; 0xfffff68c
    a8d0:	6e697520 	cdpvs	5, 6, cr7, cr9, cr0, {1}
    a8d4:	5f323374 	svcpl	0x00323374
    a8d8:	292a2074 	stmdbcs	sl!, {r2, r4, r5, r6, sp}
    a8dc:	49564e28 	ldmdbmi	r6, {r3, r5, r9, sl, fp, lr}^
    a8e0:	61425f43 	cmpvs	r2, r3, asr #30
    a8e4:	2b206573 	blcs	823eb8 <_Min_Stack_Size+0x823ab8>
    a8e8:	34783020 	ldrbtcc	r3, [r8], #-32	; 0xffffffe0
    a8ec:	5f5f0029 	svcpl	0x005f0029
    a8f0:	495f5148 	ldmdbmi	pc, {r3, r6, r8, ip, lr}^	; <UNPREDICTABLE>
    a8f4:	5f544942 	svcpl	0x00544942
    a8f8:	0030205f 	eorseq	r2, r0, pc, asr r0
    a8fc:	61705f5f 	cmnvs	r0, pc, asr pc
    a900:	64656b63 	strbtvs	r6, [r5], #-2915	; 0xfffff49d
    a904:	615f5f20 	cmpvs	pc, r0, lsr #30
    a908:	69727474 	ldmdbvs	r2!, {r2, r4, r5, r6, sl, ip, sp, lr}^
    a90c:	65747562 	ldrbvs	r7, [r4, #-1378]!	; 0xfffffa9e
    a910:	28285f5f 	stmdacs	r8!, {r0, r1, r2, r3, r4, r6, r8, r9, sl, fp, ip, lr}
    a914:	61705f5f 	cmnvs	r0, pc, asr pc
    a918:	64656b63 	strbtvs	r6, [r5], #-2915	; 0xfffff49d
    a91c:	29295f5f 	stmdbcs	r9!, {r0, r1, r2, r3, r4, r6, r8, r9, sl, fp, ip, lr}
    a920:	43575f00 	cmpmi	r7, #0, 30
    a924:	5f524148 	svcpl	0x00524148
    a928:	45445f54 	strbmi	r5, [r4, #-3924]	; 0xfffff0ac
    a92c:	454e4946 	strbmi	r4, [lr, #-2374]	; 0xfffff6ba
    a930:	00205f44 	eoreq	r5, r0, r4, asr #30
    a934:	334d5453 	movtcc	r5, #54355	; 0xd453
    a938:	20314632 	eorscs	r4, r1, r2, lsr r6
    a93c:	58450031 	stmdapl	r5, {r0, r4, r5}^
    a940:	50304954 	eorspl	r4, r0, r4, asr r9
    a944:	28203042 	stmdacs	r0!, {r1, r6, ip, sp}
    a948:	49545845 	ldmdbmi	r4, {r0, r2, r6, fp, ip, lr}^
    a94c:	4950475f 	ldmdbmi	r0, {r0, r1, r2, r3, r4, r6, r8, r9, sl, lr}^
    a950:	614d5f4f 	cmpvs	sp, pc, asr #30
    a954:	6e697070 	mcrvs	0, 3, r7, cr9, cr0, {3}
    a958:	29745f67 	ldmdbcs	r4!, {r0, r1, r2, r5, r6, r8, r9, sl, fp, ip, lr}^
    a95c:	5458457b 	ldrbpl	r4, [r8], #-1403	; 0xfffffa85
    a960:	202c3049 	eorcs	r3, ip, r9, asr #32
    a964:	4f495047 	svcmi	0x00495047
    a968:	202c2042 	eorcs	r2, ip, r2, asr #32
    a96c:	4f495047 	svcmi	0x00495047
    a970:	4e49505f 	mcrmi	0, 2, r5, cr9, cr15, {2}
    a974:	2c20305f 	stccs	0, cr3, [r0], #-380	; 0xfffffe84
    a978:	49545845 	ldmdbmi	r4, {r0, r2, r6, fp, ip, lr}^
    a97c:	52495f30 	subpl	r5, r9, #48, 30	; 0xc0
    a980:	007d2051 	rsbseq	r2, sp, r1, asr r0
    a984:	32495053 	subcc	r5, r9, #83	; 0x53
    a988:	53282820 			; <UNDEFINED> instruction: 0x53282820
    a98c:	545f4950 	ldrbpl	r4, [pc], #-2384	; a994 <_Min_Stack_Size+0xa594>
    a990:	44657079 	strbtmi	r7, [r5], #-121	; 0xffffff87
    a994:	2a206665 	bcs	824330 <_Min_Stack_Size+0x823f30>
    a998:	49505329 	ldmdbmi	r0, {r0, r3, r5, r8, r9, ip, lr}^
    a99c:	41425f32 	cmpmi	r2, r2, lsr pc
    a9a0:	00294553 	eoreq	r4, r9, r3, asr r5
    a9a4:	5f433249 	svcpl	0x00433249
    a9a8:	5f315243 	svcpl	0x00315243
    a9ac:	45504e45 	ldrbmi	r4, [r0, #-3653]	; 0xfffff1bb
    a9b0:	734d5f43 	movtvc	r5, #57155	; 0xdf43
    a9b4:	3028206b 	eorcc	r2, r8, fp, rrx
    a9b8:	4c553178 	ldfmie	f3, [r5], {120}	; 0x78
    a9bc:	203c3c20 	eorscs	r3, ip, r0, lsr #24
    a9c0:	5f433249 	svcpl	0x00433249
    a9c4:	5f315243 	svcpl	0x00315243
    a9c8:	45504e45 	ldrbmi	r4, [r0, #-3653]	; 0xfffff1bb
    a9cc:	6f505f43 	svcvs	0x00505f43
    a9d0:	5f002973 	svcpl	0x00002973
    a9d4:	7373615f 	cmnvc	r3, #-1073741801	; 0xc0000017
    a9d8:	73747265 	cmnvc	r4, #1342177286	; 0x50000006
    a9dc:	6168735f 	cmnvs	r8, pc, asr r3
    a9e0:	28646572 	stmdacs	r4!, {r1, r4, r5, r6, r8, sl, sp, lr}^
    a9e4:	292e2e2e 	stmdbcs	lr!, {r1, r2, r3, r5, r9, sl, fp, sp}
    a9e8:	6c5f5f20 	mrrcvs	15, 2, r5, pc, cr0	; <UNPREDICTABLE>
    a9ec:	5f6b636f 	svcpl	0x006b636f
    a9f0:	6f6e6e61 	svcvs	0x006e6e61
    a9f4:	65746174 	ldrbvs	r6, [r4, #-372]!	; 0xfffffe8c
    a9f8:	73736128 	cmnvc	r3, #40, 2
    a9fc:	5f747265 	svcpl	0x00747265
    aa00:	72616873 	rsbvc	r6, r1, #7536640	; 0x730000
    aa04:	6c5f6465 	cfldrdvs	mvd6, [pc], {101}	; 0x65
    aa08:	286b636f 	stmdacs	fp!, {r0, r1, r2, r3, r5, r6, r8, r9, sp, lr}^
    aa0c:	41565f5f 	cmpmi	r6, pc, asr pc
    aa10:	4752415f 			; <UNDEFINED> instruction: 0x4752415f
    aa14:	295f5f53 	ldmdbcs	pc, {r0, r1, r4, r6, r8, r9, sl, fp, ip, lr}^	; <UNPREDICTABLE>
    aa18:	5f5f0029 	svcpl	0x005f0029
    aa1c:	5f535953 	svcpl	0x00535953
    aa20:	4b434f4c 	blmi	10de758 <_Min_Stack_Size+0x10de358>
    aa24:	5f5f485f 	svcpl	0x005f485f
    aa28:	5f5f0020 	svcpl	0x005f0020
    aa2c:	32746e69 	rsbscc	r6, r4, #1680	; 0x690
    aa30:	50470030 	subpl	r0, r7, r0, lsr r0
    aa34:	535f4f49 	cmppl	pc, #292	; 0x124
    aa38:	44454550 	strbmi	r4, [r5], #-1360	; 0xfffffab0
    aa3c:	204d325f 	subcs	r3, sp, pc, asr r2
    aa40:	30307830 	eorscc	r7, r0, r0, lsr r8
    aa44:	30303030 	eorscc	r3, r0, r0, lsr r0
    aa48:	00753230 	rsbseq	r3, r5, r0, lsr r2
    aa4c:	4e414e5f 	mcrmi	14, 2, r4, cr1, cr15, {2}
    aa50:	4f465f4f 	svcmi	0x00465f4f
    aa54:	54414d52 	strbpl	r4, [r1], #-3410	; 0xfffff2ae
    aa58:	5f444554 	svcpl	0x00444554
    aa5c:	31204f49 			; <UNDEFINED> instruction: 0x31204f49
    aa60:	544e4900 	strbpl	r4, [lr], #-2304	; 0xfffff700
    aa64:	5341465f 	movtpl	r4, #5727	; 0x165f
    aa68:	5f323354 	svcpl	0x00323354
    aa6c:	2058414d 	subscs	r4, r8, sp, asr #2
    aa70:	495f5f28 	ldmdbmi	pc, {r3, r5, r8, r9, sl, fp, ip, lr}^	; <UNPREDICTABLE>
    aa74:	465f544e 	ldrbmi	r5, [pc], -lr, asr #8
    aa78:	33545341 	cmpcc	r4, #67108865	; 0x4000001
    aa7c:	414d5f32 	cmpmi	sp, r2, lsr pc
    aa80:	295f5f58 	ldmdbcs	pc, {r3, r4, r6, r8, r9, sl, fp, ip, lr}^	; <UNPREDICTABLE>
    aa84:	465f5f00 	ldrbmi	r5, [pc], -r0, lsl #30
    aa88:	3233544c 	eorscc	r5, r3, #76, 8	; 0x4c000000
    aa8c:	524f4e5f 	subpl	r4, pc, #1520	; 0x5f0
    aa90:	414d5f4d 	cmpmi	sp, sp, asr #30
    aa94:	205f5f58 	subscs	r5, pc, r8, asr pc	; <UNPREDICTABLE>
    aa98:	30342e33 	eorscc	r2, r4, r3, lsr lr
    aa9c:	33323832 	teqcc	r2, #3276800	; 0x320000
    aaa0:	33363634 	teqcc	r6, #52, 12	; 0x3400000
    aaa4:	38323538 	ldmdacc	r2!, {r3, r4, r5, r8, sl, ip, sp}
    aaa8:	2b653638 	blcs	1958390 <_Min_Stack_Size+0x1957f90>
    aaac:	33463833 	movtcc	r3, #26675	; 0x6833
    aab0:	525f0032 	subspl	r0, pc, #50	; 0x32
    aab4:	544e4545 	strbpl	r4, [lr], #-1349	; 0xfffffabb
    aab8:	4353415f 	cmpmi	r3, #-1073741801	; 0xc0000017
    aabc:	454d4954 	strbmi	r4, [sp, #-2388]	; 0xfffff6ac
    aac0:	5a49535f 	bpl	125f844 <_Min_Stack_Size+0x125f444>
    aac4:	36322045 	ldrtcc	r2, [r2], -r5, asr #32
    aac8:	544e4900 	strbpl	r4, [lr], #-2304	; 0xfffff700
    aacc:	5f525450 	svcpl	0x00525450
    aad0:	204e494d 	subcs	r4, lr, sp, asr #18
    aad4:	5f5f2d28 	svcpl	0x005f2d28
    aad8:	50544e49 	subspl	r4, r4, r9, asr #28
    aadc:	4d5f5254 	lfmmi	f5, 2, [pc, #-336]	; a994 <_Min_Stack_Size+0xa594>
    aae0:	5f5f5841 	svcpl	0x005f5841
    aae4:	31202d20 			; <UNDEFINED> instruction: 0x31202d20
    aae8:	54500029 	ldrbpl	r0, [r0], #-41	; 0xffffffd7
    aaec:	46494452 			; <UNDEFINED> instruction: 0x46494452
    aaf0:	494d5f46 	stmdbmi	sp, {r1, r2, r6, r8, r9, sl, fp, ip, lr}^
    aaf4:	2d28204e 	stccs	0, cr2, [r8, #-312]!	; 0xfffffec8
    aaf8:	44525450 	ldrbmi	r5, [r2], #-1104	; 0xfffffbb0
    aafc:	5f464649 	svcpl	0x00464649
    ab00:	2058414d 	subscs	r4, r8, sp, asr #2
    ab04:	2931202d 	ldmdbcs	r1!, {r0, r2, r3, r5, sp}
    ab08:	4f505f00 	svcmi	0x00505f00
    ab0c:	5f584953 	svcpl	0x00584953
    ab10:	4f535f43 	svcmi	0x00535f43
    ab14:	45435255 	strbmi	r5, [r3, #-597]	; 0xfffffdab
    ab18:	555f5f00 	ldrbpl	r5, [pc, #-3840]	; 9c20 <_Min_Stack_Size+0x9820>
    ab1c:	4d544e49 	ldclmi	14, cr4, [r4, #-292]	; 0xfffffedc
    ab20:	4d5f5841 	ldclmi	8, cr5, [pc, #-260]	; aa24 <_Min_Stack_Size+0xa624>
    ab24:	5f5f5841 	svcpl	0x005f5841
    ab28:	66783020 	ldrbtvs	r3, [r8], -r0, lsr #32
    ab2c:	66666666 	strbtvs	r6, [r6], -r6, ror #12
    ab30:	66666666 	strbtvs	r6, [r6], -r6, ror #12
    ab34:	66666666 	strbtvs	r6, [r6], -r6, ror #12
    ab38:	55666666 	strbpl	r6, [r6, #-1638]!	; 0xfffff99a
    ab3c:	4e004c4c 	cdpmi	12, 0, cr4, cr0, cr12, {2}
    ab40:	5f434956 	svcpl	0x00434956
    ab44:	32515249 	subscc	r5, r1, #-1879048188	; 0x90000004
    ab48:	58455f33 	stmdapl	r5, {r0, r1, r4, r5, r8, r9, sl, fp, ip, lr}^
    ab4c:	5f354954 	svcpl	0x00354954
    ab50:	69445f39 	stmdbvs	r4, {r0, r3, r4, r5, r8, r9, sl, fp, ip, lr}^
    ab54:	6c626173 	stfvse	f6, [r2], #-460	; 0xfffffe34
    ab58:	4e282065 	cdpmi	0, 2, cr2, cr8, cr5, {3}
    ab5c:	5f434956 	svcpl	0x00434956
    ab60:	52454349 	subpl	r4, r5, #603979777	; 0x24000001
    ab64:	3d7c2030 	ldclcc	0, cr2, [ip, #-192]!	; 0xffffff40
    ab68:	3c3c3120 	ldfccs	f3, [ip], #-128	; 0xffffff80
    ab6c:	00293332 	eoreq	r3, r9, r2, lsr r3
    ab70:	42445f5f 	submi	r5, r4, #380	; 0x17c
    ab74:	414d5f4c 	cmpmi	sp, ip, asr #30
    ab78:	445f544e 	ldrbmi	r5, [pc], #-1102	; ab80 <_Min_Stack_Size+0xa780>
    ab7c:	5f5f4749 	svcpl	0x005f4749
    ab80:	00333520 	eorseq	r3, r3, r0, lsr #10
    ab84:	4c555f5f 	mrrcmi	15, 5, r5, r5, cr15	; <UNPREDICTABLE>
    ab88:	43415246 	movtmi	r5, #4678	; 0x1246
    ab8c:	42495f54 	submi	r5, r9, #84, 30	; 0x150
    ab90:	5f5f5449 	svcpl	0x005f5449
    ab94:	45003020 	strmi	r3, [r0, #-32]	; 0xffffffe0
    ab98:	31495458 	cmpcc	r9, r8, asr r4
    ab9c:	31435035 	cmpcc	r3, r5, lsr r0
    aba0:	45282035 	strmi	r2, [r8, #-53]!	; 0xffffffcb
    aba4:	5f495458 	svcpl	0x00495458
    aba8:	4f495047 	svcmi	0x00495047
    abac:	70614d5f 	rsbvc	r4, r1, pc, asr sp
    abb0:	676e6970 			; <UNDEFINED> instruction: 0x676e6970
    abb4:	7b29745f 	blvc	a67d38 <_Min_Stack_Size+0xa67938>
    abb8:	49545845 	ldmdbmi	r4, {r0, r2, r6, fp, ip, lr}^
    abbc:	2c203531 	cfstr32cs	mvfx3, [r0], #-196	; 0xffffff3c
    abc0:	49504720 	ldmdbmi	r0, {r5, r8, r9, sl, lr}^
    abc4:	2c20434f 	stccs	3, cr4, [r0], #-316	; 0xfffffec4
    abc8:	49504720 	ldmdbmi	r0, {r5, r8, r9, sl, lr}^
    abcc:	49505f4f 	ldmdbmi	r0, {r0, r1, r2, r3, r6, r8, r9, sl, fp, ip, lr}^
    abd0:	35315f4e 	ldrcc	r5, [r1, #-3918]!	; 0xfffff0b2
    abd4:	58452c20 	stmdapl	r5, {r5, sl, fp, sp}^
    abd8:	35314954 	ldrcc	r4, [r1, #-2388]!	; 0xfffff6ac
    abdc:	5152495f 	cmppl	r2, pc, asr r9
    abe0:	5f007d20 	svcpl	0x00007d20
    abe4:	736f6e5f 	cmnvc	pc, #1520	; 0x5f0
    abe8:	74696e61 	strbtvc	r6, [r9], #-3681	; 0xfffff19f
    abec:	74657a69 	strbtvc	r7, [r5], #-2665	; 0xfffff597
    abf0:	61657268 	cmnvs	r5, r8, ror #4
    abf4:	45002064 	strmi	r2, [r0, #-100]	; 0xffffff9c
    abf8:	31495458 	cmpcc	r9, r8, asr r4
    abfc:	31435030 	cmpcc	r3, r0, lsr r0
    ac00:	45282030 	strmi	r2, [r8, #-48]!	; 0xffffffd0
    ac04:	5f495458 	svcpl	0x00495458
    ac08:	4f495047 	svcmi	0x00495047
    ac0c:	70614d5f 	rsbvc	r4, r1, pc, asr sp
    ac10:	676e6970 			; <UNDEFINED> instruction: 0x676e6970
    ac14:	7b29745f 	blvc	a67d98 <_Min_Stack_Size+0xa67998>
    ac18:	49545845 	ldmdbmi	r4, {r0, r2, r6, fp, ip, lr}^
    ac1c:	2c203031 	stccs	0, cr3, [r0], #-196	; 0xffffff3c
    ac20:	49504720 	ldmdbmi	r0, {r5, r8, r9, sl, lr}^
    ac24:	2c20434f 	stccs	3, cr4, [r0], #-316	; 0xfffffec4
    ac28:	49504720 	ldmdbmi	r0, {r5, r8, r9, sl, lr}^
    ac2c:	49505f4f 	ldmdbmi	r0, {r0, r1, r2, r3, r6, r8, r9, sl, fp, ip, lr}^
    ac30:	30315f4e 	eorscc	r5, r1, lr, asr #30
    ac34:	58452c20 	stmdapl	r5, {r5, sl, fp, sp}^
    ac38:	30314954 	eorscc	r4, r1, r4, asr r9
    ac3c:	5152495f 	cmppl	r2, pc, asr r9
    ac40:	45007d20 	strmi	r7, [r0, #-3360]	; 0xfffff2e0
    ac44:	31495458 	cmpcc	r9, r8, asr r4
    ac48:	31425033 	cmpcc	r2, r3, lsr r0
    ac4c:	45282033 	strmi	r2, [r8, #-51]!	; 0xffffffcd
    ac50:	5f495458 	svcpl	0x00495458
    ac54:	4f495047 	svcmi	0x00495047
    ac58:	70614d5f 	rsbvc	r4, r1, pc, asr sp
    ac5c:	676e6970 			; <UNDEFINED> instruction: 0x676e6970
    ac60:	7b29745f 	blvc	a67de4 <_Min_Stack_Size+0xa679e4>
    ac64:	49545845 	ldmdbmi	r4, {r0, r2, r6, fp, ip, lr}^
    ac68:	202c3331 	eorcs	r3, ip, r1, lsr r3
    ac6c:	4f495047 	svcmi	0x00495047
    ac70:	202c2042 	eorcs	r2, ip, r2, asr #32
    ac74:	4f495047 	svcmi	0x00495047
    ac78:	4e49505f 	mcrmi	0, 2, r5, cr9, cr15, {2}
    ac7c:	2033315f 	eorscs	r3, r3, pc, asr r1
    ac80:	5458452c 	ldrbpl	r4, [r8], #-1324	; 0xfffffad4
    ac84:	5f333149 	svcpl	0x00333149
    ac88:	20515249 	subscs	r5, r1, r9, asr #4
    ac8c:	5f5f007d 	svcpl	0x005f007d
    ac90:	5f544e49 	svcpl	0x00544e49
    ac94:	5f58414d 	svcpl	0x0058414d
    ac98:	7830205f 	ldmdavc	r0!, {r0, r1, r2, r3, r4, r6, sp}
    ac9c:	66666637 			; <UNDEFINED> instruction: 0x66666637
    aca0:	66666666 	strbtvs	r6, [r6], -r6, ror #12
    aca4:	495f5f00 	ldmdbmi	pc, {r8, r9, sl, fp, ip, lr}^	; <UNPREDICTABLE>
    aca8:	4c5f544e 	cfldrdmi	mvd5, [pc], {78}	; 0x4e
    acac:	54534145 	ldrbpl	r4, [r3], #-325	; 0xfffffebb
    acb0:	545f3436 	ldrbpl	r3, [pc], #-1078	; acb8 <_Min_Stack_Size+0xa8b8>
    acb4:	5f455059 	svcpl	0x00455059
    acb8:	6f6c205f 	svcvs	0x006c205f
    acbc:	6c20676e 	stcvs	7, cr6, [r0], #-440	; 0xfffffe48
    acc0:	20676e6f 	rsbcs	r6, r7, pc, ror #28
    acc4:	00746e69 	rsbseq	r6, r4, r9, ror #28
    acc8:	62616e45 	rsbvs	r6, r1, #1104	; 0x450
    accc:	4e5f656c 	cdpmi	5, 5, cr6, cr15, cr12, {3}
    acd0:	00434956 	subeq	r4, r3, r6, asr r9
    acd4:	52415f5f 	subpl	r5, r1, #380	; 0x17c
    acd8:	45465f4d 	strbmi	r5, [r6, #-3917]	; 0xfffff0b3
    acdc:	52555441 	subspl	r5, r5, #1090519040	; 0x41000000
    ace0:	44435f45 	strbmi	r5, [r3], #-3909	; 0xfffff0bb
    ace4:	4f435f45 	svcmi	0x00435f45
    ace8:	434f5250 	movtmi	r5, #62032	; 0xf250
    acec:	434e4900 	movtmi	r4, #59648	; 0xe900
    acf0:	5458455f 	ldrbpl	r4, [r8], #-1375	; 0xfffffaa1
    acf4:	5f485f49 	svcpl	0x00485f49
    acf8:	53550020 	cmppl	r5, #32
    acfc:	32545241 	subscc	r5, r4, #268435460	; 0x10000004
    ad00:	5152495f 	cmppl	r2, pc, asr r9
    ad04:	00383320 	eorseq	r3, r8, r0, lsr #6
    ad08:	52474643 	subpl	r4, r7, #70254592	; 0x4300000
    ad0c:	74654700 	strbtvc	r4, [r5], #-1792	; 0xfffff900
    ad10:	4c52435f 	mrrcmi	3, 5, r4, r2, cr15
    ad14:	6f505f48 	svcvs	0x00505f48
    ad18:	69746973 	ldmdbvs	r4!, {r0, r1, r4, r5, r6, r8, fp, sp, lr}^
    ad1c:	41006e6f 	tstmi	r0, pc, ror #28
    ad20:	45324250 	ldrmi	r4, [r2, #-592]!	; 0xfffffdb0
    ad24:	5000524e 	andpl	r5, r0, lr, asr #4
    ad28:	6f436e69 	svcvs	0x00436e69
    ad2c:	6769666e 	strbvs	r6, [r9, -lr, ror #12]!
    ad30:	41434d00 	cmpmi	r3, r0, lsl #26
    ad34:	50475f4c 	subpl	r5, r7, ip, asr #30
    ad38:	545f4f49 	ldrbpl	r4, [pc], #-3913	; ad40 <_Min_Stack_Size+0xa940>
    ad3c:	6c67676f 	stclvs	7, cr6, [r7], #-444	; 0xfffffe44
    ad40:	6e695065 	cdpvs	0, 6, cr5, cr9, cr5, {3}
    ad44:	43444200 	movtmi	r4, #16896	; 0x4200
    ad48:	50470052 	subpl	r0, r7, r2, asr r0
    ad4c:	00784f49 	rsbseq	r4, r8, r9, asr #30
    ad50:	4c41434d 	mcrrmi	3, 4, r4, r1, cr13
    ad54:	4950475f 	ldmdbmi	r0, {r0, r1, r2, r3, r4, r6, r8, r9, sl, lr}^
    ad58:	65525f4f 	ldrbvs	r5, [r2, #-3919]	; 0xfffff0b1
    ad5c:	69506461 	ldmdbvs	r0, {r0, r5, r6, sl, sp, lr}^
    ad60:	434d006e 	movtmi	r0, #53358	; 0xd06e
    ad64:	475f4c41 	ldrbmi	r4, [pc, -r1, asr #24]
    ad68:	5f4f4950 	svcpl	0x004f4950
    ad6c:	6b636f4c 	blvs	18e6aa4 <_Min_Stack_Size+0x18e66a4>
    ad70:	006e6950 	rsbeq	r6, lr, r0, asr r9
    ad74:	5f4e4950 	svcpl	0x004e4950
    ad78:	666e6f43 	strbtvs	r6, [lr], -r3, asr #30
    ad7c:	4d006769 	stcmi	7, cr6, [r0, #-420]	; 0xfffffe5c
    ad80:	5f4c4143 	svcpl	0x004c4143
    ad84:	4f495047 	svcmi	0x00495047
    ad88:	6972575f 	ldmdbvs	r2!, {r0, r1, r2, r3, r4, r6, r8, r9, sl, ip, lr}^
    ad8c:	69506574 	ldmdbvs	r0, {r2, r4, r5, r6, r8, sl, sp, lr}^
    ad90:	6f63006e 	svcvs	0x0063006e
    ad94:	6769666e 	strbvs	r6, [r9, -lr, ror #12]!
    ad98:	69676572 	stmdbvs	r7!, {r1, r4, r5, r6, r8, sl, sp, lr}^
    ad9c:	72657473 	rsbvc	r7, r5, #1929379840	; 0x73000000
    ada0:	42504100 	subsmi	r4, r0, #0, 2
    ada4:	54535232 	ldrbpl	r5, [r3], #-562	; 0xfffffdce
    ada8:	46430052 			; <UNDEFINED> instruction: 0x46430052
    adac:	00325247 	eorseq	r5, r2, r7, asr #4
    adb0:	4c41434d 	mcrrmi	3, 4, r4, r1, cr13
    adb4:	4950475f 	ldmdbmi	r0, {r0, r1, r2, r3, r4, r6, r8, r9, sl, lr}^
    adb8:	72575f4f 	subsvc	r5, r7, #316	; 0x13c
    adbc:	50657469 	rsbpl	r7, r5, r9, ror #8
    adc0:	0074726f 	rsbseq	r7, r4, pc, ror #4
    adc4:	31425041 	cmpcc	r2, r1, asr #32
    adc8:	52545352 	subspl	r5, r4, #1207959553	; 0x48000001
    adcc:	42504100 	subsmi	r4, r0, #0, 2
    add0:	524e4531 	subpl	r4, lr, #205520896	; 0xc400000
    add4:	41434d00 	cmpmi	r3, r0, lsl #26
    add8:	50475f4c 	subpl	r5, r7, ip, asr #30
    addc:	445f4f49 	ldrbmi	r4, [pc], #-3913	; ade4 <_Min_Stack_Size+0xa9e4>
    ade0:	696e4965 	stmdbvs	lr!, {r0, r2, r5, r6, r8, fp, lr}^
    ade4:	6f700074 	svcvs	0x00700074
    ade8:	765f7472 			; <UNDEFINED> instruction: 0x765f7472
    adec:	65756c61 	ldrbvs	r6, [r5, #-3169]!	; 0xfffff39f
    adf0:	43435200 	movtmi	r5, #12800	; 0x3200
    adf4:	7079545f 	rsbsvc	r5, r9, pc, asr r4
    adf8:	66654465 	strbtvs	r4, [r5], -r5, ror #8
    adfc:	74696200 	strbtvc	r6, [r9], #-512	; 0xfffffe00
    ae00:	74617473 	strbtvc	r7, [r1], #-1139	; 0xfffffb8d
    ae04:	41007375 	tstmi	r0, r5, ror r3
    ae08:	4e454248 	cdpmi	2, 4, cr4, cr5, cr8, {2}
    ae0c:	48410052 	stmdami	r1, {r1, r4, r6}^
    ae10:	52545342 	subspl	r5, r4, #134217729	; 0x8000001
    ae14:	41434d00 	cmpmi	r3, r0, lsl #26
    ae18:	50475f4c 	subpl	r5, r7, ip, asr #30
    ae1c:	525f4f49 	subspl	r4, pc, #292	; 0x124
    ae20:	50646165 	rsbpl	r6, r4, r5, ror #2
    ae24:	0074726f 	rsbseq	r7, r4, pc, ror #4
    ae28:	756c6156 	strbvc	r6, [ip, #-342]!	; 0xfffffeaa
    ae2c:	2e2e0065 	cdpcs	0, 2, cr0, cr14, cr5, {3}
    ae30:	41434d2f 	cmpmi	r3, pc, lsr #26
    ae34:	50472f4c 	subpl	r2, r7, ip, asr #30
    ae38:	632e4f49 			; <UNDEFINED> instruction: 0x632e4f49
    ae3c:	5f655f00 	svcpl	0x00655f00
    ae40:	0070736d 	rsbseq	r7, r0, sp, ror #6
    ae44:	72706e75 	rsbsvc	r6, r0, #1872	; 0x750
    ae48:	6c697669 	stclvs	6, cr7, [r9], #-420	; 0xfffffe5c
    ae4c:	65676465 	strbvs	r6, [r7, #-1125]!	; 0xfffffb9b
    ae50:	736f0064 	cmnvc	pc, #100	; 0x64
    ae54:	6378655f 	cmnvs	r8, #398458880	; 0x17c00000
    ae58:	69747065 	ldmdbvs	r4!, {r0, r2, r5, r6, ip, sp, lr}^
    ae5c:	6c616e6f 	stclvs	14, cr6, [r1], #-444	; 0xfffffe44
    ae60:	6c61635f 	stclvs	3, cr6, [r1], #-380	; 0xfffffe84
    ae64:	6361626c 	cmnvs	r1, #108, 4	; 0xc0000006
    ae68:	2029286b 	eorcs	r2, r9, fp, ror #16
    ae6c:	73615f5f 	cmnvc	r1, #380	; 0x17c
    ae70:	6f76206d 	svcvs	0x0076206d
    ae74:	6974616c 	ldmdbvs	r4!, {r2, r3, r5, r6, r8, sp, lr}^
    ae78:	2228656c 	eorcs	r6, r8, #108, 10	; 0x1b000000
    ae7c:	20435653 	subcs	r5, r3, r3, asr r6
    ae80:	33583023 	cmpcc	r8, #35	; 0x23
    ae84:	70002922 	andvc	r2, r0, r2, lsr #18
    ae88:	745f7073 	ldrbvc	r7, [pc], #-115	; ae90 <_Min_Stack_Size+0xaa90>
    ae8c:	736d5f6f 	cmnvc	sp, #444	; 0x1bc
    ae90:	6f635f70 	svcvs	0x00635f70
    ae94:	7265766e 	rsbvc	r7, r5, #115343360	; 0x6e00000
    ae98:	6e6f6973 			; <UNDEFINED> instruction: 0x6e6f6973
    ae9c:	5f202928 	svcpl	0x00202928
    aea0:	6d73615f 	ldfvse	f6, [r3, #-380]!	; 0xfffffe84
    aea4:	6c6f7620 	stclvs	6, cr7, [pc], #-128	; ae2c <_Min_Stack_Size+0xaa2c>
    aea8:	6c697461 	cfstrdvs	mvd7, [r9], #-388	; 0xfffffe7c
    aeac:	4d222865 	stcmi	8, cr2, [r2, #-404]!	; 0xfffffe6c
    aeb0:	72205352 	eorvc	r5, r0, #1207959553	; 0x48000001
    aeb4:	4f432c30 	svcmi	0x00432c30
    aeb8:	4f52544e 	svcmi	0x0052544e
    aebc:	6e5c204c 	cdpvs	0, 5, cr2, cr12, cr12, {2}
    aec0:	6d20745c 	cfstrsvs	mvf7, [r0, #-368]!	; 0xfffffe90
    aec4:	7220766f 	eorvc	r7, r0, #116391936	; 0x6f00000
    aec8:	30232c31 	eorcc	r2, r3, r1, lsr ip
    aecc:	20353078 	eorscs	r3, r5, r8, ror r0
    aed0:	745c6e5c 	ldrbvc	r6, [ip], #-3676	; 0xfffff1a4
    aed4:	444e4120 	strbmi	r4, [lr], #-288	; 0xfffffee0
    aed8:	2c307220 	lfmcs	f7, 4, [r0], #-128	; 0xffffff80
    aedc:	722c3072 	eorvc	r3, ip, #114	; 0x72
    aee0:	6e5c2031 	mrcvs	0, 2, r2, cr12, cr1, {1}
    aee4:	4d20745c 	cfstrsmi	mvf7, [r0, #-368]!	; 0xfffffe90
    aee8:	43205253 			; <UNDEFINED> instruction: 0x43205253
    aeec:	52544e4f 	subspl	r4, r4, #1264	; 0x4f0
    aef0:	722c4c4f 	eorvc	r4, ip, #20224	; 0x4f00
    aef4:	00292230 	eoreq	r2, r9, r0, lsr r2
    aef8:	5f746573 	svcpl	0x00746573
    aefc:	5f707370 	svcpl	0x00707370
    af00:	28676572 	stmdacs	r7!, {r1, r4, r5, r6, r8, sl, sp, lr}^
    af04:	72646461 	rsbvc	r6, r4, #1627389952	; 0x61000000
    af08:	29737365 	ldmdbcs	r3!, {r0, r2, r5, r6, r8, r9, ip, sp, lr}^
    af0c:	615f5f20 	cmpvs	pc, r0, lsr #30
    af10:	76206d73 			; <UNDEFINED> instruction: 0x76206d73
    af14:	74616c6f 	strbtvc	r6, [r1], #-3183	; 0xfffff391
    af18:	28656c69 	stmdacs	r5!, {r0, r3, r5, r6, sl, fp, sp, lr}^
    af1c:	766f6d22 	strbtvc	r6, [pc], -r2, lsr #26
    af20:	2c307220 	lfmcs	f7, 4, [r0], #-128	; 0xffffff80
    af24:	5c203025 	stcpl	0, cr3, [r0], #-148	; 0xffffff6c
    af28:	20745c6e 	rsbscs	r5, r4, lr, ror #24
    af2c:	2052534d 	subscs	r5, r2, sp, asr #6
    af30:	2c505350 	mrrccs	3, 5, r5, r0, cr0
    af34:	5c203072 	stcpl	0, cr3, [r0], #-456	; 0xfffffe38
    af38:	20745c6e 	rsbscs	r5, r4, lr, ror #24
    af3c:	3a203a22 	bcc	8197cc <_Min_Stack_Size+0x8193cc>
    af40:	22722220 	rsbscs	r2, r2, #32, 4
    af44:	64646128 	strbtvs	r6, [r4], #-296	; 0xfffffed8
    af48:	73736572 	cmnvc	r3, #478150656	; 0x1c800000
    af4c:	63002929 	movwvs	r2, #2345	; 0x929
    af50:	615f7570 	cmpvs	pc, r0, ror r5	; <UNPREDICTABLE>
    af54:	73656363 	cmnvc	r5, #-1946157055	; 0x8c000001
    af58:	656c5f73 	strbvs	r5, [ip, #-3955]!	; 0xfffff08d
    af5c:	006c6576 	rsbeq	r6, ip, r6, ror r5
    af60:	746e6f63 	strbtvc	r6, [lr], #-3939	; 0xfffff09d
    af64:	5f6c6f72 	svcpl	0x006c6f72
    af68:	69676572 	stmdbvs	r7!, {r1, r4, r5, r6, r8, sl, sp, lr}^
    af6c:	72657473 	rsbvc	r7, r5, #1929379840	; 0x73000000
    af70:	5f735f00 	svcpl	0x00735f00
    af74:	5f707370 	svcpl	0x00707370
    af78:	6b736174 	blvs	1ce3550 <_Min_Stack_Size+0x1ce3150>
    af7c:	2e2e0041 	cdpcs	0, 2, cr0, cr14, cr1, {2}
    af80:	6372532f 	cmnvs	r2, #-1140850688	; 0xbc000000
    af84:	69616d2f 	stmdbvs	r1!, {r0, r1, r2, r3, r5, r8, sl, fp, sp, lr}^
    af88:	00632e6e 	rsbeq	r2, r3, lr, ror #28
    af8c:	4b534154 	blmi	14db4e4 <_Min_Stack_Size+0x14db0e4>
    af90:	4c465f42 	mcrrmi	15, 4, r5, r6, cr2
    af94:	5f004741 	svcpl	0x00004741
    af98:	61747365 	cmnvs	r4, r5, ror #6
    af9c:	49006b63 	stmdbmi	r0, {r0, r1, r5, r6, r8, r9, fp, sp, lr}
    afa0:	665f7172 			; <UNDEFINED> instruction: 0x665f7172
    afa4:	0067616c 	rsbeq	r6, r7, ip, ror #2
    afa8:	52535049 	subspl	r5, r3, #73	; 0x49
    afac:	6765725f 			; <UNDEFINED> instruction: 0x6765725f
    afb0:	65747369 	ldrbvs	r7, [r4, #-873]!	; 0xfffffc97
    afb4:	70630072 	rsbvc	r0, r3, r2, ror r0
    afb8:	656c5f75 	strbvs	r5, [ip, #-3957]!	; 0xfffff08b
    afbc:	006c6576 	rsbeq	r6, ip, r6, ror r5
    afc0:	6d5f735f 	ldclvs	3, cr7, [pc, #-380]	; ae4c <_Min_Stack_Size+0xaa4c>
    afc4:	6d007073 	stcvs	0, cr7, [r0, #-460]	; 0xfffffe34
    afc8:	006e6961 	rsbeq	r6, lr, r1, ror #18
    afcc:	49545845 	ldmdbmi	r4, {r0, r2, r6, fp, ip, lr}^
    afd0:	7172695f 	cmnvc	r2, pc, asr r9
    afd4:	53415400 	movtpl	r5, #5120	; 0x1400
    afd8:	465f414b 	ldrbmi	r4, [pc], -fp, asr #2
    afdc:	0047414c 	subeq	r4, r7, ip, asr #2
    afe0:	5f70736d 	svcpl	0x0070736d
    afe4:	705f6f74 	subsvc	r6, pc, r4, ror pc	; <UNPREDICTABLE>
    afe8:	635f7073 	cmpvs	pc, #115	; 0x73
    afec:	65766e6f 	ldrbvs	r6, [r6, #-3695]!	; 0xfffff191
    aff0:	6f697372 	svcvs	0x00697372
    aff4:	2029286e 	eorcs	r2, r9, lr, ror #16
    aff8:	73615f5f 	cmnvc	r1, #380	; 0x17c
    affc:	6f76206d 	svcvs	0x0076206d
    b000:	6974616c 	ldmdbvs	r4!, {r2, r3, r5, r6, r8, sp, lr}^
    b004:	2228656c 	eorcs	r6, r8, #108, 10	; 0x1b000000
    b008:	2053524d 	subscs	r5, r3, sp, asr #4
    b00c:	432c3072 			; <UNDEFINED> instruction: 0x432c3072
    b010:	52544e4f 	subspl	r4, r4, #1264	; 0x4f0
    b014:	5c204c4f 	stcpl	12, cr4, [r0], #-316	; 0xfffffec4
    b018:	20745c6e 	rsbscs	r5, r4, lr, ror #24
    b01c:	20766f6d 	rsbscs	r6, r6, sp, ror #30
    b020:	232c3172 			; <UNDEFINED> instruction: 0x232c3172
    b024:	32307830 	eorscc	r7, r0, #48, 16	; 0x300000
    b028:	5c6e5c20 	stclpl	12, cr5, [lr], #-128	; 0xffffff80
    b02c:	524f2074 	subpl	r2, pc, #116	; 0x74
    b030:	30722052 	rsbscc	r2, r2, r2, asr r0
    b034:	2c30722c 	lfmcs	f7, 4, [r0], #-176	; 0xffffff50
    b038:	5c203172 	stfpls	f3, [r0], #-456	; 0xfffffe38
    b03c:	20745c6e 	rsbscs	r5, r4, lr, ror #24
    b040:	2052534d 	subscs	r5, r2, sp, asr #6
    b044:	544e4f43 	strbpl	r4, [lr], #-3907	; 0xfffff0bd
    b048:	2c4c4f52 	mcrrcs	15, 5, r4, ip, cr2
    b04c:	29223072 	stmdbcs	r2!, {r1, r4, r5, r6, ip, sp}
    b050:	43565300 	cmpmi	r6, #0, 6
    b054:	6e61485f 	mcrvs	8, 3, r4, cr1, cr15, {2}
    b058:	72656c64 	rsbvc	r6, r5, #100, 24	; 0x6400
    b05c:	5f655f00 	svcpl	0x00655f00
    b060:	5f707370 	svcpl	0x00707370
    b064:	6b736174 	blvs	1ce363c <_Min_Stack_Size+0x1ce323c>
    b068:	655f0041 	ldrbvs	r0, [pc, #-65]	; b02f <_Min_Stack_Size+0xac2f>
    b06c:	7073705f 	rsbsvc	r7, r3, pc, asr r0
    b070:	7361745f 	cmnvc	r1, #1593835520	; 0x5f000000
    b074:	6d00426b 	sfmvs	f4, 4, [r0, #-428]	; 0xfffffe54
    b078:	5f6e6961 	svcpl	0x006e6961
    b07c:	5f00534f 	svcpl	0x0000534f
    b080:	73705f73 	cmnvc	r0, #460	; 0x1cc
    b084:	61745f70 	cmnvs	r4, r0, ror pc
    b088:	00426b73 	subeq	r6, r2, r3, ror fp
    b08c:	532f2e2e 			; <UNDEFINED> instruction: 0x532f2e2e
    b090:	74726174 	ldrbtvc	r6, [r2], #-372	; 0xfffffe8c
    b094:	732f7075 			; <UNDEFINED> instruction: 0x732f7075
    b098:	74726174 	ldrbtvc	r6, [r2], #-372	; 0xfffffe8c
    b09c:	735f7075 	cmpvc	pc, #117	; 0x75
    b0a0:	32336d74 	eorscc	r6, r3, #116, 26	; 0x1d00
    b0a4:	33303166 	teqcc	r0, #-2147483623	; 0x80000019
    b0a8:	78743863 	ldmdavc	r4!, {r0, r1, r5, r6, fp, ip, sp}^
    b0ac:	4700732e 	strmi	r7, [r0, -lr, lsr #6]
    b0b0:	4120554e 			; <UNDEFINED> instruction: 0x4120554e
    b0b4:	2e322053 	mrccs	0, 1, r2, cr2, cr3, {2}
    b0b8:	Address 0x000000000000b0b8 is out of bounds.


Disassembly of section .debug_frame:

00000000 <.debug_frame>:
   0:	0000000c 	andeq	r0, r0, ip
   4:	ffffffff 			; <UNDEFINED> instruction: 0xffffffff
   8:	7c020001 	stcvc	0, cr0, [r2], {1}
   c:	000d0c0e 	andeq	r0, sp, lr, lsl #24
  10:	00000024 	andeq	r0, r0, r4, lsr #32
  14:	00000000 	andeq	r0, r0, r0
  18:	08000170 	stmdaeq	r0, {r4, r5, r6, r8}
  1c:	000000cc 	andeq	r0, r0, ip, asr #1
  20:	87040e41 	strhi	r0, [r4, -r1, asr #28]
  24:	100e4101 	andne	r4, lr, r1, lsl #2
  28:	02070d41 	andeq	r0, r7, #4160	; 0x1040
  2c:	41040e5c 	tstmi	r4, ip, asr lr
  30:	c7410d0d 	strbgt	r0, [r1, -sp, lsl #26]
  34:	0000000e 	andeq	r0, r0, lr
  38:	00000024 	andeq	r0, r0, r4, lsr #32
  3c:	00000000 	andeq	r0, r0, r0
  40:	0800023c 	stmdaeq	r0, {r2, r3, r4, r5, r9}
  44:	000000cc 	andeq	r0, r0, ip, asr #1
  48:	87040e41 	strhi	r0, [r4, -r1, asr #28]
  4c:	100e4101 	andne	r4, lr, r1, lsl #2
  50:	02070d41 	andeq	r0, r7, #4160	; 0x1040
  54:	41040e5c 	tstmi	r4, ip, asr lr
  58:	c7410d0d 	strbgt	r0, [r1, -sp, lsl #26]
  5c:	0000000e 	andeq	r0, r0, lr
  60:	00000020 	andeq	r0, r0, r0, lsr #32
  64:	00000000 	andeq	r0, r0, r0
  68:	08000308 	stmdaeq	r0, {r3, r8, r9}
  6c:	000001d8 	ldrdeq	r0, [r0], -r8
  70:	87080e41 	strhi	r0, [r8, -r1, asr #28]
  74:	41018e02 	tstmi	r1, r2, lsl #28
  78:	0d41180e 	stcleq	8, cr1, [r1, #-56]	; 0xffffffc8
  7c:	0ed90207 	cdpeq	2, 13, cr0, cr9, cr7, {0}
  80:	0d0d4108 	stfeqs	f4, [sp, #-32]	; 0xffffffe0
  84:	0000001c 	andeq	r0, r0, ip, lsl r0
	...
  90:	00000094 	muleq	r0, r4, r0
  94:	87040e41 	strhi	r0, [r4, -r1, asr #28]
  98:	070d4101 	streq	r4, [sp, -r1, lsl #2]
  9c:	410d0d7f 	tstmi	sp, pc, ror sp
  a0:	00000ec7 	andeq	r0, r0, r7, asr #29
  a4:	00000020 	andeq	r0, r0, r0, lsr #32
  a8:	00000000 	andeq	r0, r0, r0
  ac:	080004e0 	stmdaeq	r0, {r5, r6, r7, sl}
  b0:	00000016 	andeq	r0, r0, r6, lsl r0
  b4:	87080e41 	strhi	r0, [r8, -r1, asr #28]
  b8:	41018e02 	tstmi	r1, r2, lsl #28
  bc:	0d41100e 	stcleq	0, cr1, [r1, #-56]	; 0xffffffc8
  c0:	080e4607 	stmdaeq	lr, {r0, r1, r2, r9, sl, lr}
  c4:	000d0d41 	andeq	r0, sp, r1, asr #26
  c8:	00000020 	andeq	r0, r0, r0, lsr #32
	...
  d4:	00000016 	andeq	r0, r0, r6, lsl r0
  d8:	87080e41 	strhi	r0, [r8, -r1, asr #28]
  dc:	41018e02 	tstmi	r1, r2, lsl #28
  e0:	0d41100e 	stcleq	0, cr1, [r1, #-56]	; 0xffffffc8
  e4:	080e4607 	stmdaeq	lr, {r0, r1, r2, r9, sl, lr}
  e8:	000d0d41 	andeq	r0, sp, r1, asr #26
  ec:	00000018 	andeq	r0, r0, r8, lsl r0
  f0:	00000000 	andeq	r0, r0, r0
  f4:	080004f8 	stmdaeq	r0, {r3, r4, r5, r6, r7, sl}
  f8:	00000024 	andeq	r0, r0, r4, lsr #32
  fc:	87080e41 	strhi	r0, [r8, -r1, asr #28]
 100:	41018e02 	tstmi	r1, r2, lsl #28
 104:	0000070d 	andeq	r0, r0, sp, lsl #14
 108:	00000018 	andeq	r0, r0, r8, lsl r0
 10c:	00000000 	andeq	r0, r0, r0
 110:	0800051c 	stmdaeq	r0, {r2, r3, r4, r8, sl}
 114:	00000024 	andeq	r0, r0, r4, lsr #32
 118:	87080e41 	strhi	r0, [r8, -r1, asr #28]
 11c:	41018e02 	tstmi	r1, r2, lsl #28
 120:	0000070d 	andeq	r0, r0, sp, lsl #14
 124:	00000018 	andeq	r0, r0, r8, lsl r0
 128:	00000000 	andeq	r0, r0, r0
 12c:	08000540 	stmdaeq	r0, {r6, r8, sl}
 130:	00000024 	andeq	r0, r0, r4, lsr #32
 134:	87080e41 	strhi	r0, [r8, -r1, asr #28]
 138:	41018e02 	tstmi	r1, r2, lsl #28
 13c:	0000070d 	andeq	r0, r0, sp, lsl #14
 140:	00000018 	andeq	r0, r0, r8, lsl r0
 144:	00000000 	andeq	r0, r0, r0
 148:	08000564 	stmdaeq	r0, {r2, r5, r6, r8, sl}
 14c:	00000024 	andeq	r0, r0, r4, lsr #32
 150:	87080e41 	strhi	r0, [r8, -r1, asr #28]
 154:	41018e02 	tstmi	r1, r2, lsl #28
 158:	0000070d 	andeq	r0, r0, sp, lsl #14
 15c:	00000018 	andeq	r0, r0, r8, lsl r0
 160:	00000000 	andeq	r0, r0, r0
 164:	08000588 	stmdaeq	r0, {r3, r7, r8, sl}
 168:	00000024 	andeq	r0, r0, r4, lsr #32
 16c:	87080e41 	strhi	r0, [r8, -r1, asr #28]
 170:	41018e02 	tstmi	r1, r2, lsl #28
 174:	0000070d 	andeq	r0, r0, sp, lsl #14
 178:	00000018 	andeq	r0, r0, r8, lsl r0
 17c:	00000000 	andeq	r0, r0, r0
 180:	080005ac 	stmdaeq	r0, {r2, r3, r5, r7, r8, sl}
 184:	000000a8 	andeq	r0, r0, r8, lsr #1
 188:	87080e41 	strhi	r0, [r8, -r1, asr #28]
 18c:	41018e02 	tstmi	r1, r2, lsl #28
 190:	0000070d 	andeq	r0, r0, sp, lsl #14
 194:	00000018 	andeq	r0, r0, r8, lsl r0
 198:	00000000 	andeq	r0, r0, r0
 19c:	08000654 	stmdaeq	r0, {r2, r4, r6, r9, sl}
 1a0:	000000c4 	andeq	r0, r0, r4, asr #1
 1a4:	87080e41 	strhi	r0, [r8, -r1, asr #28]
 1a8:	41018e02 	tstmi	r1, r2, lsl #28
 1ac:	0000070d 	andeq	r0, r0, sp, lsl #14
 1b0:	0000000c 	andeq	r0, r0, ip
 1b4:	ffffffff 			; <UNDEFINED> instruction: 0xffffffff
 1b8:	7c020001 	stcvc	0, cr0, [r2], {1}
 1bc:	000d0c0e 	andeq	r0, sp, lr, lsl #24
 1c0:	00000024 	andeq	r0, r0, r4, lsr #32
 1c4:	000001b0 			; <UNDEFINED> instruction: 0x000001b0
 1c8:	08000718 	stmdaeq	r0, {r3, r4, r8, r9, sl}
 1cc:	0000016e 	andeq	r0, r0, lr, ror #2
 1d0:	87040e41 	strhi	r0, [r4, -r1, asr #28]
 1d4:	100e4101 	andne	r4, lr, r1, lsl #2
 1d8:	02070d41 	andeq	r0, r7, #4160	; 0x1040
 1dc:	41040eb1 			; <UNDEFINED> instruction: 0x41040eb1
 1e0:	c7410d0d 	strbgt	r0, [r1, -sp, lsl #26]
 1e4:	0000000e 	andeq	r0, r0, lr
 1e8:	00000024 	andeq	r0, r0, r4, lsr #32
 1ec:	000001b0 			; <UNDEFINED> instruction: 0x000001b0
 1f0:	08000888 	stmdaeq	r0, {r3, r7, fp}
 1f4:	00000154 	andeq	r0, r0, r4, asr r1
 1f8:	840c0e41 	strhi	r0, [ip], #-3649	; 0xfffff1bf
 1fc:	8e028703 	cdphi	7, 0, cr8, cr2, cr3, {0}
 200:	200e4101 	andcs	r4, lr, r1, lsl #2
 204:	02070d41 	andeq	r0, r7, #4160	; 0x1040
 208:	410c0ea5 	smlatbmi	ip, r5, lr, r0
 20c:	00000d0d 	andeq	r0, r0, sp, lsl #26
 210:	00000024 	andeq	r0, r0, r4, lsr #32
 214:	000001b0 			; <UNDEFINED> instruction: 0x000001b0
 218:	00000000 	andeq	r0, r0, r0
 21c:	000000d4 	ldrdeq	r0, [r0], -r4
 220:	87040e41 	strhi	r0, [r4, -r1, asr #28]
 224:	100e4101 	andne	r4, lr, r1, lsl #2
 228:	02070d41 	andeq	r0, r7, #4160	; 0x1040
 22c:	41040e57 	tstmi	r4, r7, asr lr
 230:	c7410d0d 	strbgt	r0, [r1, -sp, lsl #26]
 234:	0000000e 	andeq	r0, r0, lr
 238:	00000024 	andeq	r0, r0, r4, lsr #32
 23c:	000001b0 			; <UNDEFINED> instruction: 0x000001b0
 240:	00000000 	andeq	r0, r0, r0
 244:	0000002e 	andeq	r0, r0, lr, lsr #32
 248:	87040e41 	strhi	r0, [r4, -r1, asr #28]
 24c:	180e4101 	stmdane	lr, {r0, r8, lr}
 250:	51070d41 	tstpl	r7, r1, asr #26
 254:	0d41040e 	cfstrdeq	mvd0, [r1, #-56]	; 0xffffffc8
 258:	0ec7410d 	poleqs	f4, f7, #5.0
 25c:	00000000 	andeq	r0, r0, r0
 260:	00000024 	andeq	r0, r0, r4, lsr #32
 264:	000001b0 			; <UNDEFINED> instruction: 0x000001b0
 268:	00000000 	andeq	r0, r0, r0
 26c:	0000001a 	andeq	r0, r0, sl, lsl r0
 270:	87040e41 	strhi	r0, [r4, -r1, asr #28]
 274:	180e4101 	stmdane	lr, {r0, r8, lr}
 278:	47070d41 	strmi	r0, [r7, -r1, asr #26]
 27c:	0d41040e 	cfstrdeq	mvd0, [r1, #-56]	; 0xffffffc8
 280:	0ec7410d 	poleqs	f4, f7, #5.0
 284:	00000000 	andeq	r0, r0, r0
 288:	00000024 	andeq	r0, r0, r4, lsr #32
 28c:	000001b0 			; <UNDEFINED> instruction: 0x000001b0
 290:	00000000 	andeq	r0, r0, r0
 294:	0000001c 	andeq	r0, r0, ip, lsl r0
 298:	87040e41 	strhi	r0, [r4, -r1, asr #28]
 29c:	100e4101 	andne	r4, lr, r1, lsl #2
 2a0:	48070d41 	stmdami	r7, {r0, r6, r8, sl, fp}
 2a4:	0d41040e 	cfstrdeq	mvd0, [r1, #-56]	; 0xffffffc8
 2a8:	0ec7410d 	poleqs	f4, f7, #5.0
 2ac:	00000000 	andeq	r0, r0, r0
 2b0:	00000024 	andeq	r0, r0, r4, lsr #32
 2b4:	000001b0 			; <UNDEFINED> instruction: 0x000001b0
 2b8:	00000000 	andeq	r0, r0, r0
 2bc:	0000002e 	andeq	r0, r0, lr, lsr #32
 2c0:	87040e41 	strhi	r0, [r4, -r1, asr #28]
 2c4:	100e4101 	andne	r4, lr, r1, lsl #2
 2c8:	51070d41 	tstpl	r7, r1, asr #26
 2cc:	0d41040e 	cfstrdeq	mvd0, [r1, #-56]	; 0xffffffc8
 2d0:	0ec7410d 	poleqs	f4, f7, #5.0
 2d4:	00000000 	andeq	r0, r0, r0
 2d8:	00000024 	andeq	r0, r0, r4, lsr #32
 2dc:	000001b0 			; <UNDEFINED> instruction: 0x000001b0
 2e0:	00000000 	andeq	r0, r0, r0
 2e4:	00000022 	andeq	r0, r0, r2, lsr #32
 2e8:	87040e41 	strhi	r0, [r4, -r1, asr #28]
 2ec:	100e4101 	andne	r4, lr, r1, lsl #2
 2f0:	4b070d41 	blmi	1c37fc <_Min_Stack_Size+0x1c33fc>
 2f4:	0d41040e 	cfstrdeq	mvd0, [r1, #-56]	; 0xffffffc8
 2f8:	0ec7410d 	poleqs	f4, f7, #5.0
 2fc:	00000000 	andeq	r0, r0, r0
 300:	00000024 	andeq	r0, r0, r4, lsr #32
 304:	000001b0 			; <UNDEFINED> instruction: 0x000001b0
 308:	00000000 	andeq	r0, r0, r0
 30c:	0000004e 	andeq	r0, r0, lr, asr #32
 310:	87040e41 	strhi	r0, [r4, -r1, asr #28]
 314:	180e4101 	stmdane	lr, {r0, r8, lr}
 318:	61070d41 	tstvs	r7, r1, asr #26
 31c:	0d41040e 	cfstrdeq	mvd0, [r1, #-56]	; 0xffffffc8
 320:	0ec7410d 	poleqs	f4, f7, #5.0
 324:	00000000 	andeq	r0, r0, r0
 328:	0000000c 	andeq	r0, r0, ip
 32c:	ffffffff 			; <UNDEFINED> instruction: 0xffffffff
 330:	7c020001 	stcvc	0, cr0, [r2], {1}
 334:	000d0c0e 	andeq	r0, sp, lr, lsl #24
 338:	00000024 	andeq	r0, r0, r4, lsr #32
 33c:	00000328 	andeq	r0, r0, r8, lsr #6
 340:	080009dc 	stmdaeq	r0, {r2, r3, r4, r6, r7, r8, fp}
 344:	00000040 	andeq	r0, r0, r0, asr #32
 348:	87040e41 	strhi	r0, [r4, -r1, asr #28]
 34c:	100e4101 	andne	r4, lr, r1, lsl #2
 350:	5a070d41 	bpl	1c385c <_Min_Stack_Size+0x1c345c>
 354:	0d41040e 	cfstrdeq	mvd0, [r1, #-56]	; 0xffffffc8
 358:	0ec7410d 	poleqs	f4, f7, #5.0
 35c:	00000000 	andeq	r0, r0, r0
 360:	00000018 	andeq	r0, r0, r8, lsl r0
 364:	00000328 	andeq	r0, r0, r8, lsr #6
 368:	08000a1c 	stmdaeq	r0, {r2, r3, r4, r9, fp}
 36c:	0000000e 	andeq	r0, r0, lr
 370:	87080e41 	strhi	r0, [r8, -r1, asr #28]
 374:	41018e02 	tstmi	r1, r2, lsl #28
 378:	0000070d 	andeq	r0, r0, sp, lsl #14
 37c:	0000001c 	andeq	r0, r0, ip, lsl r0
 380:	00000328 	andeq	r0, r0, r8, lsr #6
 384:	08000a2c 	stmdaeq	r0, {r2, r3, r5, r9, fp}
 388:	00000050 	andeq	r0, r0, r0, asr r0
 38c:	87040e41 	strhi	r0, [r4, -r1, asr #28]
 390:	070d4101 	streq	r4, [sp, -r1, lsl #2]
 394:	410d0d5d 	tstmi	sp, sp, asr sp
 398:	00000ec7 	andeq	r0, r0, r7, asr #29
 39c:	00000024 	andeq	r0, r0, r4, lsr #32
 3a0:	00000328 	andeq	r0, r0, r8, lsr #6
 3a4:	08000a7c 	stmdaeq	r0, {r2, r3, r4, r5, r6, r9, fp}
 3a8:	00000020 	andeq	r0, r0, r0, lsr #32
 3ac:	87040e41 	strhi	r0, [r4, -r1, asr #28]
 3b0:	180e4101 	stmdane	lr, {r0, r8, lr}
 3b4:	4a070d41 	bmi	1c38c0 <_Min_Stack_Size+0x1c34c0>
 3b8:	0d41040e 	cfstrdeq	mvd0, [r1, #-56]	; 0xffffffc8
 3bc:	0ec7410d 	poleqs	f4, f7, #5.0
 3c0:	00000000 	andeq	r0, r0, r0
 3c4:	00000024 	andeq	r0, r0, r4, lsr #32
 3c8:	00000328 	andeq	r0, r0, r8, lsr #6
 3cc:	08000a9c 	stmdaeq	r0, {r2, r3, r4, r7, r9, fp}
 3d0:	00000026 	andeq	r0, r0, r6, lsr #32
 3d4:	87040e41 	strhi	r0, [r4, -r1, asr #28]
 3d8:	180e4101 	stmdane	lr, {r0, r8, lr}
 3dc:	4d070d41 	stcmi	13, cr0, [r7, #-260]	; 0xfffffefc
 3e0:	0d41040e 	cfstrdeq	mvd0, [r1, #-56]	; 0xffffffc8
 3e4:	0ec7410d 	poleqs	f4, f7, #5.0
 3e8:	00000000 	andeq	r0, r0, r0
 3ec:	00000018 	andeq	r0, r0, r8, lsl r0
 3f0:	00000328 	andeq	r0, r0, r8, lsr #6
 3f4:	08000ac4 	stmdaeq	r0, {r2, r6, r7, r9, fp}
 3f8:	000000f8 	strdeq	r0, [r0], -r8
 3fc:	87080e41 	strhi	r0, [r8, -r1, asr #28]
 400:	41018e02 	tstmi	r1, r2, lsl #28
 404:	0000070d 	andeq	r0, r0, sp, lsl #14
 408:	0000001c 	andeq	r0, r0, ip, lsl r0
 40c:	00000328 	andeq	r0, r0, r8, lsr #6
 410:	08000bbc 	stmdaeq	r0, {r2, r3, r4, r5, r7, r8, r9, fp}
 414:	00000064 	andeq	r0, r0, r4, rrx
 418:	87080e41 	strhi	r0, [r8, -r1, asr #28]
 41c:	41018e02 	tstmi	r1, r2, lsl #28
 420:	0d41280e 	stcleq	8, cr2, [r1, #-56]	; 0xffffffc8
 424:	00000007 	andeq	r0, r0, r7
 428:	0000000c 	andeq	r0, r0, ip
 42c:	ffffffff 			; <UNDEFINED> instruction: 0xffffffff
 430:	7c020001 	stcvc	0, cr0, [r2], {1}
 434:	000d0c0e 	andeq	r0, sp, lr, lsl #24
 438:	00000018 	andeq	r0, r0, r8, lsl r0
 43c:	00000428 	andeq	r0, r0, r8, lsr #8
 440:	08000c74 	stmdaeq	r0, {r2, r4, r5, r6, sl, fp}
 444:	00000048 	andeq	r0, r0, r8, asr #32
 448:	84100e41 	ldrhi	r0, [r0], #-3649	; 0xfffff1bf
 44c:	86038504 	strhi	r8, [r3], -r4, lsl #10
 450:	00018e02 	andeq	r8, r1, r2, lsl #28
