
cortex_m4_lab4.elf:     file format elf32-littlearm


Disassembly of section .text:

00000000 <g_p_fn_vectors>:
   0:	20000404 	andcs	r0, r0, r4, lsl #8
   4:	00000149 	andeq	r0, r0, r9, asr #2
   8:	0000013d 	andeq	r0, r0, sp, lsr r1
   c:	0000013d 	andeq	r0, r0, sp, lsr r1
  10:	0000013d 	andeq	r0, r0, sp, lsr r1
  14:	0000013d 	andeq	r0, r0, sp, lsr r1
  18:	0000013d 	andeq	r0, r0, sp, lsr r1

0000001c <main>:
  1c:	b480      	push	{r7}
  1e:	af00      	add	r7, sp, #0
  20:	f24e 1308 	movw	r3, #57608	; 0xe108
  24:	f2c4 030f 	movt	r3, #16399	; 0x400f
  28:	f04f 0220 	mov.w	r2, #32
  2c:	601a      	str	r2, [r3, #0]
  2e:	f240 0300 	movw	r3, #0
  32:	f2c2 0300 	movt	r3, #8192	; 0x2000
  36:	f04f 0200 	mov.w	r2, #0
  3a:	601a      	str	r2, [r3, #0]
  3c:	e00b      	b.n	56 <main+0x3a>
  3e:	f240 0300 	movw	r3, #0
  42:	f2c2 0300 	movt	r3, #8192	; 0x2000
  46:	681b      	ldr	r3, [r3, #0]
  48:	f103 0201 	add.w	r2, r3, #1
  4c:	f240 0300 	movw	r3, #0
  50:	f2c2 0300 	movt	r3, #8192	; 0x2000
  54:	601a      	str	r2, [r3, #0]
  56:	f240 0300 	movw	r3, #0
  5a:	f2c2 0300 	movt	r3, #8192	; 0x2000
  5e:	681b      	ldr	r3, [r3, #0]
  60:	2bc7      	cmp	r3, #199	; 0xc7
  62:	d9ec      	bls.n	3e <main+0x22>
  64:	f44f 43a8 	mov.w	r3, #21504	; 0x5400
  68:	f2c4 0302 	movt	r3, #16386	; 0x4002
  6c:	f44f 42a8 	mov.w	r2, #21504	; 0x5400
  70:	f2c4 0202 	movt	r2, #16386	; 0x4002
  74:	6812      	ldr	r2, [r2, #0]
  76:	f042 0208 	orr.w	r2, r2, #8
  7a:	601a      	str	r2, [r3, #0]
  7c:	f245 531c 	movw	r3, #21788	; 0x551c
  80:	f2c4 0302 	movt	r3, #16386	; 0x4002
  84:	f245 521c 	movw	r2, #21788	; 0x551c
  88:	f2c4 0202 	movt	r2, #16386	; 0x4002
  8c:	6812      	ldr	r2, [r2, #0]
  8e:	f042 0208 	orr.w	r2, r2, #8
  92:	601a      	str	r2, [r3, #0]
  94:	f245 33fc 	movw	r3, #21500	; 0x53fc
  98:	f2c4 0302 	movt	r3, #16386	; 0x4002
  9c:	f245 32fc 	movw	r2, #21500	; 0x53fc
  a0:	f2c4 0202 	movt	r2, #16386	; 0x4002
  a4:	6812      	ldr	r2, [r2, #0]
  a6:	f042 0208 	orr.w	r2, r2, #8
  aa:	601a      	str	r2, [r3, #0]
  ac:	f240 0300 	movw	r3, #0
  b0:	f2c2 0300 	movt	r3, #8192	; 0x2000
  b4:	f04f 0200 	mov.w	r2, #0
  b8:	601a      	str	r2, [r3, #0]
  ba:	e00b      	b.n	d4 <main+0xb8>
  bc:	f240 0300 	movw	r3, #0
  c0:	f2c2 0300 	movt	r3, #8192	; 0x2000
  c4:	681b      	ldr	r3, [r3, #0]
  c6:	f103 0201 	add.w	r2, r3, #1
  ca:	f240 0300 	movw	r3, #0
  ce:	f2c2 0300 	movt	r3, #8192	; 0x2000
  d2:	601a      	str	r2, [r3, #0]
  d4:	f240 0300 	movw	r3, #0
  d8:	f2c2 0300 	movt	r3, #8192	; 0x2000
  dc:	681a      	ldr	r2, [r3, #0]
  de:	f644 631f 	movw	r3, #19999	; 0x4e1f
  e2:	429a      	cmp	r2, r3
  e4:	d9ea      	bls.n	bc <main+0xa0>
  e6:	f245 33fc 	movw	r3, #21500	; 0x53fc
  ea:	f2c4 0302 	movt	r3, #16386	; 0x4002
  ee:	f245 32fc 	movw	r2, #21500	; 0x53fc
  f2:	f2c4 0202 	movt	r2, #16386	; 0x4002
  f6:	6812      	ldr	r2, [r2, #0]
  f8:	f022 0208 	bic.w	r2, r2, #8
  fc:	601a      	str	r2, [r3, #0]
  fe:	f240 0300 	movw	r3, #0
 102:	f2c2 0300 	movt	r3, #8192	; 0x2000
 106:	f04f 0200 	mov.w	r2, #0
 10a:	601a      	str	r2, [r3, #0]
 10c:	e00b      	b.n	126 <main+0x10a>
 10e:	f240 0300 	movw	r3, #0
 112:	f2c2 0300 	movt	r3, #8192	; 0x2000
 116:	681b      	ldr	r3, [r3, #0]
 118:	f103 0201 	add.w	r2, r3, #1
 11c:	f240 0300 	movw	r3, #0
 120:	f2c2 0300 	movt	r3, #8192	; 0x2000
 124:	601a      	str	r2, [r3, #0]
 126:	f240 0300 	movw	r3, #0
 12a:	f2c2 0300 	movt	r3, #8192	; 0x2000
 12e:	681a      	ldr	r2, [r3, #0]
 130:	f247 532f 	movw	r3, #29999	; 0x752f
 134:	429a      	cmp	r2, r3
 136:	d9ea      	bls.n	10e <main+0xf2>
 138:	e7ac      	b.n	94 <main+0x78>
 13a:	bf00      	nop

0000013c <Default_Hundler>:
 13c:	b580      	push	{r7, lr}
 13e:	af00      	add	r7, sp, #0
 140:	f000 f802 	bl	148 <Reset_Hundler>
 144:	bd80      	pop	{r7, pc}
 146:	bf00      	nop

00000148 <Reset_Hundler>:
 148:	b580      	push	{r7, lr}
 14a:	b086      	sub	sp, #24
 14c:	af00      	add	r7, sp, #0
 14e:	f240 0200 	movw	r2, #0
 152:	f2c2 0200 	movt	r2, #8192	; 0x2000
 156:	f240 0300 	movw	r3, #0
 15a:	f2c2 0300 	movt	r3, #8192	; 0x2000
 15e:	1ad3      	subs	r3, r2, r3
 160:	60bb      	str	r3, [r7, #8]
 162:	f240 13f8 	movw	r3, #504	; 0x1f8
 166:	f2c0 0300 	movt	r3, #0
 16a:	617b      	str	r3, [r7, #20]
 16c:	f240 0300 	movw	r3, #0
 170:	f2c2 0300 	movt	r3, #8192	; 0x2000
 174:	613b      	str	r3, [r7, #16]
 176:	f04f 0300 	mov.w	r3, #0
 17a:	60fb      	str	r3, [r7, #12]
 17c:	e00f      	b.n	19e <Reset_Hundler+0x56>
 17e:	697b      	ldr	r3, [r7, #20]
 180:	781a      	ldrb	r2, [r3, #0]
 182:	693b      	ldr	r3, [r7, #16]
 184:	701a      	strb	r2, [r3, #0]
 186:	693b      	ldr	r3, [r7, #16]
 188:	f103 0301 	add.w	r3, r3, #1
 18c:	613b      	str	r3, [r7, #16]
 18e:	697b      	ldr	r3, [r7, #20]
 190:	f103 0301 	add.w	r3, r3, #1
 194:	617b      	str	r3, [r7, #20]
 196:	68fb      	ldr	r3, [r7, #12]
 198:	f103 0301 	add.w	r3, r3, #1
 19c:	60fb      	str	r3, [r7, #12]
 19e:	68fa      	ldr	r2, [r7, #12]
 1a0:	68bb      	ldr	r3, [r7, #8]
 1a2:	429a      	cmp	r2, r3
 1a4:	d3eb      	bcc.n	17e <Reset_Hundler+0x36>
 1a6:	f240 4204 	movw	r2, #1028	; 0x404
 1aa:	f2c2 0200 	movt	r2, #8192	; 0x2000
 1ae:	f240 0300 	movw	r3, #0
 1b2:	f2c2 0300 	movt	r3, #8192	; 0x2000
 1b6:	1ad3      	subs	r3, r2, r3
 1b8:	607b      	str	r3, [r7, #4]
 1ba:	f240 0300 	movw	r3, #0
 1be:	f2c2 0300 	movt	r3, #8192	; 0x2000
 1c2:	613b      	str	r3, [r7, #16]
 1c4:	f04f 0300 	mov.w	r3, #0
 1c8:	60fb      	str	r3, [r7, #12]
 1ca:	e00b      	b.n	1e4 <Reset_Hundler+0x9c>
 1cc:	693b      	ldr	r3, [r7, #16]
 1ce:	f04f 0200 	mov.w	r2, #0
 1d2:	701a      	strb	r2, [r3, #0]
 1d4:	693b      	ldr	r3, [r7, #16]
 1d6:	f103 0301 	add.w	r3, r3, #1
 1da:	613b      	str	r3, [r7, #16]
 1dc:	68fb      	ldr	r3, [r7, #12]
 1de:	f103 0301 	add.w	r3, r3, #1
 1e2:	60fb      	str	r3, [r7, #12]
 1e4:	68fa      	ldr	r2, [r7, #12]
 1e6:	687b      	ldr	r3, [r7, #4]
 1e8:	429a      	cmp	r2, r3
 1ea:	d3ef      	bcc.n	1cc <Reset_Hundler+0x84>
 1ec:	f7ff ff16 	bl	1c <main>
 1f0:	f107 0718 	add.w	r7, r7, #24
 1f4:	46bd      	mov	sp, r7
 1f6:	bd80      	pop	{r7, pc}
