
lect3.axf:     file format elf32-littlearm


Disassembly of section .isr_vector:

08000000 <g_pfnVectors>:
 8000000:	20005000 	andcs	r5, r0, r0
 8000004:	08000aa9 	stmdaeq	r0, {r0, r3, r5, r7, r9, fp}
 8000008:	08000af9 	stmdaeq	r0, {r0, r3, r4, r5, r6, r7, r9, fp}
 800000c:	080009dd 	stmdaeq	r0, {r0, r2, r3, r4, r6, r7, r8, fp}
 8000010:	08000af9 	stmdaeq	r0, {r0, r3, r4, r5, r6, r7, r9, fp}
 8000014:	08000af9 	stmdaeq	r0, {r0, r3, r4, r5, r6, r7, r9, fp}
 8000018:	08000af9 	stmdaeq	r0, {r0, r3, r4, r5, r6, r7, r9, fp}
	...
 800002c:	08000af9 	stmdaeq	r0, {r0, r3, r4, r5, r6, r7, r9, fp}
 8000030:	08000af9 	stmdaeq	r0, {r0, r3, r4, r5, r6, r7, r9, fp}
 8000034:	00000000 	andeq	r0, r0, r0
 8000038:	08000af9 	stmdaeq	r0, {r0, r3, r4, r5, r6, r7, r9, fp}
 800003c:	08000af9 	stmdaeq	r0, {r0, r3, r4, r5, r6, r7, r9, fp}
 8000040:	08000af9 	stmdaeq	r0, {r0, r3, r4, r5, r6, r7, r9, fp}
 8000044:	08000af9 	stmdaeq	r0, {r0, r3, r4, r5, r6, r7, r9, fp}
 8000048:	08000af9 	stmdaeq	r0, {r0, r3, r4, r5, r6, r7, r9, fp}
 800004c:	08000af9 	stmdaeq	r0, {r0, r3, r4, r5, r6, r7, r9, fp}
 8000050:	08000af9 	stmdaeq	r0, {r0, r3, r4, r5, r6, r7, r9, fp}
 8000054:	08000af9 	stmdaeq	r0, {r0, r3, r4, r5, r6, r7, r9, fp}
 8000058:	080004f9 	stmdaeq	r0, {r0, r3, r4, r5, r6, r7, sl}
 800005c:	0800051d 	stmdaeq	r0, {r0, r2, r3, r4, r8, sl}
 8000060:	08000541 	stmdaeq	r0, {r0, r6, r8, sl}
 8000064:	08000565 	stmdaeq	r0, {r0, r2, r5, r6, r8, sl}
 8000068:	08000589 	stmdaeq	r0, {r0, r3, r7, r8, sl}
 800006c:	08000af9 	stmdaeq	r0, {r0, r3, r4, r5, r6, r7, r9, fp}
 8000070:	08000af9 	stmdaeq	r0, {r0, r3, r4, r5, r6, r7, r9, fp}
 8000074:	08000af9 	stmdaeq	r0, {r0, r3, r4, r5, r6, r7, r9, fp}
 8000078:	08000af9 	stmdaeq	r0, {r0, r3, r4, r5, r6, r7, r9, fp}
 800007c:	08000af9 	stmdaeq	r0, {r0, r3, r4, r5, r6, r7, r9, fp}
 8000080:	08000af9 	stmdaeq	r0, {r0, r3, r4, r5, r6, r7, r9, fp}
 8000084:	08000af9 	stmdaeq	r0, {r0, r3, r4, r5, r6, r7, r9, fp}
 8000088:	08000af9 	stmdaeq	r0, {r0, r3, r4, r5, r6, r7, r9, fp}
 800008c:	08000af9 	stmdaeq	r0, {r0, r3, r4, r5, r6, r7, r9, fp}
 8000090:	08000af9 	stmdaeq	r0, {r0, r3, r4, r5, r6, r7, r9, fp}
 8000094:	08000af9 	stmdaeq	r0, {r0, r3, r4, r5, r6, r7, r9, fp}
 8000098:	08000af9 	stmdaeq	r0, {r0, r3, r4, r5, r6, r7, r9, fp}
 800009c:	080005ad 	stmdaeq	r0, {r0, r2, r3, r5, r7, r8, sl}
 80000a0:	08000af9 	stmdaeq	r0, {r0, r3, r4, r5, r6, r7, r9, fp}
 80000a4:	08000af9 	stmdaeq	r0, {r0, r3, r4, r5, r6, r7, r9, fp}
 80000a8:	08000af9 	stmdaeq	r0, {r0, r3, r4, r5, r6, r7, r9, fp}
 80000ac:	08000af9 	stmdaeq	r0, {r0, r3, r4, r5, r6, r7, r9, fp}
 80000b0:	08000af9 	stmdaeq	r0, {r0, r3, r4, r5, r6, r7, r9, fp}
 80000b4:	08000af9 	stmdaeq	r0, {r0, r3, r4, r5, r6, r7, r9, fp}
 80000b8:	08000af9 	stmdaeq	r0, {r0, r3, r4, r5, r6, r7, r9, fp}
 80000bc:	08000af9 	stmdaeq	r0, {r0, r3, r4, r5, r6, r7, r9, fp}
 80000c0:	08000af9 	stmdaeq	r0, {r0, r3, r4, r5, r6, r7, r9, fp}
 80000c4:	08000af9 	stmdaeq	r0, {r0, r3, r4, r5, r6, r7, r9, fp}
 80000c8:	08000af9 	stmdaeq	r0, {r0, r3, r4, r5, r6, r7, r9, fp}
 80000cc:	08000af9 	stmdaeq	r0, {r0, r3, r4, r5, r6, r7, r9, fp}
 80000d0:	08000af9 	stmdaeq	r0, {r0, r3, r4, r5, r6, r7, r9, fp}
 80000d4:	08000af9 	stmdaeq	r0, {r0, r3, r4, r5, r6, r7, r9, fp}
 80000d8:	08000af9 	stmdaeq	r0, {r0, r3, r4, r5, r6, r7, r9, fp}
 80000dc:	08000af9 	stmdaeq	r0, {r0, r3, r4, r5, r6, r7, r9, fp}
 80000e0:	08000655 	stmdaeq	r0, {r0, r2, r4, r6, r9, sl}
 80000e4:	08000af9 	stmdaeq	r0, {r0, r3, r4, r5, r6, r7, r9, fp}
 80000e8:	00000000 	andeq	r0, r0, r0
 80000ec:	08000af9 	stmdaeq	r0, {r0, r3, r4, r5, r6, r7, r9, fp}
 80000f0:	08000af9 	stmdaeq	r0, {r0, r3, r4, r5, r6, r7, r9, fp}
 80000f4:	08000af9 	stmdaeq	r0, {r0, r3, r4, r5, r6, r7, r9, fp}
 80000f8:	08000af9 	stmdaeq	r0, {r0, r3, r4, r5, r6, r7, r9, fp}
 80000fc:	08000af9 	stmdaeq	r0, {r0, r3, r4, r5, r6, r7, r9, fp}
 8000100:	08000af9 	stmdaeq	r0, {r0, r3, r4, r5, r6, r7, r9, fp}
 8000104:	08000af9 	stmdaeq	r0, {r0, r3, r4, r5, r6, r7, r9, fp}
 8000108:	08000af9 	stmdaeq	r0, {r0, r3, r4, r5, r6, r7, r9, fp}
 800010c:	08000af9 	stmdaeq	r0, {r0, r3, r4, r5, r6, r7, r9, fp}
 8000110:	08000af9 	stmdaeq	r0, {r0, r3, r4, r5, r6, r7, r9, fp}
 8000114:	08000af9 	stmdaeq	r0, {r0, r3, r4, r5, r6, r7, r9, fp}
 8000118:	08000af9 	stmdaeq	r0, {r0, r3, r4, r5, r6, r7, r9, fp}
 800011c:	08000af9 	stmdaeq	r0, {r0, r3, r4, r5, r6, r7, r9, fp}
 8000120:	08000af9 	stmdaeq	r0, {r0, r3, r4, r5, r6, r7, r9, fp}
 8000124:	08000af9 	stmdaeq	r0, {r0, r3, r4, r5, r6, r7, r9, fp}
 8000128:	08000af9 	stmdaeq	r0, {r0, r3, r4, r5, r6, r7, r9, fp}
 800012c:	08000af9 	stmdaeq	r0, {r0, r3, r4, r5, r6, r7, r9, fp}

Disassembly of section .text:

08000130 <__do_global_dtors_aux>:
 8000130:	b510      	push	{r4, lr}
 8000132:	4c05      	ldr	r4, [pc, #20]	; (8000148 <__do_global_dtors_aux+0x18>)
 8000134:	7823      	ldrb	r3, [r4, #0]
 8000136:	b933      	cbnz	r3, 8000146 <__do_global_dtors_aux+0x16>
 8000138:	4b04      	ldr	r3, [pc, #16]	; (800014c <__do_global_dtors_aux+0x1c>)
 800013a:	b113      	cbz	r3, 8000142 <__do_global_dtors_aux+0x12>
 800013c:	4804      	ldr	r0, [pc, #16]	; (8000150 <__do_global_dtors_aux+0x20>)
 800013e:	f3af 8000 	nop.w
 8000142:	2301      	movs	r3, #1
 8000144:	7023      	strb	r3, [r4, #0]
 8000146:	bd10      	pop	{r4, pc}
 8000148:	20000000 	andcs	r0, r0, r0
 800014c:	00000000 	andeq	r0, r0, r0
 8000150:	08000b44 	stmdaeq	r0, {r2, r6, r8, r9, fp}

08000154 <frame_dummy>:
 8000154:	b508      	push	{r3, lr}
 8000156:	4b03      	ldr	r3, [pc, #12]	; (8000164 <frame_dummy+0x10>)
 8000158:	b11b      	cbz	r3, 8000162 <frame_dummy+0xe>
 800015a:	4903      	ldr	r1, [pc, #12]	; (8000168 <frame_dummy+0x14>)
 800015c:	4803      	ldr	r0, [pc, #12]	; (800016c <frame_dummy+0x18>)
 800015e:	f3af 8000 	nop.w
 8000162:	bd08      	pop	{r3, pc}
 8000164:	00000000 	andeq	r0, r0, r0
 8000168:	20000004 	andcs	r0, r0, r4
 800016c:	08000b44 	stmdaeq	r0, {r2, r6, r8, r9, fp}

08000170 <Enable_NVIC>:
 8000170:	b480      	push	{r7}
 8000172:	b083      	sub	sp, #12
 8000174:	af00      	add	r7, sp, #0
 8000176:	4603      	mov	r3, r0
 8000178:	80fb      	strh	r3, [r7, #6]
 800017a:	88fb      	ldrh	r3, [r7, #6]
 800017c:	2b0f      	cmp	r3, #15
 800017e:	d854      	bhi.n	800022a <Enable_NVIC+0xba>
 8000180:	a201      	add	r2, pc, #4	; (adr r2, 8000188 <Enable_NVIC+0x18>)
 8000182:	f852 f023 	ldr.w	pc, [r2, r3, lsl #2]
 8000186:	bf00      	nop
 8000188:	080001c9 	stmdaeq	r0, {r0, r3, r6, r7, r8}
 800018c:	080001d7 	stmdaeq	r0, {r0, r1, r2, r4, r6, r7, r8}
 8000190:	080001e5 	stmdaeq	r0, {r0, r2, r5, r6, r7, r8}
 8000194:	080001f3 	stmdaeq	r0, {r0, r1, r4, r5, r6, r7, r8}
 8000198:	08000201 	stmdaeq	r0, {r0, r9}
 800019c:	0800020f 	stmdaeq	r0, {r0, r1, r2, r3, r9}
 80001a0:	0800020f 	stmdaeq	r0, {r0, r1, r2, r3, r9}
 80001a4:	0800020f 	stmdaeq	r0, {r0, r1, r2, r3, r9}
 80001a8:	0800020f 	stmdaeq	r0, {r0, r1, r2, r3, r9}
 80001ac:	0800020f 	stmdaeq	r0, {r0, r1, r2, r3, r9}
 80001b0:	0800021d 	stmdaeq	r0, {r0, r2, r3, r4, r9}
 80001b4:	0800021d 	stmdaeq	r0, {r0, r2, r3, r4, r9}
 80001b8:	0800021d 	stmdaeq	r0, {r0, r2, r3, r4, r9}
 80001bc:	0800021d 	stmdaeq	r0, {r0, r2, r3, r4, r9}
 80001c0:	0800021d 	stmdaeq	r0, {r0, r2, r3, r4, r9}
 80001c4:	0800021d 	stmdaeq	r0, {r0, r2, r3, r4, r9}
 80001c8:	4b1a      	ldr	r3, [pc, #104]	; (8000234 <Enable_NVIC+0xc4>)
 80001ca:	681b      	ldr	r3, [r3, #0]
 80001cc:	4a19      	ldr	r2, [pc, #100]	; (8000234 <Enable_NVIC+0xc4>)
 80001ce:	f043 0340 	orr.w	r3, r3, #64	; 0x40
 80001d2:	6013      	str	r3, [r2, #0]
 80001d4:	e029      	b.n	800022a <Enable_NVIC+0xba>
 80001d6:	4b17      	ldr	r3, [pc, #92]	; (8000234 <Enable_NVIC+0xc4>)
 80001d8:	681b      	ldr	r3, [r3, #0]
 80001da:	4a16      	ldr	r2, [pc, #88]	; (8000234 <Enable_NVIC+0xc4>)
 80001dc:	f043 0380 	orr.w	r3, r3, #128	; 0x80
 80001e0:	6013      	str	r3, [r2, #0]
 80001e2:	e022      	b.n	800022a <Enable_NVIC+0xba>
 80001e4:	4b13      	ldr	r3, [pc, #76]	; (8000234 <Enable_NVIC+0xc4>)
 80001e6:	681b      	ldr	r3, [r3, #0]
 80001e8:	4a12      	ldr	r2, [pc, #72]	; (8000234 <Enable_NVIC+0xc4>)
 80001ea:	f443 7380 	orr.w	r3, r3, #256	; 0x100
 80001ee:	6013      	str	r3, [r2, #0]
 80001f0:	e01b      	b.n	800022a <Enable_NVIC+0xba>
 80001f2:	4b10      	ldr	r3, [pc, #64]	; (8000234 <Enable_NVIC+0xc4>)
 80001f4:	681b      	ldr	r3, [r3, #0]
 80001f6:	4a0f      	ldr	r2, [pc, #60]	; (8000234 <Enable_NVIC+0xc4>)
 80001f8:	f443 7300 	orr.w	r3, r3, #512	; 0x200
 80001fc:	6013      	str	r3, [r2, #0]
 80001fe:	e014      	b.n	800022a <Enable_NVIC+0xba>
 8000200:	4b0c      	ldr	r3, [pc, #48]	; (8000234 <Enable_NVIC+0xc4>)
 8000202:	681b      	ldr	r3, [r3, #0]
 8000204:	4a0b      	ldr	r2, [pc, #44]	; (8000234 <Enable_NVIC+0xc4>)
 8000206:	f443 6380 	orr.w	r3, r3, #1024	; 0x400
 800020a:	6013      	str	r3, [r2, #0]
 800020c:	e00d      	b.n	800022a <Enable_NVIC+0xba>
 800020e:	4b09      	ldr	r3, [pc, #36]	; (8000234 <Enable_NVIC+0xc4>)
 8000210:	681b      	ldr	r3, [r3, #0]
 8000212:	4a08      	ldr	r2, [pc, #32]	; (8000234 <Enable_NVIC+0xc4>)
 8000214:	f443 0300 	orr.w	r3, r3, #8388608	; 0x800000
 8000218:	6013      	str	r3, [r2, #0]
 800021a:	e006      	b.n	800022a <Enable_NVIC+0xba>
 800021c:	4b06      	ldr	r3, [pc, #24]	; (8000238 <Enable_NVIC+0xc8>)
 800021e:	681b      	ldr	r3, [r3, #0]
 8000220:	4a05      	ldr	r2, [pc, #20]	; (8000238 <Enable_NVIC+0xc8>)
 8000222:	f443 7380 	orr.w	r3, r3, #256	; 0x100
 8000226:	6013      	str	r3, [r2, #0]
 8000228:	bf00      	nop
 800022a:	bf00      	nop
 800022c:	370c      	adds	r7, #12
 800022e:	46bd      	mov	sp, r7
 8000230:	bc80      	pop	{r7}
 8000232:	4770      	bx	lr
 8000234:	e000e100 	and	lr, r0, r0, lsl #2
 8000238:	e000e104 	and	lr, r0, r4, lsl #2

0800023c <Disable_NVIC>:
 800023c:	b480      	push	{r7}
 800023e:	b083      	sub	sp, #12
 8000240:	af00      	add	r7, sp, #0
 8000242:	4603      	mov	r3, r0
 8000244:	80fb      	strh	r3, [r7, #6]
 8000246:	88fb      	ldrh	r3, [r7, #6]
 8000248:	2b0f      	cmp	r3, #15
 800024a:	d854      	bhi.n	80002f6 <Disable_NVIC+0xba>
 800024c:	a201      	add	r2, pc, #4	; (adr r2, 8000254 <Disable_NVIC+0x18>)
 800024e:	f852 f023 	ldr.w	pc, [r2, r3, lsl #2]
 8000252:	bf00      	nop
 8000254:	08000295 	stmdaeq	r0, {r0, r2, r4, r7, r9}
 8000258:	080002a3 	stmdaeq	r0, {r0, r1, r5, r7, r9}
 800025c:	080002b1 	stmdaeq	r0, {r0, r4, r5, r7, r9}
 8000260:	080002bf 	stmdaeq	r0, {r0, r1, r2, r3, r4, r5, r7, r9}
 8000264:	080002cd 	stmdaeq	r0, {r0, r2, r3, r6, r7, r9}
 8000268:	080002db 	stmdaeq	r0, {r0, r1, r3, r4, r6, r7, r9}
 800026c:	080002db 	stmdaeq	r0, {r0, r1, r3, r4, r6, r7, r9}
 8000270:	080002db 	stmdaeq	r0, {r0, r1, r3, r4, r6, r7, r9}
 8000274:	080002db 	stmdaeq	r0, {r0, r1, r3, r4, r6, r7, r9}
 8000278:	080002db 	stmdaeq	r0, {r0, r1, r3, r4, r6, r7, r9}
 800027c:	080002e9 	stmdaeq	r0, {r0, r3, r5, r6, r7, r9}
 8000280:	080002e9 	stmdaeq	r0, {r0, r3, r5, r6, r7, r9}
 8000284:	080002e9 	stmdaeq	r0, {r0, r3, r5, r6, r7, r9}
 8000288:	080002e9 	stmdaeq	r0, {r0, r3, r5, r6, r7, r9}
 800028c:	080002e9 	stmdaeq	r0, {r0, r3, r5, r6, r7, r9}
 8000290:	080002e9 	stmdaeq	r0, {r0, r3, r5, r6, r7, r9}
 8000294:	4b1a      	ldr	r3, [pc, #104]	; (8000300 <Disable_NVIC+0xc4>)
 8000296:	681b      	ldr	r3, [r3, #0]
 8000298:	4a19      	ldr	r2, [pc, #100]	; (8000300 <Disable_NVIC+0xc4>)
 800029a:	f043 0340 	orr.w	r3, r3, #64	; 0x40
 800029e:	6013      	str	r3, [r2, #0]
 80002a0:	e029      	b.n	80002f6 <Disable_NVIC+0xba>
 80002a2:	4b17      	ldr	r3, [pc, #92]	; (8000300 <Disable_NVIC+0xc4>)
 80002a4:	681b      	ldr	r3, [r3, #0]
 80002a6:	4a16      	ldr	r2, [pc, #88]	; (8000300 <Disable_NVIC+0xc4>)
 80002a8:	f043 0380 	orr.w	r3, r3, #128	; 0x80
 80002ac:	6013      	str	r3, [r2, #0]
 80002ae:	e022      	b.n	80002f6 <Disable_NVIC+0xba>
 80002b0:	4b13      	ldr	r3, [pc, #76]	; (8000300 <Disable_NVIC+0xc4>)
 80002b2:	681b      	ldr	r3, [r3, #0]
 80002b4:	4a12      	ldr	r2, [pc, #72]	; (8000300 <Disable_NVIC+0xc4>)
 80002b6:	f443 7380 	orr.w	r3, r3, #256	; 0x100
 80002ba:	6013      	str	r3, [r2, #0]
 80002bc:	e01b      	b.n	80002f6 <Disable_NVIC+0xba>
 80002be:	4b10      	ldr	r3, [pc, #64]	; (8000300 <Disable_NVIC+0xc4>)
 80002c0:	681b      	ldr	r3, [r3, #0]
 80002c2:	4a0f      	ldr	r2, [pc, #60]	; (8000300 <Disable_NVIC+0xc4>)
 80002c4:	f443 7300 	orr.w	r3, r3, #512	; 0x200
 80002c8:	6013      	str	r3, [r2, #0]
 80002ca:	e014      	b.n	80002f6 <Disable_NVIC+0xba>
 80002cc:	4b0c      	ldr	r3, [pc, #48]	; (8000300 <Disable_NVIC+0xc4>)
 80002ce:	681b      	ldr	r3, [r3, #0]
 80002d0:	4a0b      	ldr	r2, [pc, #44]	; (8000300 <Disable_NVIC+0xc4>)
 80002d2:	f443 6380 	orr.w	r3, r3, #1024	; 0x400
 80002d6:	6013      	str	r3, [r2, #0]
 80002d8:	e00d      	b.n	80002f6 <Disable_NVIC+0xba>
 80002da:	4b09      	ldr	r3, [pc, #36]	; (8000300 <Disable_NVIC+0xc4>)
 80002dc:	681b      	ldr	r3, [r3, #0]
 80002de:	4a08      	ldr	r2, [pc, #32]	; (8000300 <Disable_NVIC+0xc4>)
 80002e0:	f443 0300 	orr.w	r3, r3, #8388608	; 0x800000
 80002e4:	6013      	str	r3, [r2, #0]
 80002e6:	e006      	b.n	80002f6 <Disable_NVIC+0xba>
 80002e8:	4b06      	ldr	r3, [pc, #24]	; (8000304 <Disable_NVIC+0xc8>)
 80002ea:	681b      	ldr	r3, [r3, #0]
 80002ec:	4a05      	ldr	r2, [pc, #20]	; (8000304 <Disable_NVIC+0xc8>)
 80002ee:	f443 7380 	orr.w	r3, r3, #256	; 0x100
 80002f2:	6013      	str	r3, [r2, #0]
 80002f4:	bf00      	nop
 80002f6:	bf00      	nop
 80002f8:	370c      	adds	r7, #12
 80002fa:	46bd      	mov	sp, r7
 80002fc:	bc80      	pop	{r7}
 80002fe:	4770      	bx	lr
 8000300:	e000e180 	and	lr, r0, r0, lsl #3
 8000304:	e000e184 	and	lr, r0, r4, lsl #3

08000308 <Update_EXTI>:
 8000308:	b580      	push	{r7, lr}
 800030a:	b084      	sub	sp, #16
 800030c:	af00      	add	r7, sp, #0
 800030e:	6078      	str	r0, [r7, #4]
 8000310:	687b      	ldr	r3, [r7, #4]
 8000312:	891b      	ldrh	r3, [r3, #8]
 8000314:	813b      	strh	r3, [r7, #8]
 8000316:	2301      	movs	r3, #1
 8000318:	72bb      	strb	r3, [r7, #10]
 800031a:	687b      	ldr	r3, [r7, #4]
 800031c:	685b      	ldr	r3, [r3, #4]
 800031e:	f107 0208 	add.w	r2, r7, #8
 8000322:	4611      	mov	r1, r2
 8000324:	4618      	mov	r0, r3
 8000326:	f000 faaf 	bl	8000888 <MCAL_GPIO_Init>
 800032a:	687b      	ldr	r3, [r7, #4]
 800032c:	881b      	ldrh	r3, [r3, #0]
 800032e:	089b      	lsrs	r3, r3, #2
 8000330:	b29b      	uxth	r3, r3
 8000332:	73fb      	strb	r3, [r7, #15]
 8000334:	687b      	ldr	r3, [r7, #4]
 8000336:	881b      	ldrh	r3, [r3, #0]
 8000338:	b2db      	uxtb	r3, r3
 800033a:	f003 0303 	and.w	r3, r3, #3
 800033e:	b2db      	uxtb	r3, r3
 8000340:	009b      	lsls	r3, r3, #2
 8000342:	73bb      	strb	r3, [r7, #14]
 8000344:	4a5f      	ldr	r2, [pc, #380]	; (80004c4 <Update_EXTI+0x1bc>)
 8000346:	7bfb      	ldrb	r3, [r7, #15]
 8000348:	3302      	adds	r3, #2
 800034a:	f852 2023 	ldr.w	r2, [r2, r3, lsl #2]
 800034e:	7bbb      	ldrb	r3, [r7, #14]
 8000350:	210f      	movs	r1, #15
 8000352:	fa01 f303 	lsl.w	r3, r1, r3
 8000356:	43db      	mvns	r3, r3
 8000358:	4618      	mov	r0, r3
 800035a:	495a      	ldr	r1, [pc, #360]	; (80004c4 <Update_EXTI+0x1bc>)
 800035c:	7bfb      	ldrb	r3, [r7, #15]
 800035e:	4002      	ands	r2, r0
 8000360:	3302      	adds	r3, #2
 8000362:	f841 2023 	str.w	r2, [r1, r3, lsl #2]
 8000366:	4a57      	ldr	r2, [pc, #348]	; (80004c4 <Update_EXTI+0x1bc>)
 8000368:	7bfb      	ldrb	r3, [r7, #15]
 800036a:	3302      	adds	r3, #2
 800036c:	f852 2023 	ldr.w	r2, [r2, r3, lsl #2]
 8000370:	687b      	ldr	r3, [r7, #4]
 8000372:	685b      	ldr	r3, [r3, #4]
 8000374:	4954      	ldr	r1, [pc, #336]	; (80004c8 <Update_EXTI+0x1c0>)
 8000376:	428b      	cmp	r3, r1
 8000378:	d016      	beq.n	80003a8 <Update_EXTI+0xa0>
 800037a:	687b      	ldr	r3, [r7, #4]
 800037c:	685b      	ldr	r3, [r3, #4]
 800037e:	4953      	ldr	r1, [pc, #332]	; (80004cc <Update_EXTI+0x1c4>)
 8000380:	428b      	cmp	r3, r1
 8000382:	d00f      	beq.n	80003a4 <Update_EXTI+0x9c>
 8000384:	687b      	ldr	r3, [r7, #4]
 8000386:	685b      	ldr	r3, [r3, #4]
 8000388:	4951      	ldr	r1, [pc, #324]	; (80004d0 <Update_EXTI+0x1c8>)
 800038a:	428b      	cmp	r3, r1
 800038c:	d008      	beq.n	80003a0 <Update_EXTI+0x98>
 800038e:	687b      	ldr	r3, [r7, #4]
 8000390:	685b      	ldr	r3, [r3, #4]
 8000392:	4950      	ldr	r1, [pc, #320]	; (80004d4 <Update_EXTI+0x1cc>)
 8000394:	428b      	cmp	r3, r1
 8000396:	d101      	bne.n	800039c <Update_EXTI+0x94>
 8000398:	2303      	movs	r3, #3
 800039a:	e006      	b.n	80003aa <Update_EXTI+0xa2>
 800039c:	2300      	movs	r3, #0
 800039e:	e004      	b.n	80003aa <Update_EXTI+0xa2>
 80003a0:	2302      	movs	r3, #2
 80003a2:	e002      	b.n	80003aa <Update_EXTI+0xa2>
 80003a4:	2301      	movs	r3, #1
 80003a6:	e000      	b.n	80003aa <Update_EXTI+0xa2>
 80003a8:	2300      	movs	r3, #0
 80003aa:	7bb9      	ldrb	r1, [r7, #14]
 80003ac:	408b      	lsls	r3, r1
 80003ae:	4618      	mov	r0, r3
 80003b0:	4944      	ldr	r1, [pc, #272]	; (80004c4 <Update_EXTI+0x1bc>)
 80003b2:	7bfb      	ldrb	r3, [r7, #15]
 80003b4:	4302      	orrs	r2, r0
 80003b6:	3302      	adds	r3, #2
 80003b8:	f841 2023 	str.w	r2, [r1, r3, lsl #2]
 80003bc:	4b46      	ldr	r3, [pc, #280]	; (80004d8 <Update_EXTI+0x1d0>)
 80003be:	689b      	ldr	r3, [r3, #8]
 80003c0:	687a      	ldr	r2, [r7, #4]
 80003c2:	8812      	ldrh	r2, [r2, #0]
 80003c4:	4611      	mov	r1, r2
 80003c6:	2201      	movs	r2, #1
 80003c8:	408a      	lsls	r2, r1
 80003ca:	43d2      	mvns	r2, r2
 80003cc:	4611      	mov	r1, r2
 80003ce:	4a42      	ldr	r2, [pc, #264]	; (80004d8 <Update_EXTI+0x1d0>)
 80003d0:	400b      	ands	r3, r1
 80003d2:	6093      	str	r3, [r2, #8]
 80003d4:	4b40      	ldr	r3, [pc, #256]	; (80004d8 <Update_EXTI+0x1d0>)
 80003d6:	68db      	ldr	r3, [r3, #12]
 80003d8:	687a      	ldr	r2, [r7, #4]
 80003da:	8812      	ldrh	r2, [r2, #0]
 80003dc:	4611      	mov	r1, r2
 80003de:	2201      	movs	r2, #1
 80003e0:	408a      	lsls	r2, r1
 80003e2:	43d2      	mvns	r2, r2
 80003e4:	4611      	mov	r1, r2
 80003e6:	4a3c      	ldr	r2, [pc, #240]	; (80004d8 <Update_EXTI+0x1d0>)
 80003e8:	400b      	ands	r3, r1
 80003ea:	60d3      	str	r3, [r2, #12]
 80003ec:	687b      	ldr	r3, [r7, #4]
 80003ee:	7b1b      	ldrb	r3, [r3, #12]
 80003f0:	2b00      	cmp	r3, #0
 80003f2:	d10b      	bne.n	800040c <Update_EXTI+0x104>
 80003f4:	4b38      	ldr	r3, [pc, #224]	; (80004d8 <Update_EXTI+0x1d0>)
 80003f6:	689b      	ldr	r3, [r3, #8]
 80003f8:	687a      	ldr	r2, [r7, #4]
 80003fa:	8812      	ldrh	r2, [r2, #0]
 80003fc:	4611      	mov	r1, r2
 80003fe:	2201      	movs	r2, #1
 8000400:	408a      	lsls	r2, r1
 8000402:	4611      	mov	r1, r2
 8000404:	4a34      	ldr	r2, [pc, #208]	; (80004d8 <Update_EXTI+0x1d0>)
 8000406:	430b      	orrs	r3, r1
 8000408:	6093      	str	r3, [r2, #8]
 800040a:	e029      	b.n	8000460 <Update_EXTI+0x158>
 800040c:	687b      	ldr	r3, [r7, #4]
 800040e:	7b1b      	ldrb	r3, [r3, #12]
 8000410:	2b01      	cmp	r3, #1
 8000412:	d10b      	bne.n	800042c <Update_EXTI+0x124>
 8000414:	4b30      	ldr	r3, [pc, #192]	; (80004d8 <Update_EXTI+0x1d0>)
 8000416:	68db      	ldr	r3, [r3, #12]
 8000418:	687a      	ldr	r2, [r7, #4]
 800041a:	8812      	ldrh	r2, [r2, #0]
 800041c:	4611      	mov	r1, r2
 800041e:	2201      	movs	r2, #1
 8000420:	408a      	lsls	r2, r1
 8000422:	4611      	mov	r1, r2
 8000424:	4a2c      	ldr	r2, [pc, #176]	; (80004d8 <Update_EXTI+0x1d0>)
 8000426:	430b      	orrs	r3, r1
 8000428:	60d3      	str	r3, [r2, #12]
 800042a:	e019      	b.n	8000460 <Update_EXTI+0x158>
 800042c:	687b      	ldr	r3, [r7, #4]
 800042e:	7b1b      	ldrb	r3, [r3, #12]
 8000430:	2b02      	cmp	r3, #2
 8000432:	d115      	bne.n	8000460 <Update_EXTI+0x158>
 8000434:	4b28      	ldr	r3, [pc, #160]	; (80004d8 <Update_EXTI+0x1d0>)
 8000436:	689b      	ldr	r3, [r3, #8]
 8000438:	687a      	ldr	r2, [r7, #4]
 800043a:	8812      	ldrh	r2, [r2, #0]
 800043c:	4611      	mov	r1, r2
 800043e:	2201      	movs	r2, #1
 8000440:	408a      	lsls	r2, r1
 8000442:	4611      	mov	r1, r2
 8000444:	4a24      	ldr	r2, [pc, #144]	; (80004d8 <Update_EXTI+0x1d0>)
 8000446:	430b      	orrs	r3, r1
 8000448:	6093      	str	r3, [r2, #8]
 800044a:	4b23      	ldr	r3, [pc, #140]	; (80004d8 <Update_EXTI+0x1d0>)
 800044c:	68db      	ldr	r3, [r3, #12]
 800044e:	687a      	ldr	r2, [r7, #4]
 8000450:	8812      	ldrh	r2, [r2, #0]
 8000452:	4611      	mov	r1, r2
 8000454:	2201      	movs	r2, #1
 8000456:	408a      	lsls	r2, r1
 8000458:	4611      	mov	r1, r2
 800045a:	4a1f      	ldr	r2, [pc, #124]	; (80004d8 <Update_EXTI+0x1d0>)
 800045c:	430b      	orrs	r3, r1
 800045e:	60d3      	str	r3, [r2, #12]
 8000460:	687b      	ldr	r3, [r7, #4]
 8000462:	881b      	ldrh	r3, [r3, #0]
 8000464:	4619      	mov	r1, r3
 8000466:	687b      	ldr	r3, [r7, #4]
 8000468:	691b      	ldr	r3, [r3, #16]
 800046a:	4a1c      	ldr	r2, [pc, #112]	; (80004dc <Update_EXTI+0x1d4>)
 800046c:	f842 3021 	str.w	r3, [r2, r1, lsl #2]
 8000470:	687b      	ldr	r3, [r7, #4]
 8000472:	7b5b      	ldrb	r3, [r3, #13]
 8000474:	2b01      	cmp	r3, #1
 8000476:	d110      	bne.n	800049a <Update_EXTI+0x192>
 8000478:	4b17      	ldr	r3, [pc, #92]	; (80004d8 <Update_EXTI+0x1d0>)
 800047a:	681b      	ldr	r3, [r3, #0]
 800047c:	687a      	ldr	r2, [r7, #4]
 800047e:	8812      	ldrh	r2, [r2, #0]
 8000480:	4611      	mov	r1, r2
 8000482:	2201      	movs	r2, #1
 8000484:	408a      	lsls	r2, r1
 8000486:	4611      	mov	r1, r2
 8000488:	4a13      	ldr	r2, [pc, #76]	; (80004d8 <Update_EXTI+0x1d0>)
 800048a:	430b      	orrs	r3, r1
 800048c:	6013      	str	r3, [r2, #0]
 800048e:	687b      	ldr	r3, [r7, #4]
 8000490:	881b      	ldrh	r3, [r3, #0]
 8000492:	4618      	mov	r0, r3
 8000494:	f7ff fe6c 	bl	8000170 <Enable_NVIC>
 8000498:	e010      	b.n	80004bc <Update_EXTI+0x1b4>
 800049a:	4b0f      	ldr	r3, [pc, #60]	; (80004d8 <Update_EXTI+0x1d0>)
 800049c:	681b      	ldr	r3, [r3, #0]
 800049e:	687a      	ldr	r2, [r7, #4]
 80004a0:	8812      	ldrh	r2, [r2, #0]
 80004a2:	4611      	mov	r1, r2
 80004a4:	2201      	movs	r2, #1
 80004a6:	408a      	lsls	r2, r1
 80004a8:	43d2      	mvns	r2, r2
 80004aa:	4611      	mov	r1, r2
 80004ac:	4a0a      	ldr	r2, [pc, #40]	; (80004d8 <Update_EXTI+0x1d0>)
 80004ae:	400b      	ands	r3, r1
 80004b0:	6013      	str	r3, [r2, #0]
 80004b2:	687b      	ldr	r3, [r7, #4]
 80004b4:	881b      	ldrh	r3, [r3, #0]
 80004b6:	4618      	mov	r0, r3
 80004b8:	f7ff fec0 	bl	800023c <Disable_NVIC>
 80004bc:	bf00      	nop
 80004be:	3710      	adds	r7, #16
 80004c0:	46bd      	mov	sp, r7
 80004c2:	bd80      	pop	{r7, pc}
 80004c4:	40010000 	andmi	r0, r1, r0
 80004c8:	40010800 	andmi	r0, r1, r0, lsl #16
 80004cc:	40010c00 	andmi	r0, r1, r0, lsl #24
 80004d0:	40011000 	andmi	r1, r1, r0
 80004d4:	40011400 	andmi	r1, r1, r0, lsl #8
 80004d8:	40010400 	andmi	r0, r1, r0, lsl #8
 80004dc:	2000001c 	andcs	r0, r0, ip, lsl r0

080004e0 <MCAL_EXTI_GPIO_init>:
 80004e0:	b580      	push	{r7, lr}
 80004e2:	b082      	sub	sp, #8
 80004e4:	af00      	add	r7, sp, #0
 80004e6:	6078      	str	r0, [r7, #4]
 80004e8:	6878      	ldr	r0, [r7, #4]
 80004ea:	f7ff ff0d 	bl	8000308 <Update_EXTI>
 80004ee:	bf00      	nop
 80004f0:	3708      	adds	r7, #8
 80004f2:	46bd      	mov	sp, r7
 80004f4:	bd80      	pop	{r7, pc}
	...

080004f8 <EXTI0_IRQHandler>:
 80004f8:	b580      	push	{r7, lr}
 80004fa:	af00      	add	r7, sp, #0
 80004fc:	4b05      	ldr	r3, [pc, #20]	; (8000514 <EXTI0_IRQHandler+0x1c>)
 80004fe:	695b      	ldr	r3, [r3, #20]
 8000500:	4a04      	ldr	r2, [pc, #16]	; (8000514 <EXTI0_IRQHandler+0x1c>)
 8000502:	f043 0301 	orr.w	r3, r3, #1
 8000506:	6153      	str	r3, [r2, #20]
 8000508:	4b03      	ldr	r3, [pc, #12]	; (8000518 <EXTI0_IRQHandler+0x20>)
 800050a:	681b      	ldr	r3, [r3, #0]
 800050c:	4798      	blx	r3
 800050e:	bf00      	nop
 8000510:	bd80      	pop	{r7, pc}
 8000512:	bf00      	nop
 8000514:	40010400 	andmi	r0, r1, r0, lsl #8
 8000518:	2000001c 	andcs	r0, r0, ip, lsl r0

0800051c <EXTI1_IRQHandler>:
 800051c:	b580      	push	{r7, lr}
 800051e:	af00      	add	r7, sp, #0
 8000520:	4b05      	ldr	r3, [pc, #20]	; (8000538 <EXTI1_IRQHandler+0x1c>)
 8000522:	695b      	ldr	r3, [r3, #20]
 8000524:	4a04      	ldr	r2, [pc, #16]	; (8000538 <EXTI1_IRQHandler+0x1c>)
 8000526:	f043 0302 	orr.w	r3, r3, #2
 800052a:	6153      	str	r3, [r2, #20]
 800052c:	4b03      	ldr	r3, [pc, #12]	; (800053c <EXTI1_IRQHandler+0x20>)
 800052e:	685b      	ldr	r3, [r3, #4]
 8000530:	4798      	blx	r3
 8000532:	bf00      	nop
 8000534:	bd80      	pop	{r7, pc}
 8000536:	bf00      	nop
 8000538:	40010400 	andmi	r0, r1, r0, lsl #8
 800053c:	2000001c 	andcs	r0, r0, ip, lsl r0

08000540 <EXTI2_IRQHandler>:
 8000540:	b580      	push	{r7, lr}
 8000542:	af00      	add	r7, sp, #0
 8000544:	4b05      	ldr	r3, [pc, #20]	; (800055c <EXTI2_IRQHandler+0x1c>)
 8000546:	695b      	ldr	r3, [r3, #20]
 8000548:	4a04      	ldr	r2, [pc, #16]	; (800055c <EXTI2_IRQHandler+0x1c>)
 800054a:	f043 0304 	orr.w	r3, r3, #4
 800054e:	6153      	str	r3, [r2, #20]
 8000550:	4b03      	ldr	r3, [pc, #12]	; (8000560 <EXTI2_IRQHandler+0x20>)
 8000552:	689b      	ldr	r3, [r3, #8]
 8000554:	4798      	blx	r3
 8000556:	bf00      	nop
 8000558:	bd80      	pop	{r7, pc}
 800055a:	bf00      	nop
 800055c:	40010400 	andmi	r0, r1, r0, lsl #8
 8000560:	2000001c 	andcs	r0, r0, ip, lsl r0

08000564 <EXTI3_IRQHandler>:
 8000564:	b580      	push	{r7, lr}
 8000566:	af00      	add	r7, sp, #0
 8000568:	4b05      	ldr	r3, [pc, #20]	; (8000580 <EXTI3_IRQHandler+0x1c>)
 800056a:	695b      	ldr	r3, [r3, #20]
 800056c:	4a04      	ldr	r2, [pc, #16]	; (8000580 <EXTI3_IRQHandler+0x1c>)
 800056e:	f043 0308 	orr.w	r3, r3, #8
 8000572:	6153      	str	r3, [r2, #20]
 8000574:	4b03      	ldr	r3, [pc, #12]	; (8000584 <EXTI3_IRQHandler+0x20>)
 8000576:	68db      	ldr	r3, [r3, #12]
 8000578:	4798      	blx	r3
 800057a:	bf00      	nop
 800057c:	bd80      	pop	{r7, pc}
 800057e:	bf00      	nop
 8000580:	40010400 	andmi	r0, r1, r0, lsl #8
 8000584:	2000001c 	andcs	r0, r0, ip, lsl r0

08000588 <EXTI4_IRQHandler>:
 8000588:	b580      	push	{r7, lr}
 800058a:	af00      	add	r7, sp, #0
 800058c:	4b05      	ldr	r3, [pc, #20]	; (80005a4 <EXTI4_IRQHandler+0x1c>)
 800058e:	695b      	ldr	r3, [r3, #20]
 8000590:	4a04      	ldr	r2, [pc, #16]	; (80005a4 <EXTI4_IRQHandler+0x1c>)
 8000592:	f043 0310 	orr.w	r3, r3, #16
 8000596:	6153      	str	r3, [r2, #20]
 8000598:	4b03      	ldr	r3, [pc, #12]	; (80005a8 <EXTI4_IRQHandler+0x20>)
 800059a:	691b      	ldr	r3, [r3, #16]
 800059c:	4798      	blx	r3
 800059e:	bf00      	nop
 80005a0:	bd80      	pop	{r7, pc}
 80005a2:	bf00      	nop
 80005a4:	40010400 	andmi	r0, r1, r0, lsl #8
 80005a8:	2000001c 	andcs	r0, r0, ip, lsl r0

080005ac <EXTI9_5_IRQHandler>:
 80005ac:	b580      	push	{r7, lr}
 80005ae:	af00      	add	r7, sp, #0
 80005b0:	4b26      	ldr	r3, [pc, #152]	; (800064c <EXTI9_5_IRQHandler+0xa0>)
 80005b2:	695b      	ldr	r3, [r3, #20]
 80005b4:	f003 0320 	and.w	r3, r3, #32
 80005b8:	2b00      	cmp	r3, #0
 80005ba:	d008      	beq.n	80005ce <EXTI9_5_IRQHandler+0x22>
 80005bc:	4b23      	ldr	r3, [pc, #140]	; (800064c <EXTI9_5_IRQHandler+0xa0>)
 80005be:	695b      	ldr	r3, [r3, #20]
 80005c0:	4a22      	ldr	r2, [pc, #136]	; (800064c <EXTI9_5_IRQHandler+0xa0>)
 80005c2:	f043 0320 	orr.w	r3, r3, #32
 80005c6:	6153      	str	r3, [r2, #20]
 80005c8:	4b21      	ldr	r3, [pc, #132]	; (8000650 <EXTI9_5_IRQHandler+0xa4>)
 80005ca:	695b      	ldr	r3, [r3, #20]
 80005cc:	4798      	blx	r3
 80005ce:	4b1f      	ldr	r3, [pc, #124]	; (800064c <EXTI9_5_IRQHandler+0xa0>)
 80005d0:	695b      	ldr	r3, [r3, #20]
 80005d2:	f003 0340 	and.w	r3, r3, #64	; 0x40
 80005d6:	2b00      	cmp	r3, #0
 80005d8:	d008      	beq.n	80005ec <EXTI9_5_IRQHandler+0x40>
 80005da:	4b1c      	ldr	r3, [pc, #112]	; (800064c <EXTI9_5_IRQHandler+0xa0>)
 80005dc:	695b      	ldr	r3, [r3, #20]
 80005de:	4a1b      	ldr	r2, [pc, #108]	; (800064c <EXTI9_5_IRQHandler+0xa0>)
 80005e0:	f043 0340 	orr.w	r3, r3, #64	; 0x40
 80005e4:	6153      	str	r3, [r2, #20]
 80005e6:	4b1a      	ldr	r3, [pc, #104]	; (8000650 <EXTI9_5_IRQHandler+0xa4>)
 80005e8:	699b      	ldr	r3, [r3, #24]
 80005ea:	4798      	blx	r3
 80005ec:	4b17      	ldr	r3, [pc, #92]	; (800064c <EXTI9_5_IRQHandler+0xa0>)
 80005ee:	695b      	ldr	r3, [r3, #20]
 80005f0:	f003 0380 	and.w	r3, r3, #128	; 0x80
 80005f4:	2b00      	cmp	r3, #0
 80005f6:	d008      	beq.n	800060a <EXTI9_5_IRQHandler+0x5e>
 80005f8:	4b14      	ldr	r3, [pc, #80]	; (800064c <EXTI9_5_IRQHandler+0xa0>)
 80005fa:	695b      	ldr	r3, [r3, #20]
 80005fc:	4a13      	ldr	r2, [pc, #76]	; (800064c <EXTI9_5_IRQHandler+0xa0>)
 80005fe:	f043 0380 	orr.w	r3, r3, #128	; 0x80
 8000602:	6153      	str	r3, [r2, #20]
 8000604:	4b12      	ldr	r3, [pc, #72]	; (8000650 <EXTI9_5_IRQHandler+0xa4>)
 8000606:	69db      	ldr	r3, [r3, #28]
 8000608:	4798      	blx	r3
 800060a:	4b10      	ldr	r3, [pc, #64]	; (800064c <EXTI9_5_IRQHandler+0xa0>)
 800060c:	695b      	ldr	r3, [r3, #20]
 800060e:	f403 7380 	and.w	r3, r3, #256	; 0x100
 8000612:	2b00      	cmp	r3, #0
 8000614:	d008      	beq.n	8000628 <EXTI9_5_IRQHandler+0x7c>
 8000616:	4b0d      	ldr	r3, [pc, #52]	; (800064c <EXTI9_5_IRQHandler+0xa0>)
 8000618:	695b      	ldr	r3, [r3, #20]
 800061a:	4a0c      	ldr	r2, [pc, #48]	; (800064c <EXTI9_5_IRQHandler+0xa0>)
 800061c:	f443 7380 	orr.w	r3, r3, #256	; 0x100
 8000620:	6153      	str	r3, [r2, #20]
 8000622:	4b0b      	ldr	r3, [pc, #44]	; (8000650 <EXTI9_5_IRQHandler+0xa4>)
 8000624:	6a1b      	ldr	r3, [r3, #32]
 8000626:	4798      	blx	r3
 8000628:	4b08      	ldr	r3, [pc, #32]	; (800064c <EXTI9_5_IRQHandler+0xa0>)
 800062a:	695b      	ldr	r3, [r3, #20]
 800062c:	f403 7300 	and.w	r3, r3, #512	; 0x200
 8000630:	2b00      	cmp	r3, #0
 8000632:	d008      	beq.n	8000646 <EXTI9_5_IRQHandler+0x9a>
 8000634:	4b05      	ldr	r3, [pc, #20]	; (800064c <EXTI9_5_IRQHandler+0xa0>)
 8000636:	695b      	ldr	r3, [r3, #20]
 8000638:	4a04      	ldr	r2, [pc, #16]	; (800064c <EXTI9_5_IRQHandler+0xa0>)
 800063a:	f443 7300 	orr.w	r3, r3, #512	; 0x200
 800063e:	6153      	str	r3, [r2, #20]
 8000640:	4b03      	ldr	r3, [pc, #12]	; (8000650 <EXTI9_5_IRQHandler+0xa4>)
 8000642:	6a5b      	ldr	r3, [r3, #36]	; 0x24
 8000644:	4798      	blx	r3
 8000646:	bf00      	nop
 8000648:	bd80      	pop	{r7, pc}
 800064a:	bf00      	nop
 800064c:	40010400 	andmi	r0, r1, r0, lsl #8
 8000650:	2000001c 	andcs	r0, r0, ip, lsl r0

08000654 <EXTI15_10_IRQHandler>:
 8000654:	b580      	push	{r7, lr}
 8000656:	af00      	add	r7, sp, #0
 8000658:	4b2d      	ldr	r3, [pc, #180]	; (8000710 <EXTI15_10_IRQHandler+0xbc>)
 800065a:	695b      	ldr	r3, [r3, #20]
 800065c:	f403 6380 	and.w	r3, r3, #1024	; 0x400
 8000660:	2b00      	cmp	r3, #0
 8000662:	d008      	beq.n	8000676 <EXTI15_10_IRQHandler+0x22>
 8000664:	4b2a      	ldr	r3, [pc, #168]	; (8000710 <EXTI15_10_IRQHandler+0xbc>)
 8000666:	695b      	ldr	r3, [r3, #20]
 8000668:	4a29      	ldr	r2, [pc, #164]	; (8000710 <EXTI15_10_IRQHandler+0xbc>)
 800066a:	f443 6380 	orr.w	r3, r3, #1024	; 0x400
 800066e:	6153      	str	r3, [r2, #20]
 8000670:	4b28      	ldr	r3, [pc, #160]	; (8000714 <EXTI15_10_IRQHandler+0xc0>)
 8000672:	6a9b      	ldr	r3, [r3, #40]	; 0x28
 8000674:	4798      	blx	r3
 8000676:	4b26      	ldr	r3, [pc, #152]	; (8000710 <EXTI15_10_IRQHandler+0xbc>)
 8000678:	695b      	ldr	r3, [r3, #20]
 800067a:	f403 6300 	and.w	r3, r3, #2048	; 0x800
 800067e:	2b00      	cmp	r3, #0
 8000680:	d008      	beq.n	8000694 <EXTI15_10_IRQHandler+0x40>
 8000682:	4b23      	ldr	r3, [pc, #140]	; (8000710 <EXTI15_10_IRQHandler+0xbc>)
 8000684:	695b      	ldr	r3, [r3, #20]
 8000686:	4a22      	ldr	r2, [pc, #136]	; (8000710 <EXTI15_10_IRQHandler+0xbc>)
 8000688:	f443 6300 	orr.w	r3, r3, #2048	; 0x800
 800068c:	6153      	str	r3, [r2, #20]
 800068e:	4b21      	ldr	r3, [pc, #132]	; (8000714 <EXTI15_10_IRQHandler+0xc0>)
 8000690:	6adb      	ldr	r3, [r3, #44]	; 0x2c
 8000692:	4798      	blx	r3
 8000694:	4b1e      	ldr	r3, [pc, #120]	; (8000710 <EXTI15_10_IRQHandler+0xbc>)
 8000696:	695b      	ldr	r3, [r3, #20]
 8000698:	f403 5380 	and.w	r3, r3, #4096	; 0x1000
 800069c:	2b00      	cmp	r3, #0
 800069e:	d008      	beq.n	80006b2 <EXTI15_10_IRQHandler+0x5e>
 80006a0:	4b1b      	ldr	r3, [pc, #108]	; (8000710 <EXTI15_10_IRQHandler+0xbc>)
 80006a2:	695b      	ldr	r3, [r3, #20]
 80006a4:	4a1a      	ldr	r2, [pc, #104]	; (8000710 <EXTI15_10_IRQHandler+0xbc>)
 80006a6:	f443 5380 	orr.w	r3, r3, #4096	; 0x1000
 80006aa:	6153      	str	r3, [r2, #20]
 80006ac:	4b19      	ldr	r3, [pc, #100]	; (8000714 <EXTI15_10_IRQHandler+0xc0>)
 80006ae:	6b1b      	ldr	r3, [r3, #48]	; 0x30
 80006b0:	4798      	blx	r3
 80006b2:	4b17      	ldr	r3, [pc, #92]	; (8000710 <EXTI15_10_IRQHandler+0xbc>)
 80006b4:	695b      	ldr	r3, [r3, #20]
 80006b6:	f403 5300 	and.w	r3, r3, #8192	; 0x2000
 80006ba:	2b00      	cmp	r3, #0
 80006bc:	d008      	beq.n	80006d0 <EXTI15_10_IRQHandler+0x7c>
 80006be:	4b14      	ldr	r3, [pc, #80]	; (8000710 <EXTI15_10_IRQHandler+0xbc>)
 80006c0:	695b      	ldr	r3, [r3, #20]
 80006c2:	4a13      	ldr	r2, [pc, #76]	; (8000710 <EXTI15_10_IRQHandler+0xbc>)
 80006c4:	f443 5300 	orr.w	r3, r3, #8192	; 0x2000
 80006c8:	6153      	str	r3, [r2, #20]
 80006ca:	4b12      	ldr	r3, [pc, #72]	; (8000714 <EXTI15_10_IRQHandler+0xc0>)
 80006cc:	6b5b      	ldr	r3, [r3, #52]	; 0x34
 80006ce:	4798      	blx	r3
 80006d0:	4b0f      	ldr	r3, [pc, #60]	; (8000710 <EXTI15_10_IRQHandler+0xbc>)
 80006d2:	695b      	ldr	r3, [r3, #20]
 80006d4:	f403 4380 	and.w	r3, r3, #16384	; 0x4000
 80006d8:	2b00      	cmp	r3, #0
 80006da:	d008      	beq.n	80006ee <EXTI15_10_IRQHandler+0x9a>
 80006dc:	4b0c      	ldr	r3, [pc, #48]	; (8000710 <EXTI15_10_IRQHandler+0xbc>)
 80006de:	695b      	ldr	r3, [r3, #20]
 80006e0:	4a0b      	ldr	r2, [pc, #44]	; (8000710 <EXTI15_10_IRQHandler+0xbc>)
 80006e2:	f443 4380 	orr.w	r3, r3, #16384	; 0x4000
 80006e6:	6153      	str	r3, [r2, #20]
 80006e8:	4b0a      	ldr	r3, [pc, #40]	; (8000714 <EXTI15_10_IRQHandler+0xc0>)
 80006ea:	6b9b      	ldr	r3, [r3, #56]	; 0x38
 80006ec:	4798      	blx	r3
 80006ee:	4b08      	ldr	r3, [pc, #32]	; (8000710 <EXTI15_10_IRQHandler+0xbc>)
 80006f0:	695b      	ldr	r3, [r3, #20]
 80006f2:	f403 4300 	and.w	r3, r3, #32768	; 0x8000
 80006f6:	2b00      	cmp	r3, #0
 80006f8:	d008      	beq.n	800070c <EXTI15_10_IRQHandler+0xb8>
 80006fa:	4b05      	ldr	r3, [pc, #20]	; (8000710 <EXTI15_10_IRQHandler+0xbc>)
 80006fc:	695b      	ldr	r3, [r3, #20]
 80006fe:	4a04      	ldr	r2, [pc, #16]	; (8000710 <EXTI15_10_IRQHandler+0xbc>)
 8000700:	f443 4300 	orr.w	r3, r3, #32768	; 0x8000
 8000704:	6153      	str	r3, [r2, #20]
 8000706:	4b03      	ldr	r3, [pc, #12]	; (8000714 <EXTI15_10_IRQHandler+0xc0>)
 8000708:	6bdb      	ldr	r3, [r3, #60]	; 0x3c
 800070a:	4798      	blx	r3
 800070c:	bf00      	nop
 800070e:	bd80      	pop	{r7, pc}
 8000710:	40010400 	andmi	r0, r1, r0, lsl #8
 8000714:	2000001c 	andcs	r0, r0, ip, lsl r0

08000718 <Get_CRLH_Position>:
 8000718:	b480      	push	{r7}
 800071a:	b083      	sub	sp, #12
 800071c:	af00      	add	r7, sp, #0
 800071e:	4603      	mov	r3, r0
 8000720:	80fb      	strh	r3, [r7, #6]
 8000722:	88fb      	ldrh	r3, [r7, #6]
 8000724:	f5b3 4f00 	cmp.w	r3, #32768	; 0x8000
 8000728:	f000 80a5 	beq.w	8000876 <Get_CRLH_Position+0x15e>
 800072c:	f5b3 4f00 	cmp.w	r3, #32768	; 0x8000
 8000730:	f300 80a3 	bgt.w	800087a <Get_CRLH_Position+0x162>
 8000734:	f5b3 4f80 	cmp.w	r3, #16384	; 0x4000
 8000738:	f000 809b 	beq.w	8000872 <Get_CRLH_Position+0x15a>
 800073c:	f5b3 4f80 	cmp.w	r3, #16384	; 0x4000
 8000740:	f300 809b 	bgt.w	800087a <Get_CRLH_Position+0x162>
 8000744:	f5b3 5f00 	cmp.w	r3, #8192	; 0x2000
 8000748:	f000 8091 	beq.w	800086e <Get_CRLH_Position+0x156>
 800074c:	f5b3 5f00 	cmp.w	r3, #8192	; 0x2000
 8000750:	f300 8093 	bgt.w	800087a <Get_CRLH_Position+0x162>
 8000754:	f5b3 5f80 	cmp.w	r3, #4096	; 0x1000
 8000758:	f000 8087 	beq.w	800086a <Get_CRLH_Position+0x152>
 800075c:	f5b3 5f80 	cmp.w	r3, #4096	; 0x1000
 8000760:	f300 808b 	bgt.w	800087a <Get_CRLH_Position+0x162>
 8000764:	f5b3 6f00 	cmp.w	r3, #2048	; 0x800
 8000768:	d07d      	beq.n	8000866 <Get_CRLH_Position+0x14e>
 800076a:	f5b3 6f00 	cmp.w	r3, #2048	; 0x800
 800076e:	f300 8084 	bgt.w	800087a <Get_CRLH_Position+0x162>
 8000772:	f5b3 6f80 	cmp.w	r3, #1024	; 0x400
 8000776:	d074      	beq.n	8000862 <Get_CRLH_Position+0x14a>
 8000778:	f5b3 6f80 	cmp.w	r3, #1024	; 0x400
 800077c:	dc7d      	bgt.n	800087a <Get_CRLH_Position+0x162>
 800077e:	f5b3 7f00 	cmp.w	r3, #512	; 0x200
 8000782:	d06c      	beq.n	800085e <Get_CRLH_Position+0x146>
 8000784:	f5b3 7f00 	cmp.w	r3, #512	; 0x200
 8000788:	dc77      	bgt.n	800087a <Get_CRLH_Position+0x162>
 800078a:	f5b3 7f80 	cmp.w	r3, #256	; 0x100
 800078e:	d064      	beq.n	800085a <Get_CRLH_Position+0x142>
 8000790:	f5b3 7f80 	cmp.w	r3, #256	; 0x100
 8000794:	dc71      	bgt.n	800087a <Get_CRLH_Position+0x162>
 8000796:	2b80      	cmp	r3, #128	; 0x80
 8000798:	d05d      	beq.n	8000856 <Get_CRLH_Position+0x13e>
 800079a:	2b80      	cmp	r3, #128	; 0x80
 800079c:	dc6d      	bgt.n	800087a <Get_CRLH_Position+0x162>
 800079e:	2b20      	cmp	r3, #32
 80007a0:	dc48      	bgt.n	8000834 <Get_CRLH_Position+0x11c>
 80007a2:	2b00      	cmp	r3, #0
 80007a4:	dd69      	ble.n	800087a <Get_CRLH_Position+0x162>
 80007a6:	3b01      	subs	r3, #1
 80007a8:	2b1f      	cmp	r3, #31
 80007aa:	d866      	bhi.n	800087a <Get_CRLH_Position+0x162>
 80007ac:	a201      	add	r2, pc, #4	; (adr r2, 80007b4 <Get_CRLH_Position+0x9c>)
 80007ae:	f852 f023 	ldr.w	pc, [r2, r3, lsl #2]
 80007b2:	bf00      	nop
 80007b4:	0800083b 	stmdaeq	r0, {r0, r1, r3, r4, r5, fp}
 80007b8:	0800083f 	stmdaeq	r0, {r0, r1, r2, r3, r4, r5, fp}
 80007bc:	0800087b 	stmdaeq	r0, {r0, r1, r3, r4, r5, r6, fp}
 80007c0:	08000843 	stmdaeq	r0, {r0, r1, r6, fp}
 80007c4:	0800087b 	stmdaeq	r0, {r0, r1, r3, r4, r5, r6, fp}
 80007c8:	0800087b 	stmdaeq	r0, {r0, r1, r3, r4, r5, r6, fp}
 80007cc:	0800087b 	stmdaeq	r0, {r0, r1, r3, r4, r5, r6, fp}
 80007d0:	08000847 	stmdaeq	r0, {r0, r1, r2, r6, fp}
 80007d4:	0800087b 	stmdaeq	r0, {r0, r1, r3, r4, r5, r6, fp}
 80007d8:	0800087b 	stmdaeq	r0, {r0, r1, r3, r4, r5, r6, fp}
 80007dc:	0800087b 	stmdaeq	r0, {r0, r1, r3, r4, r5, r6, fp}
 80007e0:	0800087b 	stmdaeq	r0, {r0, r1, r3, r4, r5, r6, fp}
 80007e4:	0800087b 	stmdaeq	r0, {r0, r1, r3, r4, r5, r6, fp}
 80007e8:	0800087b 	stmdaeq	r0, {r0, r1, r3, r4, r5, r6, fp}
 80007ec:	0800087b 	stmdaeq	r0, {r0, r1, r3, r4, r5, r6, fp}
 80007f0:	0800084b 	stmdaeq	r0, {r0, r1, r3, r6, fp}
 80007f4:	0800087b 	stmdaeq	r0, {r0, r1, r3, r4, r5, r6, fp}
 80007f8:	0800087b 	stmdaeq	r0, {r0, r1, r3, r4, r5, r6, fp}
 80007fc:	0800087b 	stmdaeq	r0, {r0, r1, r3, r4, r5, r6, fp}
 8000800:	0800087b 	stmdaeq	r0, {r0, r1, r3, r4, r5, r6, fp}
 8000804:	0800087b 	stmdaeq	r0, {r0, r1, r3, r4, r5, r6, fp}
 8000808:	0800087b 	stmdaeq	r0, {r0, r1, r3, r4, r5, r6, fp}
 800080c:	0800087b 	stmdaeq	r0, {r0, r1, r3, r4, r5, r6, fp}
 8000810:	0800087b 	stmdaeq	r0, {r0, r1, r3, r4, r5, r6, fp}
 8000814:	0800087b 	stmdaeq	r0, {r0, r1, r3, r4, r5, r6, fp}
 8000818:	0800087b 	stmdaeq	r0, {r0, r1, r3, r4, r5, r6, fp}
 800081c:	0800087b 	stmdaeq	r0, {r0, r1, r3, r4, r5, r6, fp}
 8000820:	0800087b 	stmdaeq	r0, {r0, r1, r3, r4, r5, r6, fp}
 8000824:	0800087b 	stmdaeq	r0, {r0, r1, r3, r4, r5, r6, fp}
 8000828:	0800087b 	stmdaeq	r0, {r0, r1, r3, r4, r5, r6, fp}
 800082c:	0800087b 	stmdaeq	r0, {r0, r1, r3, r4, r5, r6, fp}
 8000830:	0800084f 	stmdaeq	r0, {r0, r1, r2, r3, r6, fp}
 8000834:	2b40      	cmp	r3, #64	; 0x40
 8000836:	d00c      	beq.n	8000852 <Get_CRLH_Position+0x13a>
 8000838:	e01f      	b.n	800087a <Get_CRLH_Position+0x162>
 800083a:	2300      	movs	r3, #0
 800083c:	e01e      	b.n	800087c <Get_CRLH_Position+0x164>
 800083e:	2304      	movs	r3, #4
 8000840:	e01c      	b.n	800087c <Get_CRLH_Position+0x164>
 8000842:	2308      	movs	r3, #8
 8000844:	e01a      	b.n	800087c <Get_CRLH_Position+0x164>
 8000846:	230c      	movs	r3, #12
 8000848:	e018      	b.n	800087c <Get_CRLH_Position+0x164>
 800084a:	2310      	movs	r3, #16
 800084c:	e016      	b.n	800087c <Get_CRLH_Position+0x164>
 800084e:	2314      	movs	r3, #20
 8000850:	e014      	b.n	800087c <Get_CRLH_Position+0x164>
 8000852:	2318      	movs	r3, #24
 8000854:	e012      	b.n	800087c <Get_CRLH_Position+0x164>
 8000856:	231c      	movs	r3, #28
 8000858:	e010      	b.n	800087c <Get_CRLH_Position+0x164>
 800085a:	2300      	movs	r3, #0
 800085c:	e00e      	b.n	800087c <Get_CRLH_Position+0x164>
 800085e:	2304      	movs	r3, #4
 8000860:	e00c      	b.n	800087c <Get_CRLH_Position+0x164>
 8000862:	2308      	movs	r3, #8
 8000864:	e00a      	b.n	800087c <Get_CRLH_Position+0x164>
 8000866:	230c      	movs	r3, #12
 8000868:	e008      	b.n	800087c <Get_CRLH_Position+0x164>
 800086a:	2310      	movs	r3, #16
 800086c:	e006      	b.n	800087c <Get_CRLH_Position+0x164>
 800086e:	2314      	movs	r3, #20
 8000870:	e004      	b.n	800087c <Get_CRLH_Position+0x164>
 8000872:	2318      	movs	r3, #24
 8000874:	e002      	b.n	800087c <Get_CRLH_Position+0x164>
 8000876:	231c      	movs	r3, #28
 8000878:	e000      	b.n	800087c <Get_CRLH_Position+0x164>
 800087a:	2300      	movs	r3, #0
 800087c:	4618      	mov	r0, r3
 800087e:	370c      	adds	r7, #12
 8000880:	46bd      	mov	sp, r7
 8000882:	bc80      	pop	{r7}
 8000884:	4770      	bx	lr
 8000886:	bf00      	nop

08000888 <MCAL_GPIO_Init>:
 8000888:	b590      	push	{r4, r7, lr}
 800088a:	b085      	sub	sp, #20
 800088c:	af00      	add	r7, sp, #0
 800088e:	6078      	str	r0, [r7, #4]
 8000890:	6039      	str	r1, [r7, #0]
 8000892:	2300      	movs	r3, #0
 8000894:	60fb      	str	r3, [r7, #12]
 8000896:	2300      	movs	r3, #0
 8000898:	72fb      	strb	r3, [r7, #11]
 800089a:	683b      	ldr	r3, [r7, #0]
 800089c:	881b      	ldrh	r3, [r3, #0]
 800089e:	2bff      	cmp	r3, #255	; 0xff
 80008a0:	d801      	bhi.n	80008a6 <MCAL_GPIO_Init+0x1e>
 80008a2:	687b      	ldr	r3, [r7, #4]
 80008a4:	e001      	b.n	80008aa <MCAL_GPIO_Init+0x22>
 80008a6:	687b      	ldr	r3, [r7, #4]
 80008a8:	3304      	adds	r3, #4
 80008aa:	60fb      	str	r3, [r7, #12]
 80008ac:	683b      	ldr	r3, [r7, #0]
 80008ae:	881b      	ldrh	r3, [r3, #0]
 80008b0:	4618      	mov	r0, r3
 80008b2:	f7ff ff31 	bl	8000718 <Get_CRLH_Position>
 80008b6:	4603      	mov	r3, r0
 80008b8:	461a      	mov	r2, r3
 80008ba:	230f      	movs	r3, #15
 80008bc:	4093      	lsls	r3, r2
 80008be:	43da      	mvns	r2, r3
 80008c0:	68fb      	ldr	r3, [r7, #12]
 80008c2:	681b      	ldr	r3, [r3, #0]
 80008c4:	401a      	ands	r2, r3
 80008c6:	68fb      	ldr	r3, [r7, #12]
 80008c8:	601a      	str	r2, [r3, #0]
 80008ca:	683b      	ldr	r3, [r7, #0]
 80008cc:	789b      	ldrb	r3, [r3, #2]
 80008ce:	2b04      	cmp	r3, #4
 80008d0:	d00b      	beq.n	80008ea <MCAL_GPIO_Init+0x62>
 80008d2:	683b      	ldr	r3, [r7, #0]
 80008d4:	789b      	ldrb	r3, [r3, #2]
 80008d6:	2b05      	cmp	r3, #5
 80008d8:	d007      	beq.n	80008ea <MCAL_GPIO_Init+0x62>
 80008da:	683b      	ldr	r3, [r7, #0]
 80008dc:	789b      	ldrb	r3, [r3, #2]
 80008de:	2b07      	cmp	r3, #7
 80008e0:	d003      	beq.n	80008ea <MCAL_GPIO_Init+0x62>
 80008e2:	683b      	ldr	r3, [r7, #0]
 80008e4:	789b      	ldrb	r3, [r3, #2]
 80008e6:	2b06      	cmp	r3, #6
 80008e8:	d11c      	bne.n	8000924 <MCAL_GPIO_Init+0x9c>
 80008ea:	683b      	ldr	r3, [r7, #0]
 80008ec:	789b      	ldrb	r3, [r3, #2]
 80008ee:	3b04      	subs	r3, #4
 80008f0:	009b      	lsls	r3, r3, #2
 80008f2:	b25a      	sxtb	r2, r3
 80008f4:	683b      	ldr	r3, [r7, #0]
 80008f6:	78db      	ldrb	r3, [r3, #3]
 80008f8:	b25b      	sxtb	r3, r3
 80008fa:	4313      	orrs	r3, r2
 80008fc:	b25b      	sxtb	r3, r3
 80008fe:	b2db      	uxtb	r3, r3
 8000900:	f003 030f 	and.w	r3, r3, #15
 8000904:	72fb      	strb	r3, [r7, #11]
 8000906:	7afc      	ldrb	r4, [r7, #11]
 8000908:	683b      	ldr	r3, [r7, #0]
 800090a:	881b      	ldrh	r3, [r3, #0]
 800090c:	4618      	mov	r0, r3
 800090e:	f7ff ff03 	bl	8000718 <Get_CRLH_Position>
 8000912:	4603      	mov	r3, r0
 8000914:	fa04 f203 	lsl.w	r2, r4, r3
 8000918:	68fb      	ldr	r3, [r7, #12]
 800091a:	681b      	ldr	r3, [r3, #0]
 800091c:	431a      	orrs	r2, r3
 800091e:	68fb      	ldr	r3, [r7, #12]
 8000920:	601a      	str	r2, [r3, #0]
 8000922:	e057      	b.n	80009d4 <MCAL_GPIO_Init+0x14c>
 8000924:	683b      	ldr	r3, [r7, #0]
 8000926:	789b      	ldrb	r3, [r3, #2]
 8000928:	2b00      	cmp	r3, #0
 800092a:	d003      	beq.n	8000934 <MCAL_GPIO_Init+0xac>
 800092c:	683b      	ldr	r3, [r7, #0]
 800092e:	789b      	ldrb	r3, [r3, #2]
 8000930:	2b01      	cmp	r3, #1
 8000932:	d115      	bne.n	8000960 <MCAL_GPIO_Init+0xd8>
 8000934:	683b      	ldr	r3, [r7, #0]
 8000936:	789b      	ldrb	r3, [r3, #2]
 8000938:	009b      	lsls	r3, r3, #2
 800093a:	b2db      	uxtb	r3, r3
 800093c:	f003 030f 	and.w	r3, r3, #15
 8000940:	72fb      	strb	r3, [r7, #11]
 8000942:	7afc      	ldrb	r4, [r7, #11]
 8000944:	683b      	ldr	r3, [r7, #0]
 8000946:	881b      	ldrh	r3, [r3, #0]
 8000948:	4618      	mov	r0, r3
 800094a:	f7ff fee5 	bl	8000718 <Get_CRLH_Position>
 800094e:	4603      	mov	r3, r0
 8000950:	fa04 f203 	lsl.w	r2, r4, r3
 8000954:	68fb      	ldr	r3, [r7, #12]
 8000956:	681b      	ldr	r3, [r3, #0]
 8000958:	431a      	orrs	r2, r3
 800095a:	68fb      	ldr	r3, [r7, #12]
 800095c:	601a      	str	r2, [r3, #0]
 800095e:	e039      	b.n	80009d4 <MCAL_GPIO_Init+0x14c>
 8000960:	683b      	ldr	r3, [r7, #0]
 8000962:	789b      	ldrb	r3, [r3, #2]
 8000964:	2b08      	cmp	r3, #8
 8000966:	d110      	bne.n	800098a <MCAL_GPIO_Init+0x102>
 8000968:	2304      	movs	r3, #4
 800096a:	72fb      	strb	r3, [r7, #11]
 800096c:	7afc      	ldrb	r4, [r7, #11]
 800096e:	683b      	ldr	r3, [r7, #0]
 8000970:	881b      	ldrh	r3, [r3, #0]
 8000972:	4618      	mov	r0, r3
 8000974:	f7ff fed0 	bl	8000718 <Get_CRLH_Position>
 8000978:	4603      	mov	r3, r0
 800097a:	fa04 f203 	lsl.w	r2, r4, r3
 800097e:	68fb      	ldr	r3, [r7, #12]
 8000980:	681b      	ldr	r3, [r3, #0]
 8000982:	431a      	orrs	r2, r3
 8000984:	68fb      	ldr	r3, [r7, #12]
 8000986:	601a      	str	r2, [r3, #0]
 8000988:	e024      	b.n	80009d4 <MCAL_GPIO_Init+0x14c>
 800098a:	2308      	movs	r3, #8
 800098c:	72fb      	strb	r3, [r7, #11]
 800098e:	7afc      	ldrb	r4, [r7, #11]
 8000990:	683b      	ldr	r3, [r7, #0]
 8000992:	881b      	ldrh	r3, [r3, #0]
 8000994:	4618      	mov	r0, r3
 8000996:	f7ff febf 	bl	8000718 <Get_CRLH_Position>
 800099a:	4603      	mov	r3, r0
 800099c:	fa04 f203 	lsl.w	r2, r4, r3
 80009a0:	68fb      	ldr	r3, [r7, #12]
 80009a2:	681b      	ldr	r3, [r3, #0]
 80009a4:	431a      	orrs	r2, r3
 80009a6:	68fb      	ldr	r3, [r7, #12]
 80009a8:	601a      	str	r2, [r3, #0]
 80009aa:	683b      	ldr	r3, [r7, #0]
 80009ac:	789b      	ldrb	r3, [r3, #2]
 80009ae:	2b02      	cmp	r3, #2
 80009b0:	d107      	bne.n	80009c2 <MCAL_GPIO_Init+0x13a>
 80009b2:	687b      	ldr	r3, [r7, #4]
 80009b4:	68db      	ldr	r3, [r3, #12]
 80009b6:	683a      	ldr	r2, [r7, #0]
 80009b8:	8812      	ldrh	r2, [r2, #0]
 80009ba:	431a      	orrs	r2, r3
 80009bc:	687b      	ldr	r3, [r7, #4]
 80009be:	60da      	str	r2, [r3, #12]
 80009c0:	e008      	b.n	80009d4 <MCAL_GPIO_Init+0x14c>
 80009c2:	687b      	ldr	r3, [r7, #4]
 80009c4:	68db      	ldr	r3, [r3, #12]
 80009c6:	683a      	ldr	r2, [r7, #0]
 80009c8:	8812      	ldrh	r2, [r2, #0]
 80009ca:	43d2      	mvns	r2, r2
 80009cc:	401a      	ands	r2, r3
 80009ce:	687b      	ldr	r3, [r7, #4]
 80009d0:	60da      	str	r2, [r3, #12]
 80009d2:	e7ff      	b.n	80009d4 <MCAL_GPIO_Init+0x14c>
 80009d4:	bf00      	nop
 80009d6:	3714      	adds	r7, #20
 80009d8:	46bd      	mov	sp, r7
 80009da:	bd90      	pop	{r4, r7, pc}

080009dc <HardFault_Handler>:
 80009dc:	b480      	push	{r7}
 80009de:	af00      	add	r7, sp, #0
 80009e0:	bf00      	nop
 80009e2:	46bd      	mov	sp, r7
 80009e4:	bc80      	pop	{r7}
 80009e6:	4770      	bx	lr

080009e8 <cpu_access_level>:
 80009e8:	b480      	push	{r7}
 80009ea:	b083      	sub	sp, #12
 80009ec:	af00      	add	r7, sp, #0
 80009ee:	4603      	mov	r3, r0
 80009f0:	71fb      	strb	r3, [r7, #7]
 80009f2:	79fb      	ldrb	r3, [r7, #7]
 80009f4:	2b00      	cmp	r3, #0
 80009f6:	d002      	beq.n	80009fe <cpu_access_level+0x16>
 80009f8:	2b01      	cmp	r3, #1
 80009fa:	d009      	beq.n	8000a10 <cpu_access_level+0x28>
 80009fc:	e00f      	b.n	8000a1e <cpu_access_level+0x36>
 80009fe:	f3ef 8314 	mrs	r3, CONTROL
 8000a02:	ea4f 0353 	mov.w	r3, r3, lsr #1
 8000a06:	ea4f 0343 	mov.w	r3, r3, lsl #1
 8000a0a:	f383 8814 	msr	CONTROL, r3
 8000a0e:	e006      	b.n	8000a1e <cpu_access_level+0x36>
 8000a10:	f3ef 8314 	mrs	r3, CONTROL
 8000a14:	f043 0301 	orr.w	r3, r3, #1
 8000a18:	f383 8814 	msr	CONTROL, r3
 8000a1c:	bf00      	nop
 8000a1e:	bf00      	nop
 8000a20:	370c      	adds	r7, #12
 8000a22:	46bd      	mov	sp, r7
 8000a24:	bc80      	pop	{r7}
 8000a26:	4770      	bx	lr

08000a28 <EXTI_irq>:
 8000a28:	b580      	push	{r7, lr}
 8000a2a:	af00      	add	r7, sp, #0
 8000a2c:	4b03      	ldr	r3, [pc, #12]	; (8000a3c <EXTI_irq+0x14>)
 8000a2e:	2201      	movs	r2, #1
 8000a30:	701a      	strb	r2, [r3, #0]
 8000a32:	2000      	movs	r0, #0
 8000a34:	f7ff ffd8 	bl	80009e8 <cpu_access_level>
 8000a38:	bf00      	nop
 8000a3a:	bd80      	pop	{r7, pc}
 8000a3c:	20000058 	andcs	r0, r0, r8, asr r0

08000a40 <main>:
 8000a40:	b580      	push	{r7, lr}
 8000a42:	b088      	sub	sp, #32
 8000a44:	af00      	add	r7, sp, #0
 8000a46:	4b14      	ldr	r3, [pc, #80]	; (8000a98 <main+0x58>)
 8000a48:	699b      	ldr	r3, [r3, #24]
 8000a4a:	4a13      	ldr	r2, [pc, #76]	; (8000a98 <main+0x58>)
 8000a4c:	f043 0308 	orr.w	r3, r3, #8
 8000a50:	6193      	str	r3, [r2, #24]
 8000a52:	4b11      	ldr	r3, [pc, #68]	; (8000a98 <main+0x58>)
 8000a54:	699b      	ldr	r3, [r3, #24]
 8000a56:	4a10      	ldr	r2, [pc, #64]	; (8000a98 <main+0x58>)
 8000a58:	f043 0301 	orr.w	r3, r3, #1
 8000a5c:	6193      	str	r3, [r2, #24]
 8000a5e:	4a0f      	ldr	r2, [pc, #60]	; (8000a9c <main+0x5c>)
 8000a60:	f107 030c 	add.w	r3, r7, #12
 8000a64:	ca07      	ldmia	r2, {r0, r1, r2}
 8000a66:	e883 0007 	stmia.w	r3, {r0, r1, r2}
 8000a6a:	2301      	movs	r3, #1
 8000a6c:	767b      	strb	r3, [r7, #25]
 8000a6e:	2300      	movs	r3, #0
 8000a70:	763b      	strb	r3, [r7, #24]
 8000a72:	4b0b      	ldr	r3, [pc, #44]	; (8000aa0 <main+0x60>)
 8000a74:	61fb      	str	r3, [r7, #28]
 8000a76:	f107 030c 	add.w	r3, r7, #12
 8000a7a:	4618      	mov	r0, r3
 8000a7c:	f7ff fd30 	bl	80004e0 <MCAL_EXTI_GPIO_init>
 8000a80:	2001      	movs	r0, #1
 8000a82:	f7ff ffb1 	bl	80009e8 <cpu_access_level>
 8000a86:	4b07      	ldr	r3, [pc, #28]	; (8000aa4 <main+0x64>)
 8000a88:	781b      	ldrb	r3, [r3, #0]
 8000a8a:	2b00      	cmp	r3, #0
 8000a8c:	d0fb      	beq.n	8000a86 <main+0x46>
 8000a8e:	4b05      	ldr	r3, [pc, #20]	; (8000aa4 <main+0x64>)
 8000a90:	2200      	movs	r2, #0
 8000a92:	701a      	strb	r2, [r3, #0]
 8000a94:	e7f7      	b.n	8000a86 <main+0x46>
 8000a96:	bf00      	nop
 8000a98:	40021000 	andmi	r1, r2, r0
 8000a9c:	08000b5c 	stmdaeq	r0, {r2, r3, r4, r6, r8, r9, fp}
 8000aa0:	08000a29 	stmdaeq	r0, {r0, r3, r5, r9, fp}
 8000aa4:	20000058 	andcs	r0, r0, r8, asr r0

08000aa8 <Reset_Handler>:
 8000aa8:	480d      	ldr	r0, [pc, #52]	; (8000ae0 <LoopForever+0x2>)
 8000aaa:	4685      	mov	sp, r0
 8000aac:	f3af 8000 	nop.w
 8000ab0:	480c      	ldr	r0, [pc, #48]	; (8000ae4 <LoopForever+0x6>)
 8000ab2:	490d      	ldr	r1, [pc, #52]	; (8000ae8 <LoopForever+0xa>)
 8000ab4:	4a0d      	ldr	r2, [pc, #52]	; (8000aec <LoopForever+0xe>)
 8000ab6:	2300      	movs	r3, #0
 8000ab8:	e002      	b.n	8000ac0 <LoopCopyDataInit>

08000aba <CopyDataInit>:
 8000aba:	58d4      	ldr	r4, [r2, r3]
 8000abc:	50c4      	str	r4, [r0, r3]
 8000abe:	3304      	adds	r3, #4

08000ac0 <LoopCopyDataInit>:
 8000ac0:	18c4      	adds	r4, r0, r3
 8000ac2:	428c      	cmp	r4, r1
 8000ac4:	d3f9      	bcc.n	8000aba <CopyDataInit>
 8000ac6:	4a0a      	ldr	r2, [pc, #40]	; (8000af0 <LoopForever+0x12>)
 8000ac8:	4c0a      	ldr	r4, [pc, #40]	; (8000af4 <LoopForever+0x16>)
 8000aca:	2300      	movs	r3, #0
 8000acc:	e001      	b.n	8000ad2 <LoopFillZerobss>

08000ace <FillZerobss>:
 8000ace:	6013      	str	r3, [r2, #0]
 8000ad0:	3204      	adds	r2, #4

08000ad2 <LoopFillZerobss>:
 8000ad2:	42a2      	cmp	r2, r4
 8000ad4:	d3fb      	bcc.n	8000ace <FillZerobss>
 8000ad6:	f000 f811 	bl	8000afc <__libc_init_array>
 8000ada:	f7ff ffb1 	bl	8000a40 <main>

08000ade <LoopForever>:
 8000ade:	e7fe      	b.n	8000ade <LoopForever>
 8000ae0:	20005000 	andcs	r5, r0, r0
 8000ae4:	20000000 	andcs	r0, r0, r0
 8000ae8:	20000000 	andcs	r0, r0, r0
 8000aec:	08000b70 	stmdaeq	r0, {r4, r5, r6, r8, r9, fp}
 8000af0:	20000000 	andcs	r0, r0, r0
 8000af4:	2000005c 	andcs	r0, r0, ip, asr r0

08000af8 <ADC1_2_IRQHandler>:
 8000af8:	e7fe      	b.n	8000af8 <ADC1_2_IRQHandler>
	...

08000afc <__libc_init_array>:
 8000afc:	b570      	push	{r4, r5, r6, lr}
 8000afe:	2600      	movs	r6, #0
 8000b00:	4d0c      	ldr	r5, [pc, #48]	; (8000b34 <__libc_init_array+0x38>)
 8000b02:	4c0d      	ldr	r4, [pc, #52]	; (8000b38 <__libc_init_array+0x3c>)
 8000b04:	1b64      	subs	r4, r4, r5
 8000b06:	10a4      	asrs	r4, r4, #2
 8000b08:	42a6      	cmp	r6, r4
 8000b0a:	d109      	bne.n	8000b20 <__libc_init_array+0x24>
 8000b0c:	f000 f81a 	bl	8000b44 <_init>
 8000b10:	2600      	movs	r6, #0
 8000b12:	4d0a      	ldr	r5, [pc, #40]	; (8000b3c <__libc_init_array+0x40>)
 8000b14:	4c0a      	ldr	r4, [pc, #40]	; (8000b40 <__libc_init_array+0x44>)
 8000b16:	1b64      	subs	r4, r4, r5
 8000b18:	10a4      	asrs	r4, r4, #2
 8000b1a:	42a6      	cmp	r6, r4
 8000b1c:	d105      	bne.n	8000b2a <__libc_init_array+0x2e>
 8000b1e:	bd70      	pop	{r4, r5, r6, pc}
 8000b20:	f855 3b04 	ldr.w	r3, [r5], #4
 8000b24:	4798      	blx	r3
 8000b26:	3601      	adds	r6, #1
 8000b28:	e7ee      	b.n	8000b08 <__libc_init_array+0xc>
 8000b2a:	f855 3b04 	ldr.w	r3, [r5], #4
 8000b2e:	4798      	blx	r3
 8000b30:	3601      	adds	r6, #1
 8000b32:	e7f2      	b.n	8000b1a <__libc_init_array+0x1e>
 8000b34:	08000b68 	stmdaeq	r0, {r3, r5, r6, r8, r9, fp}
 8000b38:	08000b68 	stmdaeq	r0, {r3, r5, r6, r8, r9, fp}
 8000b3c:	08000b68 	stmdaeq	r0, {r3, r5, r6, r8, r9, fp}
 8000b40:	08000b6c 	stmdaeq	r0, {r2, r3, r5, r6, r8, r9, fp}

08000b44 <_init>:
 8000b44:	b5f8      	push	{r3, r4, r5, r6, r7, lr}
 8000b46:	bf00      	nop
 8000b48:	bcf8      	pop	{r3, r4, r5, r6, r7}
 8000b4a:	bc08      	pop	{r3}
 8000b4c:	469e      	mov	lr, r3
 8000b4e:	4770      	bx	lr

08000b50 <_fini>:
 8000b50:	b5f8      	push	{r3, r4, r5, r6, r7, lr}
 8000b52:	bf00      	nop
 8000b54:	bcf8      	pop	{r3, r4, r5, r6, r7}
 8000b56:	bc08      	pop	{r3}
 8000b58:	469e      	mov	lr, r3
 8000b5a:	4770      	bx	lr

Disassembly of section .rodata:

08000b5c <.rodata>:
 8000b5c:	00000009 	andeq	r0, r0, r9
 8000b60:	40010c00 	andmi	r0, r1, r0, lsl #24
 8000b64:	00170200 	andseq	r0, r7, r0, lsl #4

Disassembly of section .init_array:

08000b68 <__frame_dummy_init_array_entry>:
 8000b68:	08000155 	stmdaeq	r0, {r0, r2, r4, r6, r8}

Disassembly of section .fini_array:

08000b6c <__do_global_dtors_aux_fini_array_entry>:
 8000b6c:	08000131 	stmdaeq	r0, {r0, r4, r5, r8}

Disassembly of section .bss:

20000000 <__bss_start__>:
20000000:	00000000 	andeq	r0, r0, r0

20000004 <object.0>:
	...

2000001c <GP_IRQ_CallBack>:
	...

20000058 <flag>:
20000058:	00000000 	andeq	r0, r0, r0

Disassembly of section ._user_heap_stack:

2000005c <_end-0x4>:
2000005c:	00000000 	andeq	r0, r0, r0

20000060 <_end>:
	...

Disassembly of section .ARM.attributes:

00000000 <.ARM.attributes>:
   0:	00002841 	andeq	r2, r0, r1, asr #16
   4:	61656100 	cmnvs	r5, r0, lsl #2
   8:	01006962 	tsteq	r0, r2, ror #18
   c:	0000001e 	andeq	r0, r0, lr, lsl r0
  10:	4d2d3705 	stcmi	7, cr3, [sp, #-20]!	; 0xffffffec
  14:	070a0600 	streq	r0, [sl, -r0, lsl #12]
  18:	1202094d 	andne	r0, r2, #1261568	; 0x134000
  1c:	15011404 	strne	r1, [r1, #-1028]	; 0xfffffbfc
  20:	18031701 	stmdane	r3, {r0, r8, r9, sl, ip}
  24:	22011a01 	andcs	r1, r1, #4096	; 0x1000
  28:	Address 0x0000000000000028 is out of bounds.


Disassembly of section .comment:

00000000 <.comment>:
   0:	3a434347 	bcc	10d0d24 <_Min_Stack_Size+0x10d0924>
   4:	4e472820 	cdpmi	8, 4, cr2, cr7, cr0, {1}
   8:	6f542055 	svcvs	0x00542055
   c:	20736c6f 	rsbscs	r6, r3, pc, ror #24
  10:	20726f66 	rsbscs	r6, r2, r6, ror #30
  14:	334d5453 	movtcc	r5, #54355	; 0xd453
  18:	31312032 	teqcc	r1, r2, lsr r0
  1c:	722e332e 	eorvc	r3, lr, #-1207959552	; 0xb8000000
  20:	2e316c65 	cdpcs	12, 3, cr6, cr1, cr5, {3}
  24:	33323032 	teqcc	r2, #50	; 0x32
  28:	39313530 	ldmdbcc	r1!, {r4, r5, r8, sl, ip, sp}
  2c:	3439312d 	ldrtcc	r3, [r9], #-301	; 0xfffffed3
  30:	31202931 			; <UNDEFINED> instruction: 0x31202931
  34:	2e332e31 	mrccs	14, 1, r2, cr3, cr1, {1}
  38:	30322031 	eorscc	r2, r2, r1, lsr r0
  3c:	37303232 			; <UNDEFINED> instruction: 0x37303232
  40:	Address 0x0000000000000040 is out of bounds.


Disassembly of section .debug_info:

00000000 <.debug_info>:
   0:	0000052c 	andeq	r0, r0, ip, lsr #10
   4:	00000002 	andeq	r0, r0, r2
   8:	01040000 	mrseq	r0, (UNDEF: 4)
   c:	00001b22 	andeq	r1, r0, r2, lsr #22
  10:	00106e0c 	andseq	r6, r0, ip, lsl #28
  14:	00200c00 	eoreq	r0, r0, r0, lsl #24
	...
  2c:	07040200 	streq	r0, [r4, -r0, lsl #4]
  30:	00002806 	andeq	r2, r0, r6, lsl #16
  34:	69050403 	stmdbvs	r5, {r0, r1, sl}
  38:	0200746e 	andeq	r7, r0, #1845493760	; 0x6e000000
  3c:	5e510508 	cdppl	5, 5, cr0, cr1, cr8, {0}
  40:	08020000 	stmdaeq	r2, {}	; <UNPREDICTABLE>
  44:	0003c704 	andeq	ip, r3, r4, lsl #14
  48:	06010200 	streq	r0, [r1], -r0, lsl #4
  4c:	000008f7 	strdeq	r0, [r0], -r7
  50:	00159d04 	andseq	r9, r5, r4, lsl #26
  54:	182b0200 	stmdane	fp!, {r9}
  58:	0000005c 	andeq	r0, r0, ip, asr r0
  5c:	15080102 	strne	r0, [r8, #-258]	; 0xfffffefe
  60:	0200003b 	andeq	r0, r0, #59	; 0x3b
  64:	0bbb0502 	bleq	feec1474 <_estack+0xdeebc474>
  68:	44040000 	strmi	r0, [r4], #-0
  6c:	02000032 	andeq	r0, r0, #50	; 0x32
  70:	00761939 	rsbseq	r1, r6, r9, lsr r9
  74:	02020000 	andeq	r0, r2, #0
  78:	007d3b07 	rsbseq	r3, sp, r7, lsl #22
  7c:	05040200 	streq	r0, [r4, #-512]	; 0xfffffe00
  80:	00008135 	andeq	r8, r0, r5, lsr r1
  84:	00493c04 	subeq	r3, r9, r4, lsl #24
  88:	194f0200 	stmdbne	pc, {r9}^	; <UNPREDICTABLE>
  8c:	00000090 	muleq	r0, r0, r0
  90:	10070402 	andne	r0, r7, r2, lsl #8
  94:	0200001f 	andeq	r0, r0, #31
  98:	8ca40708 	stchi	7, cr0, [r4], #32
  9c:	04050000 	streq	r0, [r5], #-0
  a0:	000000a4 	andeq	r0, r0, r4, lsr #1
  a4:	01020106 	tsteq	r2, r6, lsl #2
  a8:	0008fe08 	andeq	pc, r8, r8, lsl #28
  ac:	159f0400 	ldrne	r0, [pc, #1024]	; 4b4 <_Min_Stack_Size+0xb4>
  b0:	18030000 	stmdane	r3, {}	; <UNPREDICTABLE>
  b4:	00005013 	andeq	r5, r0, r3, lsl r0
  b8:	32460400 	subcc	r0, r6, #0, 8
  bc:	24030000 	strcs	r0, [r3], #-0
  c0:	00006a14 	andeq	r6, r0, r4, lsl sl
  c4:	493e0400 	ldmdbmi	lr!, {sl}
  c8:	30030000 	andcc	r0, r3, r0
  cc:	00008414 	andeq	r8, r0, r4, lsl r4
  d0:	00c50700 	sbceq	r0, r5, r0, lsl #14
  d4:	1c080000 	stcne	0, cr0, [r8], {-0}
  d8:	49094d04 	stmdbmi	r9, {r2, r8, sl, fp, lr}
  dc:	09000001 	stmdbeq	r0, {r0}
  e0:	004c5243 	subeq	r5, ip, r3, asr #4
  e4:	d1144e04 	tstle	r4, r4, lsl #28
  e8:	02000000 	andeq	r0, r0, #0
  ec:	43090023 	movwmi	r0, #36899	; 0x9023
  f0:	04004852 	streq	r4, [r0], #-2130	; 0xfffff7ae
  f4:	00d1144f 	sbcseq	r1, r1, pc, asr #8
  f8:	23020000 	movwcs	r0, #8192	; 0x2000
  fc:	44490904 	strbmi	r0, [r9], #-2308	; 0xfffff6fc
 100:	50040052 	andpl	r0, r4, r2, asr r0
 104:	0000d114 	andeq	sp, r0, r4, lsl r1
 108:	08230200 	stmdaeq	r3!, {r9}
 10c:	52444f09 	subpl	r4, r4, #9, 30	; 0x24
 110:	14510400 	ldrbne	r0, [r1], #-1024	; 0xfffffc00
 114:	000000d1 	ldrdeq	r0, [r0], -r1
 118:	0a0c2302 	beq	308d28 <_Min_Stack_Size+0x308928>
 11c:	0000953e 	andeq	r9, r0, lr, lsr r5
 120:	d1145204 	tstle	r4, r4, lsl #4
 124:	02000000 	andeq	r0, r0, #0
 128:	42091023 	andmi	r1, r9, #35	; 0x23
 12c:	04005252 	streq	r5, [r0], #-594	; 0xfffffdae
 130:	00d11453 	sbcseq	r1, r1, r3, asr r4
 134:	23020000 	movwcs	r0, #8192	; 0x2000
 138:	4de10a14 			; <UNDEFINED> instruction: 0x4de10a14
 13c:	54040000 	strpl	r0, [r4], #-0
 140:	0000d114 	andeq	sp, r0, r4, lsl r1
 144:	18230200 	stmdane	r3!, {r9}
 148:	97090400 	strls	r0, [r9, -r0, lsl #8]
 14c:	55040000 	strpl	r0, [r4, #-0]
 150:	0000d603 	andeq	sp, r0, r3, lsl #12
 154:	04180800 	ldreq	r0, [r8], #-2048	; 0xfffff800
 158:	01b80972 			; <UNDEFINED> instruction: 0x01b80972
 15c:	49090000 	stmdbmi	r9, {}	; <UNPREDICTABLE>
 160:	0400524d 	streq	r5, [r0], #-589	; 0xfffffdb3
 164:	00d11473 	sbcseq	r1, r1, r3, ror r4
 168:	23020000 	movwcs	r0, #8192	; 0x2000
 16c:	4d450900 	vstrmi.16	s1, [r5, #-0]	; <UNPREDICTABLE>
 170:	74040052 	strvc	r0, [r4], #-82	; 0xffffffae
 174:	0000d114 	andeq	sp, r0, r4, lsl r1
 178:	04230200 	strteq	r0, [r3], #-512	; 0xfffffe00
 17c:	001e960a 	andseq	r9, lr, sl, lsl #12
 180:	14750400 	ldrbtne	r0, [r5], #-1024	; 0xfffffc00
 184:	000000d1 	ldrdeq	r0, [r0], -r1
 188:	0a082302 	beq	208d98 <_Min_Stack_Size+0x208998>
 18c:	0000133a 	andeq	r1, r0, sl, lsr r3
 190:	d1147604 	tstle	r4, r4, lsl #12
 194:	02000000 	andeq	r0, r0, #0
 198:	e60a0c23 	str	r0, [sl], -r3, lsr #24
 19c:	04000076 	streq	r0, [r0], #-118	; 0xffffff8a
 1a0:	00d11477 	sbcseq	r1, r1, r7, ror r4
 1a4:	23020000 	movwcs	r0, #8192	; 0x2000
 1a8:	52500910 	subspl	r0, r0, #16, 18	; 0x40000
 1ac:	14780400 	ldrbtne	r0, [r8], #-1024	; 0xfffffc00
 1b0:	000000d1 	ldrdeq	r0, [r0], -r1
 1b4:	00142302 	andseq	r2, r4, r2, lsl #6
 1b8:	00792904 	rsbseq	r2, r9, r4, lsl #18
 1bc:	03790400 	cmneq	r9, #0, 8
 1c0:	00000155 	andeq	r0, r0, r5, asr r1
 1c4:	80042008 	andhi	r2, r4, r8
 1c8:	00021909 	andeq	r1, r2, r9, lsl #18
 1cc:	99ac0a00 	stmibls	ip!, {r9, fp}
 1d0:	81040000 	mrshi	r0, (UNDEF: 4)
 1d4:	0000d114 	andeq	sp, r0, r4, lsl r1
 1d8:	00230200 	eoreq	r0, r3, r0, lsl #4
 1dc:	007ec60a 	rsbseq	ip, lr, sl, lsl #12
 1e0:	14820400 	strne	r0, [r2], #1024	; 0x400
 1e4:	000000d1 	ldrdeq	r0, [r0], -r1
 1e8:	0a042302 	beq	108df8 <_Min_Stack_Size+0x1089f8>
 1ec:	00000201 	andeq	r0, r0, r1, lsl #4
 1f0:	29148304 	ldmdbcs	r4, {r2, r8, r9, pc}
 1f4:	02000002 	andeq	r0, r0, #2
 1f8:	e70a0823 	str	r0, [sl, -r3, lsr #16]
 1fc:	04000027 	streq	r0, [r0], #-39	; 0xffffffd9
 200:	00c50b84 	sbceq	r0, r5, r4, lsl #23
 204:	23020000 	movwcs	r0, #8192	; 0x2000
 208:	36b90a18 	ssatcc	r0, #26, r8, lsl #20
 20c:	85040000 	strhi	r0, [r4, #-0]
 210:	0000d114 	andeq	sp, r0, r4, lsl r1
 214:	1c230200 	sfmne	f0, 4, [r3], #-0
 218:	00d10b00 	sbcseq	r0, r1, r0, lsl #22
 21c:	02290000 	eoreq	r0, r9, #0
 220:	2d0c0000 	stccs	0, cr0, [ip, #-0]
 224:	03000000 	movweq	r0, #0
 228:	02190700 	andseq	r0, r9, #0, 14
 22c:	9a040000 	bls	100234 <_Min_Stack_Size+0xffe34>
 230:	04000090 	streq	r0, [r0], #-144	; 0xffffff70
 234:	01c40386 	biceq	r0, r4, r6, lsl #7
 238:	04080000 	streq	r0, [r8], #-0
 23c:	71090e05 	tstvc	r9, r5, lsl #28
 240:	0a000002 	beq	250 <_Min_Heap_Size+0x50>
 244:	00008ad9 	ldrdeq	r8, [r0], -r9
 248:	b90b1005 	stmdblt	fp, {r0, r2, ip}
 24c:	02000000 	andeq	r0, r0, #0
 250:	090a0023 	stmdbeq	sl, {r0, r1, r5}
 254:	05000025 	streq	r0, [r0, #-37]	; 0xffffffdb
 258:	00ad0a13 	adceq	r0, sp, r3, lsl sl
 25c:	23020000 	movwcs	r0, #8192	; 0x2000
 260:	02e30a02 	rsceq	r0, r3, #8192	; 0x2000
 264:	16050000 	strne	r0, [r5], -r0
 268:	0000ad0a 	andeq	sl, r0, sl, lsl #26
 26c:	03230200 			; <UNDEFINED> instruction: 0x03230200
 270:	32930400 	addscc	r0, r3, #0, 8
 274:	19050000 	stmdbne	r5, {}	; <UNPREDICTABLE>
 278:	00023a02 	andeq	r3, r2, r2, lsl #20
 27c:	060c0800 	streq	r0, [ip], -r0, lsl #16
 280:	02c3090e 	sbceq	r0, r3, #229376	; 0x38000
 284:	c60a0000 	strgt	r0, [sl], -r0
 288:	06000092 			; <UNDEFINED> instruction: 0x06000092
 28c:	00b90e10 	adcseq	r0, r9, r0, lsl lr
 290:	23020000 	movwcs	r0, #8192	; 0x2000
 294:	7d4e0a00 	vstrvc	s1, [lr, #-0]
 298:	11060000 	mrsne	r0, (UNDEF: 6)
 29c:	0002c311 	andeq	ip, r2, r1, lsl r3
 2a0:	04230200 	strteq	r0, [r3], #-512	; 0xfffffe00
 2a4:	00830c0a 	addeq	r0, r3, sl, lsl #24
 2a8:	0e120600 	cfmsub32eq	mvax0, mvfx0, mvfx2, mvfx0
 2ac:	000000b9 	strheq	r0, [r0], -r9
 2b0:	0a082302 	beq	208ec0 <_Min_Stack_Size+0x208ac0>
 2b4:	0000a76d 	andeq	sl, r0, sp, ror #14
 2b8:	ad0c1306 	stcge	3, cr1, [ip, #-24]	; 0xffffffe8
 2bc:	02000000 	andeq	r0, r0, #0
 2c0:	05000a23 	streq	r0, [r0, #-2595]	; 0xfffff5dd
 2c4:	00014904 	andeq	r4, r1, r4, lsl #18
 2c8:	1d450400 	cfstrdne	mvd0, [r5, #-0]
 2cc:	16060000 	strne	r0, [r6], -r0
 2d0:	00027d03 	andeq	r7, r2, r3, lsl #26
 2d4:	06140800 	ldreq	r0, [r4], -r0, lsl #16
 2d8:	031b0918 	tsteq	fp, #24, 18	; 0x60000
 2dc:	a10a0000 	mrsge	r0, (UNDEF: 10)
 2e0:	0600005e 			; <UNDEFINED> instruction: 0x0600005e
 2e4:	02c91d1b 	sbceq	r1, r9, #1728	; 0x6c0
 2e8:	23020000 	movwcs	r0, #8192	; 0x2000
 2ec:	3cd90a00 	vldmiacc	r9, {s1-s0}
 2f0:	1e060000 	cdpne	0, 0, cr0, cr6, cr0, {0}
 2f4:	0000ad14 	andeq	sl, r0, r4, lsl sp
 2f8:	0c230200 	sfmeq	f0, 4, [r3], #-0
 2fc:	007ddb0a 	rsbseq	sp, sp, sl, lsl #22
 300:	10210600 	eorne	r0, r1, r0, lsl #12
 304:	000000ad 	andeq	r0, r0, sp, lsr #1
 308:	0a0d2302 	beq	348f18 <_Min_Stack_Size+0x348b18>
 30c:	00006ed1 	ldrdeq	r6, [r0], -r1
 310:	9e092406 	cdpls	4, 0, cr2, cr9, cr6, {0}
 314:	02000000 	andeq	r0, r0, #0
 318:	04001023 	streq	r1, [r0], #-35	; 0xffffffdd
 31c:	000033eb 	andeq	r3, r0, fp, ror #7
 320:	d5022606 	strle	r2, [r2, #-1542]	; 0xfffff9fa
 324:	0b000002 	bleq	334 <_Min_Heap_Size+0x134>
 328:	0000009e 	muleq	r0, lr, r0
 32c:	00000337 	andeq	r0, r0, r7, lsr r3
 330:	00002d0c 	andeq	r2, r0, ip, lsl #26
 334:	0d000e00 	stceq	14, cr0, [r0, #-0]
 338:	00006ed0 	ldrdeq	r6, [r0], -r0
 33c:	27081001 	strcs	r1, [r8, -r1]
 340:	01000003 	tsteq	r0, r3
 344:	001c0305 	andseq	r0, ip, r5, lsl #6
 348:	010e2000 	mrseq	r2, (UNDEF: 14)
 34c:	000000da 	ldrdeq	r0, [r0], -sl
 350:	01067305 	tsteq	r6, r5, lsl #6
 354:	00036401 	andeq	r6, r3, r1, lsl #8
 358:	02c30f00 	sbceq	r0, r3, #0, 30
 35c:	640f0000 	strvs	r0, [pc], #-0	; 364 <_Min_Heap_Size+0x164>
 360:	00000003 	andeq	r0, r0, r3
 364:	02710405 	rsbseq	r0, r1, #83886080	; 0x5000000
 368:	01100000 	tsteq	r0, r0
 36c:	00009b37 	andeq	r9, r0, r7, lsr fp
 370:	06012801 	streq	r2, [r1], -r1, lsl #16
 374:	00065401 	andeq	r5, r6, r1, lsl #8
 378:	00071808 	andeq	r1, r7, r8, lsl #16
 37c:	00000008 	andeq	r0, r0, r8
 380:	01100100 	tsteq	r0, r0, lsl #2
 384:	00008608 	andeq	r8, r0, r8, lsl #12
 388:	06011f01 	streq	r1, [r1], -r1, lsl #30
 38c:	0005ac01 	andeq	sl, r5, r1, lsl #24
 390:	00065408 	andeq	r5, r6, r8, lsl #8
 394:	00002c08 	andeq	r2, r0, r8, lsl #24
 398:	01100100 	tsteq	r0, r0, lsl #2
 39c:	00002f10 	andeq	r2, r0, r0, lsl pc
 3a0:	06011a01 	streq	r1, [r1], -r1, lsl #20
 3a4:	00058801 	andeq	r8, r5, r1, lsl #16
 3a8:	0005ac08 	andeq	sl, r5, r8, lsl #24
 3ac:	00005808 	andeq	r5, r0, r8, lsl #16
 3b0:	01100100 	tsteq	r0, r0, lsl #2
 3b4:	000091b2 			; <UNDEFINED> instruction: 0x000091b2
 3b8:	06011401 	streq	r1, [r1], -r1, lsl #8
 3bc:	00056401 	andeq	r6, r5, r1, lsl #8
 3c0:	00058808 	andeq	r8, r5, r8, lsl #16
 3c4:	00008408 	andeq	r8, r0, r8, lsl #8
 3c8:	01100100 	tsteq	r0, r0, lsl #2
 3cc:	00007f03 	andeq	r7, r0, r3, lsl #30
 3d0:	06010e01 	streq	r0, [r1], -r1, lsl #28
 3d4:	00054001 	andeq	r4, r5, r1
 3d8:	00056408 	andeq	r6, r5, r8, lsl #8
 3dc:	0000b008 	andeq	fp, r0, r8
 3e0:	01100100 	tsteq	r0, r0, lsl #2
 3e4:	0000a7fb 	strdeq	sl, [r0], -fp
 3e8:	06010801 	streq	r0, [r1], -r1, lsl #16
 3ec:	00051c01 	andeq	r1, r5, r1, lsl #24
 3f0:	00054008 	andeq	r4, r5, r8
 3f4:	0000dc08 	andeq	sp, r0, r8, lsl #24
 3f8:	01100100 	tsteq	r0, r0, lsl #2
 3fc:	00009642 	andeq	r9, r0, r2, asr #12
 400:	06010001 	streq	r0, [r1], -r1
 404:	0004f801 	andeq	pc, r4, r1, lsl #16
 408:	00051c08 	andeq	r1, r5, r8, lsl #24
 40c:	00010808 	andeq	r0, r1, r8, lsl #16
 410:	01110100 	tsteq	r1, r0, lsl #2
 414:	000010ac 	andeq	r1, r0, ip, lsr #1
 418:	0106f101 	tsteq	r6, r1, lsl #2	; <UNPREDICTABLE>
	...
 424:	00000134 	andeq	r0, r0, r4, lsr r1
 428:	00043d01 	andeq	r3, r4, r1, lsl #26
 42c:	2f461200 	svccs	0x00461200
 430:	f1010000 	setend	le
 434:	00043d2f 	andeq	r3, r4, pc, lsr #26
 438:	74910200 	ldrvc	r0, [r1], #512	; 0x200
 43c:	1b040500 	blne	101844 <_Min_Stack_Size+0x101444>
 440:	11000003 	tstne	r0, r3
 444:	00740501 	rsbseq	r0, r4, r1, lsl #10
 448:	06e30100 	strbteq	r0, [r3], r0, lsl #2
 44c:	0004e001 	andeq	lr, r4, r1
 450:	0004f608 	andeq	pc, r4, r8, lsl #12
 454:	00018408 	andeq	r8, r1, r8, lsl #8
 458:	046e0100 	strbteq	r0, [lr], #-256	; 0xffffff00
 45c:	46120000 	ldrmi	r0, [r2], -r0
 460:	0100002f 	tsteq	r0, pc, lsr #32
 464:	043d2de3 	ldrteq	r2, [sp], #-3555	; 0xfffff21d
 468:	91020000 	mrsls	r0, (UNDEF: 2)
 46c:	01130074 	tsteq	r3, r4, ror r0
 470:	00003bcd 	andeq	r3, r0, sp, asr #23
 474:	0106c101 	tsteq	r6, r1, lsl #2
	...
 480:	000001d4 	ldrdeq	r0, [r0], -r4
 484:	d9011101 	stmdble	r1, {r0, r8, ip}
 488:	0100001b 	tsteq	r0, fp, lsl r0
 48c:	08010677 	stmdaeq	r1, {r0, r1, r2, r4, r5, r6, r9, sl}
 490:	e0080003 	and	r0, r8, r3
 494:	18080004 	stmdane	r8, {r2}
 498:	01000002 	tsteq	r0, r2
 49c:	000004dd 	ldrdeq	r0, [r0], -sp
 4a0:	002f4612 	eoreq	r4, pc, r2, lsl r6	; <UNPREDICTABLE>
 4a4:	25770100 	ldrbcs	r0, [r7, #-256]!	; 0xffffff00
 4a8:	0000043d 	andeq	r0, r0, sp, lsr r4
 4ac:	146c9102 	strbtne	r9, [ip], #-258	; 0xfffffefe
 4b0:	000024ee 	andeq	r2, r0, lr, ror #9
 4b4:	71137b01 	tstvc	r3, r1, lsl #22
 4b8:	02000002 	andeq	r0, r0, #2
 4bc:	fe147091 	mrc2	0, 0, r7, cr4, cr1, {4}
 4c0:	01000094 	swpeq	r0, r4, [r0]	; <UNPREDICTABLE>
 4c4:	00ad0b84 	adceq	r0, sp, r4, lsl #23
 4c8:	91020000 	mrsls	r0, (UNDEF: 2)
 4cc:	4aea1477 	bmi	ffa856b0 <_estack+0xdfa806b0>
 4d0:	86010000 	strhi	r0, [r1], -r0
 4d4:	0000ad0a 	andeq	sl, r0, sl, lsl #26
 4d8:	76910200 	ldrvc	r0, [r1], r0, lsl #4
 4dc:	8b011500 	blhi	458e4 <_Min_Stack_Size+0x454e4>
 4e0:	010000a7 	smlatbeq	r0, r7, r0, r0
 4e4:	3c01064c 	stccc	6, cr0, [r1], {76}	; 0x4c
 4e8:	08080002 	stmdaeq	r8, {r1}
 4ec:	68080003 	stmdavs	r8, {r0, r1}
 4f0:	01000002 	tsteq	r0, r2
 4f4:	00000508 	andeq	r0, r0, r8, lsl #10
 4f8:	51524916 	cmppl	r2, r6, lsl r9
 4fc:	1d4c0100 	stfnee	f0, [ip, #-0]
 500:	000000b9 	strheq	r0, [r0], -r9
 504:	00769102 	rsbseq	r9, r6, r2, lsl #2
 508:	acb80117 	ldfges	f0, [r8], #92	; 0x5c
 50c:	25010000 	strcs	r0, [r1, #-0]
 510:	01700106 	cmneq	r0, r6, lsl #2
 514:	023c0800 	eorseq	r0, ip, #0, 16
 518:	02c40800 	sbceq	r0, r4, #0, 16
 51c:	16010000 	strne	r0, [r1], -r0
 520:	00515249 	subseq	r5, r1, r9, asr #4
 524:	b91c2501 	ldmdblt	ip, {r0, r8, sl, sp}
 528:	02000000 	andeq	r0, r0, #0
 52c:	00007691 	muleq	r0, r1, r6
 530:	000004b9 			; <UNDEFINED> instruction: 0x000004b9
 534:	01800002 	orreq	r0, r0, r2
 538:	01040000 	mrseq	r0, (UNDEF: 4)
 53c:	00001b22 	andeq	r1, r0, r2, lsr #22
 540:	00ad170c 	adceq	r1, sp, ip, lsl #14
 544:	00200c00 	eoreq	r0, r0, r0, lsl #24
 548:	00007000 	andeq	r7, r0, r0
	...
 554:	000ad300 	andeq	sp, sl, r0, lsl #6
 558:	00237000 	eoreq	r7, r3, r0
 55c:	07040200 	streq	r0, [r4, -r0, lsl #4]
 560:	00002806 	andeq	r2, r0, r6, lsl #16
 564:	69050403 	stmdbvs	r5, {r0, r1, sl}
 568:	0200746e 	andeq	r7, r0, #1845493760	; 0x6e000000
 56c:	5e510508 	cdppl	5, 5, cr0, cr1, cr8, {0}
 570:	08020000 	stmdaeq	r2, {}	; <UNPREDICTABLE>
 574:	0003c704 	andeq	ip, r3, r4, lsl #14
 578:	06010200 	streq	r0, [r1], -r0, lsl #4
 57c:	000008f7 	strdeq	r0, [r0], -r7
 580:	00159d04 	andseq	r9, r5, r4, lsl #26
 584:	182b0200 	stmdane	fp!, {r9}
 588:	0000005c 	andeq	r0, r0, ip, asr r0
 58c:	15080102 	strne	r0, [r8, #-258]	; 0xfffffefe
 590:	0200003b 	andeq	r0, r0, #59	; 0x3b
 594:	0bbb0502 	bleq	feec19a4 <_estack+0xdeebc9a4>
 598:	44040000 	strmi	r0, [r4], #-0
 59c:	02000032 	andeq	r0, r0, #50	; 0x32
 5a0:	00761939 	rsbseq	r1, r6, r9, lsr r9
 5a4:	02020000 	andeq	r0, r2, #0
 5a8:	007d3b07 	rsbseq	r3, sp, r7, lsl #22
 5ac:	05040200 	streq	r0, [r4, #-512]	; 0xfffffe00
 5b0:	00008135 	andeq	r8, r0, r5, lsr r1
 5b4:	00493c04 	subeq	r3, r9, r4, lsl #24
 5b8:	194f0200 	stmdbne	pc, {r9}^	; <UNPREDICTABLE>
 5bc:	00000090 	muleq	r0, r0, r0
 5c0:	10070402 	andne	r0, r7, r2, lsl #8
 5c4:	0200001f 	andeq	r0, r0, #31
 5c8:	8ca40708 	stchi	7, cr0, [r4], #32
 5cc:	01020000 	mrseq	r0, (UNDEF: 2)
 5d0:	0008fe08 	andeq	pc, r8, r8, lsl #28
 5d4:	159f0400 	ldrne	r0, [pc, #1024]	; 9dc <_Min_Stack_Size+0x5dc>
 5d8:	18030000 	stmdane	r3, {}	; <UNPREDICTABLE>
 5dc:	00005013 	andeq	r5, r0, r3, lsl r0
 5e0:	32460400 	subcc	r0, r6, #0, 8
 5e4:	24030000 	strcs	r0, [r3], #-0
 5e8:	00006a14 	andeq	r6, r0, r4, lsl sl
 5ec:	493e0400 	ldmdbmi	lr!, {sl}
 5f0:	30030000 	andcc	r0, r3, r0
 5f4:	00008414 	andeq	r8, r0, r4, lsl r4
 5f8:	00bd0500 	adcseq	r0, sp, r0, lsl #10
 5fc:	1c060000 	stcne	0, cr0, [r6], {-0}
 600:	41094d04 	tstmi	r9, r4, lsl #26
 604:	07000001 	streq	r0, [r0, -r1]
 608:	004c5243 	subeq	r5, ip, r3, asr #4
 60c:	c9144e04 	ldmdbgt	r4, {r2, r9, sl, fp, lr}
 610:	02000000 	andeq	r0, r0, #0
 614:	43070023 	movwmi	r0, #28707	; 0x7023
 618:	04004852 	streq	r4, [r0], #-2130	; 0xfffff7ae
 61c:	00c9144f 	sbceq	r1, r9, pc, asr #8
 620:	23020000 	movwcs	r0, #8192	; 0x2000
 624:	44490704 	strbmi	r0, [r9], #-1796	; 0xfffff8fc
 628:	50040052 	andpl	r0, r4, r2, asr r0
 62c:	0000c914 	andeq	ip, r0, r4, lsl r9
 630:	08230200 	stmdaeq	r3!, {r9}
 634:	52444f07 	subpl	r4, r4, #7, 30
 638:	14510400 	ldrbne	r0, [r1], #-1024	; 0xfffffc00
 63c:	000000c9 	andeq	r0, r0, r9, asr #1
 640:	080c2302 	stmdaeq	ip, {r1, r8, r9, sp}
 644:	0000953e 	andeq	r9, r0, lr, lsr r5
 648:	c9145204 	ldmdbgt	r4, {r2, r9, ip, lr}
 64c:	02000000 	andeq	r0, r0, #0
 650:	42071023 	andmi	r1, r7, #35	; 0x23
 654:	04005252 	streq	r5, [r0], #-594	; 0xfffffdae
 658:	00c91453 	sbceq	r1, r9, r3, asr r4
 65c:	23020000 	movwcs	r0, #8192	; 0x2000
 660:	4de10814 	stclmi	8, cr0, [r1, #80]!	; 0x50
 664:	54040000 	strpl	r0, [r4], #-0
 668:	0000c914 	andeq	ip, r0, r4, lsl r9
 66c:	18230200 	stmdane	r3!, {r9}
 670:	97090400 	strls	r0, [r9, -r0, lsl #8]
 674:	55040000 	strpl	r0, [r4, #-0]
 678:	0000ce03 	andeq	ip, r0, r3, lsl #28
 67c:	04300600 	ldrteq	r0, [r0], #-1536	; 0xfffffa00
 680:	020a095d 	andeq	r0, sl, #1523712	; 0x174000
 684:	43070000 	movwmi	r0, #28672	; 0x7000
 688:	5e040052 	mcrpl	0, 0, r0, cr4, cr2, {2}
 68c:	0000c914 	andeq	ip, r0, r4, lsl r9
 690:	00230200 	eoreq	r0, r3, r0, lsl #4
 694:	00acf808 	adceq	pc, ip, r8, lsl #16
 698:	145f0400 	ldrbne	r0, [pc], #-1024	; 6a0 <_Min_Stack_Size+0x2a0>
 69c:	000000c9 	andeq	r0, r0, r9, asr #1
 6a0:	07042302 	streq	r2, [r4, -r2, lsl #6]
 6a4:	00524943 	subseq	r4, r2, r3, asr #18
 6a8:	c9146004 	ldmdbgt	r4, {r2, sp, lr}
 6ac:	02000000 	andeq	r0, r0, #0
 6b0:	a2080823 	andge	r0, r8, #2293760	; 0x230000
 6b4:	040000ad 	streq	r0, [r0], #-173	; 0xffffff53
 6b8:	00c91461 	sbceq	r1, r9, r1, ror #8
 6bc:	23020000 	movwcs	r0, #8192	; 0x2000
 6c0:	adc5080c 	stclge	8, cr0, [r5, #48]	; 0x30
 6c4:	62040000 	andvs	r0, r4, #0
 6c8:	0000c914 	andeq	ip, r0, r4, lsl r9
 6cc:	10230200 	eorne	r0, r3, r0, lsl #4
 6d0:	00ae0808 	adceq	r0, lr, r8, lsl #16
 6d4:	14630400 	strbtne	r0, [r3], #-1024	; 0xfffffc00
 6d8:	000000c9 	andeq	r0, r0, r9, asr #1
 6dc:	08142302 	ldmdaeq	r4, {r1, r8, r9, sp}
 6e0:	0000ad0f 	andeq	sl, r0, pc, lsl #26
 6e4:	c9146404 	ldmdbgt	r4, {r2, sl, sp, lr}
 6e8:	02000000 	andeq	r0, r0, #0
 6ec:	ce081823 	cdpgt	8, 0, cr1, cr8, cr3, {1}
 6f0:	040000ad 	streq	r0, [r0], #-173	; 0xffffff53
 6f4:	00c91465 	sbceq	r1, r9, r5, ror #8
 6f8:	23020000 	movwcs	r0, #8192	; 0x2000
 6fc:	ad46081c 	stclge	8, cr0, [r6, #-112]	; 0xffffff90
 700:	66040000 	strvs	r0, [r4], -r0
 704:	0000c914 	andeq	ip, r0, r4, lsl r9
 708:	20230200 	eorcs	r0, r3, r0, lsl #4
 70c:	52534307 	subspl	r4, r3, #469762048	; 0x1c000000
 710:	14670400 	strbtne	r0, [r7], #-1024	; 0xfffffc00
 714:	000000c9 	andeq	r0, r0, r9, asr #1
 718:	08242302 	stmdaeq	r4!, {r1, r8, r9, sp}
 71c:	0000ae0f 	andeq	sl, r0, pc, lsl #28
 720:	c9146804 	ldmdbgt	r4, {r2, fp, sp, lr}
 724:	02000000 	andeq	r0, r0, #0
 728:	ab082823 	blge	20a7bc <_Min_Stack_Size+0x20a3bc>
 72c:	040000ad 	streq	r0, [r0], #-173	; 0xffffff53
 730:	00c91469 	sbceq	r1, r9, r9, ror #8
 734:	23020000 	movwcs	r0, #8192	; 0x2000
 738:	f204002c 	vhadd.s8	d0, d4, d28
 73c:	040000ad 	streq	r0, [r0], #-173	; 0xffffff53
 740:	014d036b 	cmpeq	sp, fp, ror #6
 744:	04060000 	streq	r0, [r6], #-0
 748:	4d090e05 	stcmi	14, cr0, [r9, #-20]	; 0xffffffec
 74c:	08000002 	stmdaeq	r0, {r1}
 750:	00008ad9 	ldrdeq	r8, [r0], -r9
 754:	b10b1005 	tstlt	fp, r5
 758:	02000000 	andeq	r0, r0, #0
 75c:	09080023 	stmdbeq	r8, {r0, r1, r5}
 760:	05000025 	streq	r0, [r0, #-37]	; 0xffffffdb
 764:	00a50a13 	adceq	r0, r5, r3, lsl sl
 768:	23020000 	movwcs	r0, #8192	; 0x2000
 76c:	02e30802 	rsceq	r0, r3, #131072	; 0x20000
 770:	16050000 	strne	r0, [r5], -r0
 774:	0000a50a 	andeq	sl, r0, sl, lsl #10
 778:	03230200 			; <UNDEFINED> instruction: 0x03230200
 77c:	32930400 	addscc	r0, r3, #0, 8
 780:	19050000 	stmdbne	r5, {}	; <UNPREDICTABLE>
 784:	00021602 	andeq	r1, r2, r2, lsl #12
 788:	63010900 	movwvs	r0, #6400	; 0x1900
 78c:	010000ad 	smlatbeq	r0, sp, r0, r0
 790:	01090146 	tsteq	r9, r6, asr #2
 794:	000000a5 	andeq	r0, r0, r5, lsr #1
	...
 7a0:	00000320 	andeq	r0, r0, r0, lsr #6
 7a4:	0002aa01 	andeq	sl, r2, r1, lsl #20
 7a8:	ad4b0a00 	vstrge	s1, [fp, #-0]
 7ac:	46010000 	strmi	r0, [r1], -r0
 7b0:	02aa2a01 	adceq	r2, sl, #4096	; 0x1000
 7b4:	91020000 	mrsls	r0, (UNDEF: 2)
 7b8:	8ade0a6c 	bhi	ff783170 <_estack+0xdf77e170>
 7bc:	46010000 	strmi	r0, [r1], -r0
 7c0:	00b13b01 	adcseq	r3, r1, r1, lsl #22
 7c4:	91020000 	mrsls	r0, (UNDEF: 2)
 7c8:	6d740b6a 	vldmdbvs	r4!, {d16-<overflow reg d68>}
 7cc:	63010070 	movwvs	r0, #4208	; 0x1070
 7d0:	00c91401 	sbceq	r1, r9, r1, lsl #8
 7d4:	91020000 	mrsls	r0, (UNDEF: 2)
 7d8:	040c0074 	streq	r0, [ip], #-116	; 0xffffff8c
 7dc:	00000141 	andeq	r0, r0, r1, asr #2
 7e0:	ad32010d 	ldfges	f0, [r2, #-52]!	; 0xffffffcc
 7e4:	39010000 	stmdbcc	r1, {}	; <UNPREDICTABLE>
 7e8:	00010601 	andeq	r0, r1, r1, lsl #12
 7ec:	00000000 	andeq	r0, r0, r0
 7f0:	7c000000 	stcvc	0, cr0, [r0], {-0}
 7f4:	01000003 	tsteq	r0, r3
 7f8:	000002ed 	andeq	r0, r0, sp, ror #5
 7fc:	00ad4b0a 	adceq	r4, sp, sl, lsl #22
 800:	01390100 	teqeq	r9, r0, lsl #2
 804:	0002aa2a 	andeq	sl, r2, sl, lsr #20
 808:	74910200 	ldrvc	r0, [r1], #512	; 0x200
 80c:	008ade0a 	addeq	sp, sl, sl, lsl #28
 810:	01390100 	teqeq	r9, r0, lsl #2
 814:	0000b13b 	andeq	fp, r0, fp, lsr r1
 818:	72910200 	addsvc	r0, r1, #0, 4
 81c:	80010d00 	andhi	r0, r1, r0, lsl #26
 820:	010000ad 	smlatbeq	r0, sp, r0, r0
 824:	01060115 	tsteq	r6, r5, lsl r1
	...
 830:	000003d8 	ldrdeq	r0, [r0], -r8
 834:	00033a01 	andeq	r3, r3, r1, lsl #20
 838:	ad4b0a00 	vstrge	s1, [fp, #-0]
 83c:	15010000 	strne	r0, [r1, #-0]
 840:	02aa2801 	adceq	r2, sl, #65536	; 0x10000
 844:	91020000 	mrsls	r0, (UNDEF: 2)
 848:	8ade0a74 	bhi	ff783220 <_estack+0xdf77e220>
 84c:	15010000 	strne	r0, [r1, #-0]
 850:	00b13901 	adcseq	r3, r1, r1, lsl #18
 854:	91020000 	mrsls	r0, (UNDEF: 2)
 858:	ae290a72 			; <UNDEFINED> instruction: 0xae290a72
 85c:	15010000 	strne	r0, [r1, #-0]
 860:	00a54c01 	adceq	r4, r5, r1, lsl #24
 864:	91020000 	mrsls	r0, (UNDEF: 2)
 868:	010d0071 	tsteq	sp, r1, ror r0
 86c:	0000adb1 			; <UNDEFINED> instruction: 0x0000adb1
 870:	06010501 	streq	r0, [r1], -r1, lsl #10
 874:	00000001 	andeq	r0, r0, r1
 878:	00000000 	andeq	r0, r0, r0
 87c:	00043400 	andeq	r3, r4, r0, lsl #8
 880:	03770100 	cmneq	r7, #0, 2
 884:	4b0a0000 	blmi	28088c <_Min_Stack_Size+0x28048c>
 888:	010000ad 	smlatbeq	r0, sp, r0, r0
 88c:	aa290105 	bge	a40ca8 <_Min_Stack_Size+0xa408a8>
 890:	02000002 	andeq	r0, r0, #2
 894:	290a7491 	stmdbcs	sl, {r0, r4, r7, sl, ip, sp, lr}
 898:	010000ae 	smlatbeq	r0, lr, r0, r0
 89c:	b13a0105 	teqlt	sl, r5, lsl #2
 8a0:	02000000 	andeq	r0, r0, #0
 8a4:	0e007291 	mcreq	2, 0, r7, cr0, cr1, {4}
 8a8:	00ae1601 	adceq	r1, lr, r1, lsl #12
 8ac:	0af70100 	beq	ffdc0cb4 <_estack+0xdfdbbcb4>
 8b0:	0000b101 	andeq	fp, r0, r1, lsl #2
	...
 8bc:	00049000 	andeq	r9, r4, r0
 8c0:	03b50100 			; <UNDEFINED> instruction: 0x03b50100
 8c4:	4b0f0000 	blmi	3c08cc <_Min_Stack_Size+0x3c04cc>
 8c8:	010000ad 	smlatbeq	r0, sp, r0, r0
 8cc:	02aa2df7 	adceq	r2, sl, #15808	; 0x3dc0
 8d0:	91020000 	mrsls	r0, (UNDEF: 2)
 8d4:	ade7106c 	stclge	0, cr1, [r7, #432]!	; 0x1b0
 8d8:	f9010000 			; <UNDEFINED> instruction: 0xf9010000
 8dc:	0000b10b 	andeq	fp, r0, fp, lsl #2
 8e0:	76910200 	ldrvc	r0, [r1], r0, lsl #4
 8e4:	51010e00 	tstpl	r1, r0, lsl #28
 8e8:	010000ad 	smlatbeq	r0, sp, r0, r0
 8ec:	a5010ae3 	strge	r0, [r1, #-2787]	; 0xfffff51d
	...
 8f8:	ec000000 	stc	0, cr0, [r0], {-0}
 8fc:	01000004 	tsteq	r0, r4
 900:	00000402 	andeq	r0, r0, r2, lsl #8
 904:	00ad4b0f 	adceq	r4, sp, pc, lsl #22
 908:	2ce30100 	stfcse	f0, [r3]
 90c:	000002aa 	andeq	r0, r0, sl, lsr #5
 910:	0f6c9102 	svceq	0x006c9102
 914:	00008ade 	ldrdeq	r8, [r0], -lr
 918:	b13de301 	teqlt	sp, r1, lsl #6
 91c:	02000000 	andeq	r0, r0, #0
 920:	fe106a91 	mrc2	10, 0, r6, cr0, cr1, {4}	; <UNPREDICTABLE>
 924:	010000ad 	smlatbeq	r0, sp, r0, r0
 928:	00a50ae5 	adceq	r0, r5, r5, ror #21
 92c:	91020000 	mrsls	r0, (UNDEF: 2)
 930:	01110077 	tsteq	r1, r7, ror r0
 934:	0000add6 	ldrdeq	sl, [r0], -r6
 938:	0106ae01 	tsteq	r6, r1, lsl #28
	...
 944:	00000548 	andeq	r0, r0, r8, asr #10
 948:	00042d01 	andeq	r2, r4, r1, lsl #26
 94c:	ad4b0f00 	stclge	15, cr0, [fp, #-0]
 950:	ae010000 	cdpge	0, 0, cr0, cr1, cr0, {0}
 954:	0002aa29 	andeq	sl, r2, r9, lsr #20
 958:	74910200 	ldrvc	r0, [r1], #512	; 0x200
 95c:	da011200 	ble	45164 <_Min_Stack_Size+0x44d64>
 960:	01000000 	mrseq	r0, (UNDEF: 0)
 964:	88010674 	stmdahi	r1, {r2, r4, r5, r6, r9, sl}
 968:	dc080008 	stcle	0, cr0, [r8], {8}
 96c:	a4080009 	strge	r0, [r8], #-9
 970:	01000005 	tsteq	r0, r5
 974:	00000485 	andeq	r0, r0, r5, lsl #9
 978:	00ad4b0f 	adceq	r4, sp, pc, lsl #22
 97c:	25740100 	ldrbcs	r0, [r4, #-256]!	; 0xffffff00
 980:	000002aa 	andeq	r0, r0, sl, lsr #5
 984:	0f649102 	svceq	0x00649102
 988:	0000ad28 	andeq	sl, r0, r8, lsr #26
 98c:	853f7401 	ldrhi	r7, [pc, #-1025]!	; 593 <_Min_Stack_Size+0x193>
 990:	02000004 	andeq	r0, r0, #4
 994:	93106091 	tstls	r0, #145	; 0x91
 998:	010000ad 	smlatbeq	r0, sp, r0, r0
 99c:	048b1576 	streq	r1, [fp], #1398	; 0x576
 9a0:	91020000 	mrsls	r0, (UNDEF: 2)
 9a4:	ad75106c 	ldclge	0, cr1, [r5, #-432]!	; 0xfffffe50
 9a8:	77010000 	strvc	r0, [r1, -r0]
 9ac:	0000a50a 	andeq	sl, r0, sl, lsl #10
 9b0:	6b910200 	blvs	fe4411b8 <_estack+0xde43c1b8>
 9b4:	4d040c00 	stcmi	12, cr0, [r4, #-0]
 9b8:	0c000002 	stceq	0, cr0, [r0], {2}
 9bc:	0000c904 	andeq	ip, r0, r4, lsl #18
 9c0:	fd011300 	stc2	3, cr1, [r1, #-0]
 9c4:	010000ac 	smlatbeq	r0, ip, r0, r0
 9c8:	a5010917 	strge	r0, [r1, #-2327]	; 0xfffff6e9
 9cc:	18000000 	stmdane	r0, {}	; <UNPREDICTABLE>
 9d0:	86080007 	strhi	r0, [r8], -r7
 9d4:	f4080008 	vst4.8	{d0-d3}, [r8], r8
 9d8:	01000005 	tsteq	r0, r5
 9dc:	008ade0f 	addeq	sp, sl, pc, lsl #28
 9e0:	24170100 	ldrcs	r0, [r7], #-256	; 0xffffff00
 9e4:	000000b1 	strheq	r0, [r0], -r1
 9e8:	00769102 	rsbseq	r9, r6, r2, lsl #2
 9ec:	0003d100 	andeq	sp, r3, r0, lsl #2
 9f0:	ef000200 	svc	0x00000200
 9f4:	04000002 	streq	r0, [r0], #-2
 9f8:	001b2201 	andseq	r2, fp, r1, lsl #4
 9fc:	ae640c00 	cdpge	12, 6, cr0, cr4, cr0, {0}
 a00:	200c0000 	andcs	r0, ip, r0
 a04:	00c00000 	sbceq	r0, r0, r0
	...
 a10:	14000000 	strne	r0, [r0], #-0
 a14:	258c0000 	strcs	r0, [ip]
 a18:	01020000 	mrseq	r0, (UNDEF: 2)
 a1c:	0008f706 	andeq	pc, r8, r6, lsl #14
 a20:	159d0300 	ldrne	r0, [sp, #768]	; 0x300
 a24:	2b020000 	blcs	80a2c <_Min_Stack_Size+0x8062c>
 a28:	00004018 	andeq	r4, r0, r8, lsl r0
 a2c:	08010200 	stmdaeq	r1, {r9}
 a30:	00003b15 	andeq	r3, r0, r5, lsl fp
 a34:	bb050202 	bllt	141244 <_Min_Stack_Size+0x140e44>
 a38:	0300000b 	movweq	r0, #11
 a3c:	00003244 	andeq	r3, r0, r4, asr #4
 a40:	5a193902 	bpl	64ee50 <_Min_Stack_Size+0x64ea50>
 a44:	02000000 	andeq	r0, r0, #0
 a48:	7d3b0702 	ldcvc	7, cr0, [fp, #-8]!
 a4c:	04020000 	streq	r0, [r2], #-0
 a50:	00813505 	addeq	r3, r1, r5, lsl #10
 a54:	493c0300 	ldmdbmi	ip!, {r8, r9}
 a58:	4f020000 	svcmi	0x00020000
 a5c:	00007419 	andeq	r7, r0, r9, lsl r4
 a60:	07040200 	streq	r0, [r4, -r0, lsl #4]
 a64:	00001f10 	andeq	r1, r0, r0, lsl pc
 a68:	51050802 	tstpl	r5, r2, lsl #16
 a6c:	0200005e 	andeq	r0, r0, #94	; 0x5e
 a70:	8ca40708 	stchi	7, cr0, [r4], #32
 a74:	04040000 	streq	r0, [r4], #-0
 a78:	746e6905 	strbtvc	r6, [lr], #-2309	; 0xfffff6fb
 a7c:	07040200 	streq	r0, [r4, -r0, lsl #4]
 a80:	00002806 	andeq	r2, r0, r6, lsl #16
 a84:	00159f03 	andseq	r9, r5, r3, lsl #30
 a88:	13180300 	tstne	r8, #0, 6
 a8c:	00000034 	andeq	r0, r0, r4, lsr r0
 a90:	00324603 	eorseq	r4, r2, r3, lsl #12
 a94:	14240300 	strtne	r0, [r4], #-768	; 0xfffffd00
 a98:	0000004e 	andeq	r0, r0, lr, asr #32
 a9c:	00493e03 	subeq	r3, r9, r3, lsl #28
 aa0:	14300300 	ldrtne	r0, [r0], #-768	; 0xfffffd00
 aa4:	00000068 	andeq	r0, r0, r8, rrx
 aa8:	0000af05 	andeq	sl, r0, r5, lsl #30
 aac:	04080200 	streq	r0, [r8], #-512	; 0xfffffe00
 ab0:	000003c7 	andeq	r0, r0, r7, asr #7
 ab4:	00cd0406 	sbceq	r0, sp, r6, lsl #8
 ab8:	01070000 	mrseq	r0, (UNDEF: 7)
 abc:	fe080102 	cdp2	1, 0, cr0, cr8, cr2, {0}
 ac0:	08000008 	stmdaeq	r0, {r3}
 ac4:	094d041c 	stmdbeq	sp, {r2, r3, r4, sl}^
 ac8:	00000149 	andeq	r0, r0, r9, asr #2
 acc:	4c524309 	mrrcmi	3, 0, r4, r2, cr9
 ad0:	144e0400 	strbne	r0, [lr], #-1024	; 0xfffffc00
 ad4:	000000bb 	strheq	r0, [r0], -fp
 ad8:	09002302 	stmdbeq	r0, {r1, r8, r9, sp}
 adc:	00485243 	subeq	r5, r8, r3, asr #4
 ae0:	bb144f04 	bllt	5146f8 <_Min_Stack_Size+0x5142f8>
 ae4:	02000000 	andeq	r0, r0, #0
 ae8:	49090423 	stmdbmi	r9, {r0, r1, r5, sl}
 aec:	04005244 	streq	r5, [r0], #-580	; 0xfffffdbc
 af0:	00bb1450 	adcseq	r1, fp, r0, asr r4
 af4:	23020000 	movwcs	r0, #8192	; 0x2000
 af8:	444f0908 	strbmi	r0, [pc], #-2312	; b00 <_Min_Stack_Size+0x700>
 afc:	51040052 	qaddpl	r0, r2, r4
 b00:	0000bb14 	andeq	fp, r0, r4, lsl fp
 b04:	0c230200 	sfmeq	f0, 4, [r3], #-0
 b08:	00953e0a 	addseq	r3, r5, sl, lsl #28
 b0c:	14520400 	ldrbne	r0, [r2], #-1024	; 0xfffffc00
 b10:	000000bb 	strheq	r0, [r0], -fp
 b14:	09102302 	ldmdbeq	r0, {r1, r8, r9, sp}
 b18:	00525242 	subseq	r5, r2, r2, asr #4
 b1c:	bb145304 	bllt	515734 <_Min_Stack_Size+0x515334>
 b20:	02000000 	andeq	r0, r0, #0
 b24:	e10a1423 	tst	sl, r3, lsr #8
 b28:	0400004d 	streq	r0, [r0], #-77	; 0xffffffb3
 b2c:	00bb1454 	adcseq	r1, fp, r4, asr r4
 b30:	23020000 	movwcs	r0, #8192	; 0x2000
 b34:	09030018 	stmdbeq	r3, {r3, r4}
 b38:	04000097 	streq	r0, [r0], #-151	; 0xffffff69
 b3c:	00d60355 	sbcseq	r0, r6, r5, asr r3
 b40:	30080000 	andcc	r0, r8, r0
 b44:	12095d04 	andne	r5, r9, #4, 26	; 0x100
 b48:	09000002 	stmdbeq	r0, {r1}
 b4c:	04005243 	streq	r5, [r0], #-579	; 0xfffffdbd
 b50:	00bb145e 	adcseq	r1, fp, lr, asr r4
 b54:	23020000 	movwcs	r0, #8192	; 0x2000
 b58:	acf80a00 	vldmiage	r8!, {s1-s0}
 b5c:	5f040000 	svcpl	0x00040000
 b60:	0000bb14 	andeq	fp, r0, r4, lsl fp
 b64:	04230200 	strteq	r0, [r3], #-512	; 0xfffffe00
 b68:	52494309 	subpl	r4, r9, #603979776	; 0x24000000
 b6c:	14600400 	strbtne	r0, [r0], #-1024	; 0xfffffc00
 b70:	000000bb 	strheq	r0, [r0], -fp
 b74:	0a082302 	beq	209784 <_Min_Stack_Size+0x209384>
 b78:	0000ada2 	andeq	sl, r0, r2, lsr #27
 b7c:	bb146104 	bllt	518f94 <_Min_Stack_Size+0x518b94>
 b80:	02000000 	andeq	r0, r0, #0
 b84:	c50a0c23 	strgt	r0, [sl, #-3107]	; 0xfffff3dd
 b88:	040000ad 	streq	r0, [r0], #-173	; 0xffffff53
 b8c:	00bb1462 	adcseq	r1, fp, r2, ror #8
 b90:	23020000 	movwcs	r0, #8192	; 0x2000
 b94:	ae080a10 	vmovge	s16, r0
 b98:	63040000 	movwvs	r0, #16384	; 0x4000
 b9c:	0000bb14 	andeq	fp, r0, r4, lsl fp
 ba0:	14230200 	strtne	r0, [r3], #-512	; 0xfffffe00
 ba4:	00ad0f0a 	adceq	r0, sp, sl, lsl #30
 ba8:	14640400 	strbtne	r0, [r4], #-1024	; 0xfffffc00
 bac:	000000bb 	strheq	r0, [r0], -fp
 bb0:	0a182302 	beq	6097c0 <_Min_Stack_Size+0x6093c0>
 bb4:	0000adce 	andeq	sl, r0, lr, asr #27
 bb8:	bb146504 	bllt	519fd0 <_Min_Stack_Size+0x519bd0>
 bbc:	02000000 	andeq	r0, r0, #0
 bc0:	460a1c23 	strmi	r1, [sl], -r3, lsr #24
 bc4:	040000ad 	streq	r0, [r0], #-173	; 0xffffff53
 bc8:	00bb1466 	adcseq	r1, fp, r6, ror #8
 bcc:	23020000 	movwcs	r0, #8192	; 0x2000
 bd0:	53430920 	movtpl	r0, #14624	; 0x3920
 bd4:	67040052 	smlsdvs	r4, r2, r0, r0
 bd8:	0000bb14 	andeq	fp, r0, r4, lsl fp
 bdc:	24230200 	strtcs	r0, [r3], #-512	; 0xfffffe00
 be0:	00ae0f0a 	adceq	r0, lr, sl, lsl #30
 be4:	14680400 	strbtne	r0, [r8], #-1024	; 0xfffffc00
 be8:	000000bb 	strheq	r0, [r0], -fp
 bec:	0a282302 	beq	a097fc <_Min_Stack_Size+0xa093fc>
 bf0:	0000adab 	andeq	sl, r0, fp, lsr #27
 bf4:	bb146904 	bllt	51b00c <_Min_Stack_Size+0x51ac0c>
 bf8:	02000000 	andeq	r0, r0, #0
 bfc:	03002c23 	movweq	r2, #3107	; 0xc23
 c00:	0000adf2 	strdeq	sl, [r0], -r2
 c04:	55036b04 	strpl	r6, [r3, #-2820]	; 0xfffff4fc
 c08:	08000001 	stmdaeq	r0, {r0}
 c0c:	090e050c 	stmdbeq	lr, {r2, r3, r8, sl}
 c10:	00000264 	andeq	r0, r0, r4, ror #4
 c14:	0092c60a 	addseq	ip, r2, sl, lsl #12
 c18:	0e100500 	cfmul32eq	mvfx0, mvfx0, mvfx0
 c1c:	000000a3 	andeq	r0, r0, r3, lsr #1
 c20:	0a002302 	beq	9830 <_Min_Stack_Size+0x9430>
 c24:	00007d4e 	andeq	r7, r0, lr, asr #26
 c28:	64111105 	ldrvs	r1, [r1], #-261	; 0xfffffefb
 c2c:	02000002 	andeq	r0, r0, #2
 c30:	0c0a0423 	cfstrseq	mvf0, [sl], {35}	; 0x23
 c34:	05000083 	streq	r0, [r0, #-131]	; 0xffffff7d
 c38:	00a30e12 	adceq	r0, r3, r2, lsl lr
 c3c:	23020000 	movwcs	r0, #8192	; 0x2000
 c40:	a76d0a08 	strbge	r0, [sp, -r8, lsl #20]!
 c44:	13050000 	movwne	r0, #20480	; 0x5000
 c48:	0000970c 	andeq	r9, r0, ip, lsl #14
 c4c:	0a230200 	beq	8c1454 <_Min_Stack_Size+0x8c1054>
 c50:	49040600 	stmdbmi	r4, {r9, sl}
 c54:	03000001 	movweq	r0, #1
 c58:	00001d45 	andeq	r1, r0, r5, asr #26
 c5c:	1e031605 	cfmadd32ne	mvax0, mvfx1, mvfx3, mvfx5
 c60:	08000002 	stmdaeq	r0, {r1}
 c64:	09180514 	ldmdbeq	r8, {r2, r4, r8, sl}
 c68:	000002bc 			; <UNDEFINED> instruction: 0x000002bc
 c6c:	005ea10a 	subseq	sl, lr, sl, lsl #2
 c70:	1d1b0500 	cfldr32ne	mvfx0, [fp, #-0]
 c74:	0000026a 	andeq	r0, r0, sl, ror #4
 c78:	0a002302 	beq	9888 <_Min_Stack_Size+0x9488>
 c7c:	00003cd9 	ldrdeq	r3, [r0], -r9
 c80:	97141e05 	ldrls	r1, [r4, -r5, lsl #28]
 c84:	02000000 	andeq	r0, r0, #0
 c88:	db0a0c23 	blle	283d1c <_Min_Stack_Size+0x28391c>
 c8c:	0500007d 	streq	r0, [r0, #-125]	; 0xffffff83
 c90:	00971021 	addseq	r1, r7, r1, lsr #32
 c94:	23020000 	movwcs	r0, #8192	; 0x2000
 c98:	6ed10a0d 	vfnmsvs.f32	s1, s2, s26
 c9c:	24050000 	strcs	r0, [r5], #-0
 ca0:	0000c709 	andeq	ip, r0, r9, lsl #14
 ca4:	10230200 	eorne	r0, r3, r0, lsl #4
 ca8:	33eb0300 	mvncc	r0, #0, 6
 cac:	26050000 	strcs	r0, [r5], -r0
 cb0:	00027602 	andeq	r7, r2, r2, lsl #12
 cb4:	ae720b00 	vaddge.f64	d16, d2, d0
 cb8:	1a010000 	bne	40cc0 <_Min_Stack_Size+0x408c0>
 cbc:	00009709 	andeq	r9, r0, r9, lsl #14
 cc0:	03050100 	movweq	r0, #20736	; 0x5100
 cc4:	20000058 	andcs	r0, r0, r8, asr r0
 cc8:	00ae530b 	adceq	r5, lr, fp, lsl #6
 ccc:	051b0100 	ldreq	r0, [fp, #-256]	; 0xffffff00
 cd0:	00000089 	andeq	r0, r0, r9, lsl #1
 cd4:	00030501 	andeq	r0, r3, r1, lsl #10
 cd8:	0b000000 	bleq	ce0 <_Min_Stack_Size+0x8e0>
 cdc:	0000ae89 	andeq	sl, r0, r9, lsl #29
 ce0:	89051c01 	stmdbhi	r5, {r0, sl, fp, ip}
 ce4:	01000000 	mrseq	r0, (UNDEF: 0)
 ce8:	00000305 	andeq	r0, r0, r5, lsl #6
 cec:	760c0000 	strvc	r0, [ip], -r0
 cf0:	01006c61 	tsteq	r0, r1, ror #24
 cf4:	0089131c 	addeq	r1, r9, ip, lsl r3
 cf8:	05010000 	streq	r0, [r1, #-0]
 cfc:	00000003 	andeq	r0, r0, r3
 d00:	ae970d00 	cdpge	13, 9, cr0, cr7, cr0, {0}
 d04:	01070000 	mrseq	r0, (UNDEF: 7)
 d08:	00000040 	andeq	r0, r0, r0, asr #32
 d0c:	33062401 	movwcc	r2, #25601	; 0x6401
 d10:	0e000003 	cdpeq	0, 0, cr0, cr0, cr3, {0}
 d14:	0000ae31 	andeq	sl, r0, r1, lsr lr
 d18:	ae2f0e00 	cdpge	14, 2, cr0, cr15, cr0, {0}
 d1c:	00010000 	andeq	r0, r1, r0
 d20:	7405010f 	strvc	r0, [r5], #-271	; 0xfffffef1
 d24:	ca050000 	bgt	140d2c <_Min_Stack_Size+0x14092c>
 d28:	48010106 	stmdami	r1, {r1, r2, r8}
 d2c:	10000003 	andne	r0, r0, r3
 d30:	00000348 	andeq	r0, r0, r8, asr #6
 d34:	bc040600 	stclt	6, cr0, [r4], {-0}
 d38:	11000002 	tstne	r0, r2
 d3c:	00ae3d01 	adceq	r3, lr, r1, lsl #26
 d40:	05480100 	strbeq	r0, [r8, #-256]	; 0xffffff00
 d44:	00008901 	andeq	r8, r0, r1, lsl #18
 d48:	000a4000 	andeq	r4, sl, r0
 d4c:	000aa808 	andeq	sl, sl, r8, lsl #16
 d50:	00065008 	andeq	r5, r6, r8
 d54:	037d0100 	cmneq	sp, #0, 2
 d58:	46120000 	ldrmi	r0, [r2], -r0
 d5c:	0100002f 	tsteq	r0, pc, lsr #32
 d60:	02bc134e 	adcseq	r1, ip, #939524097	; 0x38000001
 d64:	91020000 	mrsls	r0, (UNDEF: 2)
 d68:	01130064 	tsteq	r3, r4, rrx
 d6c:	0000aea1 	andeq	sl, r0, r1, lsr #29
 d70:	28064101 	stmdacs	r6, {r0, r8, lr}
 d74:	4008000a 	andmi	r0, r8, sl
 d78:	8808000a 	stmdahi	r8, {r1, r3}
 d7c:	01000006 	tsteq	r0, r6
 d80:	ae420114 	mcrge	1, 2, r0, cr2, cr4, {0}
 d84:	2a010000 	bcs	40d8c <_Min_Stack_Size+0x4098c>
 d88:	09e80106 	stmibeq	r8!, {r1, r2, r8}^
 d8c:	0a280800 	beq	a02d94 <_Min_Stack_Size+0xa02994>
 d90:	06b40800 	ldrteq	r0, [r4], r0, lsl #16
 d94:	be010000 	cdplt	0, 0, cr0, cr1, cr0, {0}
 d98:	15000003 	strne	r0, [r0, #-3]
 d9c:	0000ae4d 	andeq	sl, r0, sp, asr #28
 da0:	14262a01 	strtne	r2, [r6], #-2561	; 0xfffff5ff
 da4:	02000003 	andeq	r0, r0, #3
 da8:	16007791 			; <UNDEFINED> instruction: 0x16007791
 dac:	00ae7701 	adceq	r7, lr, r1, lsl #14
 db0:	061e0100 	ldreq	r0, [lr], -r0, lsl #2
 db4:	080009dc 	stmdaeq	r0, {r2, r3, r4, r6, r7, r8, fp}
 db8:	080009e8 	stmdaeq	r0, {r3, r5, r6, r7, r8, fp}
 dbc:	00000710 	andeq	r0, r0, r0, lsl r7
 dc0:	001e0001 	andseq	r0, lr, r1
 dc4:	00020000 	andeq	r0, r2, r0
 dc8:	00000461 	andeq	r0, r0, r1, ror #8
 dcc:	1b340104 	blne	d011e4 <_Min_Stack_Size+0xd00de4>
 dd0:	00e80000 	rsceq	r0, r8, r0
 dd4:	aeaa0000 	cdpge	0, 10, cr0, cr10, cr0, {0}
 dd8:	200c0000 	andcs	r0, ip, r0
 ddc:	aecd0000 	cdpge	0, 12, cr0, cr13, cr0, {0}
 de0:	80010000 	andhi	r0, r1, r0

Disassembly of section .debug_abbrev:

00000000 <.debug_abbrev>:
   0:	25011101 	strcs	r1, [r1, #-257]	; 0xfffffeff
   4:	030b130e 	movweq	r1, #45838	; 0xb30e
   8:	550e1b0e 	strpl	r1, [lr, #-2830]	; 0xfffff4f2
   c:	52011106 	andpl	r1, r1, #-2147483647	; 0x80000001
  10:	99061001 	stmdbls	r6, {r0, ip}
  14:	00000642 	andeq	r0, r0, r2, asr #12
  18:	0b002402 	bleq	9028 <_Min_Stack_Size+0x8c28>
  1c:	030b3e0b 	movweq	r3, #48651	; 0xbe0b
  20:	0300000e 	movweq	r0, #14
  24:	0b0b0024 	bleq	2c00bc <_Min_Stack_Size+0x2bfcbc>
  28:	08030b3e 	stmdaeq	r3, {r1, r2, r3, r4, r5, r8, r9, fp}
  2c:	16040000 	strne	r0, [r4], -r0
  30:	3a0e0300 	bcc	380c38 <_Min_Stack_Size+0x380838>
  34:	390b3b0b 	stmdbcc	fp, {r0, r1, r3, r8, r9, fp, ip, sp}
  38:	0013490b 	andseq	r4, r3, fp, lsl #18
  3c:	000f0500 	andeq	r0, pc, r0, lsl #10
  40:	13490b0b 	movtne	r0, #39691	; 0x9b0b
  44:	15060000 	strne	r0, [r6, #-0]
  48:	000c2700 	andeq	r2, ip, r0, lsl #14
  4c:	00350700 	eorseq	r0, r5, r0, lsl #14
  50:	00001349 	andeq	r1, r0, r9, asr #6
  54:	0b011308 	bleq	44c7c <_Min_Stack_Size+0x4487c>
  58:	3b0b3a0b 	blcc	2ce88c <_Min_Stack_Size+0x2ce48c>
  5c:	010b390b 	tsteq	fp, fp, lsl #18
  60:	09000013 	stmdbeq	r0, {r0, r1, r4}
  64:	0803000d 	stmdaeq	r3, {r0, r2, r3}
  68:	0b3b0b3a 	bleq	ec2d58 <_Min_Stack_Size+0xec2958>
  6c:	13490b39 	movtne	r0, #39737	; 0x9b39
  70:	00000a38 	andeq	r0, r0, r8, lsr sl
  74:	03000d0a 	movweq	r0, #3338	; 0xd0a
  78:	3b0b3a0e 	blcc	2ce8b8 <_Min_Stack_Size+0x2ce4b8>
  7c:	490b390b 	stmdbmi	fp, {r0, r1, r3, r8, fp, ip, sp}
  80:	000a3813 	andeq	r3, sl, r3, lsl r8
  84:	01010b00 	tsteq	r1, r0, lsl #22
  88:	13011349 	movwne	r1, #4937	; 0x1349
  8c:	210c0000 	mrscs	r0, (UNDEF: 12)
  90:	2f134900 	svccs	0x00134900
  94:	0d00000b 	stceq	0, cr0, [r0, #-44]	; 0xffffffd4
  98:	0e030034 	mcreq	0, 0, r0, cr3, cr4, {1}
  9c:	0b3b0b3a 	bleq	ec2d8c <_Min_Stack_Size+0xec298c>
  a0:	13490b39 	movtne	r0, #39737	; 0x9b39
  a4:	0a020c3f 	beq	831a8 <_Min_Stack_Size+0x82da8>
  a8:	2e0e0000 	cdpcs	0, 0, cr0, cr14, cr0, {0}
  ac:	030c3f01 	movweq	r3, #52993	; 0xcf01
  b0:	3b0b3a0e 	blcc	2ce8f0 <_Min_Stack_Size+0x2ce4f0>
  b4:	270b390b 	strcs	r3, [fp, -fp, lsl #18]
  b8:	010c3c0c 	tsteq	ip, ip, lsl #24
  bc:	0f000013 	svceq	0x00000013
  c0:	13490005 	movtne	r0, #36869	; 0x9005
  c4:	2e100000 	cdpcs	0, 1, cr0, cr0, cr0, {0}
  c8:	030c3f00 	movweq	r3, #52992	; 0xcf00
  cc:	3b0b3a0e 	blcc	2ce90c <_Min_Stack_Size+0x2ce50c>
  d0:	270b3905 	strcs	r3, [fp, -r5, lsl #18]
  d4:	1201110c 	andne	r1, r1, #12, 2
  d8:	96064001 	strls	r4, [r6], -r1
  dc:	00000c42 	andeq	r0, r0, r2, asr #24
  e0:	3f012e11 	svccc	0x00012e11
  e4:	3a0e030c 	bcc	380d1c <_Min_Stack_Size+0x38091c>
  e8:	390b3b0b 	stmdbcc	fp, {r0, r1, r3, r8, r9, fp, ip, sp}
  ec:	110c270b 	tstne	ip, fp, lsl #14
  f0:	40011201 	andmi	r1, r1, r1, lsl #4
  f4:	0c429606 	mcrreq	6, 0, r9, r2, cr6
  f8:	00001301 	andeq	r1, r0, r1, lsl #6
  fc:	03000512 	movweq	r0, #1298	; 0x512
 100:	3b0b3a0e 	blcc	2ce940 <_Min_Stack_Size+0x2ce540>
 104:	490b390b 	stmdbmi	fp, {r0, r1, r3, r8, fp, ip, sp}
 108:	000a0213 	andeq	r0, sl, r3, lsl r2
 10c:	002e1300 	eoreq	r1, lr, r0, lsl #6
 110:	0e030c3f 	mcreq	12, 0, r0, cr3, cr15, {1}
 114:	0b3b0b3a 	bleq	ec2e04 <_Min_Stack_Size+0xec2a04>
 118:	0c270b39 			; <UNDEFINED> instruction: 0x0c270b39
 11c:	01120111 	tsteq	r2, r1, lsl r1
 120:	42970640 	addsmi	r0, r7, #64, 12	; 0x4000000
 124:	1400000c 	strne	r0, [r0], #-12
 128:	0e030034 	mcreq	0, 0, r0, cr3, cr4, {1}
 12c:	0b3b0b3a 	bleq	ec2e1c <_Min_Stack_Size+0xec2a1c>
 130:	13490b39 	movtne	r0, #39737	; 0x9b39
 134:	00000a02 	andeq	r0, r0, r2, lsl #20
 138:	3f012e15 	svccc	0x00012e15
 13c:	3a0e030c 	bcc	380d74 <_Min_Stack_Size+0x380974>
 140:	390b3b0b 	stmdbcc	fp, {r0, r1, r3, r8, r9, fp, ip, sp}
 144:	110c270b 	tstne	ip, fp, lsl #14
 148:	40011201 	andmi	r1, r1, r1, lsl #4
 14c:	0c429706 	mcrreq	7, 0, r9, r2, cr6
 150:	00001301 	andeq	r1, r0, r1, lsl #6
 154:	03000516 	movweq	r0, #1302	; 0x516
 158:	3b0b3a08 	blcc	2ce980 <_Min_Stack_Size+0x2ce580>
 15c:	490b390b 	stmdbmi	fp, {r0, r1, r3, r8, fp, ip, sp}
 160:	000a0213 	andeq	r0, sl, r3, lsl r2
 164:	012e1700 			; <UNDEFINED> instruction: 0x012e1700
 168:	0e030c3f 	mcreq	12, 0, r0, cr3, cr15, {1}
 16c:	0b3b0b3a 	bleq	ec2e5c <_Min_Stack_Size+0xec2a5c>
 170:	0c270b39 			; <UNDEFINED> instruction: 0x0c270b39
 174:	01120111 	tsteq	r2, r1, lsl r1
 178:	42970640 	addsmi	r0, r7, #64, 12	; 0x4000000
 17c:	0000000c 	andeq	r0, r0, ip
 180:	25011101 	strcs	r1, [r1, #-257]	; 0xfffffeff
 184:	030b130e 	movweq	r1, #45838	; 0xb30e
 188:	550e1b0e 	strpl	r1, [lr, #-2830]	; 0xfffff4f2
 18c:	52011106 	andpl	r1, r1, #-2147483647	; 0x80000001
 190:	99061001 	stmdbls	r6, {r0, ip}
 194:	00000642 	andeq	r0, r0, r2, asr #12
 198:	0b002402 	bleq	91a8 <_Min_Stack_Size+0x8da8>
 19c:	030b3e0b 	movweq	r3, #48651	; 0xbe0b
 1a0:	0300000e 	movweq	r0, #14
 1a4:	0b0b0024 	bleq	2c023c <_Min_Stack_Size+0x2bfe3c>
 1a8:	08030b3e 	stmdaeq	r3, {r1, r2, r3, r4, r5, r8, r9, fp}
 1ac:	16040000 	strne	r0, [r4], -r0
 1b0:	3a0e0300 	bcc	380db8 <_Min_Stack_Size+0x3809b8>
 1b4:	390b3b0b 	stmdbcc	fp, {r0, r1, r3, r8, r9, fp, ip, sp}
 1b8:	0013490b 	andseq	r4, r3, fp, lsl #18
 1bc:	00350500 	eorseq	r0, r5, r0, lsl #10
 1c0:	00001349 	andeq	r1, r0, r9, asr #6
 1c4:	0b011306 	bleq	44de4 <_Min_Stack_Size+0x449e4>
 1c8:	3b0b3a0b 	blcc	2ce9fc <_Min_Stack_Size+0x2ce5fc>
 1cc:	010b390b 	tsteq	fp, fp, lsl #18
 1d0:	07000013 	smladeq	r0, r3, r0, r0
 1d4:	0803000d 	stmdaeq	r3, {r0, r2, r3}
 1d8:	0b3b0b3a 	bleq	ec2ec8 <_Min_Stack_Size+0xec2ac8>
 1dc:	13490b39 	movtne	r0, #39737	; 0x9b39
 1e0:	00000a38 	andeq	r0, r0, r8, lsr sl
 1e4:	03000d08 	movweq	r0, #3336	; 0xd08
 1e8:	3b0b3a0e 	blcc	2cea28 <_Min_Stack_Size+0x2ce628>
 1ec:	490b390b 	stmdbmi	fp, {r0, r1, r3, r8, fp, ip, sp}
 1f0:	000a3813 	andeq	r3, sl, r3, lsl r8
 1f4:	012e0900 			; <UNDEFINED> instruction: 0x012e0900
 1f8:	0e030c3f 	mcreq	12, 0, r0, cr3, cr15, {1}
 1fc:	053b0b3a 	ldreq	r0, [fp, #-2874]!	; 0xfffff4c6
 200:	0c270b39 			; <UNDEFINED> instruction: 0x0c270b39
 204:	01111349 	tsteq	r1, r9, asr #6
 208:	06400112 			; <UNDEFINED> instruction: 0x06400112
 20c:	010c4297 			; <UNDEFINED> instruction: 0x010c4297
 210:	0a000013 	beq	264 <_Min_Heap_Size+0x64>
 214:	0e030005 	cdpeq	0, 0, cr0, cr3, cr5, {0}
 218:	053b0b3a 	ldreq	r0, [fp, #-2874]!	; 0xfffff4c6
 21c:	13490b39 	movtne	r0, #39737	; 0x9b39
 220:	00000a02 	andeq	r0, r0, r2, lsl #20
 224:	0300340b 	movweq	r3, #1035	; 0x40b
 228:	3b0b3a08 	blcc	2cea50 <_Min_Stack_Size+0x2ce650>
 22c:	490b3905 	stmdbmi	fp, {r0, r2, r8, fp, ip, sp}
 230:	000a0213 	andeq	r0, sl, r3, lsl r2
 234:	000f0c00 	andeq	r0, pc, r0, lsl #24
 238:	13490b0b 	movtne	r0, #39691	; 0x9b0b
 23c:	2e0d0000 	cdpcs	0, 0, cr0, cr13, cr0, {0}
 240:	030c3f01 	movweq	r3, #52993	; 0xcf01
 244:	3b0b3a0e 	blcc	2cea84 <_Min_Stack_Size+0x2ce684>
 248:	270b3905 	strcs	r3, [fp, -r5, lsl #18]
 24c:	1201110c 	andne	r1, r1, #12, 2
 250:	97064001 	strls	r4, [r6, -r1]
 254:	13010c42 	movwne	r0, #7234	; 0x1c42
 258:	2e0e0000 	cdpcs	0, 0, cr0, cr14, cr0, {0}
 25c:	030c3f01 	movweq	r3, #52993	; 0xcf01
 260:	3b0b3a0e 	blcc	2ceaa0 <_Min_Stack_Size+0x2ce6a0>
 264:	270b390b 	strcs	r3, [fp, -fp, lsl #18]
 268:	1113490c 	tstne	r3, ip, lsl #18
 26c:	40011201 	andmi	r1, r1, r1, lsl #4
 270:	0c429706 	mcrreq	7, 0, r9, r2, cr6
 274:	00001301 	andeq	r1, r0, r1, lsl #6
 278:	0300050f 	movweq	r0, #1295	; 0x50f
 27c:	3b0b3a0e 	blcc	2ceabc <_Min_Stack_Size+0x2ce6bc>
 280:	490b390b 	stmdbmi	fp, {r0, r1, r3, r8, fp, ip, sp}
 284:	000a0213 	andeq	r0, sl, r3, lsl r2
 288:	00341000 	eorseq	r1, r4, r0
 28c:	0b3a0e03 	bleq	e83aa0 <_Min_Stack_Size+0xe836a0>
 290:	0b390b3b 	bleq	e42f84 <_Min_Stack_Size+0xe42b84>
 294:	0a021349 	beq	84fc0 <_Min_Stack_Size+0x84bc0>
 298:	2e110000 	cdpcs	0, 1, cr0, cr1, cr0, {0}
 29c:	030c3f01 	movweq	r3, #52993	; 0xcf01
 2a0:	3b0b3a0e 	blcc	2ceae0 <_Min_Stack_Size+0x2ce6e0>
 2a4:	270b390b 	strcs	r3, [fp, -fp, lsl #18]
 2a8:	1201110c 	andne	r1, r1, #12, 2
 2ac:	97064001 	strls	r4, [r6, -r1]
 2b0:	13010c42 	movwne	r0, #7234	; 0x1c42
 2b4:	2e120000 	cdpcs	0, 1, cr0, cr2, cr0, {0}
 2b8:	030c3f01 	movweq	r3, #52993	; 0xcf01
 2bc:	3b0b3a0e 	blcc	2ceafc <_Min_Stack_Size+0x2ce6fc>
 2c0:	270b390b 	strcs	r3, [fp, -fp, lsl #18]
 2c4:	1201110c 	andne	r1, r1, #12, 2
 2c8:	96064001 	strls	r4, [r6], -r1
 2cc:	13010c42 	movwne	r0, #7234	; 0x1c42
 2d0:	2e130000 	cdpcs	0, 1, cr0, cr3, cr0, {0}
 2d4:	030c3f01 	movweq	r3, #52993	; 0xcf01
 2d8:	3b0b3a0e 	blcc	2ceb18 <_Min_Stack_Size+0x2ce718>
 2dc:	270b390b 	strcs	r3, [fp, -fp, lsl #18]
 2e0:	1113490c 	tstne	r3, ip, lsl #18
 2e4:	40011201 	andmi	r1, r1, r1, lsl #4
 2e8:	0c429706 	mcrreq	7, 0, r9, r2, cr6
 2ec:	01000000 	mrseq	r0, (UNDEF: 0)
 2f0:	0e250111 	mcreq	1, 1, r0, cr5, cr1, {0}
 2f4:	0e030b13 	vmoveq.32	d3[0], r0
 2f8:	06550e1b 			; <UNDEFINED> instruction: 0x06550e1b
 2fc:	01520111 	cmpeq	r2, r1, lsl r1
 300:	42990610 	addsmi	r0, r9, #16, 12	; 0x1000000
 304:	02000006 	andeq	r0, r0, #6
 308:	0b0b0024 	bleq	2c03a0 <_Min_Stack_Size+0x2bffa0>
 30c:	0e030b3e 	vmoveq.16	d3[0], r0
 310:	16030000 	strne	r0, [r3], -r0
 314:	3a0e0300 	bcc	380f1c <_Min_Stack_Size+0x380b1c>
 318:	390b3b0b 	stmdbcc	fp, {r0, r1, r3, r8, r9, fp, ip, sp}
 31c:	0013490b 	andseq	r4, r3, fp, lsl #18
 320:	00240400 	eoreq	r0, r4, r0, lsl #8
 324:	0b3e0b0b 	bleq	f82f58 <_Min_Stack_Size+0xf82b58>
 328:	00000803 	andeq	r0, r0, r3, lsl #16
 32c:	49003505 	stmdbmi	r0, {r0, r2, r8, sl, ip, sp}
 330:	06000013 			; <UNDEFINED> instruction: 0x06000013
 334:	0b0b000f 	bleq	2c0378 <_Min_Stack_Size+0x2bff78>
 338:	00001349 	andeq	r1, r0, r9, asr #6
 33c:	27001507 	strcs	r1, [r0, -r7, lsl #10]
 340:	0800000c 	stmdaeq	r0, {r2, r3}
 344:	0b0b0113 	bleq	2c0798 <_Min_Stack_Size+0x2c0398>
 348:	0b3b0b3a 	bleq	ec3038 <_Min_Stack_Size+0xec2c38>
 34c:	13010b39 	movwne	r0, #6969	; 0x1b39
 350:	0d090000 	stceq	0, cr0, [r9, #-0]
 354:	3a080300 	bcc	200f5c <_Min_Stack_Size+0x200b5c>
 358:	390b3b0b 	stmdbcc	fp, {r0, r1, r3, r8, r9, fp, ip, sp}
 35c:	3813490b 	ldmdacc	r3, {r0, r1, r3, r8, fp, lr}
 360:	0a00000a 	beq	390 <_Min_Heap_Size+0x190>
 364:	0e03000d 	cdpeq	0, 0, cr0, cr3, cr13, {0}
 368:	0b3b0b3a 	bleq	ec3058 <_Min_Stack_Size+0xec2c58>
 36c:	13490b39 	movtne	r0, #39737	; 0x9b39
 370:	00000a38 	andeq	r0, r0, r8, lsr sl
 374:	0300340b 	movweq	r3, #1035	; 0x40b
 378:	3b0b3a0e 	blcc	2cebb8 <_Min_Stack_Size+0x2ce7b8>
 37c:	490b390b 	stmdbmi	fp, {r0, r1, r3, r8, fp, ip, sp}
 380:	020c3f13 	andeq	r3, ip, #19, 30	; 0x4c
 384:	0c00000a 	stceq	0, cr0, [r0], {10}
 388:	08030034 	stmdaeq	r3, {r2, r4, r5}
 38c:	0b3b0b3a 	bleq	ec307c <_Min_Stack_Size+0xec2c7c>
 390:	13490b39 	movtne	r0, #39737	; 0x9b39
 394:	0a020c3f 	beq	83498 <_Min_Stack_Size+0x83098>
 398:	040d0000 	streq	r0, [sp], #-0
 39c:	3e0e0301 	cdpcc	3, 0, cr0, cr14, cr1, {0}
 3a0:	490b0b0b 	stmdbmi	fp, {r0, r1, r3, r8, r9, fp}
 3a4:	3b0b3a13 	blcc	2cebf8 <_Min_Stack_Size+0x2ce7f8>
 3a8:	010b390b 	tsteq	fp, fp, lsl #18
 3ac:	0e000013 	mcreq	0, 0, r0, cr0, cr3, {0}
 3b0:	0e030028 	cdpeq	0, 0, cr0, cr3, cr8, {1}
 3b4:	00000b1c 	andeq	r0, r0, ip, lsl fp
 3b8:	3f012e0f 	svccc	0x00012e0f
 3bc:	3a0e030c 	bcc	380ff4 <_Min_Stack_Size+0x380bf4>
 3c0:	390b3b0b 	stmdbcc	fp, {r0, r1, r3, r8, r9, fp, ip, sp}
 3c4:	3c0c270b 	stccc	7, cr2, [ip], {11}
 3c8:	0013010c 	andseq	r0, r3, ip, lsl #2
 3cc:	00051000 	andeq	r1, r5, r0
 3d0:	00001349 	andeq	r1, r0, r9, asr #6
 3d4:	3f012e11 	svccc	0x00012e11
 3d8:	3a0e030c 	bcc	381010 <_Min_Stack_Size+0x380c10>
 3dc:	390b3b0b 	stmdbcc	fp, {r0, r1, r3, r8, r9, fp, ip, sp}
 3e0:	490c270b 	stmdbmi	ip, {r0, r1, r3, r8, r9, sl, sp}
 3e4:	12011113 	andne	r1, r1, #-1073741820	; 0xc0000004
 3e8:	96064001 	strls	r4, [r6], -r1
 3ec:	13010c42 	movwne	r0, #7234	; 0x1c42
 3f0:	34120000 	ldrcc	r0, [r2], #-0
 3f4:	3a0e0300 	bcc	380ffc <_Min_Stack_Size+0x380bfc>
 3f8:	390b3b0b 	stmdbcc	fp, {r0, r1, r3, r8, r9, fp, ip, sp}
 3fc:	0213490b 	andseq	r4, r3, #180224	; 0x2c000
 400:	1300000a 	movwne	r0, #10
 404:	0c3f002e 	ldceq	0, cr0, [pc], #-184	; 354 <_Min_Heap_Size+0x154>
 408:	0b3a0e03 	bleq	e83c1c <_Min_Stack_Size+0xe8381c>
 40c:	0b390b3b 	bleq	e43100 <_Min_Stack_Size+0xe42d00>
 410:	01120111 	tsteq	r2, r1, lsl r1
 414:	42960640 	addsmi	r0, r6, #64, 12	; 0x4000000
 418:	1400000c 	strne	r0, [r0], #-12
 41c:	0c3f012e 	ldfeqs	f0, [pc], #-184	; 36c <_Min_Heap_Size+0x16c>
 420:	0b3a0e03 	bleq	e83c34 <_Min_Stack_Size+0xe83834>
 424:	0b390b3b 	bleq	e43118 <_Min_Stack_Size+0xe42d18>
 428:	01110c27 	tsteq	r1, r7, lsr #24
 42c:	06400112 			; <UNDEFINED> instruction: 0x06400112
 430:	010c4297 			; <UNDEFINED> instruction: 0x010c4297
 434:	15000013 	strne	r0, [r0, #-19]	; 0xffffffed
 438:	0e030005 	cdpeq	0, 0, cr0, cr3, cr5, {0}
 43c:	0b3b0b3a 	bleq	ec312c <_Min_Stack_Size+0xec2d2c>
 440:	13490b39 	movtne	r0, #39737	; 0x9b39
 444:	00000a02 	andeq	r0, r0, r2, lsl #20
 448:	3f002e16 	svccc	0x00002e16
 44c:	3a0e030c 	bcc	381084 <_Min_Stack_Size+0x380c84>
 450:	390b3b0b 	stmdbcc	fp, {r0, r1, r3, r8, r9, fp, ip, sp}
 454:	1201110b 	andne	r1, r1, #-1073741822	; 0xc0000002
 458:	97064001 	strls	r4, [r6, -r1]
 45c:	00000c42 	andeq	r0, r0, r2, asr #24
 460:	00110100 	andseq	r0, r1, r0, lsl #2
 464:	06550610 			; <UNDEFINED> instruction: 0x06550610
 468:	0e1b0e03 	cdpeq	14, 1, cr0, cr11, cr3, {0}
 46c:	05130e25 	ldreq	r0, [r3, #-3621]	; 0xfffff1db
 470:	Address 0x0000000000000470 is out of bounds.


Disassembly of section .debug_loc:

00000000 <.debug_loc>:
   0:	08000654 	stmdaeq	r0, {r2, r4, r6, r9, sl}
   4:	08000656 	stmdaeq	r0, {r1, r2, r4, r6, r9, sl}
   8:	007d0002 	rsbseq	r0, sp, r2
   c:	08000656 	stmdaeq	r0, {r1, r2, r4, r6, r9, sl}
  10:	08000658 	stmdaeq	r0, {r3, r4, r6, r9, sl}
  14:	087d0002 	ldmdaeq	sp!, {r1}^
  18:	08000658 	stmdaeq	r0, {r3, r4, r6, r9, sl}
  1c:	08000718 	stmdaeq	r0, {r3, r4, r8, r9, sl}
  20:	08770002 	ldmdaeq	r7!, {r1}^
	...
  2c:	080005ac 	stmdaeq	r0, {r2, r3, r5, r7, r8, sl}
  30:	080005ae 	stmdaeq	r0, {r1, r2, r3, r5, r7, r8, sl}
  34:	007d0002 	rsbseq	r0, sp, r2
  38:	080005ae 	stmdaeq	r0, {r1, r2, r3, r5, r7, r8, sl}
  3c:	080005b0 	stmdaeq	r0, {r4, r5, r7, r8, sl}
  40:	087d0002 	ldmdaeq	sp!, {r1}^
  44:	080005b0 	stmdaeq	r0, {r4, r5, r7, r8, sl}
  48:	08000654 	stmdaeq	r0, {r2, r4, r6, r9, sl}
  4c:	08770002 	ldmdaeq	r7!, {r1}^
	...
  58:	08000588 	stmdaeq	r0, {r3, r7, r8, sl}
  5c:	0800058a 	stmdaeq	r0, {r1, r3, r7, r8, sl}
  60:	007d0002 	rsbseq	r0, sp, r2
  64:	0800058a 	stmdaeq	r0, {r1, r3, r7, r8, sl}
  68:	0800058c 	stmdaeq	r0, {r2, r3, r7, r8, sl}
  6c:	087d0002 	ldmdaeq	sp!, {r1}^
  70:	0800058c 	stmdaeq	r0, {r2, r3, r7, r8, sl}
  74:	080005ac 	stmdaeq	r0, {r2, r3, r5, r7, r8, sl}
  78:	08770002 	ldmdaeq	r7!, {r1}^
	...
  84:	08000564 	stmdaeq	r0, {r2, r5, r6, r8, sl}
  88:	08000566 	stmdaeq	r0, {r1, r2, r5, r6, r8, sl}
  8c:	007d0002 	rsbseq	r0, sp, r2
  90:	08000566 	stmdaeq	r0, {r1, r2, r5, r6, r8, sl}
  94:	08000568 	stmdaeq	r0, {r3, r5, r6, r8, sl}
  98:	087d0002 	ldmdaeq	sp!, {r1}^
  9c:	08000568 	stmdaeq	r0, {r3, r5, r6, r8, sl}
  a0:	08000588 	stmdaeq	r0, {r3, r7, r8, sl}
  a4:	08770002 	ldmdaeq	r7!, {r1}^
	...
  b0:	08000540 	stmdaeq	r0, {r6, r8, sl}
  b4:	08000542 	stmdaeq	r0, {r1, r6, r8, sl}
  b8:	007d0002 	rsbseq	r0, sp, r2
  bc:	08000542 	stmdaeq	r0, {r1, r6, r8, sl}
  c0:	08000544 	stmdaeq	r0, {r2, r6, r8, sl}
  c4:	087d0002 	ldmdaeq	sp!, {r1}^
  c8:	08000544 	stmdaeq	r0, {r2, r6, r8, sl}
  cc:	08000564 	stmdaeq	r0, {r2, r5, r6, r8, sl}
  d0:	08770002 	ldmdaeq	r7!, {r1}^
	...
  dc:	0800051c 	stmdaeq	r0, {r2, r3, r4, r8, sl}
  e0:	0800051e 	stmdaeq	r0, {r1, r2, r3, r4, r8, sl}
  e4:	007d0002 	rsbseq	r0, sp, r2
  e8:	0800051e 	stmdaeq	r0, {r1, r2, r3, r4, r8, sl}
  ec:	08000520 	stmdaeq	r0, {r5, r8, sl}
  f0:	087d0002 	ldmdaeq	sp!, {r1}^
  f4:	08000520 	stmdaeq	r0, {r5, r8, sl}
  f8:	08000540 	stmdaeq	r0, {r6, r8, sl}
  fc:	08770002 	ldmdaeq	r7!, {r1}^
	...
 108:	080004f8 	stmdaeq	r0, {r3, r4, r5, r6, r7, sl}
 10c:	080004fa 	stmdaeq	r0, {r1, r3, r4, r5, r6, r7, sl}
 110:	007d0002 	rsbseq	r0, sp, r2
 114:	080004fa 	stmdaeq	r0, {r1, r3, r4, r5, r6, r7, sl}
 118:	080004fc 	stmdaeq	r0, {r2, r3, r4, r5, r6, r7, sl}
 11c:	087d0002 	ldmdaeq	sp!, {r1}^
 120:	080004fc 	stmdaeq	r0, {r2, r3, r4, r5, r6, r7, sl}
 124:	0800051c 	stmdaeq	r0, {r2, r3, r4, r8, sl}
 128:	08770002 	ldmdaeq	r7!, {r1}^
	...
 13c:	007d0002 	rsbseq	r0, sp, r2
	...
 148:	087d0002 	ldmdaeq	sp!, {r1}^
	...
 154:	107d0002 	rsbsne	r0, sp, r2
	...
 160:	10770002 	rsbsne	r0, r7, r2
	...
 16c:	08770002 	ldmdaeq	r7!, {r1}^
	...
 178:	087d0002 	ldmdaeq	sp!, {r1}^
	...
 184:	080004e0 	stmdaeq	r0, {r5, r6, r7, sl}
 188:	080004e2 	stmdaeq	r0, {r1, r5, r6, r7, sl}
 18c:	007d0002 	rsbseq	r0, sp, r2
 190:	080004e2 	stmdaeq	r0, {r1, r5, r6, r7, sl}
 194:	080004e4 	stmdaeq	r0, {r2, r5, r6, r7, sl}
 198:	087d0002 	ldmdaeq	sp!, {r1}^
 19c:	080004e4 	stmdaeq	r0, {r2, r5, r6, r7, sl}
 1a0:	080004e6 	stmdaeq	r0, {r1, r2, r5, r6, r7, sl}
 1a4:	107d0002 	rsbsne	r0, sp, r2
 1a8:	080004e6 	stmdaeq	r0, {r1, r2, r5, r6, r7, sl}
 1ac:	080004f2 	stmdaeq	r0, {r1, r4, r5, r6, r7, sl}
 1b0:	10770002 	rsbsne	r0, r7, r2
 1b4:	080004f2 	stmdaeq	r0, {r1, r4, r5, r6, r7, sl}
 1b8:	080004f4 	stmdaeq	r0, {r2, r4, r5, r6, r7, sl}
 1bc:	08770002 	ldmdaeq	r7!, {r1}^
 1c0:	080004f4 	stmdaeq	r0, {r2, r4, r5, r6, r7, sl}
 1c4:	080004f6 	stmdaeq	r0, {r1, r2, r4, r5, r6, r7, sl}
 1c8:	087d0002 	ldmdaeq	sp!, {r1}^
	...
 1dc:	007d0002 	rsbseq	r0, sp, r2
	...
 1e8:	047d0002 	ldrbteq	r0, [sp], #-2
	...
 1f4:	04770002 	ldrbteq	r0, [r7], #-2
	...
 200:	047d0002 	ldrbteq	r0, [sp], #-2
	...
 20c:	007d0002 	rsbseq	r0, sp, r2
	...
 218:	08000308 	stmdaeq	r0, {r3, r8, r9}
 21c:	0800030a 	stmdaeq	r0, {r1, r3, r8, r9}
 220:	007d0002 	rsbseq	r0, sp, r2
 224:	0800030a 	stmdaeq	r0, {r1, r3, r8, r9}
 228:	0800030c 	stmdaeq	r0, {r2, r3, r8, r9}
 22c:	087d0002 	ldmdaeq	sp!, {r1}^
 230:	0800030c 	stmdaeq	r0, {r2, r3, r8, r9}
 234:	0800030e 	stmdaeq	r0, {r1, r2, r3, r8, r9}
 238:	187d0002 	ldmdane	sp!, {r1}^
 23c:	0800030e 	stmdaeq	r0, {r1, r2, r3, r8, r9}
 240:	080004c0 	stmdaeq	r0, {r6, r7, sl}
 244:	18770002 	ldmdane	r7!, {r1}^
 248:	080004c0 	stmdaeq	r0, {r6, r7, sl}
 24c:	080004c2 	stmdaeq	r0, {r1, r6, r7, sl}
 250:	08770002 	ldmdaeq	r7!, {r1}^
 254:	080004c2 	stmdaeq	r0, {r1, r6, r7, sl}
 258:	080004e0 	stmdaeq	r0, {r5, r6, r7, sl}
 25c:	087d0002 	ldmdaeq	sp!, {r1}^
	...
 268:	0800023c 	stmdaeq	r0, {r2, r3, r4, r5, r9}
 26c:	0800023e 	stmdaeq	r0, {r1, r2, r3, r4, r5, r9}
 270:	007d0002 	rsbseq	r0, sp, r2
 274:	0800023e 	stmdaeq	r0, {r1, r2, r3, r4, r5, r9}
 278:	08000240 	stmdaeq	r0, {r6, r9}
 27c:	047d0002 	ldrbteq	r0, [sp], #-2
 280:	08000240 	stmdaeq	r0, {r6, r9}
 284:	08000242 	stmdaeq	r0, {r1, r6, r9}
 288:	107d0002 	rsbsne	r0, sp, r2
 28c:	08000242 	stmdaeq	r0, {r1, r6, r9}
 290:	080002fa 	stmdaeq	r0, {r1, r3, r4, r5, r6, r7, r9}
 294:	10770002 	rsbsne	r0, r7, r2
 298:	080002fa 	stmdaeq	r0, {r1, r3, r4, r5, r6, r7, r9}
 29c:	080002fc 	stmdaeq	r0, {r2, r3, r4, r5, r6, r7, r9}
 2a0:	04770002 	ldrbteq	r0, [r7], #-2
 2a4:	080002fc 	stmdaeq	r0, {r2, r3, r4, r5, r6, r7, r9}
 2a8:	080002fe 	stmdaeq	r0, {r1, r2, r3, r4, r5, r6, r7, r9}
 2ac:	047d0002 	ldrbteq	r0, [sp], #-2
 2b0:	080002fe 	stmdaeq	r0, {r1, r2, r3, r4, r5, r6, r7, r9}
 2b4:	08000308 	stmdaeq	r0, {r3, r8, r9}
 2b8:	007d0002 	rsbseq	r0, sp, r2
	...
 2c4:	08000170 	stmdaeq	r0, {r4, r5, r6, r8}
 2c8:	08000172 	stmdaeq	r0, {r1, r4, r5, r6, r8}
 2cc:	007d0002 	rsbseq	r0, sp, r2
 2d0:	08000172 	stmdaeq	r0, {r1, r4, r5, r6, r8}
 2d4:	08000174 	stmdaeq	r0, {r2, r4, r5, r6, r8}
 2d8:	047d0002 	ldrbteq	r0, [sp], #-2
 2dc:	08000174 	stmdaeq	r0, {r2, r4, r5, r6, r8}
 2e0:	08000176 	stmdaeq	r0, {r1, r2, r4, r5, r6, r8}
 2e4:	107d0002 	rsbsne	r0, sp, r2
 2e8:	08000176 	stmdaeq	r0, {r1, r2, r4, r5, r6, r8}
 2ec:	0800022e 	stmdaeq	r0, {r1, r2, r3, r5, r9}
 2f0:	10770002 	rsbsne	r0, r7, r2
 2f4:	0800022e 	stmdaeq	r0, {r1, r2, r3, r5, r9}
 2f8:	08000230 	stmdaeq	r0, {r4, r5, r9}
 2fc:	04770002 	ldrbteq	r0, [r7], #-2
 300:	08000230 	stmdaeq	r0, {r4, r5, r9}
 304:	08000232 	stmdaeq	r0, {r1, r4, r5, r9}
 308:	047d0002 	ldrbteq	r0, [sp], #-2
 30c:	08000232 	stmdaeq	r0, {r1, r4, r5, r9}
 310:	0800023c 	stmdaeq	r0, {r2, r3, r4, r5, r9}
 314:	007d0002 	rsbseq	r0, sp, r2
	...
 328:	007d0002 	rsbseq	r0, sp, r2
	...
 334:	047d0002 	ldrbteq	r0, [sp], #-2
	...
 340:	187d0002 	ldmdane	sp!, {r1}^
	...
 34c:	18770002 	ldmdane	r7!, {r1}^
	...
 358:	04770002 	ldrbteq	r0, [r7], #-2
	...
 364:	047d0002 	ldrbteq	r0, [sp], #-2
	...
 370:	007d0002 	rsbseq	r0, sp, r2
	...
 384:	007d0002 	rsbseq	r0, sp, r2
	...
 390:	047d0002 	ldrbteq	r0, [sp], #-2
	...
 39c:	107d0002 	rsbsne	r0, sp, r2
	...
 3a8:	10770002 	rsbsne	r0, r7, r2
	...
 3b4:	04770002 	ldrbteq	r0, [r7], #-2
	...
 3c0:	047d0002 	ldrbteq	r0, [sp], #-2
	...
 3cc:	007d0002 	rsbseq	r0, sp, r2
	...
 3e0:	007d0002 	rsbseq	r0, sp, r2
	...
 3ec:	047d0002 	ldrbteq	r0, [sp], #-2
	...
 3f8:	107d0002 	rsbsne	r0, sp, r2
	...
 404:	10770002 	rsbsne	r0, r7, r2
	...
 410:	04770002 	ldrbteq	r0, [r7], #-2
	...
 41c:	047d0002 	ldrbteq	r0, [sp], #-2
	...
 428:	007d0002 	rsbseq	r0, sp, r2
	...
 43c:	007d0002 	rsbseq	r0, sp, r2
	...
 448:	047d0002 	ldrbteq	r0, [sp], #-2
	...
 454:	107d0002 	rsbsne	r0, sp, r2
	...
 460:	10770002 	rsbsne	r0, r7, r2
	...
 46c:	04770002 	ldrbteq	r0, [r7], #-2
	...
 478:	047d0002 	ldrbteq	r0, [sp], #-2
	...
 484:	007d0002 	rsbseq	r0, sp, r2
	...
 498:	007d0002 	rsbseq	r0, sp, r2
	...
 4a4:	047d0002 	ldrbteq	r0, [sp], #-2
	...
 4b0:	187d0002 	ldmdane	sp!, {r1}^
	...
 4bc:	18770002 	ldmdane	r7!, {r1}^
	...
 4c8:	04770002 	ldrbteq	r0, [r7], #-2
	...
 4d4:	047d0002 	ldrbteq	r0, [sp], #-2
	...
 4e0:	007d0002 	rsbseq	r0, sp, r2
	...
 4f4:	007d0002 	rsbseq	r0, sp, r2
	...
 500:	047d0002 	ldrbteq	r0, [sp], #-2
	...
 50c:	187d0002 	ldmdane	sp!, {r1}^
	...
 518:	18770002 	ldmdane	r7!, {r1}^
	...
 524:	04770002 	ldrbteq	r0, [r7], #-2
	...
 530:	047d0002 	ldrbteq	r0, [sp], #-2
	...
 53c:	007d0002 	rsbseq	r0, sp, r2
	...
 550:	007d0002 	rsbseq	r0, sp, r2
	...
 55c:	047d0002 	ldrbteq	r0, [sp], #-2
	...
 568:	107d0002 	rsbsne	r0, sp, r2
	...
 574:	10770002 	rsbsne	r0, r7, r2
	...
 580:	04770002 	ldrbteq	r0, [r7], #-2
	...
 58c:	047d0002 	ldrbteq	r0, [sp], #-2
	...
 598:	007d0002 	rsbseq	r0, sp, r2
	...
 5a4:	08000888 	stmdaeq	r0, {r3, r7, fp}
 5a8:	0800088a 	stmdaeq	r0, {r1, r3, r7, fp}
 5ac:	007d0002 	rsbseq	r0, sp, r2
 5b0:	0800088a 	stmdaeq	r0, {r1, r3, r7, fp}
 5b4:	0800088c 	stmdaeq	r0, {r2, r3, r7, fp}
 5b8:	0c7d0002 	ldcleq	0, cr0, [sp], #-8
 5bc:	0800088c 	stmdaeq	r0, {r2, r3, r7, fp}
 5c0:	0800088e 	stmdaeq	r0, {r1, r2, r3, r7, fp}
 5c4:	207d0002 	rsbscs	r0, sp, r2
 5c8:	0800088e 	stmdaeq	r0, {r1, r2, r3, r7, fp}
 5cc:	080009d8 	stmdaeq	r0, {r3, r4, r6, r7, r8, fp}
 5d0:	20770002 	rsbscs	r0, r7, r2
 5d4:	080009d8 	stmdaeq	r0, {r3, r4, r6, r7, r8, fp}
 5d8:	080009da 	stmdaeq	r0, {r1, r3, r4, r6, r7, r8, fp}
 5dc:	0c770002 	ldcleq	0, cr0, [r7], #-8
 5e0:	080009da 	stmdaeq	r0, {r1, r3, r4, r6, r7, r8, fp}
 5e4:	080009dc 	stmdaeq	r0, {r2, r3, r4, r6, r7, r8, fp}
 5e8:	0c7d0002 	ldcleq	0, cr0, [sp], #-8
	...
 5f4:	08000718 	stmdaeq	r0, {r3, r4, r8, r9, sl}
 5f8:	0800071a 	stmdaeq	r0, {r1, r3, r4, r8, r9, sl}
 5fc:	007d0002 	rsbseq	r0, sp, r2
 600:	0800071a 	stmdaeq	r0, {r1, r3, r4, r8, r9, sl}
 604:	0800071c 	stmdaeq	r0, {r2, r3, r4, r8, r9, sl}
 608:	047d0002 	ldrbteq	r0, [sp], #-2
 60c:	0800071c 	stmdaeq	r0, {r2, r3, r4, r8, r9, sl}
 610:	0800071e 	stmdaeq	r0, {r1, r2, r3, r4, r8, r9, sl}
 614:	107d0002 	rsbsne	r0, sp, r2
 618:	0800071e 	stmdaeq	r0, {r1, r2, r3, r4, r8, r9, sl}
 61c:	08000880 	stmdaeq	r0, {r7, fp}
 620:	10770002 	rsbsne	r0, r7, r2
 624:	08000880 	stmdaeq	r0, {r7, fp}
 628:	08000882 	stmdaeq	r0, {r1, r7, fp}
 62c:	04770002 	ldrbteq	r0, [r7], #-2
 630:	08000882 	stmdaeq	r0, {r1, r7, fp}
 634:	08000884 	stmdaeq	r0, {r2, r7, fp}
 638:	047d0002 	ldrbteq	r0, [sp], #-2
 63c:	08000884 	stmdaeq	r0, {r2, r7, fp}
 640:	08000886 	stmdaeq	r0, {r1, r2, r7, fp}
 644:	007d0002 	rsbseq	r0, sp, r2
	...
 650:	08000a40 	stmdaeq	r0, {r6, r9, fp}
 654:	08000a42 	stmdaeq	r0, {r1, r6, r9, fp}
 658:	007d0002 	rsbseq	r0, sp, r2
 65c:	08000a42 	stmdaeq	r0, {r1, r6, r9, fp}
 660:	08000a44 	stmdaeq	r0, {r2, r6, r9, fp}
 664:	087d0002 	ldmdaeq	sp!, {r1}^
 668:	08000a44 	stmdaeq	r0, {r2, r6, r9, fp}
 66c:	08000a46 	stmdaeq	r0, {r1, r2, r6, r9, fp}
 670:	287d0002 	ldmdacs	sp!, {r1}^
 674:	08000a46 	stmdaeq	r0, {r1, r2, r6, r9, fp}
 678:	08000aa8 	stmdaeq	r0, {r3, r5, r7, r9, fp}
 67c:	28770002 	ldmdacs	r7!, {r1}^
	...
 688:	08000a28 	stmdaeq	r0, {r3, r5, r9, fp}
 68c:	08000a2a 	stmdaeq	r0, {r1, r3, r5, r9, fp}
 690:	007d0002 	rsbseq	r0, sp, r2
 694:	08000a2a 	stmdaeq	r0, {r1, r3, r5, r9, fp}
 698:	08000a2c 	stmdaeq	r0, {r2, r3, r5, r9, fp}
 69c:	087d0002 	ldmdaeq	sp!, {r1}^
 6a0:	08000a2c 	stmdaeq	r0, {r2, r3, r5, r9, fp}
 6a4:	08000a40 	stmdaeq	r0, {r6, r9, fp}
 6a8:	08770002 	ldmdaeq	r7!, {r1}^
	...
 6b4:	080009e8 	stmdaeq	r0, {r3, r5, r6, r7, r8, fp}
 6b8:	080009ea 	stmdaeq	r0, {r1, r3, r5, r6, r7, r8, fp}
 6bc:	007d0002 	rsbseq	r0, sp, r2
 6c0:	080009ea 	stmdaeq	r0, {r1, r3, r5, r6, r7, r8, fp}
 6c4:	080009ec 	stmdaeq	r0, {r2, r3, r5, r6, r7, r8, fp}
 6c8:	047d0002 	ldrbteq	r0, [sp], #-2
 6cc:	080009ec 	stmdaeq	r0, {r2, r3, r5, r6, r7, r8, fp}
 6d0:	080009ee 	stmdaeq	r0, {r1, r2, r3, r5, r6, r7, r8, fp}
 6d4:	107d0002 	rsbsne	r0, sp, r2
 6d8:	080009ee 	stmdaeq	r0, {r1, r2, r3, r5, r6, r7, r8, fp}
 6dc:	08000a22 	stmdaeq	r0, {r1, r5, r9, fp}
 6e0:	10770002 	rsbsne	r0, r7, r2
 6e4:	08000a22 	stmdaeq	r0, {r1, r5, r9, fp}
 6e8:	08000a24 	stmdaeq	r0, {r2, r5, r9, fp}
 6ec:	04770002 	ldrbteq	r0, [r7], #-2
 6f0:	08000a24 	stmdaeq	r0, {r2, r5, r9, fp}
 6f4:	08000a26 	stmdaeq	r0, {r1, r2, r5, r9, fp}
 6f8:	047d0002 	ldrbteq	r0, [sp], #-2
 6fc:	08000a26 	stmdaeq	r0, {r1, r2, r5, r9, fp}
 700:	08000a28 	stmdaeq	r0, {r3, r5, r9, fp}
 704:	007d0002 	rsbseq	r0, sp, r2
	...
 710:	080009dc 	stmdaeq	r0, {r2, r3, r4, r6, r7, r8, fp}
 714:	080009de 	stmdaeq	r0, {r1, r2, r3, r4, r6, r7, r8, fp}
 718:	007d0002 	rsbseq	r0, sp, r2
 71c:	080009de 	stmdaeq	r0, {r1, r2, r3, r4, r6, r7, r8, fp}
 720:	080009e0 	stmdaeq	r0, {r5, r6, r7, r8, fp}
 724:	047d0002 	ldrbteq	r0, [sp], #-2
 728:	080009e0 	stmdaeq	r0, {r5, r6, r7, r8, fp}
 72c:	080009e4 	stmdaeq	r0, {r2, r5, r6, r7, r8, fp}
 730:	04770002 	ldrbteq	r0, [r7], #-2
 734:	080009e4 	stmdaeq	r0, {r2, r5, r6, r7, r8, fp}
 738:	080009e6 	stmdaeq	r0, {r1, r2, r5, r6, r7, r8, fp}
 73c:	047d0002 	ldrbteq	r0, [sp], #-2
 740:	080009e6 	stmdaeq	r0, {r1, r2, r5, r6, r7, r8, fp}
 744:	080009e8 	stmdaeq	r0, {r3, r5, r6, r7, r8, fp}
 748:	007d0002 	rsbseq	r0, sp, r2
	...

Disassembly of section .debug_aranges:

00000000 <.debug_aranges>:
   0:	0000007c 	andeq	r0, r0, ip, ror r0
   4:	00000002 	andeq	r0, r0, r2
   8:	00040000 	andeq	r0, r4, r0
   c:	00000000 	andeq	r0, r0, r0
  10:	08000170 	stmdaeq	r0, {r4, r5, r6, r8}
  14:	000000cc 	andeq	r0, r0, ip, asr #1
  18:	0800023c 	stmdaeq	r0, {r2, r3, r4, r5, r9}
  1c:	000000cc 	andeq	r0, r0, ip, asr #1
  20:	08000308 	stmdaeq	r0, {r3, r8, r9}
  24:	000001d8 	ldrdeq	r0, [r0], -r8
  28:	00000000 	andeq	r0, r0, r0
  2c:	00000094 	muleq	r0, r4, r0
  30:	080004e0 	stmdaeq	r0, {r5, r6, r7, sl}
  34:	00000016 	andeq	r0, r0, r6, lsl r0
  38:	00000000 	andeq	r0, r0, r0
  3c:	00000016 	andeq	r0, r0, r6, lsl r0
  40:	080004f8 	stmdaeq	r0, {r3, r4, r5, r6, r7, sl}
  44:	00000024 	andeq	r0, r0, r4, lsr #32
  48:	0800051c 	stmdaeq	r0, {r2, r3, r4, r8, sl}
  4c:	00000024 	andeq	r0, r0, r4, lsr #32
  50:	08000540 	stmdaeq	r0, {r6, r8, sl}
  54:	00000024 	andeq	r0, r0, r4, lsr #32
  58:	08000564 	stmdaeq	r0, {r2, r5, r6, r8, sl}
  5c:	00000024 	andeq	r0, r0, r4, lsr #32
  60:	08000588 	stmdaeq	r0, {r3, r7, r8, sl}
  64:	00000024 	andeq	r0, r0, r4, lsr #32
  68:	080005ac 	stmdaeq	r0, {r2, r3, r5, r7, r8, sl}
  6c:	000000a8 	andeq	r0, r0, r8, lsr #1
  70:	08000654 	stmdaeq	r0, {r2, r4, r6, r9, sl}
  74:	000000c4 	andeq	r0, r0, r4, asr #1
	...
  80:	0000005c 	andeq	r0, r0, ip, asr r0
  84:	05300002 	ldreq	r0, [r0, #-2]!
  88:	00040000 	andeq	r0, r4, r0
  8c:	00000000 	andeq	r0, r0, r0
  90:	08000718 	stmdaeq	r0, {r3, r4, r8, r9, sl}
  94:	0000016e 	andeq	r0, r0, lr, ror #2
  98:	08000888 	stmdaeq	r0, {r3, r7, fp}
  9c:	00000154 	andeq	r0, r0, r4, asr r1
  a0:	00000000 	andeq	r0, r0, r0
  a4:	000000d4 	ldrdeq	r0, [r0], -r4
  a8:	00000000 	andeq	r0, r0, r0
  ac:	0000002e 	andeq	r0, r0, lr, lsr #32
  b0:	00000000 	andeq	r0, r0, r0
  b4:	0000001a 	andeq	r0, r0, sl, lsl r0
  b8:	00000000 	andeq	r0, r0, r0
  bc:	0000001c 	andeq	r0, r0, ip, lsl r0
  c0:	00000000 	andeq	r0, r0, r0
  c4:	0000002e 	andeq	r0, r0, lr, lsr #32
  c8:	00000000 	andeq	r0, r0, r0
  cc:	00000022 	andeq	r0, r0, r2, lsr #32
  d0:	00000000 	andeq	r0, r0, r0
  d4:	0000004e 	andeq	r0, r0, lr, asr #32
	...
  e0:	00000034 	andeq	r0, r0, r4, lsr r0
  e4:	09ed0002 	stmibeq	sp!, {r1}^
  e8:	00040000 	andeq	r0, r4, r0
  ec:	00000000 	andeq	r0, r0, r0
  f0:	080009dc 	stmdaeq	r0, {r2, r3, r4, r6, r7, r8, fp}
  f4:	0000000c 	andeq	r0, r0, ip
  f8:	080009e8 	stmdaeq	r0, {r3, r5, r6, r7, r8, fp}
  fc:	00000040 	andeq	r0, r0, r0, asr #32
 100:	08000a28 	stmdaeq	r0, {r3, r5, r9, fp}
 104:	00000018 	andeq	r0, r0, r8, lsl r0
 108:	08000a40 	stmdaeq	r0, {r6, r9, fp}
 10c:	00000068 	andeq	r0, r0, r8, rrx
	...
 118:	00000024 	andeq	r0, r0, r4, lsr #32
 11c:	0dc20002 	stcleq	0, cr0, [r2, #8]
 120:	00040000 	andeq	r0, r4, r0
 124:	00000000 	andeq	r0, r0, r0
 128:	08000aa8 	stmdaeq	r0, {r3, r5, r7, r9, fp}
 12c:	00000050 	andeq	r0, r0, r0, asr r0
 130:	08000af8 	stmdaeq	r0, {r3, r4, r5, r6, r7, r9, fp}
 134:	00000002 	andeq	r0, r0, r2
	...

Disassembly of section .debug_ranges:

00000000 <.debug_ranges>:
   0:	08000170 	stmdaeq	r0, {r4, r5, r6, r8}
   4:	0800023c 	stmdaeq	r0, {r2, r3, r4, r5, r9}
   8:	0800023c 	stmdaeq	r0, {r2, r3, r4, r5, r9}
   c:	08000308 	stmdaeq	r0, {r3, r8, r9}
  10:	08000308 	stmdaeq	r0, {r3, r8, r9}
  14:	080004e0 	stmdaeq	r0, {r5, r6, r7, sl}
  18:	00000001 	andeq	r0, r0, r1
  1c:	00000001 	andeq	r0, r0, r1
  20:	080004e0 	stmdaeq	r0, {r5, r6, r7, sl}
  24:	080004f6 	stmdaeq	r0, {r1, r2, r4, r5, r6, r7, sl}
  28:	00000001 	andeq	r0, r0, r1
  2c:	00000001 	andeq	r0, r0, r1
  30:	080004f8 	stmdaeq	r0, {r3, r4, r5, r6, r7, sl}
  34:	0800051c 	stmdaeq	r0, {r2, r3, r4, r8, sl}
  38:	0800051c 	stmdaeq	r0, {r2, r3, r4, r8, sl}
  3c:	08000540 	stmdaeq	r0, {r6, r8, sl}
  40:	08000540 	stmdaeq	r0, {r6, r8, sl}
  44:	08000564 	stmdaeq	r0, {r2, r5, r6, r8, sl}
  48:	08000564 	stmdaeq	r0, {r2, r5, r6, r8, sl}
  4c:	08000588 	stmdaeq	r0, {r3, r7, r8, sl}
  50:	08000588 	stmdaeq	r0, {r3, r7, r8, sl}
  54:	080005ac 	stmdaeq	r0, {r2, r3, r5, r7, r8, sl}
  58:	080005ac 	stmdaeq	r0, {r2, r3, r5, r7, r8, sl}
  5c:	08000654 	stmdaeq	r0, {r2, r4, r6, r9, sl}
  60:	08000654 	stmdaeq	r0, {r2, r4, r6, r9, sl}
  64:	08000718 	stmdaeq	r0, {r3, r4, r8, r9, sl}
	...
  70:	08000718 	stmdaeq	r0, {r3, r4, r8, r9, sl}
  74:	08000886 	stmdaeq	r0, {r1, r2, r7, fp}
  78:	08000888 	stmdaeq	r0, {r3, r7, fp}
  7c:	080009dc 	stmdaeq	r0, {r2, r3, r4, r6, r7, r8, fp}
  80:	00000001 	andeq	r0, r0, r1
  84:	00000001 	andeq	r0, r0, r1
  88:	00000001 	andeq	r0, r0, r1
  8c:	00000001 	andeq	r0, r0, r1
  90:	00000001 	andeq	r0, r0, r1
  94:	00000001 	andeq	r0, r0, r1
  98:	00000001 	andeq	r0, r0, r1
  9c:	00000001 	andeq	r0, r0, r1
  a0:	00000001 	andeq	r0, r0, r1
  a4:	00000001 	andeq	r0, r0, r1
  a8:	00000001 	andeq	r0, r0, r1
  ac:	00000001 	andeq	r0, r0, r1
  b0:	00000001 	andeq	r0, r0, r1
  b4:	00000001 	andeq	r0, r0, r1
	...
  c0:	080009dc 	stmdaeq	r0, {r2, r3, r4, r6, r7, r8, fp}
  c4:	080009e8 	stmdaeq	r0, {r3, r5, r6, r7, r8, fp}
  c8:	080009e8 	stmdaeq	r0, {r3, r5, r6, r7, r8, fp}
  cc:	08000a28 	stmdaeq	r0, {r3, r5, r9, fp}
  d0:	08000a28 	stmdaeq	r0, {r3, r5, r9, fp}
  d4:	08000a40 	stmdaeq	r0, {r6, r9, fp}
  d8:	08000a40 	stmdaeq	r0, {r6, r9, fp}
  dc:	08000aa8 	stmdaeq	r0, {r3, r5, r7, r9, fp}
	...
  e8:	ffffffff 			; <UNDEFINED> instruction: 0xffffffff
  ec:	00000000 	andeq	r0, r0, r0
  f0:	08000aa8 	stmdaeq	r0, {r3, r5, r7, r9, fp}
  f4:	08000af8 	stmdaeq	r0, {r3, r4, r5, r6, r7, r9, fp}
  f8:	08000af8 	stmdaeq	r0, {r3, r4, r5, r6, r7, r9, fp}
  fc:	08000afa 	stmdaeq	r0, {r1, r3, r4, r5, r6, r7, r9, fp}
	...

Disassembly of section .debug_macro:

00000000 <.debug_macro>:
       0:	00020004 	andeq	r0, r2, r4
       4:	07000000 	streq	r0, [r0, -r0]
       8:	0000015b 	andeq	r0, r0, fp, asr r1
       c:	03010003 	movweq	r0, #4099	; 0x1003
      10:	09050609 	stmdbeq	r5, {r0, r3, r9, sl}
      14:	0000acdd 	ldrdeq	sl, [r0], -sp
      18:	05040b03 	streq	r0, [r4, #-2819]	; 0xfffff4fd
      1c:	005d2109 	subseq	r2, sp, r9, lsl #2
      20:	070b0300 	streq	r0, [fp, -r0, lsl #6]
      24:	89970805 	ldmibhi	r7, {r0, r2, fp}
      28:	0a030000 	beq	c0030 <_Min_Stack_Size+0xbfc30>
      2c:	0bfd0708 	bleq	fff41c54 <_estack+0xdff3cc54>
      30:	03040000 	movweq	r0, #16384	; 0x4000
      34:	0805090b 	stmdaeq	r5, {r0, r1, r3, r8, fp}
      38:	00006239 	andeq	r6, r0, r9, lsr r2
      3c:	050a0a03 	streq	r0, [sl, #-2563]	; 0xfffff5fd
      40:	0015b507 	andseq	fp, r5, r7, lsl #10
      44:	0b0a0300 	bleq	280c4c <_Min_Stack_Size+0x28084c>
      48:	000c2107 	andeq	r2, ip, r7, lsl #2
      4c:	43070400 	movwmi	r0, #29696	; 0x7400
      50:	0400000c 	streq	r0, [r0], #-12
      54:	050c0b03 	streq	r0, [ip, #-2819]	; 0xfffff4fd
      58:	0093d902 	addseq	sp, r3, r2, lsl #18
      5c:	08040300 	stmdaeq	r4, {r8, r9}
      60:	0d050304 	stceq	3, cr0, [r5, #-16]
      64:	000c9e07 	andeq	r9, ip, r7, lsl #28
      68:	32070400 	andcc	r0, r7, #0, 8
      6c:	0400000d 	streq	r0, [r0], #-13
      70:	000d7507 	andeq	r7, sp, r7, lsl #10
      74:	a9070400 	stmdbge	r7, {sl}
      78:	0300000d 	movweq	r0, #13
      7c:	bf070e10 	svclt	0x00070e10
      80:	0400000d 	streq	r0, [r0], #-13
      84:	050f1203 	streq	r1, [pc, #-515]	; fffffe89 <_estack+0xdfffae89>
      88:	0067540b 	rsbeq	r5, r7, fp, lsl #8
      8c:	090d0300 	stmdbeq	sp, {r8, r9}
      90:	0e0e0304 	cdpeq	3, 0, cr0, cr14, cr4, {0}
      94:	000ecd07 	andeq	ip, lr, r7, lsl #26
      98:	0f030400 	svceq	0x00030400
      9c:	0f5a0710 	svceq	0x005a0710
      a0:	18030000 	stmdane	r3, {}	; <UNPREDICTABLE>
      a4:	0f70070e 	svceq	0x0070070e
      a8:	03040000 	movweq	r0, #16384	; 0x4000
      ac:	0605111b 			; <UNDEFINED> instruction: 0x0605111b
      b0:	00006c8e 	andeq	r6, r0, lr, lsl #25
      b4:	07020703 	streq	r0, [r2, -r3, lsl #14]
      b8:	00000fb3 			; <UNDEFINED> instruction: 0x00000fb3
      bc:	0a070404 	beq	1c10d4 <_Min_Stack_Size+0x1c0cd4>
      c0:	04000010 	streq	r0, [r0], #-16
      c4:	00103e07 	andseq	r3, r0, r7, lsl #28
      c8:	12220300 	eorne	r0, r2, #0, 6
      cc:	00104e07 	andseq	r4, r0, r7, lsl #28
      d0:	a6070400 	strge	r0, [r7], -r0, lsl #8
      d4:	03000010 	movweq	r0, #16
      d8:	071303ba 			; <UNDEFINED> instruction: 0x071303ba
      dc:	00001134 	andeq	r1, r0, r4, lsr r1
      e0:	11500704 	cmpne	r0, r4, lsl #14
      e4:	03040000 	movweq	r0, #16384	; 0x4000
      e8:	2b051413 	blcs	14513c <_Min_Stack_Size+0x144d3c>
      ec:	0000a4fc 	strdeq	sl, [r0], -ip
      f0:	040e2f03 	streq	r2, [lr], #-3843	; 0xfffff0fd
      f4:	0012c707 	andseq	ip, r2, r7, lsl #14
      f8:	14030400 	strne	r0, [r3], #-1024	; 0xfffffc00
      fc:	65020515 	strvs	r0, [r2, #-1301]	; 0xfffffaeb
     100:	0400002e 	streq	r0, [r0], #-46	; 0xffffffd2
     104:	07161603 	ldreq	r1, [r6, -r3, lsl #12]
     108:	00001630 	andeq	r1, r0, r0, lsr r6
     10c:	16460704 	strbne	r0, [r6], -r4, lsl #14
     110:	03040000 	movweq	r0, #16384	; 0x4000
     114:	0903170c 	stmdbeq	r3, {r2, r3, r8, r9, sl, ip}
     118:	c90a0518 	stmdbgt	sl, {r3, r4, r8, sl}
     11c:	03000008 	movweq	r0, #8
     120:	6f07190d 	svcvs	0x0007190d
     124:	04000016 	streq	r0, [r0], #-22	; 0xffffffea
     128:	07030e03 	streq	r0, [r3, -r3, lsl #28]
     12c:	00001772 	andeq	r1, r0, r2, ror r7
     130:	17dc0704 	ldrbne	r0, [ip, r4, lsl #14]
     134:	05040000 	streq	r0, [r4, #-0]
     138:	0008c00d 	andeq	ip, r8, sp
     13c:	bb070400 	bllt	1c1144 <_Min_Stack_Size+0x1c0d44>
     140:	04000019 	streq	r0, [r0], #-25	; 0xffffffe7
     144:	07050c03 	streq	r0, [r5, -r3, lsl #24]
     148:	00002073 	andeq	r2, r0, r3, ror r0
     14c:	21490704 	cmpcs	r9, r4, lsl #14
     150:	05040000 	streq	r0, [r4, #-0]
     154:	0023491a 	eoreq	r4, r3, sl, lsl r9
     158:	04000400 	streq	r0, [r0], #-1024	; 0xfffffc00
     15c:	00050000 	andeq	r0, r5, r0
     160:	000097ab 	andeq	r9, r0, fp, lsr #15
     164:	440f0005 	strmi	r0, [pc], #-5	; 16c <_Min_Heap_Size-0x94>
     168:	00050000 	andeq	r0, r5, r0
     16c:	00006808 	andeq	r6, r0, r8, lsl #16
     170:	28240005 	stmdacs	r4!, {r0, r2}
     174:	00050000 	andeq	r0, r5, r0
     178:	00000e5e 	andeq	r0, r0, lr, asr lr
     17c:	52c10005 	sbcpl	r0, r1, #5
     180:	00050000 	andeq	r0, r5, r0
     184:	00008811 	andeq	r8, r0, r1, lsl r8
     188:	25440005 	strbcs	r0, [r4, #-5]
     18c:	00050000 	andeq	r0, r5, r0
     190:	000025e6 	andeq	r2, r0, r6, ror #11
     194:	90410005 	subls	r0, r1, r5
     198:	00050000 	andeq	r0, r5, r0
     19c:	000029d0 	ldrdeq	r2, [r0], -r0
     1a0:	450a0005 	strmi	r0, [sl, #-5]
     1a4:	00050000 	andeq	r0, r5, r0
     1a8:	00004e09 	andeq	r4, r0, r9, lsl #28
     1ac:	a8b20005 	ldmge	r2!, {r0, r2}
     1b0:	00050000 	andeq	r0, r5, r0
     1b4:	000046df 	ldrdeq	r4, [r0], -pc	; <UNPREDICTABLE>
     1b8:	7e7d0005 	cdpvc	0, 7, cr0, cr13, cr5, {0}
     1bc:	00050000 	andeq	r0, r5, r0
     1c0:	00009c00 	andeq	r9, r0, r0, lsl #24
     1c4:	1ffa0005 	svcne	0x00fa0005
     1c8:	00050000 	andeq	r0, r5, r0
     1cc:	00000675 	andeq	r0, r0, r5, ror r6
     1d0:	2cf40005 	ldclcs	0, cr0, [r4], #20
     1d4:	00050000 	andeq	r0, r5, r0
     1d8:	00002836 	andeq	r2, r0, r6, lsr r8
     1dc:	21480005 	cmpcs	r8, r5
     1e0:	00050000 	andeq	r0, r5, r0
     1e4:	00002e93 	muleq	r0, r3, lr
     1e8:	8c350005 	ldchi	0, cr0, [r5], #-20	; 0xffffffec
     1ec:	00050000 	andeq	r0, r5, r0
     1f0:	00005e72 	andeq	r5, r0, r2, ror lr
     1f4:	70960005 	addsvc	r0, r6, r5
     1f8:	00050000 	andeq	r0, r5, r0
     1fc:	00007976 	andeq	r7, r0, r6, ror r9
     200:	126c0005 	rsbne	r0, ip, #5
     204:	00050000 	andeq	r0, r5, r0
     208:	00000844 	andeq	r0, r0, r4, asr #16
     20c:	61cf0005 	bicvs	r0, pc, r5
     210:	00050000 	andeq	r0, r5, r0
     214:	00006a57 	andeq	r6, r0, r7, asr sl
     218:	1cf20005 	ldclne	0, cr0, [r2], #20
     21c:	00050000 	andeq	r0, r5, r0
     220:	00002258 	andeq	r2, r0, r8, asr r2
     224:	1e9b0005 	cdpne	0, 9, cr0, cr11, cr5, {0}
     228:	00050000 	andeq	r0, r5, r0
     22c:	0000085e 	andeq	r0, r0, lr, asr r8
     230:	39c60005 	stmibcc	r6, {r0, r2}^
     234:	00050000 	andeq	r0, r5, r0
     238:	00002ec8 	andeq	r2, r0, r8, asr #29
     23c:	0eb60005 	cdpeq	0, 11, cr0, cr6, cr5, {0}
     240:	00050000 	andeq	r0, r5, r0
     244:	000088e1 	andeq	r8, r0, r1, ror #17
     248:	87900005 	ldrhi	r0, [r0, r5]
     24c:	00050000 	andeq	r0, r5, r0
     250:	00007d2b 	andeq	r7, r0, fp, lsr #26
     254:	1f000005 	svcne	0x00000005
     258:	00050000 	andeq	r0, r5, r0
     25c:	000028b1 			; <UNDEFINED> instruction: 0x000028b1
     260:	08e90005 	stmiaeq	r9!, {r0, r2}^
     264:	00050000 	andeq	r0, r5, r0
     268:	00000bac 	andeq	r0, r0, ip, lsr #23
     26c:	81260005 			; <UNDEFINED> instruction: 0x81260005
     270:	00050000 	andeq	r0, r5, r0
     274:	00005e42 	andeq	r5, r0, r2, asr #28
     278:	3b060005 	blcc	180294 <_Min_Stack_Size+0x17fe94>
     27c:	00050000 	andeq	r0, r5, r0
     280:	000048d3 	ldrdeq	r4, [r0], -r3
     284:	9a8b0005 	bls	fe2c02a0 <_estack+0xde2bb2a0>
     288:	00050000 	andeq	r0, r5, r0
     28c:	00008c94 	muleq	r0, r4, ip
     290:	1d070005 	stcne	0, cr0, [r7, #-20]	; 0xffffffec
     294:	00050000 	andeq	r0, r5, r0
     298:	0000a04d 	andeq	sl, r0, sp, asr #32
     29c:	78670005 	stmdavc	r7!, {r0, r2}^
     2a0:	00050000 	andeq	r0, r5, r0
     2a4:	0000ac95 	muleq	r0, r5, ip
     2a8:	6b1d0005 	blvs	7402c4 <_Min_Stack_Size+0x73fec4>
     2ac:	00050000 	andeq	r0, r5, r0
     2b0:	00007cc8 	andeq	r7, r0, r8, asr #25
     2b4:	883d0005 	ldmdahi	sp!, {r0, r2}
     2b8:	00050000 	andeq	r0, r5, r0
     2bc:	00004cda 	ldrdeq	r4, [r0], -sl
     2c0:	1c4b0005 	mcrrne	0, 0, r0, fp, cr5
     2c4:	00050000 	andeq	r0, r5, r0
     2c8:	00007c57 	andeq	r7, r0, r7, asr ip
     2cc:	64cf0005 	strbvs	r0, [pc], #5	; 2d4 <_Min_Heap_Size+0xd4>
     2d0:	00050000 	andeq	r0, r5, r0
     2d4:	00000e94 	muleq	r0, r4, lr
     2d8:	4a4c0005 	bmi	13002f4 <_Min_Stack_Size+0x12ffef4>
     2dc:	00050000 	andeq	r0, r5, r0
     2e0:	00009e39 	andeq	r9, r0, r9, lsr lr
     2e4:	27f10005 	ldrbcs	r0, [r1, r5]!
     2e8:	00050000 	andeq	r0, r5, r0
     2ec:	00002fee 	andeq	r2, r0, lr, ror #31
     2f0:	8ae80005 	bhi	ffa0030c <_estack+0xdf9fb30c>
     2f4:	00050000 	andeq	r0, r5, r0
     2f8:	00001290 	muleq	r0, r0, r2
     2fc:	36050005 	strcc	r0, [r5], -r5
     300:	00050000 	andeq	r0, r5, r0
     304:	000067de 	ldrdeq	r6, [r0], -lr
     308:	7a860005 	bvc	fe180324 <_estack+0xde17b324>
     30c:	00050000 	andeq	r0, r5, r0
     310:	0000ac7e 	andeq	sl, r0, lr, ror ip
     314:	a4c90005 	strbge	r0, [r9], #5
     318:	00050000 	andeq	r0, r5, r0
     31c:	00007296 	muleq	r0, r6, r2
     320:	05590005 	ldrbeq	r0, [r9, #-5]
     324:	00050000 	andeq	r0, r5, r0
     328:	000054fb 	strdeq	r5, [r0], -fp
     32c:	a0010005 	andge	r0, r1, r5
     330:	00050000 	andeq	r0, r5, r0
     334:	00009f80 	andeq	r9, r0, r0, lsl #31
     338:	039f0005 	orrseq	r0, pc, #5
     33c:	00050000 	andeq	r0, r5, r0
     340:	0000a3bd 			; <UNDEFINED> instruction: 0x0000a3bd
     344:	49fc0005 	ldmibmi	ip!, {r0, r2}^
     348:	00050000 	andeq	r0, r5, r0
     34c:	00006be8 	andeq	r6, r0, r8, ror #23
     350:	5dad0005 	stcpl	0, cr0, [sp, #20]!
     354:	00050000 	andeq	r0, r5, r0
     358:	00005418 	andeq	r5, r0, r8, lsl r4
     35c:	5a3e0005 	bpl	f80378 <_Min_Stack_Size+0xf7ff78>
     360:	00050000 	andeq	r0, r5, r0
     364:	0000a6fe 	strdeq	sl, [r0], -lr
     368:	9b640005 	blls	1900384 <_Min_Stack_Size+0x18fff84>
     36c:	00050000 	andeq	r0, r5, r0
     370:	00001431 	andeq	r1, r0, r1, lsr r4
     374:	9f260005 	svcls	0x00260005
     378:	00050000 	andeq	r0, r5, r0
     37c:	00000424 	andeq	r0, r0, r4, lsr #8
     380:	03e00005 	mvneq	r0, #5
     384:	00050000 	andeq	r0, r5, r0
     388:	0000ab09 	andeq	sl, r0, r9, lsl #22
     38c:	1cc50005 	stclne	0, cr0, [r5], {5}
     390:	00050000 	andeq	r0, r5, r0
     394:	000007c0 	andeq	r0, r0, r0, asr #15
     398:	90be0005 	adcsls	r0, lr, r5
     39c:	00050000 	andeq	r0, r5, r0
     3a0:	00003ef2 	strdeq	r3, [r0], -r2
     3a4:	95910005 	ldrls	r0, [r1, #5]
     3a8:	00050000 	andeq	r0, r5, r0
     3ac:	00004763 	andeq	r4, r0, r3, ror #14
     3b0:	93c40005 	bicls	r0, r4, #5
     3b4:	00050000 	andeq	r0, r5, r0
     3b8:	00004b34 	andeq	r4, r0, r4, lsr fp
     3bc:	50e10005 	rscpl	r0, r1, r5
     3c0:	00050000 	andeq	r0, r5, r0
     3c4:	00003371 	andeq	r3, r0, r1, ror r3
     3c8:	2b520005 	blcs	14803e4 <_Min_Stack_Size+0x147ffe4>
     3cc:	00050000 	andeq	r0, r5, r0
     3d0:	000043af 	andeq	r4, r0, pc, lsr #7
     3d4:	43550005 	cmpmi	r5, #5
     3d8:	00050000 	andeq	r0, r5, r0
     3dc:	00004475 	andeq	r4, r0, r5, ror r4
     3e0:	74370005 	ldrtvc	r0, [r7], #-5
     3e4:	00050000 	andeq	r0, r5, r0
     3e8:	0000a01a 	andeq	sl, r0, sl, lsl r0
     3ec:	365e0005 	ldrbcc	r0, [lr], -r5
     3f0:	00050000 	andeq	r0, r5, r0
     3f4:	0000a75e 	andeq	sl, r0, lr, asr r7
     3f8:	41190005 	tstmi	r9, r5
     3fc:	00050000 	andeq	r0, r5, r0
     400:	000023a0 	andeq	r2, r0, r0, lsr #7
     404:	32300005 	eorscc	r0, r0, #5
     408:	00050000 	andeq	r0, r5, r0
     40c:	0000215c 	andeq	r2, r0, ip, asr r1
     410:	4b8b0005 	blmi	fe2c042c <_estack+0xde2bb42c>
     414:	00050000 	andeq	r0, r5, r0
     418:	00008cbb 			; <UNDEFINED> instruction: 0x00008cbb
     41c:	46f20005 	ldrbtmi	r0, [r2], r5
     420:	00050000 	andeq	r0, r5, r0
     424:	0000813e 	andeq	r8, r0, lr, lsr r1
     428:	0b9d0005 	bleq	fe740444 <_estack+0xde73b444>
     42c:	00050000 	andeq	r0, r5, r0
     430:	000025ca 	andeq	r2, r0, sl, asr #11
     434:	8e8d0005 	cdphi	0, 8, cr0, cr13, cr5, {0}
     438:	00050000 	andeq	r0, r5, r0
     43c:	00004643 	andeq	r4, r0, r3, asr #12
     440:	37de0005 	ldrbcc	r0, [lr, r5]
     444:	00050000 	andeq	r0, r5, r0
     448:	000078aa 	andeq	r7, r0, sl, lsr #17
     44c:	4cc30005 	stclmi	0, cr0, [r3], {5}
     450:	00050000 	andeq	r0, r5, r0
     454:	00009803 	andeq	r9, r0, r3, lsl #16
     458:	67f10005 	ldrbvs	r0, [r1, r5]!
     45c:	00050000 	andeq	r0, r5, r0
     460:	00007e94 	muleq	r0, r4, lr
     464:	15c40005 	strbne	r0, [r4, #5]
     468:	00050000 	andeq	r0, r5, r0
     46c:	000029b2 			; <UNDEFINED> instruction: 0x000029b2
     470:	27960005 	ldrcs	r0, [r6, r5]
     474:	00050000 	andeq	r0, r5, r0
     478:	00001ab1 			; <UNDEFINED> instruction: 0x00001ab1
     47c:	11930005 	orrsne	r0, r3, r5
     480:	00050000 	andeq	r0, r5, r0
     484:	000014e2 	andeq	r1, r0, r2, ror #9
     488:	16c80005 	strbne	r0, [r8], r5
     48c:	00050000 	andeq	r0, r5, r0
     490:	00001fc6 	andeq	r1, r0, r6, asr #31
     494:	5ab80005 	bpl	fee004b0 <_estack+0xdedfb4b0>
     498:	00050000 	andeq	r0, r5, r0
     49c:	00001674 	andeq	r1, r0, r4, ror r6
     4a0:	5b580005 	blpl	16004bc <_Min_Stack_Size+0x16000bc>
     4a4:	00050000 	andeq	r0, r5, r0
     4a8:	0000102a 	andeq	r1, r0, sl, lsr #32
     4ac:	69250005 	stmdbvs	r5!, {r0, r2}
     4b0:	00050000 	andeq	r0, r5, r0
     4b4:	00004867 	andeq	r4, r0, r7, ror #16
     4b8:	67630005 	strbvs	r0, [r3, -r5]!
     4bc:	00050000 	andeq	r0, r5, r0
     4c0:	000049c5 	andeq	r4, r0, r5, asr #19
     4c4:	414e0005 	cmpmi	lr, r5
     4c8:	00050000 	andeq	r0, r5, r0
     4cc:	00005627 	andeq	r5, r0, r7, lsr #12
     4d0:	4e600005 	cdpmi	0, 6, cr0, cr0, cr5, {0}
     4d4:	00050000 	andeq	r0, r5, r0
     4d8:	000066c6 	andeq	r6, r0, r6, asr #13
     4dc:	65890005 	strvs	r0, [r9, #5]
     4e0:	00050000 	andeq	r0, r5, r0
     4e4:	00007a0c 	andeq	r7, r0, ip, lsl #20
     4e8:	1fe60005 	svcne	0x00e60005
     4ec:	00050000 	andeq	r0, r5, r0
     4f0:	0000289b 	muleq	r0, fp, r8
     4f4:	22fe0005 	rscscs	r0, lr, #5
     4f8:	00050000 	andeq	r0, r5, r0
     4fc:	000030a9 	andeq	r3, r0, r9, lsr #1
     500:	799c0005 	ldmibvc	ip, {r0, r2}
     504:	00050000 	andeq	r0, r5, r0
     508:	00003047 	andeq	r3, r0, r7, asr #32
     50c:	38af0005 	stmiacc	pc!, {r0, r2}	; <UNPREDICTABLE>
     510:	00050000 	andeq	r0, r5, r0
     514:	0000368e 	andeq	r3, r0, lr, lsl #13
     518:	08d40005 	ldmeq	r4, {r0, r2}^
     51c:	00050000 	andeq	r0, r5, r0
     520:	0000470b 	andeq	r4, r0, fp, lsl #14
     524:	6d1a0005 	ldcvs	0, cr0, [sl, #-20]	; 0xffffffec
     528:	00050000 	andeq	r0, r5, r0
     52c:	00008597 	muleq	r0, r7, r5
     530:	ab600005 	blge	180054c <_Min_Stack_Size+0x180014c>
     534:	00050000 	andeq	r0, r5, r0
     538:	00008b85 	andeq	r8, r0, r5, lsl #23
     53c:	74f80005 	ldrbtvc	r0, [r8], #5
     540:	00050000 	andeq	r0, r5, r0
     544:	00001242 	andeq	r1, r0, r2, asr #4
     548:	4de60005 	stclmi	0, cr0, [r6, #20]!
     54c:	00050000 	andeq	r0, r5, r0
     550:	000006ba 			; <UNDEFINED> instruction: 0x000006ba
     554:	92da0005 	sbcsls	r0, sl, #5
     558:	00050000 	andeq	r0, r5, r0
     55c:	0000a0a6 	andeq	sl, r0, r6, lsr #1
     560:	634d0005 	movtvs	r0, #53253	; 0xd005
     564:	00050000 	andeq	r0, r5, r0
     568:	00001af3 	strdeq	r1, [r0], -r3
     56c:	46650005 	strbtmi	r0, [r5], -r5
     570:	00050000 	andeq	r0, r5, r0
     574:	00006457 	andeq	r6, r0, r7, asr r4
     578:	34580005 	ldrbcc	r0, [r8], #-5
     57c:	00050000 	andeq	r0, r5, r0
     580:	000090a7 	andeq	r9, r0, r7, lsr #1
     584:	89a30005 	stmibhi	r3!, {r0, r2}
     588:	00050000 	andeq	r0, r5, r0
     58c:	00001faf 	andeq	r1, r0, pc, lsr #31
     590:	0b410005 	bleq	10405ac <_Min_Stack_Size+0x10401ac>
     594:	00050000 	andeq	r0, r5, r0
     598:	00009eff 	strdeq	r9, [r0], -pc	; <UNPREDICTABLE>
     59c:	09ce0005 	stmibeq	lr, {r0, r2}^
     5a0:	00050000 	andeq	r0, r5, r0
     5a4:	00006cd0 	ldrdeq	r6, [r0], -r0
     5a8:	33ac0005 			; <UNDEFINED> instruction: 0x33ac0005
     5ac:	00050000 	andeq	r0, r5, r0
     5b0:	000063b0 			; <UNDEFINED> instruction: 0x000063b0
     5b4:	00560005 	subseq	r0, r6, r5
     5b8:	00050000 	andeq	r0, r5, r0
     5bc:	000097b6 			; <UNDEFINED> instruction: 0x000097b6
     5c0:	55a30005 	strpl	r0, [r3, #5]!
     5c4:	00050000 	andeq	r0, r5, r0
     5c8:	00007027 	andeq	r7, r0, r7, lsr #32
     5cc:	8d950005 	ldchi	0, cr0, [r5, #20]
     5d0:	00050000 	andeq	r0, r5, r0
     5d4:	00004d1a 	andeq	r4, r0, sl, lsl sp
     5d8:	50b40005 	adcspl	r0, r4, r5
     5dc:	00050000 	andeq	r0, r5, r0
     5e0:	0000751a 	andeq	r7, r0, sl, lsl r5
     5e4:	3d930005 	ldccc	0, cr0, [r3, #20]
     5e8:	00050000 	andeq	r0, r5, r0
     5ec:	00001864 	andeq	r1, r0, r4, ror #16
     5f0:	7a9a0005 	bvc	fe68060c <_estack+0xde67b60c>
     5f4:	00050000 	andeq	r0, r5, r0
     5f8:	00004c37 	andeq	r4, r0, r7, lsr ip
     5fc:	75c60005 	strbvc	r0, [r6, #5]
     600:	00050000 	andeq	r0, r5, r0
     604:	00001055 	andeq	r1, r0, r5, asr r0
     608:	6f3b0005 	svcvs	0x003b0005
     60c:	00050000 	andeq	r0, r5, r0
     610:	00001dc0 	andeq	r1, r0, r0, asr #27
     614:	0f480005 	svceq	0x00480005
     618:	00050000 	andeq	r0, r5, r0
     61c:	00000977 	andeq	r0, r0, r7, ror r9
     620:	8b5d0005 	blhi	174063c <_Min_Stack_Size+0x174023c>
     624:	00050000 	andeq	r0, r5, r0
     628:	0000aa75 	andeq	sl, r0, r5, ror sl
     62c:	09030005 	stmdbeq	r3, {r0, r2}
     630:	00050000 	andeq	r0, r5, r0
     634:	000061f6 	strdeq	r6, [r0], -r6	; <UNPREDICTABLE>
     638:	4c5c0005 	mrrcmi	0, 0, r0, ip, cr5
     63c:	00050000 	andeq	r0, r5, r0
     640:	00009820 	andeq	r9, r0, r0, lsr #16
     644:	a1180005 	tstge	r8, r5
     648:	00050000 	andeq	r0, r5, r0
     64c:	00003d2e 	andeq	r3, r0, lr, lsr #26
     650:	30cd0005 	sbccc	r0, sp, r5
     654:	00050000 	andeq	r0, r5, r0
     658:	00000718 	andeq	r0, r0, r8, lsl r7
     65c:	9fd60005 	svcls	0x00d60005
     660:	00050000 	andeq	r0, r5, r0
     664:	00008e9d 	muleq	r0, sp, lr
     668:	11490005 	cmpne	r9, r5
     66c:	00050000 	andeq	r0, r5, r0
     670:	00005cd4 	ldrdeq	r5, [r0], -r4
     674:	26fe0005 	ldrbtcs	r0, [lr], r5
     678:	00050000 	andeq	r0, r5, r0
     67c:	00000456 	andeq	r0, r0, r6, asr r4
     680:	0c390005 	ldceq	0, cr0, [r9], #-20	; 0xffffffec
     684:	00050000 	andeq	r0, r5, r0
     688:	00004f88 	andeq	r4, r0, r8, lsl #31
     68c:	5d570005 	ldclpl	0, cr0, [r7, #-20]	; 0xffffffec
     690:	00050000 	andeq	r0, r5, r0
     694:	000095a9 	andeq	r9, r0, r9, lsr #11
     698:	00e90005 	rsceq	r0, r9, r5
     69c:	00050000 	andeq	r0, r5, r0
     6a0:	000066af 	andeq	r6, r0, pc, lsr #13
     6a4:	02080005 	andeq	r0, r8, #5
     6a8:	00050000 	andeq	r0, r5, r0
     6ac:	000065a0 	andeq	r6, r0, r0, lsr #11
     6b0:	78f80005 	ldmvc	r8!, {r0, r2}^
     6b4:	00050000 	andeq	r0, r5, r0
     6b8:	0000a6c0 	andeq	sl, r0, r0, asr #13
     6bc:	7d840005 	stcvc	0, cr0, [r4, #20]
     6c0:	00050000 	andeq	r0, r5, r0
     6c4:	00008822 	andeq	r8, r0, r2, lsr #16
     6c8:	1ec90005 	cdpne	0, 12, cr0, cr9, cr5, {0}
     6cc:	00050000 	andeq	r0, r5, r0
     6d0:	00004608 	andeq	r4, r0, r8, lsl #12
     6d4:	3e580005 	cdpcc	0, 5, cr0, cr8, cr5, {0}
     6d8:	00050000 	andeq	r0, r5, r0
     6dc:	00001ad9 	ldrdeq	r1, [r0], -r9
     6e0:	84ad0005 	strthi	r0, [sp], #5
     6e4:	00050000 	andeq	r0, r5, r0
     6e8:	00006e96 	muleq	r0, r6, lr
     6ec:	5c7c0005 	ldclpl	0, cr0, [ip], #-20	; 0xffffffec
     6f0:	00050000 	andeq	r0, r5, r0
     6f4:	00001be5 	andeq	r1, r0, r5, ror #23
     6f8:	28490005 	stmdacs	r9, {r0, r2}^
     6fc:	00050000 	andeq	r0, r5, r0
     700:	00004e48 	andeq	r4, r0, r8, asr #28
     704:	18f30005 	ldmne	r3!, {r0, r2}^
     708:	00050000 	andeq	r0, r5, r0
     70c:	00000f03 	andeq	r0, r0, r3, lsl #30
     710:	40b50005 	adcsmi	r0, r5, r5
     714:	00050000 	andeq	r0, r5, r0
     718:	000007ae 	andeq	r0, r0, lr, lsr #15
     71c:	61500005 	cmpvs	r0, r5
     720:	00050000 	andeq	r0, r5, r0
     724:	0000480d 	andeq	r4, r0, sp, lsl #16
     728:	2fd50005 	svccs	0x00d50005
     72c:	00050000 	andeq	r0, r5, r0
     730:	000011f1 	strdeq	r1, [r0], -r1	; <UNPREDICTABLE>
     734:	4d070005 	stcmi	0, cr0, [r7, #-20]	; 0xffffffec
     738:	00050000 	andeq	r0, r5, r0
     73c:	0000321d 	andeq	r3, r0, sp, lsl r2
     740:	32a40005 	adccc	r0, r4, #5
     744:	00050000 	andeq	r0, r5, r0
     748:	00001005 	andeq	r1, r0, r5
     74c:	41ef0005 	mvnmi	r0, r5
     750:	00050000 	andeq	r0, r5, r0
     754:	00002513 	andeq	r2, r0, r3, lsl r5
     758:	78d50005 	ldmvc	r5, {r0, r2}^
     75c:	00050000 	andeq	r0, r5, r0
     760:	0000072e 	andeq	r0, r0, lr, lsr #14
     764:	28e90005 	stmiacs	r9!, {r0, r2}^
     768:	00050000 	andeq	r0, r5, r0
     76c:	00006f20 	andeq	r6, r0, r0, lsr #30
     770:	632a0005 			; <UNDEFINED> instruction: 0x632a0005
     774:	00050000 	andeq	r0, r5, r0
     778:	000073df 	ldrdeq	r7, [r0], -pc	; <UNPREDICTABLE>
     77c:	184f0005 	stmdane	pc, {r0, r2}^	; <UNPREDICTABLE>
     780:	00050000 	andeq	r0, r5, r0
     784:	00005fe5 	andeq	r5, r0, r5, ror #31
     788:	54de0005 	ldrbpl	r0, [lr], #5
     78c:	00050000 	andeq	r0, r5, r0
     790:	00005e5f 	andeq	r5, r0, pc, asr lr
     794:	74450005 	strbvc	r0, [r5], #-5
     798:	00050000 	andeq	r0, r5, r0
     79c:	0000053b 	andeq	r0, r0, fp, lsr r5
     7a0:	69b80005 	ldmibvs	r8!, {r0, r2}
     7a4:	00050000 	andeq	r0, r5, r0
     7a8:	00006d9f 	muleq	r0, pc, sp	; <UNPREDICTABLE>
     7ac:	112b0005 			; <UNDEFINED> instruction: 0x112b0005
     7b0:	00050000 	andeq	r0, r5, r0
     7b4:	0000ab74 	andeq	sl, r0, r4, ror fp
     7b8:	80cb0005 	sbchi	r0, fp, r5
     7bc:	00050000 	andeq	r0, r5, r0
     7c0:	00007ca6 	andeq	r7, r0, r6, lsr #25
     7c4:	8b940005 	blhi	fe5007e0 <_estack+0xde4fb7e0>
     7c8:	00050000 	andeq	r0, r5, r0
     7cc:	0000a104 	andeq	sl, r0, r4, lsl #2
     7d0:	9c400005 	mcrrls	0, 0, r0, r0, cr5
     7d4:	00050000 	andeq	r0, r5, r0
     7d8:	00001653 	andeq	r1, r0, r3, asr r6
     7dc:	8a1f0005 	bhi	7c07f8 <_Min_Stack_Size+0x7c03f8>
     7e0:	00050000 	andeq	r0, r5, r0
     7e4:	0000a68c 	andeq	sl, r0, ip, lsl #13
     7e8:	0e700005 	cdpeq	0, 7, cr0, cr0, cr5, {0}
     7ec:	00050000 	andeq	r0, r5, r0
     7f0:	0000515c 	andeq	r5, r0, ip, asr r1
     7f4:	6cb70005 	ldcvs	0, cr0, [r7], #20
     7f8:	00050000 	andeq	r0, r5, r0
     7fc:	00001e37 	andeq	r1, r0, r7, lsr lr
     800:	97160005 	ldrls	r0, [r6, -r5]
     804:	00050000 	andeq	r0, r5, r0
     808:	0000770c 	andeq	r7, r0, ip, lsl #14
     80c:	7b5f0005 	blvc	17c0828 <_Min_Stack_Size+0x17c0428>
     810:	00050000 	andeq	r0, r5, r0
     814:	00007c84 	andeq	r7, r0, r4, lsl #25
     818:	269c0005 	ldrcs	r0, [ip], r5
     81c:	00050000 	andeq	r0, r5, r0
     820:	00009d27 	andeq	r9, r0, r7, lsr #26
     824:	3c1d0005 	ldccc	0, cr0, [sp], {5}
     828:	00050000 	andeq	r0, r5, r0
     82c:	00006600 	andeq	r6, r0, r0, lsl #12
     830:	09600005 	stmdbeq	r0!, {r0, r2}^
     834:	00050000 	andeq	r0, r5, r0
     838:	00000791 	muleq	r0, r1, r7
     83c:	1ca70005 	stcne	0, cr0, [r7], #20
     840:	00050000 	andeq	r0, r5, r0
     844:	00001a2b 	andeq	r1, r0, fp, lsr #20
     848:	8dcd0005 	stclhi	0, cr0, [sp, #20]
     84c:	00050000 	andeq	r0, r5, r0
     850:	000077be 			; <UNDEFINED> instruction: 0x000077be
     854:	47220005 	strmi	r0, [r2, -r5]!
     858:	00050000 	andeq	r0, r5, r0
     85c:	00009ec5 	andeq	r9, r0, r5, asr #29
     860:	54350005 	ldrtpl	r0, [r5], #-5
     864:	00050000 	andeq	r0, r5, r0
     868:	00001a70 	andeq	r1, r0, r0, ror sl
     86c:	38500005 	ldmdacc	r0, {r0, r2}^
     870:	00050000 	andeq	r0, r5, r0
     874:	00004f4f 	andeq	r4, r0, pc, asr #30
     878:	66d40005 	ldrbvs	r0, [r4], r5
     87c:	00050000 	andeq	r0, r5, r0
     880:	00002648 	andeq	r2, r0, r8, asr #12
     884:	158a0005 	strne	r0, [sl, #5]
     888:	00050000 	andeq	r0, r5, r0
     88c:	000097df 	ldrdeq	r9, [r0], -pc	; <UNPREDICTABLE>
     890:	7d030005 	stcvc	0, cr0, [r3, #-20]	; 0xffffffec
     894:	00050000 	andeq	r0, r5, r0
     898:	0000568a 	andeq	r5, r0, sl, lsl #13
     89c:	935e0005 	cmpls	lr, #5
     8a0:	00050000 	andeq	r0, r5, r0
     8a4:	00007a72 	andeq	r7, r0, r2, ror sl
     8a8:	55660005 	strbpl	r0, [r6, #-5]!
     8ac:	00050000 	andeq	r0, r5, r0
     8b0:	00007fce 	andeq	r7, r0, lr, asr #31
     8b4:	9ee00005 	cdpls	0, 14, cr0, cr0, cr5, {0}
     8b8:	00050000 	andeq	r0, r5, r0
     8bc:	0000874e 	andeq	r8, r0, lr, asr #14
     8c0:	4a6d0005 	bmi	1b408dc <_Min_Stack_Size+0x1b404dc>
     8c4:	00050000 	andeq	r0, r5, r0
     8c8:	000002bc 			; <UNDEFINED> instruction: 0x000002bc
     8cc:	42aa0005 	adcmi	r0, sl, #5
     8d0:	00050000 	andeq	r0, r5, r0
     8d4:	00002525 	andeq	r2, r0, r5, lsr #10
     8d8:	2d070005 	stccs	0, cr0, [r7, #-20]	; 0xffffffec
     8dc:	00050000 	andeq	r0, r5, r0
     8e0:	00009663 	andeq	r9, r0, r3, ror #12
     8e4:	98e80005 	stmials	r8!, {r0, r2}^
     8e8:	00050000 	andeq	r0, r5, r0
     8ec:	000065d4 	ldrdeq	r6, [r0], -r4
     8f0:	7adf0005 	bvc	ff7c090c <_estack+0xdf7bb90c>
     8f4:	00050000 	andeq	r0, r5, r0
     8f8:	0000a06c 	andeq	sl, r0, ip, rrx
     8fc:	86a40005 	strthi	r0, [r4], r5
     900:	00050000 	andeq	r0, r5, r0
     904:	0000a34b 	andeq	sl, r0, fp, asr #6
     908:	a8f80005 	ldmge	r8!, {r0, r2}^
     90c:	00050000 	andeq	r0, r5, r0
     910:	000012ae 	andeq	r1, r0, lr, lsr #5
     914:	08360005 	ldmdaeq	r6!, {r0, r2}
     918:	00050000 	andeq	r0, r5, r0
     91c:	00007b11 	andeq	r7, r0, r1, lsl fp
     920:	80fa0005 	rscshi	r0, sl, r5
     924:	00050000 	andeq	r0, r5, r0
     928:	00002baf 	andeq	r2, r0, pc, lsr #23
     92c:	04480005 	strbeq	r0, [r8], #-5
     930:	00050000 	andeq	r0, r5, r0
     934:	00000f60 	andeq	r0, r0, r0, ror #30
     938:	55230005 	strpl	r0, [r3, #-5]!
     93c:	00050000 	andeq	r0, r5, r0
     940:	0000137e 	andeq	r1, r0, lr, ror r3
     944:	7b7e0005 	blvc	1f80960 <_Min_Stack_Size+0x1f80560>
     948:	00050000 	andeq	r0, r5, r0
     94c:	0000125c 	andeq	r1, r0, ip, asr r2
     950:	88020005 	stmdahi	r2, {r0, r2}
     954:	00050000 	andeq	r0, r5, r0
     958:	0000633d 	andeq	r6, r0, sp, lsr r3
     95c:	4ec50005 	cdpmi	0, 12, cr0, cr5, cr5, {0}
     960:	00050000 	andeq	r0, r5, r0
     964:	00007de2 	andeq	r7, r0, r2, ror #27
     968:	84760005 	ldrbthi	r0, [r6], #-5
     96c:	00050000 	andeq	r0, r5, r0
     970:	0000307a 	andeq	r3, r0, sl, ror r0
     974:	15a70005 	strne	r0, [r7, #5]!
     978:	00050000 	andeq	r0, r5, r0
     97c:	0000848d 	andeq	r8, r0, sp, lsl #9
     980:	482b0005 	stmdami	fp!, {r0, r2}
     984:	00050000 	andeq	r0, r5, r0
     988:	000035b8 			; <UNDEFINED> instruction: 0x000035b8
     98c:	a77c0005 	ldrbge	r0, [ip, -r5]!
     990:	00050000 	andeq	r0, r5, r0
     994:	00003dd1 	ldrdeq	r3, [r0], -r1
     998:	70ef0005 	rscvc	r0, pc, r5
     99c:	00050000 	andeq	r0, r5, r0
     9a0:	000000af 	andeq	r0, r0, pc, lsr #1
     9a4:	41cc0005 	bicmi	r0, ip, r5
     9a8:	00050000 	andeq	r0, r5, r0
     9ac:	00006c6a 	andeq	r6, r0, sl, ror #24
     9b0:	2f210005 	svccs	0x00210005
     9b4:	00050000 	andeq	r0, r5, r0
     9b8:	00001c8b 	andeq	r1, r0, fp, lsl #25
     9bc:	8f1e0005 	svchi	0x001e0005
     9c0:	00050000 	andeq	r0, r5, r0
     9c4:	0000229a 	muleq	r0, sl, r2
     9c8:	96530005 	ldrbls	r0, [r3], -r5
     9cc:	00050000 	andeq	r0, r5, r0
     9d0:	00008b48 	andeq	r8, r0, r8, asr #22
     9d4:	433e0005 	teqmi	lr, #5
     9d8:	00050000 	andeq	r0, r5, r0
     9dc:	00009e9f 	muleq	r0, pc, lr	; <UNPREDICTABLE>
     9e0:	8f9b0005 	svchi	0x009b0005
     9e4:	00050000 	andeq	r0, r5, r0
     9e8:	0000017c 	andeq	r0, r0, ip, ror r1
     9ec:	0dcf0005 	stcleq	0, cr0, [pc, #20]	; a08 <_Min_Stack_Size+0x608>
     9f0:	00050000 	andeq	r0, r5, r0
     9f4:	00009afc 	strdeq	r9, [r0], -ip
     9f8:	771e0005 	ldrvc	r0, [lr, -r5]
     9fc:	00050000 	andeq	r0, r5, r0
     a00:	00001d27 	andeq	r1, r0, r7, lsr #26
     a04:	93eb0005 	mvnls	r0, #5
     a08:	00050000 	andeq	r0, r5, r0
     a0c:	00004d8a 	andeq	r4, r0, sl, lsl #27
     a10:	255a0005 	ldrbcs	r0, [sl, #-5]
     a14:	00050000 	andeq	r0, r5, r0
     a18:	0000015b 	andeq	r0, r0, fp, asr r1
     a1c:	39030005 	stmdbcc	r3, {r0, r2}
     a20:	00050000 	andeq	r0, r5, r0
     a24:	000088ff 	strdeq	r8, [r0], -pc	; <UNPREDICTABLE>
     a28:	55480005 	strbpl	r0, [r8, #-5]
     a2c:	00050000 	andeq	r0, r5, r0
     a30:	000009af 	andeq	r0, r0, pc, lsr #19
     a34:	3c770005 	ldclcc	0, cr0, [r7], #-20	; 0xffffffec
     a38:	00050000 	andeq	r0, r5, r0
     a3c:	0000448d 	andeq	r4, r0, sp, lsl #9
     a40:	76ec0005 	strbtvc	r0, [ip], r5
     a44:	00050000 	andeq	r0, r5, r0
     a48:	000047dd 	ldrdeq	r4, [r0], -sp
     a4c:	2eac0005 	cdpcs	0, 10, cr0, cr12, cr5, {0}
     a50:	00050000 	andeq	r0, r5, r0
     a54:	00009d84 	andeq	r9, r0, r4, lsl #27
     a58:	975f0005 	ldrbls	r0, [pc, -r5]
     a5c:	00050000 	andeq	r0, r5, r0
     a60:	000069d8 	ldrdeq	r6, [r0], -r8
     a64:	5b460006 	blpl	1180a84 <_Min_Stack_Size+0x1180684>
     a68:	00050000 	andeq	r0, r5, r0
     a6c:	000044ae 	andeq	r4, r0, lr, lsr #9
     a70:	92f10005 	rscsls	r0, r1, #5
     a74:	00060000 	andeq	r0, r6, r0
     a78:	00007852 	andeq	r7, r0, r2, asr r8
     a7c:	97910005 	ldrls	r0, [r1, r5]
     a80:	00060000 	andeq	r0, r6, r0
     a84:	000071dd 	ldrdeq	r7, [r0], -sp
     a88:	96920006 	ldrls	r0, [r2], r6
     a8c:	00060000 	andeq	r0, r6, r0
     a90:	00009aad 	andeq	r9, r0, sp, lsr #21
     a94:	451d0006 	ldrmi	r0, [sp, #-6]
     a98:	00050000 	andeq	r0, r5, r0
     a9c:	000073f1 	strdeq	r7, [r0], -r1
     aa0:	487f0006 	ldmdami	pc!, {r1, r2}^	; <UNPREDICTABLE>
     aa4:	00060000 	andeq	r0, r6, r0
     aa8:	00005677 	andeq	r5, r0, r7, ror r6
     aac:	68320006 	ldmdavs	r2!, {r1, r2}
     ab0:	00050000 	andeq	r0, r5, r0
     ab4:	0000a5be 			; <UNDEFINED> instruction: 0x0000a5be
     ab8:	44c30005 	strbmi	r0, [r3], #5
     abc:	00060000 	andeq	r0, r6, r0
     ac0:	000088ac 	andeq	r8, r0, ip, lsr #17
     ac4:	a6ab0006 	strtge	r0, [fp], r6
     ac8:	00050000 	andeq	r0, r5, r0
     acc:	00006e68 	andeq	r6, r0, r8, ror #28
     ad0:	45f10005 	ldrbmi	r0, [r1, #5]!
     ad4:	00060000 	andeq	r0, r6, r0
     ad8:	00005e2f 	andeq	r5, r0, pc, lsr #28
     adc:	261c0005 	ldrcs	r0, [ip], -r5
     ae0:	00050000 	andeq	r0, r5, r0
     ae4:	00006ec6 	andeq	r6, r0, r6, asr #29
     ae8:	a4580006 	ldrbge	r0, [r8], #-6
     aec:	00050000 	andeq	r0, r5, r0
     af0:	000055c9 	andeq	r5, r0, r9, asr #11
     af4:	4bb40005 	blmi	fed00b10 <_estack+0xdecfbb10>
     af8:	00050000 	andeq	r0, r5, r0
     afc:	00009d43 	andeq	r9, r0, r3, asr #26
     b00:	233d0005 	teqcs	sp, #5
     b04:	00050000 	andeq	r0, r5, r0
     b08:	00009ac3 	andeq	r9, r0, r3, asr #21
     b0c:	85ae0005 	strhi	r0, [lr, #5]!
     b10:	00060000 	andeq	r0, r6, r0
     b14:	00003a09 	andeq	r3, r0, r9, lsl #20
     b18:	72380005 	eorsvc	r0, r8, #5
     b1c:	00050000 	andeq	r0, r5, r0
     b20:	0000a2b4 			; <UNDEFINED> instruction: 0x0000a2b4
     b24:	49870005 	stmibmi	r7, {r0, r2}
     b28:	00050000 	andeq	r0, r5, r0
     b2c:	00003af9 	strdeq	r3, [r0], -r9
     b30:	5ae20006 	bpl	ff880b50 <_estack+0xdf87bb50>
     b34:	00060000 	andeq	r0, r6, r0
     b38:	000048bc 			; <UNDEFINED> instruction: 0x000048bc
     b3c:	6fef0006 	svcvs	0x00ef0006
     b40:	00060000 	andeq	r0, r6, r0
     b44:	00006915 	andeq	r6, r0, r5, lsl r9
     b48:	89520006 	ldmdbhi	r2, {r1, r2}^
     b4c:	00060000 	andeq	r0, r6, r0
     b50:	00001f22 	andeq	r1, r0, r2, lsr #30
     b54:	41880006 	orrmi	r0, r8, r6
     b58:	00060000 	andeq	r0, r6, r0
     b5c:	00007cf1 	strdeq	r7, [r0], -r1
     b60:	1d950006 	ldcne	0, cr0, [r5, #24]
     b64:	00060000 	andeq	r0, r6, r0
     b68:	00003319 	andeq	r3, r0, r9, lsl r3
     b6c:	62210006 	eorvs	r0, r1, #6
     b70:	00050000 	andeq	r0, r5, r0
     b74:	00001e21 	andeq	r1, r0, r1, lsr #28
     b78:	1c2e0005 	stcne	0, cr0, [lr], #-20	; 0xffffffec
     b7c:	00050000 	andeq	r0, r5, r0
     b80:	00003e8a 	andeq	r3, r0, sl, lsl #29
     b84:	85380005 	ldrhi	r0, [r8, #-5]!
     b88:	00060000 	andeq	r0, r6, r0
     b8c:	00003088 	andeq	r3, r0, r8, lsl #1
     b90:	3e720005 	cdpcc	0, 7, cr0, cr2, cr5, {0}
     b94:	00050000 	andeq	r0, r5, r0
     b98:	00006a42 	andeq	r6, r0, r2, asr #20
     b9c:	99cf0005 	stmibls	pc, {r0, r2}^	; <UNPREDICTABLE>
     ba0:	00060000 	andeq	r0, r6, r0
     ba4:	0000907c 	andeq	r9, r0, ip, ror r0
     ba8:	63c80005 	bicvs	r0, r8, #5
     bac:	00060000 	andeq	r0, r6, r0
     bb0:	00008dbb 			; <UNDEFINED> instruction: 0x00008dbb
     bb4:	acc40006 	stclge	0, cr0, [r4], {6}
     bb8:	00060000 	andeq	r0, r6, r0
     bbc:	00003d48 	andeq	r3, r0, r8, asr #26
     bc0:	08110006 	ldmdaeq	r1, {r1, r2}
     bc4:	00060000 	andeq	r0, r6, r0
     bc8:	00004bc2 	andeq	r4, r0, r2, asr #23
     bcc:	81080006 	tsthi	r8, r6
     bd0:	00050000 	andeq	r0, r5, r0
     bd4:	00006613 	andeq	r6, r0, r3, lsl r6
     bd8:	3c9b0005 	ldccc	0, cr0, [fp], {5}
     bdc:	00050000 	andeq	r0, r5, r0
     be0:	0000926b 	andeq	r9, r0, fp, ror #4
     be4:	19b20005 	ldmibne	r2!, {r0, r2}
     be8:	00050000 	andeq	r0, r5, r0
     bec:	0000712e 	andeq	r7, r0, lr, lsr #2
     bf0:	a93e0005 	ldmdbge	lr!, {r0, r2}
     bf4:	00050000 	andeq	r0, r5, r0
     bf8:	00002c24 	andeq	r2, r0, r4, lsr #24
     bfc:	00000400 	andeq	r0, r0, r0, lsl #8
     c00:	6ca14d05 	stcvs	13, cr4, [r1], #20
     c04:	62050000 	andvs	r0, r5, #0
     c08:	00002f31 	andeq	r2, r0, r1, lsr pc
     c0c:	639d6305 	orrsvs	r6, sp, #335544320	; 0x14000000
     c10:	fe050000 	cdp2	0, 0, cr0, cr5, cr0, {0}
     c14:	006b4003 	rsbeq	r4, fp, r3
     c18:	04810500 	streq	r0, [r1], #1280	; 0x500
     c1c:	00003d62 	andeq	r3, r0, r2, ror #26
     c20:	00000400 	andeq	r0, r0, r0, lsl #8
     c24:	55320405 	ldrpl	r0, [r2, #-1029]!	; 0xfffffbfb
     c28:	06050000 	streq	r0, [r5], -r0
     c2c:	00000026 	andeq	r0, r0, r6, lsr #32
     c30:	224b0705 	subcs	r0, fp, #1310720	; 0x140000
     c34:	08050000 	stmdaeq	r5, {}	; <UNPREDICTABLE>
     c38:	00006569 	andeq	r6, r0, r9, ror #10
     c3c:	79110905 	ldmdbvc	r1, {r0, r2, r8, fp}
     c40:	04000000 	streq	r0, [r0], #-0
     c44:	1b050000 	blne	140c4c <_Min_Stack_Size+0x14084c>
     c48:	0000557d 	andeq	r5, r0, sp, ror r5
     c4c:	5dbe2705 	ldcpl	7, cr2, [lr, #20]!
     c50:	2b050000 	blcs	140c58 <_Min_Stack_Size+0x140858>
     c54:	00008547 	andeq	r8, r0, r7, asr #10
     c58:	24f52e05 	ldrbtcs	r2, [r5], #3589	; 0xe05
     c5c:	e3050000 	movw	r0, #20480	; 0x5000
     c60:	000e8502 	andeq	r8, lr, r2, lsl #10
     c64:	02e60500 	rsceq	r0, r6, #0, 10
     c68:	00009020 	andeq	r9, r0, r0, lsr #32
     c6c:	f902ec05 			; <UNDEFINED> instruction: 0xf902ec05
     c70:	05000034 	streq	r0, [r0, #-52]	; 0xffffffcc
     c74:	aa3c02ef 	bge	f01838 <_Min_Stack_Size+0xf01438>
     c78:	f2050000 	vhadd.s8	d0, d5, d0
     c7c:	00198302 	andseq	r8, r9, r2, lsl #6
     c80:	02f50500 	rscseq	r0, r5, #0, 10
     c84:	00009d99 	muleq	r0, r9, sp
     c88:	9a02f805 	bls	beca4 <_Min_Stack_Size+0xbe8a4>
     c8c:	05000091 	streq	r0, [r0, #-145]	; 0xffffff6f
     c90:	60680391 	mlsvs	r8, r1, r3, r0
     c94:	9b050000 	blls	140c9c <_Min_Stack_Size+0x14089c>
     c98:	0078e603 	rsbseq	lr, r8, r3, lsl #12
     c9c:	00040000 	andeq	r0, r4, r0
     ca0:	fd160500 	ldc2	5, cr0, [r6, #-0]
     ca4:	0500002d 	streq	r0, [r0, #-45]	; 0xffffffd3
     ca8:	0017fb21 	andseq	pc, r7, r1, lsr #22
     cac:	7f280500 	svcvc	0x00280500
     cb0:	0600008a 	streq	r0, [r0], -sl, lsl #1
     cb4:	9aec0183 	bls	ffb012c8 <_estack+0xdfafc2c8>
     cb8:	84050000 	strhi	r0, [r5], #-0
     cbc:	004c0401 	subeq	r0, ip, r1, lsl #8
     cc0:	01880600 	orreq	r0, r8, r0, lsl #12
     cc4:	000048f6 	strdeq	r4, [r0], -r6
     cc8:	da018905 	ble	630e4 <_Min_Stack_Size+0x62ce4>
     ccc:	0600009d 			; <UNDEFINED> instruction: 0x0600009d
     cd0:	aaf9018a 	bge	ffe41300 <_estack+0xdfe3c300>
     cd4:	8b050000 	blhi	140cdc <_Min_Stack_Size+0x1408dc>
     cd8:	001f7401 	andseq	r7, pc, r1, lsl #8
     cdc:	019e0600 	orrseq	r0, lr, r0, lsl #12
     ce0:	000043e3 	andeq	r4, r0, r3, ror #7
     ce4:	62019f05 	andvs	r9, r1, #5, 30
     ce8:	05000061 	streq	r0, [r0, #-97]	; 0xffffff9f
     cec:	6d5e01f7 	ldfvse	f0, [lr, #-988]	; 0xfffffc24
     cf0:	fd050000 	stc2	0, cr0, [r5, #-0]
     cf4:	005ef101 	subseq	pc, lr, r1, lsl #2
     cf8:	02850500 	addeq	r0, r5, #0, 10
     cfc:	00007b4f 	andeq	r7, r0, pc, asr #22
     d00:	c9028a05 	stmdbgt	r2, {r0, r2, r9, fp, pc}
     d04:	0500006f 	streq	r0, [r0, #-111]	; 0xffffff91
     d08:	22030295 	andcs	r0, r3, #1342177289	; 0x50000009
     d0c:	99050000 	stmdbls	r5, {}	; <UNPREDICTABLE>
     d10:	00766e02 	rsbseq	r6, r6, r2, lsl #28
     d14:	029f0500 	addseq	r0, pc, #0, 10
     d18:	0000075c 	andeq	r0, r0, ip, asr r7
     d1c:	be02af05 	cdplt	15, 0, cr10, cr2, cr5, {0}
     d20:	05000000 	streq	r0, [r0, #-0]
     d24:	94ee02bf 	strbtls	r0, [lr], #703	; 0x2bf
     d28:	cb050000 	blgt	140d30 <_Min_Stack_Size+0x140930>
     d2c:	00948102 	addseq	r8, r4, r2, lsl #2
     d30:	00040000 	andeq	r0, r4, r0
     d34:	01e00500 	mvneq	r0, r0, lsl #10
     d38:	00006e84 	andeq	r6, r0, r4, lsl #29
     d3c:	0d01e606 	stceq	6, cr14, [r1, #-24]	; 0xffffffe8
     d40:	05000049 	streq	r0, [r0, #-73]	; 0xffffffb7
     d44:	168e01ea 	strne	r0, [lr], sl, ror #3
     d48:	f8050000 			; <UNDEFINED> instruction: 0xf8050000
     d4c:	006b1301 	rsbeq	r1, fp, r1, lsl #6
     d50:	01fc0500 	mvnseq	r0, r0, lsl #10
     d54:	00006c33 	andeq	r6, r0, r3, lsr ip
     d58:	e3028305 	movw	r8, #8965	; 0x2305
     d5c:	05000029 	streq	r0, [r0, #-41]	; 0xffffffd7
     d60:	6bfa0289 	blvs	ffe8178c <_estack+0xdfe7c78c>
     d64:	96050000 	strls	r0, [r5], -r0
     d68:	0098b702 	addseq	fp, r8, r2, lsl #14
     d6c:	02a20500 	adceq	r0, r2, #0, 10
     d70:	00004b4e 	andeq	r4, r0, lr, asr #22
     d74:	00000400 	andeq	r0, r0, r0, lsl #8
     d78:	6dbc1f05 	ldcvs	15, cr1, [ip, #20]!
     d7c:	20050000 	andcs	r0, r5, r0
     d80:	00003763 	andeq	r3, r0, r3, ror #14
     d84:	622f2105 	eorvs	r2, pc, #1073741825	; 0x40000001
     d88:	25050000 	strcs	r0, [r5, #-0]
     d8c:	000003ba 			; <UNDEFINED> instruction: 0x000003ba
     d90:	90542b05 	subsls	r2, r4, r5, lsl #22
     d94:	45050000 	strmi	r0, [r5, #-0]
     d98:	000012e7 	andeq	r1, r0, r7, ror #5
     d9c:	1c624905 			; <UNDEFINED> instruction: 0x1c624905
     da0:	4a050000 	bmi	140da8 <_Min_Stack_Size+0x1409a8>
     da4:	000089fd 	strdeq	r8, [r0], -sp
     da8:	00000400 	andeq	r0, r0, r0, lsl #8
     dac:	306b0d05 	rsbcc	r0, fp, r5, lsl #26
     db0:	0e050000 	cdpeq	0, 0, cr0, cr5, cr0, {0}
     db4:	00002f6c 	andeq	r2, r0, ip, ror #30
     db8:	4bf70f05 	blmi	ffdc49d4 <_estack+0xdfdbf9d4>
     dbc:	04000000 	streq	r0, [r0], #-0
     dc0:	b5050000 	strlt	r0, [r5, #-0]
     dc4:	001c9b01 	andseq	r9, ip, r1, lsl #22
     dc8:	01b60500 			; <UNDEFINED> instruction: 0x01b60500
     dcc:	00000f1e 	andeq	r0, r0, lr, lsl pc
     dd0:	2e01b705 	cdpcs	7, 0, cr11, cr1, cr5, {0}
     dd4:	0500009b 	streq	r0, [r0, #-155]	; 0xffffff65
     dd8:	193601b8 	ldmdbne	r6!, {r3, r4, r5, r7, r8}
     ddc:	b9050000 	stmdblt	r5, {}	; <UNPREDICTABLE>
     de0:	0049bb01 	subeq	fp, r9, r1, lsl #22
     de4:	01ba0500 			; <UNDEFINED> instruction: 0x01ba0500
     de8:	00001239 	andeq	r1, r0, r9, lsr r2
     dec:	1001bb05 	andne	fp, r1, r5, lsl #22
     df0:	05000075 	streq	r0, [r0, #-117]	; 0xffffff8b
     df4:	825901bc 	subshi	r0, r9, #188, 2	; 0x2f
     df8:	bd050000 	stclt	0, cr0, [r5, #-0]
     dfc:	00825501 	addeq	r5, r2, r1, lsl #10
     e00:	01be0500 			; <UNDEFINED> instruction: 0x01be0500
     e04:	000027d5 	ldrdeq	r2, [r0], -r5
     e08:	0001bf05 	andeq	fp, r1, r5, lsl #30
     e0c:	0500007b 	streq	r0, [r0, #-123]	; 0xffffff85
     e10:	27d101c0 	ldrbcs	r0, [r1, r0, asr #3]
     e14:	c1050000 	mrsgt	r0, (UNDEF: 5)
     e18:	001ee601 	andseq	lr, lr, r1, lsl #12
     e1c:	01c20500 	biceq	r0, r2, r0, lsl #10
     e20:	00002813 	andeq	r2, r0, r3, lsl r8
     e24:	2a01c305 	bcs	71a40 <_Min_Stack_Size+0x71640>
     e28:	0500009b 	streq	r0, [r0, #-155]	; 0xffffff65
     e2c:	3d8a01c4 	stfccs	f0, [sl, #784]	; 0x310
     e30:	cb050000 	blgt	140e38 <_Min_Stack_Size+0x140a38>
     e34:	00116501 	andseq	r6, r1, r1, lsl #10
     e38:	01e70600 	mvneq	r0, r0, lsl #12
     e3c:	00005595 	muleq	r0, r5, r5
     e40:	c3028405 	movwgt	r8, #9221	; 0x2405
     e44:	05000056 	streq	r0, [r0, #-86]	; 0xffffffaa
     e48:	69f90285 	ldmibvs	r9!, {r0, r2, r7, r9}^
     e4c:	86050000 	strhi	r0, [r5], -r0
     e50:	006ab502 	rsbeq	fp, sl, r2, lsl #10
     e54:	02870500 	addeq	r0, r7, #0, 10
     e58:	0000542a 	andeq	r5, r0, sl, lsr #8
     e5c:	35028805 	strcc	r8, [r2, #-2053]	; 0xfffff7fb
     e60:	05000083 	streq	r0, [r0, #-131]	; 0xffffff7d
     e64:	5d160289 	lfmpl	f0, 4, [r6, #-548]	; 0xfffffddc
     e68:	8a050000 	bhi	140e70 <_Min_Stack_Size+0x140a70>
     e6c:	00400202 	subeq	r0, r0, r2, lsl #4
     e70:	028b0500 	addeq	r0, fp, #0, 10
     e74:	00003ffe 	strdeq	r3, [r0], -lr
     e78:	2b028c05 	blcs	a3e94 <_Min_Stack_Size+0xa3a94>
     e7c:	050000a9 	streq	r0, [r0, #-169]	; 0xffffff57
     e80:	7fbc028d 	svcvc	0x00bc028d
     e84:	8e050000 	cdphi	0, 0, cr0, cr5, cr0, {0}
     e88:	0084a102 	addeq	sl, r4, r2, lsl #2
     e8c:	028f0500 	addeq	r0, pc, #0, 10
     e90:	00009938 	andeq	r9, r0, r8, lsr r9
     e94:	9c029005 	stcls	0, cr9, [r2], {5}
     e98:	05000084 	streq	r0, [r0, #-132]	; 0xffffff7c
     e9c:	6ab10291 	bvs	fec418e8 <_estack+0xdec3c8e8>
     ea0:	92050000 	andls	r0, r5, #0
     ea4:	0066f102 	rsbeq	pc, r6, r2, lsl #2
     ea8:	029f0600 	addseq	r0, pc, #0, 12
     eac:	00009c11 	andeq	r9, r0, r1, lsl ip
     eb0:	4602d406 	strmi	sp, [r2], -r6, lsl #8
     eb4:	06000010 			; <UNDEFINED> instruction: 0x06000010
     eb8:	42f20386 	rscsmi	r0, r2, #402653186	; 0x18000002
     ebc:	8b050000 	blhi	140ec4 <_Min_Stack_Size+0x140ac4>
     ec0:	00420d03 	subeq	r0, r2, r3, lsl #26
     ec4:	03910600 	orrseq	r0, r1, #0, 12
     ec8:	000042eb 	andeq	r4, r0, fp, ror #5
     ecc:	00000400 	andeq	r0, r0, r0, lsl #8
     ed0:	51752705 	cmnpl	r5, r5, lsl #14
     ed4:	28050000 	stmdacs	r5, {}	; <UNPREDICTABLE>
     ed8:	00007486 	andeq	r7, r0, r6, lsl #9
     edc:	51702a05 	cmnpl	r0, r5, lsl #20
     ee0:	83050000 	movwhi	r0, #20480	; 0x5000
     ee4:	0070c501 	rsbseq	ip, r0, r1, lsl #10
     ee8:	01840500 	orreq	r0, r4, r0, lsl #10
     eec:	00005041 	andeq	r5, r0, r1, asr #32
     ef0:	bb018505 	bllt	6230c <_Min_Stack_Size+0x61f0c>
     ef4:	05000068 	streq	r0, [r0, #-104]	; 0xffffff98
     ef8:	7b710186 	blvc	1c41518 <_Min_Stack_Size+0x1c41118>
     efc:	87050000 	strhi	r0, [r5, -r0]
     f00:	0010e601 	andseq	lr, r0, r1, lsl #12
     f04:	01880500 	orreq	r0, r8, r0, lsl #10
     f08:	000010e2 	andeq	r1, r0, r2, ror #1
     f0c:	3b018905 	blcc	63328 <_Min_Stack_Size+0x62f28>
     f10:	0500004f 	streq	r0, [r0, #-79]	; 0xffffffb1
     f14:	70c1018a 	sbcvc	r0, r1, sl, lsl #3
     f18:	8b050000 	blhi	140f20 <_Min_Stack_Size+0x140b20>
     f1c:	006c5501 	rsbeq	r5, ip, r1, lsl #10
     f20:	019b0600 	orrseq	r0, fp, r0, lsl #12
     f24:	000092b5 			; <UNDEFINED> instruction: 0x000092b5
     f28:	9501e706 	strls	lr, [r1, #-1798]	; 0xfffff8fa
     f2c:	06000055 			; <UNDEFINED> instruction: 0x06000055
     f30:	104602d4 	ldrdne	r0, [r6], #-36	; 0xffffffdc
     f34:	86060000 	strhi	r0, [r6], -r0
     f38:	0042f203 	subeq	pc, r2, r3, lsl #4
     f3c:	038b0500 	orreq	r0, fp, #0, 10
     f40:	0000420d 	andeq	r4, r0, sp, lsl #4
     f44:	eb039106 	bl	e5364 <_Min_Stack_Size+0xe4f64>
     f48:	05000042 	streq	r0, [r0, #-66]	; 0xffffffbe
     f4c:	4c8b0396 	stcmi	3, cr0, [fp], {150}	; 0x96
     f50:	9b050000 	blls	140f58 <_Min_Stack_Size+0x140b58>
     f54:	00893403 	addeq	r3, r9, r3, lsl #8
     f58:	00040000 	andeq	r0, r4, r0
     f5c:	01140500 	tsteq	r4, r0, lsl #10
     f60:	05000099 	streq	r0, [r0, #-153]	; 0xffffff67
     f64:	00306b16 	eorseq	r6, r0, r6, lsl fp
     f68:	b6170500 	ldrlt	r0, [r7], -r0, lsl #10
     f6c:	0000009e 	muleq	r0, lr, r0
     f70:	06000004 	streq	r0, [r0], -r4
     f74:	92b5019b 	adcsls	r0, r5, #-1073741786	; 0xc0000026
     f78:	e7060000 	str	r0, [r6, -r0]
     f7c:	00559501 	subseq	r9, r5, r1, lsl #10
     f80:	02d40600 	sbcseq	r0, r4, #0, 12
     f84:	00001046 	andeq	r1, r0, r6, asr #32
     f88:	1a02d905 	bne	b73a4 <_Min_Stack_Size+0xb6fa4>
     f8c:	06000030 			; <UNDEFINED> instruction: 0x06000030
     f90:	2a8c02e0 	bcs	fe301b18 <_estack+0xde2fcb18>
     f94:	86060000 	strhi	r0, [r6], -r0
     f98:	0042f203 	subeq	pc, r2, r3, lsl #4
     f9c:	038b0500 	orreq	r0, fp, #0, 10
     fa0:	0000420d 	andeq	r4, r0, sp, lsl #4
     fa4:	eb039106 	bl	e53c4 <_Min_Stack_Size+0xe4fc4>
     fa8:	05000042 	streq	r0, [r0, #-66]	; 0xffffffbe
     fac:	4c8b0396 	stcmi	3, cr0, [fp], {150}	; 0x96
     fb0:	04000000 	streq	r0, [r0], #-0
     fb4:	06050000 	streq	r0, [r5], -r0
     fb8:	0000707b 	andeq	r7, r0, fp, ror r0
     fbc:	618f0f05 	orrvs	r0, pc, r5, lsl #30
     fc0:	1a050000 	bne	140fc8 <_Min_Stack_Size+0x140bc8>
     fc4:	00007eb2 			; <UNDEFINED> instruction: 0x00007eb2
     fc8:	93052105 	movwls	r2, #20741	; 0x5105
     fcc:	2f050000 	svccs	0x00050000
     fd0:	000047f9 	strdeq	r4, [r0], -r9
     fd4:	33843d05 	orrcc	r3, r4, #320	; 0x140
     fd8:	53050000 	movwpl	r0, #20480	; 0x5000
     fdc:	00005d98 	muleq	r0, r8, sp
     fe0:	76d16d05 	ldrbvc	r6, [r1], r5, lsl #26
     fe4:	8c050000 	stchi	0, cr0, [r5], {-0}
     fe8:	006a2801 	rsbeq	r2, sl, r1, lsl #16
     fec:	01a60500 			; <UNDEFINED> instruction: 0x01a60500
     ff0:	00001c13 	andeq	r1, r0, r3, lsl ip
     ff4:	8f01bc05 	svchi	0x0001bc05
     ff8:	05000042 	streq	r0, [r0, #-66]	; 0xffffffbe
     ffc:	600101ce 	andvs	r0, r1, lr, asr #3
    1000:	f4060000 	vst4.8	{d0-d3}, [r6], r0
    1004:	0076cb01 	rsbseq	ip, r6, r1, lsl #22
    1008:	00040000 	andeq	r0, r4, r0
    100c:	937f0600 	cmnls	pc, #0, 12
    1010:	05000079 	streq	r0, [r0, #-121]	; 0xffffff87
    1014:	45860192 	strmi	r0, [r6, #402]	; 0x192
    1018:	94060000 	strls	r0, [r6], #-0
    101c:	008df501 	addeq	pc, sp, r1, lsl #10
    1020:	01b30500 			; <UNDEFINED> instruction: 0x01b30500
    1024:	00002175 	andeq	r2, r0, r5, ror r1
    1028:	8d01bb05 	vstrhi	d11, [r1, #-20]	; 0xffffffec
    102c:	05000021 	streq	r0, [r0, #-33]	; 0xffffffdf
    1030:	83be01c0 			; <UNDEFINED> instruction: 0x83be01c0
    1034:	c9050000 	stmdbgt	r5, {}	; <UNPREDICTABLE>
    1038:	004b7301 	subeq	r7, fp, r1, lsl #6
    103c:	00040000 	andeq	r0, r4, r0
    1040:	63110500 	tstvs	r1, #0, 10
    1044:	05000092 	streq	r0, [r0, #-146]	; 0xffffff6e
    1048:	00894615 	addeq	r4, r9, r5, lsl r6
    104c:	00040000 	andeq	r0, r4, r0
    1050:	24020500 	strcs	r0, [r2], #-1280	; 0xfffffb00
    1054:	050000aa 	streq	r0, [r0, #-170]	; 0xffffff56
    1058:	00242923 	eoreq	r2, r4, r3, lsr #18
    105c:	f5250500 			; <UNDEFINED> instruction: 0xf5250500
    1060:	05000002 	streq	r0, [r0, #-2]
    1064:	00871427 	addeq	r1, r7, r7, lsr #8
    1068:	832a0500 			; <UNDEFINED> instruction: 0x832a0500
    106c:	0500001a 	streq	r0, [r0, #-26]	; 0xffffffe6
    1070:	00a8702c 	adceq	r7, r8, ip, lsr #32
    1074:	762e0500 	strtvc	r0, [lr], -r0, lsl #10
    1078:	0500009b 	streq	r0, [r0, #-155]	; 0xffffff65
    107c:	004aa730 	subeq	sl, sl, r0, lsr r7
    1080:	d7320500 	ldrle	r0, [r2, -r0, lsl #10]!
    1084:	05000044 	streq	r0, [r0, #-68]	; 0xffffffbc
    1088:	00a5d434 	adceq	sp, r5, r4, lsr r4
    108c:	3e360500 	cfabs32cc	mvfx0, mvfx6
    1090:	0500007f 	streq	r0, [r0, #-127]	; 0xffffff81
    1094:	00346d38 	eorseq	r6, r4, r8, lsr sp
    1098:	3d3b0500 	cfldr32cc	mvfx0, [fp, #-0]
    109c:	0500001a 	streq	r0, [r0, #-26]	; 0xffffffe6
    10a0:	0026b73d 	eoreq	fp, r6, sp, lsr r7
    10a4:	00040000 	andeq	r0, r4, r0
    10a8:	724d0500 	subvc	r0, sp, #0, 10
    10ac:	05000081 	streq	r0, [r0, #-129]	; 0xffffff7f
    10b0:	00991060 	addseq	r1, r9, r0, rrx
    10b4:	01910500 	orrseq	r0, r1, r0, lsl #10
    10b8:	0000298c 	andeq	r2, r0, ip, lsl #19
    10bc:	1c029a05 			; <UNDEFINED> instruction: 0x1c029a05
    10c0:	05000089 	streq	r0, [r0, #-137]	; 0xffffff77
    10c4:	4ead029b 	mcrmi	2, 5, r0, cr13, cr11, {4}
    10c8:	9c050000 	stcls	0, cr0, [r5], {-0}
    10cc:	006c3d02 	rsbeq	r3, ip, r2, lsl #26
    10d0:	029d0500 	addseq	r0, sp, #0, 10
    10d4:	000090dc 	ldrdeq	r9, [r0], -ip
    10d8:	c9029e05 	stmdbgt	r2, {r0, r2, r9, sl, fp, ip, pc}
    10dc:	05000088 	streq	r0, [r0, #-136]	; 0xffffff78
    10e0:	681a029f 	ldmdavs	sl, {r0, r1, r2, r3, r4, r7, r9}
    10e4:	a0050000 	andge	r0, r5, r0
    10e8:	00a58402 	adceq	r8, r5, r2, lsl #8
    10ec:	02ac0500 	adceq	r0, ip, #0, 10
    10f0:	000013d2 	ldrdeq	r1, [r0], -r2
    10f4:	a202ad05 	andge	sl, r2, #320	; 0x140
    10f8:	050000aa 	streq	r0, [r0, #-170]	; 0xffffff56
    10fc:	04ae02ae 	strteq	r0, [lr], #686	; 0x2ae
    1100:	b9050000 	stmdblt	r5, {}	; <UNPREDICTABLE>
    1104:	002d1c02 	eoreq	r1, sp, r2, lsl #24
    1108:	02ba0500 	adcseq	r0, sl, #0, 10
    110c:	0000324f 	andeq	r3, r0, pc, asr #4
    1110:	4302bb05 	movwmi	fp, #11013	; 0x2b05
    1114:	05000095 	streq	r0, [r0, #-149]	; 0xffffff6b
    1118:	8bec02bc 	blhi	ffb01c10 <_estack+0xdfafcc10>
    111c:	bd050000 	stclt	0, cr0, [r5, #-0]
    1120:	005d8002 	subseq	r8, sp, r2
    1124:	03980500 	orrseq	r0, r8, #0, 10
    1128:	0000a131 	andeq	sl, r0, r1, lsr r1
    112c:	ba03b205 	blt	ed948 <_Min_Stack_Size+0xed548>
    1130:	00000062 	andeq	r0, r0, r2, rrx
    1134:	06000004 	streq	r0, [r0], -r4
    1138:	00870d0b 	addeq	r0, r7, fp, lsl #26
    113c:	04100500 	ldreq	r0, [r0], #-1280	; 0xfffffb00
    1140:	05000051 	streq	r0, [r0, #-81]	; 0xffffffaf
    1144:	005f9d1a 	subseq	r9, pc, sl, lsl sp	; <UNPREDICTABLE>
    1148:	f72d0500 			; <UNDEFINED> instruction: 0xf72d0500
    114c:	00000086 	andeq	r0, r0, r6, lsl #1
    1150:	05000004 	streq	r0, [r0, #-4]
    1154:	715503bb 	ldrhvc	r0, [r5, #-59]	; 0xffffffc5
    1158:	c5050000 	strgt	r0, [r5, #-0]
    115c:	00173303 	andseq	r3, r7, r3, lsl #6
    1160:	03ce0500 	biceq	r0, lr, #0, 10
    1164:	00000f9c 	muleq	r0, ip, pc	; <UNPREDICTABLE>
    1168:	6e03d205 	cdpvs	2, 0, cr13, cr3, cr5, {0}
    116c:	0500003f 	streq	r0, [r0, #-63]	; 0xffffffc1
    1170:	09e703d7 	stmibeq	r7!, {r0, r1, r2, r4, r6, r7, r8, r9}^
    1174:	e2050000 	and	r0, r5, #0
    1178:	00912503 	addseq	r2, r1, r3, lsl #10
    117c:	03e50500 	mvneq	r0, #0, 10
    1180:	00005b6c 	andeq	r5, r0, ip, ror #22
    1184:	d203eb05 	andle	lr, r3, #5120	; 0x1400
    1188:	05000060 	streq	r0, [r0, #-96]	; 0xffffffa0
    118c:	5aeb03ee 	bpl	ffac214c <_estack+0xdfabd14c>
    1190:	f1050000 			; <UNDEFINED> instruction: 0xf1050000
    1194:	00570003 	subseq	r0, r7, r3
    1198:	04870500 	streq	r0, [r7], #1280	; 0x500
    119c:	00006846 	andeq	r6, r0, r6, asr #16
    11a0:	e1048a05 	tst	r4, r5, lsl #20
    11a4:	05000004 	streq	r0, [r0, #-4]
    11a8:	2ee4048d 	cdpcs	4, 14, cr0, cr4, cr13, {4}
    11ac:	8e050000 	cdphi	0, 0, cr0, cr5, cr0, {0}
    11b0:	00806204 	addeq	r6, r0, r4, lsl #4
    11b4:	048f0500 	streq	r0, [pc], #1280	; 11bc <_Min_Stack_Size+0xdbc>
    11b8:	000021d6 	ldrdeq	r2, [r0], -r6
    11bc:	a7049005 	strge	r9, [r4, -r5]
    11c0:	0500005c 	streq	r0, [r0, #-92]	; 0xffffffa4
    11c4:	02720491 	rsbseq	r0, r2, #-1862270976	; 0x91000000
    11c8:	92050000 	andls	r0, r5, #0
    11cc:	009f3804 	addseq	r3, pc, r4, lsl #16
    11d0:	04930500 	ldreq	r0, [r3], #1280	; 0x500
    11d4:	00002118 	andeq	r2, r0, r8, lsl r1
    11d8:	36049405 	strcc	r9, [r4], -r5, lsl #8
    11dc:	05000040 	streq	r0, [r0, #-64]	; 0xffffffc0
    11e0:	836a0495 	cmnhi	sl, #-1795162112	; 0x95000000
    11e4:	96050000 	strls	r0, [r5], -r0
    11e8:	004fe604 	subeq	lr, pc, r4, lsl #12
    11ec:	04970500 	ldreq	r0, [r7], #1280	; 0x500
    11f0:	00004994 	muleq	r0, r4, r9
    11f4:	7a049805 	bvc	127210 <_Min_Stack_Size+0x126e10>
    11f8:	05000043 	streq	r0, [r0, #-67]	; 0xffffffbd
    11fc:	9e6a0499 	mcrls	4, 3, r0, cr10, cr9, {4}
    1200:	9a050000 	bls	141208 <_Min_Stack_Size+0x140e08>
    1204:	00386504 	eorseq	r6, r8, r4, lsl #10
    1208:	049b0500 	ldreq	r0, [fp], #1280	; 0x500
    120c:	00006f56 	andeq	r6, r0, r6, asr pc
    1210:	20049c05 	andcs	r9, r4, r5, lsl #24
    1214:	05000064 	streq	r0, [r0, #-100]	; 0xffffff9c
    1218:	160c049d 			; <UNDEFINED> instruction: 0x160c049d
    121c:	9e050000 	cdpls	0, 0, cr0, cr5, cr0, {0}
    1220:	0007d404 	andeq	sp, r7, r4, lsl #8
    1224:	049f0500 	ldreq	r0, [pc], #1280	; 122c <_Min_Stack_Size+0xe2c>
    1228:	000053ac 	andeq	r5, r0, ip, lsr #7
    122c:	f404a005 	vst4.8	{d10-d13}, [r4], r5
    1230:	0500000c 	streq	r0, [r0, #-12]
    1234:	8c0604a1 	cfstrshi	mvf0, [r6], {161}	; 0xa1
    1238:	a2050000 	andge	r0, r5, #0
    123c:	0079d204 	rsbseq	sp, r9, r4, lsl #4
    1240:	04a30500 	strteq	r0, [r3], #1280	; 0x500
    1244:	00003267 	andeq	r3, r0, r7, ror #4
    1248:	0905d305 	stmdbeq	r5, {r0, r2, r8, r9, ip, lr, pc}
    124c:	0500008b 	streq	r0, [r0, #-139]	; 0xffffff75
    1250:	998605d4 	stmibls	r6, {r2, r4, r6, r7, r8, sl}
    1254:	d5050000 	strle	r0, [r5, #-0]
    1258:	007e2a05 	rsbseq	r2, lr, r5, lsl #20
    125c:	05d60500 	ldrbeq	r0, [r6, #1280]	; 0x500
    1260:	00006d32 	andeq	r6, r0, r2, lsr sp
    1264:	bc05d705 	stclt	7, cr13, [r5], {5}
    1268:	05000034 	streq	r0, [r0, #-52]	; 0xffffffcc
    126c:	359805d8 	ldrcc	r0, [r8, #1496]	; 0x5d8
    1270:	d9050000 	stmdble	r5, {}	; <UNPREDICTABLE>
    1274:	005c5605 	subseq	r5, ip, r5, lsl #12
    1278:	05da0500 	ldrbeq	r0, [sl, #1280]	; 0x500
    127c:	00004265 	andeq	r4, r0, r5, ror #4
    1280:	c705db05 	strgt	sp, [r5, -r5, lsl #22]
    1284:	05000035 	streq	r0, [r0, #-53]	; 0xffffffcb
    1288:	9d5e05dc 	cfldr64ls	mvdx0, [lr, #-880]	; 0xfffffc90
    128c:	dd050000 	stcle	0, cr0, [r5, #-0]
    1290:	00563705 	subseq	r3, r6, r5, lsl #14
    1294:	05df0500 	ldrbeq	r0, [pc, #1280]	; 179c <_Min_Stack_Size+0x139c>
    1298:	0000736a 	andeq	r7, r0, sl, ror #6
    129c:	d105ea05 	tstle	r5, r5, lsl #20
    12a0:	0500000e 	streq	r0, [r0, #-14]
    12a4:	654e05f0 	strbvs	r0, [lr, #-1520]	; 0xfffffa10
    12a8:	fd050000 	stc2	0, cr0, [r5, #-0]
    12ac:	00339905 	eorseq	r9, r3, r5, lsl #18
    12b0:	06800500 	streq	r0, [r0], r0, lsl #10
    12b4:	00004a81 	andeq	r4, r0, r1, lsl #21
    12b8:	b1068205 	tstlt	r6, r5, lsl #4
    12bc:	05000064 	streq	r0, [r0, #-100]	; 0xffffff9c
    12c0:	04c406e1 	strbeq	r0, [r4], #1761	; 0x6e1
    12c4:	04000000 	streq	r0, [r0], #-0
    12c8:	31050000 	mrscc	r0, (UNDEF: 5)
    12cc:	000040cf 	andeq	r4, r0, pc, asr #1
    12d0:	79c53205 	stmibvc	r5, {r0, r2, r9, ip, sp}^
    12d4:	33050000 	movwcc	r0, #20480	; 0x5000
    12d8:	0000607c 	andeq	r6, r0, ip, ror r0
    12dc:	855e3605 	ldrbhi	r3, [lr, #-1541]	; 0xfffff9fb
    12e0:	39050000 	stmdbcc	r5, {}	; <UNPREDICTABLE>
    12e4:	0000629d 	muleq	r0, sp, r2
    12e8:	a0313a05 	eorsge	r3, r1, r5, lsl #20
    12ec:	3c050000 	stccc	0, cr0, [r5], {-0}
    12f0:	000049e6 	andeq	r4, r0, r6, ror #19
    12f4:	38ef3d05 	stmiacc	pc!, {r0, r2, r8, sl, fp, ip, sp}^	; <UNPREDICTABLE>
    12f8:	3e050000 	cdpcc	0, 0, cr0, cr5, cr0, {0}
    12fc:	000027ae 	andeq	r2, r0, lr, lsr #15
    1300:	93723f05 	cmnls	r2, #5, 30
    1304:	42050000 	andmi	r0, r5, #0
    1308:	0000116f 	andeq	r1, r0, pc, ror #2
    130c:	0d5c4305 	ldcleq	3, cr4, [ip, #-20]	; 0xffffffec
    1310:	44050000 	strmi	r0, [r5], #-0
    1314:	000089f1 	strdeq	r8, [r0], -r1
    1318:	15204e05 	strne	r4, [r0, #-3589]!	; 0xfffff1fb
    131c:	51050000 	mrspl	r0, (UNDEF: 5)
    1320:	000070ae 	andeq	r7, r0, lr, lsr #1
    1324:	77af5e05 	strvc	r5, [pc, r5, lsl #28]!
    1328:	5f050000 	svcpl	0x00050000
    132c:	00008d37 	andeq	r8, r0, r7, lsr sp
    1330:	97ce6b05 	strbls	r6, [lr, r5, lsl #22]
    1334:	6c050000 	stcvs	0, cr0, [r5], {-0}
    1338:	00004fc3 	andeq	r4, r0, r3, asr #31
    133c:	060c7005 	streq	r7, [ip], -r5
    1340:	71050000 	mrsvc	r0, (UNDEF: 5)
    1344:	0000000f 	andeq	r0, r0, pc
    1348:	8cd07305 	ldclhi	3, cr7, [r0], {5}
    134c:	75050000 	strvc	r0, [r5, #-0]
    1350:	00001713 	andeq	r1, r0, r3, lsl r7
    1354:	3ab67805 	bcc	fed9f370 <_estack+0xded9a370>
    1358:	79050000 	stmdbvc	r5, {}	; <UNPREDICTABLE>
    135c:	00009497 	muleq	r0, r7, r4
    1360:	851b7a05 	ldrhi	r7, [fp, #-2565]	; 0xfffff5fb
    1364:	7d050000 	stcvc	0, cr0, [r5, #-0]
    1368:	00007833 	andeq	r7, r0, r3, lsr r8
    136c:	12018205 	andne	r8, r1, #1342177280	; 0x50000000
    1370:	050000a3 	streq	r0, [r0, #-163]	; 0xffffff5d
    1374:	70d10184 	sbcsvc	r0, r1, r4, lsl #3
    1378:	85050000 	strhi	r0, [r5, #-0]
    137c:	00287b01 	eoreq	r7, r8, r1, lsl #22
    1380:	01870500 	orreq	r0, r7, r0, lsl #10
    1384:	00006381 	andeq	r6, r0, r1, lsl #7
    1388:	19018a05 	stmdbne	r1, {r0, r2, r9, fp, pc}
    138c:	05000001 	streq	r0, [r0, #-1]
    1390:	34e0018b 	strbtcc	r0, [r0], #395	; 0x18b
    1394:	8c050000 	stchi	0, cr0, [r5], {-0}
    1398:	008f0301 	addeq	r0, pc, r1, lsl #6
    139c:	018e0500 	orreq	r0, lr, r0, lsl #10
    13a0:	00004f6f 	andeq	r4, r0, pc, ror #30
    13a4:	4c018f05 	stcmi	15, cr8, [r1], {5}
    13a8:	0500009b 	streq	r0, [r0, #-155]	; 0xffffff65
    13ac:	9c530191 	ldflse	f0, [r3], {145}	; 0x91
    13b0:	93050000 	movwls	r0, #20480	; 0x5000
    13b4:	001f8c01 	andseq	r8, pc, r1, lsl #24
    13b8:	01a40500 			; <UNDEFINED> instruction: 0x01a40500
    13bc:	00000749 	andeq	r0, r0, r9, asr #14
    13c0:	0d01a505 	cfstr32eq	mvfx10, [r1, #-20]	; 0xffffffec
    13c4:	05000012 	streq	r0, [r0, #-18]	; 0xffffffee
    13c8:	05a101a6 	streq	r0, [r1, #422]!	; 0x1a6
    13cc:	a7050000 	strge	r0, [r5, -r0]
    13d0:	00733f01 	rsbseq	r3, r3, r1, lsl #30
    13d4:	01a80500 			; <UNDEFINED> instruction: 0x01a80500
    13d8:	000038d6 	ldrdeq	r3, [r0], -r6
    13dc:	4901aa05 	stmdbmi	r1, {r0, r2, r9, fp, sp, pc}
    13e0:	0500008a 	streq	r0, [r0, #-138]	; 0xffffff76
    13e4:	7d9601ab 	ldfvcs	f0, [r6, #684]	; 0x2ac
    13e8:	ac050000 	stcge	0, cr0, [r5], {-0}
    13ec:	006c7a01 	rsbeq	r7, ip, r1, lsl #20
    13f0:	01d90500 	bicseq	r0, r9, r0, lsl #10
    13f4:	000001d9 	ldrdeq	r0, [r0], -r9
    13f8:	f201e605 	vmax.s8	d14, d1, d5
    13fc:	05000075 	streq	r0, [r0, #-117]	; 0xffffff8b
    1400:	4d6701e7 	stfmie	f0, [r7, #-924]!	; 0xfffffc64
    1404:	e8050000 	stmda	r5, {}	; <UNPREDICTABLE>
    1408:	005f2c01 	subseq	r2, pc, r1, lsl #24
    140c:	01e90500 	mvneq	r0, r0, lsl #10
    1410:	000032bb 			; <UNDEFINED> instruction: 0x000032bb
    1414:	0601ea05 	streq	lr, [r1], -r5, lsl #20
    1418:	050000a9 	streq	r0, [r0, #-169]	; 0xffffff57
    141c:	0bc501eb 	bleq	ff141bd0 <_estack+0xdf13cbd0>
    1420:	ec050000 	stc	0, cr0, [r5], {-0}
    1424:	00469701 	subeq	r9, r6, r1, lsl #14
    1428:	01ef0500 	mvneq	r0, r0, lsl #10
    142c:	000053e5 	andeq	r5, r0, r5, ror #7
    1430:	1901f005 	stmdbne	r1, {r0, r2, ip, sp, lr, pc}
    1434:	0500002b 	streq	r0, [r0, #-43]	; 0xffffffd5
    1438:	257c01f6 	ldrbcs	r0, [ip, #-502]!	; 0xfffffe0a
    143c:	cf050000 	svcgt	0x00050000
    1440:	0032dc02 	eorseq	sp, r2, r2, lsl #24
    1444:	02e10500 	rsceq	r0, r1, #0, 10
    1448:	00004b5a 	andeq	r4, r0, sl, asr fp
    144c:	ca02e705 	bgt	bb068 <_Min_Stack_Size+0xbac68>
    1450:	0500006d 	streq	r0, [r0, #-109]	; 0xffffff93
    1454:	3ec302e8 	cdpcc	2, 12, cr0, cr3, cr8, {7}
    1458:	ef050000 	svc	0x00050000
    145c:	00a41a02 	adceq	r1, r4, r2, lsl #20
    1460:	02f50500 	rscseq	r0, r5, #0, 10
    1464:	00002e3b 	andeq	r2, r0, fp, lsr lr
    1468:	5802fb05 	stmdapl	r2, {r0, r2, r8, r9, fp, ip, sp, lr, pc}
    146c:	050000a5 	streq	r0, [r0, #-165]	; 0xffffff5b
    1470:	489102fc 	ldmmi	r1, {r2, r3, r4, r5, r6, r7, r9}
    1474:	83050000 	movwhi	r0, #20480	; 0x5000
    1478:	008fab03 	addeq	sl, pc, r3, lsl #22
    147c:	03840500 	orreq	r0, r4, #0, 10
    1480:	000094b3 			; <UNDEFINED> instruction: 0x000094b3
    1484:	e5038b05 	str	r8, [r3, #-2821]	; 0xfffff4fb
    1488:	05000036 	streq	r0, [r0, #-54]	; 0xffffffca
    148c:	97370391 			; <UNDEFINED> instruction: 0x97370391
    1490:	a5050000 	strge	r0, [r5, #-0]
    1494:	0041db03 	subeq	sp, r1, r3, lsl #22
    1498:	03c60500 	biceq	r0, r6, #0, 10
    149c:	0000265b 	andeq	r2, r0, fp, asr r6
    14a0:	7f03c705 	svcvc	0x0003c705
    14a4:	05000066 	streq	r0, [r0, #-102]	; 0xffffff9a
    14a8:	693503ce 	ldmdbvs	r5!, {r1, r2, r3, r6, r7, r8, r9}
    14ac:	cf050000 	svcgt	0x00050000
    14b0:	00340803 	eorseq	r0, r4, r3, lsl #16
    14b4:	03d20500 	bicseq	r0, r2, #0, 10
    14b8:	00002f7c 	andeq	r2, r0, ip, ror pc
    14bc:	3a03dc05 	bcc	f84d8 <_Min_Stack_Size+0xf80d8>
    14c0:	05000048 	streq	r0, [r0, #-72]	; 0xffffffb8
    14c4:	91d003dd 	ldrsbls	r0, [r0, #61]	; 0x3d
    14c8:	e7050000 	str	r0, [r5, -r0]
    14cc:	00818203 	addeq	r8, r1, r3, lsl #4
    14d0:	03fd0500 	mvnseq	r0, #0, 10
    14d4:	00008f3c 	andeq	r8, r0, ip, lsr pc
    14d8:	3703ff05 	strcc	pc, [r3, -r5, lsl #30]
    14dc:	05000098 	streq	r0, [r0, #-152]	; 0xffffff68
    14e0:	a2d40481 	sbcsge	r0, r4, #-2130706432	; 0x81000000
    14e4:	82050000 	andhi	r0, r5, #0
    14e8:	00209404 	eoreq	r9, r0, r4, lsl #8
    14ec:	04840500 	streq	r0, [r4], #1280	; 0x500
    14f0:	0000a798 	muleq	r0, r8, r7
    14f4:	5f048e05 	svcpl	0x00048e05
    14f8:	05000075 	streq	r0, [r0, #-117]	; 0xffffff8b
    14fc:	96a60492 	ssatls	r0, #7, r2, lsl #9
    1500:	96050000 	strls	r0, [r5], -r0
    1504:	00144604 	andseq	r4, r4, r4, lsl #12
    1508:	04990500 	ldreq	r0, [r9], #1280	; 0x500
    150c:	00005448 	andeq	r5, r0, r8, asr #8
    1510:	b7049d05 	strlt	r9, [r4, -r5, lsl #26]
    1514:	0500008e 	streq	r0, [r0, #-142]	; 0xffffff72
    1518:	2a9a049f 	bcs	fe68279c <_estack+0xde67d79c>
    151c:	c2050000 	andgt	r0, r5, #0
    1520:	00700d04 	rsbseq	r0, r0, r4, lsl #26
    1524:	04c60500 	strbeq	r0, [r6], #1280	; 0x500
    1528:	00008bb3 			; <UNDEFINED> instruction: 0x00008bb3
    152c:	c204ca05 	andgt	ip, r4, #20480	; 0x5000
    1530:	05000010 	streq	r0, [r0, #-16]
    1534:	343e04ce 	ldrtcc	r0, [lr], #-1230	; 0xfffffb32
    1538:	d2050000 	andle	r0, r5, #0
    153c:	0073c204 	rsbseq	ip, r3, r4, lsl #4
    1540:	04d60500 	ldrbeq	r0, [r6], #1280	; 0x500
    1544:	00002d81 	andeq	r2, r0, r1, lsl #27
    1548:	1f04da05 	svcne	0x0004da05
    154c:	05000094 	streq	r0, [r0, #-148]	; 0xffffff6c
    1550:	a80c04de 	stmdage	ip, {r1, r2, r3, r4, r6, r7, sl}
    1554:	e5050000 	str	r0, [r5, #-0]
    1558:	0017de04 	andseq	sp, r7, r4, lsl #28
    155c:	04e60500 	strbteq	r0, [r6], #1280	; 0x500
    1560:	00001c40 	andeq	r1, r0, r0, asr #24
    1564:	9c04e705 	stcls	7, cr14, [r4], {5}
    1568:	05000038 	streq	r0, [r0, #-56]	; 0xffffffc8
    156c:	4dac04e8 	cfstrsmi	mvf0, [ip, #928]!	; 0x3a0
    1570:	e9050000 	stmdb	r5, {}	; <UNPREDICTABLE>
    1574:	005e1504 	subseq	r1, lr, r4, lsl #10
    1578:	04fe0500 	ldrbteq	r0, [lr], #1280	; 0x500
    157c:	00007304 	andeq	r7, r0, r4, lsl #6
    1580:	9d04ff05 	stcls	15, cr15, [r4, #-20]	; 0xffffffec
    1584:	050000a3 	streq	r0, [r0, #-163]	; 0xffffff5d
    1588:	900c0591 	mulls	ip, r1, r5
    158c:	97050000 	strls	r0, [r5, -r0]
    1590:	008cf305 	addeq	pc, ip, r5, lsl #6
    1594:	059a0500 	ldreq	r0, [sl, #1280]	; 0x500
    1598:	000019de 	ldrdeq	r1, [r0], -lr
    159c:	33059c05 	movwcc	r9, #23557	; 0x5c05
    15a0:	05000045 	streq	r0, [r0, #-69]	; 0xffffffbb
    15a4:	7ff805a0 	svcvc	0x00f805a0
    15a8:	a2050000 	andge	r0, r5, #0
    15ac:	00442805 	subeq	r2, r4, r5, lsl #16
    15b0:	05a60500 	streq	r0, [r6, #1280]!	; 0x500
    15b4:	00006ad6 	ldrdeq	r6, [r0], -r6	; <UNPREDICTABLE>
    15b8:	2405a905 	strcs	sl, [r5], #-2309	; 0xfffff6fb
    15bc:	05000033 	streq	r0, [r0, #-51]	; 0xffffffcd
    15c0:	a9dd05ab 	ldmibge	sp, {r0, r1, r3, r5, r7, r8, sl}^
    15c4:	af050000 	svcge	0x00050000
    15c8:	00022105 	andeq	r2, r2, r5, lsl #2
    15cc:	05b10500 	ldreq	r0, [r1, #1280]!	; 0x500
    15d0:	00003718 	andeq	r3, r0, r8, lsl r7
    15d4:	6305b305 	movwvs	fp, #21253	; 0x5305
    15d8:	05000069 	streq	r0, [r0, #-105]	; 0xffffff97
    15dc:	827005b7 	rsbshi	r0, r0, #767557632	; 0x2dc00000
    15e0:	c8050000 	stmdagt	r5, {}	; <UNPREDICTABLE>
    15e4:	00402105 	subeq	r2, r0, r5, lsl #2
    15e8:	05c90500 	strbeq	r0, [r9, #1280]	; 0x500
    15ec:	0000400d 	andeq	r4, r0, sp
    15f0:	d305ca05 	movwle	ip, #23045	; 0x5a05
    15f4:	050000ab 	streq	r0, [r0, #-171]	; 0xffffff55
    15f8:	8e5005ce 	cdphi	5, 5, cr0, cr0, cr14, {6}
    15fc:	cf050000 	svcgt	0x00050000
    1600:	008e1b05 	addeq	r1, lr, r5, lsl #22
    1604:	05d40500 	ldrbeq	r0, [r4, #1280]	; 0x500
    1608:	00000069 	andeq	r0, r0, r9, rrx
    160c:	6405d805 	strvs	sp, [r5], #-2053	; 0xfffff7fb
    1610:	05000052 	streq	r0, [r0, #-82]	; 0xffffffae
    1614:	0e1a05dc 	mrceq	5, 0, r0, cr10, cr12, {6}
    1618:	e0050000 	and	r0, r5, r0
    161c:	00231405 	eoreq	r1, r3, r5, lsl #8
    1620:	05e10500 	strbeq	r0, [r1, #1280]!	; 0x500
    1624:	0000107f 	andeq	r1, r0, pc, ror r0
    1628:	b205e205 	andlt	lr, r5, #1342177280	; 0x50000000
    162c:	0000007a 	andeq	r0, r0, sl, ror r0
    1630:	05000004 	streq	r0, [r0, #-4]
    1634:	0099b108 	addseq	fp, r9, r8, lsl #2
    1638:	b10d0600 	tstlt	sp, r0, lsl #12
    163c:	05000069 	streq	r0, [r0, #-105]	; 0xffffff97
    1640:	00839a10 	addeq	r9, r3, r0, lsl sl
    1644:	00040000 	andeq	r0, r4, r0
    1648:	3b380500 	blcc	e02a50 <_Min_Stack_Size+0xe02650>
    164c:	05000076 	streq	r0, [r0, #-118]	; 0xffffff8a
    1650:	00a5993c 	adceq	r9, r5, ip, lsr r9
    1654:	7e3d0500 	cfabs32vc	mvfx0, mvfx13
    1658:	05000022 	streq	r0, [r0, #-34]	; 0xffffffde
    165c:	0049043f 	subeq	r0, r9, pc, lsr r4
    1660:	36430500 	strbcc	r0, [r3], -r0, lsl #10
    1664:	0500005d 	streq	r0, [r0, #-93]	; 0xffffffa3
    1668:	9a4f01a8 	bls	13c1d10 <_Min_Stack_Size+0x13c1910>
    166c:	04000000 	streq	r0, [r0], #-0
    1670:	0a050000 	beq	141678 <_Min_Stack_Size+0x141278>
    1674:	000021a6 	andeq	r2, r0, r6, lsr #3
    1678:	61731005 	cmnvs	r3, r5
    167c:	2b060000 	blcs	181684 <_Min_Stack_Size+0x181284>
    1680:	00007d9f 	muleq	r0, pc, sp	; <UNPREDICTABLE>
    1684:	8df52c06 	ldclhi	12, cr2, [r5, #24]!
    1688:	2d060000 	stccs	0, cr0, [r6, #-0]
    168c:	000008fe 	strdeq	r0, [r0], -lr
    1690:	73642e06 	cmnvc	r4, #6, 28	; 0x60
    1694:	2f020000 	svccs	0x00020000
    1698:	00746e69 	rsbseq	r6, r4, r9, ror #28
    169c:	aa343006 	bge	d0d6bc <_Min_Stack_Size+0xd0d2bc>
    16a0:	31060000 	mrscc	r0, (UNDEF: 6)
    16a4:	00000622 	andeq	r0, r0, r2, lsr #12
    16a8:	6e913206 	cdpvs	2, 9, cr3, cr1, cr6, {0}
    16ac:	33050000 	movwcc	r0, #20480	; 0x5000
    16b0:	00004e1e 	andeq	r4, r0, lr, lsl lr
    16b4:	4e1c3405 	cfmulsmi	mvf3, mvf12, mvf5
    16b8:	35050000 	strcc	r0, [r5, #-0]
    16bc:	000069a9 	andeq	r6, r0, r9, lsr #19
    16c0:	9b213605 	blls	84eedc <_Min_Stack_Size+0x84eadc>
    16c4:	37050000 	strcc	r0, [r5, -r0]
    16c8:	000000cf 	andeq	r0, r0, pc, asr #1
    16cc:	82633805 	rsbhi	r3, r3, #327680	; 0x50000
    16d0:	39050000 	stmdbcc	r5, {}	; <UNPREDICTABLE>
    16d4:	00004ed4 	ldrdeq	r4, [r0], -r4	; <UNPREDICTABLE>
    16d8:	a5483a05 	strbge	r3, [r8, #-2565]	; 0xfffff5fb
    16dc:	43050000 	movwmi	r0, #20480	; 0x5000
    16e0:	000045e1 	andeq	r4, r0, r1, ror #11
    16e4:	9fe74a05 	svcls	0x00e74a05
    16e8:	52050000 	andpl	r0, r5, #0
    16ec:	00000d69 	andeq	r0, r0, r9, ror #26
    16f0:	457a5d05 	ldrbmi	r5, [sl, #-3333]!	; 0xfffff2fb
    16f4:	68050000 	stmdavs	r5, {}	; <UNPREDICTABLE>
    16f8:	000099c3 	andeq	r9, r0, r3, asr #19
    16fc:	a40d7105 	strge	r7, [sp], #-261	; 0xfffffefb
    1700:	78050000 	stmdavc	r5, {}	; <UNPREDICTABLE>
    1704:	00009091 	muleq	r0, r1, r0
    1708:	b6018105 	strlt	r8, [r1], -r5, lsl #2
    170c:	05000021 	streq	r0, [r0, #-33]	; 0xffffffdf
    1710:	955b0188 	ldrbls	r0, [fp, #-392]	; 0xfffffe78
    1714:	93050000 	movwls	r0, #20480	; 0x5000
    1718:	004dfb01 	subeq	pc, sp, r1, lsl #22
    171c:	01970500 	orrseq	r0, r7, r0, lsl #10
    1720:	00008dfe 	strdeq	r8, [r0], -lr
    1724:	2e01a205 	cdpcs	2, 0, cr10, cr1, cr5, {0}
    1728:	0500008f 	streq	r0, [r0, #-143]	; 0xffffff71
    172c:	164501ad 	strbne	r0, [r5], -sp, lsr #3
    1730:	b6050000 	strlt	r0, [r5], -r0
    1734:	00713601 	rsbseq	r3, r1, r1, lsl #12
    1738:	01b80600 			; <UNDEFINED> instruction: 0x01b80600
    173c:	00007d9f 	muleq	r0, pc, sp	; <UNPREDICTABLE>
    1740:	f501b906 			; <UNDEFINED> instruction: 0xf501b906
    1744:	0600008d 	streq	r0, [r0], -sp, lsl #1
    1748:	08fe01ba 	ldmeq	lr!, {r1, r3, r4, r5, r7, r8}^
    174c:	bb060000 	bllt	181754 <_Min_Stack_Size+0x181354>
    1750:	00736401 	rsbseq	r6, r3, r1, lsl #8
    1754:	01bc0200 			; <UNDEFINED> instruction: 0x01bc0200
    1758:	00746e69 	rsbseq	r6, r4, r9, ror #28
    175c:	9101bd06 	tstls	r1, r6, lsl #26
    1760:	0600006e 	streq	r0, [r0], -lr, rrx
    1764:	aa3401c2 	bge	d01e74 <_Min_Stack_Size+0xd01a74>
    1768:	c3060000 	movwgt	r0, #24576	; 0x6000
    176c:	00062201 	andeq	r2, r6, r1, lsl #4
    1770:	00040000 	andeq	r0, r4, r0
    1774:	e70a0500 	str	r0, [sl, -r0, lsl #10]
    1778:	0500004b 	streq	r0, [r0, #-75]	; 0xffffffb5
    177c:	009bdb15 	addseq	sp, fp, r5, lsl fp
    1780:	f0190500 			; <UNDEFINED> instruction: 0xf0190500
    1784:	0500007e 	streq	r0, [r0, #-126]	; 0xffffff82
    1788:	0047fa1b 	subeq	pc, r7, fp, lsl sl	; <UNPREDICTABLE>
    178c:	a2210500 	eorge	r0, r1, #0, 10
    1790:	05000040 	streq	r0, [r0, #-64]	; 0xffffffc0
    1794:	00132625 	andseq	r2, r3, r5, lsr #12
    1798:	85270500 	strhi	r0, [r7, #-1280]!	; 0xfffffb00
    179c:	05000033 	streq	r0, [r0, #-51]	; 0xffffffcd
    17a0:	009bed2d 	addseq	lr, fp, sp, lsr #26
    17a4:	f6310500 			; <UNDEFINED> instruction: 0xf6310500
    17a8:	05000003 	streq	r0, [r0, #-3]
    17ac:	005d9933 	subseq	r9, sp, r3, lsr r9
    17b0:	ae390500 	cfabs32ge	mvfx0, mvfx9
    17b4:	05000082 	streq	r0, [r0, #-130]	; 0xffffff7e
    17b8:	0064e73d 	rsbeq	lr, r4, sp, lsr r7
    17bc:	d23f0500 	eorsle	r0, pc, #0, 10
    17c0:	05000076 	streq	r0, [r0, #-118]	; 0xffffff8a
    17c4:	00a2c044 	adceq	ip, r2, r4, asr #32
    17c8:	6f490500 	svcvs	0x00490500
    17cc:	0500007c 	streq	r0, [r0, #-124]	; 0xffffff84
    17d0:	0018c94e 	andseq	ip, r8, lr, asr #18
    17d4:	79530500 	ldmdbvc	r3, {r8, sl}^
    17d8:	0000007f 	andeq	r0, r0, pc, ror r0
    17dc:	05000004 	streq	r0, [r0, #-4]
    17e0:	006a2917 	rsbeq	r2, sl, r7, lsl r9
    17e4:	141d0500 	ldrne	r0, [sp], #-1280	; 0xfffffb00
    17e8:	0500001c 	streq	r0, [r0, #-28]	; 0xffffffe4
    17ec:	00429023 	subeq	r9, r2, r3, lsr #32
    17f0:	02290500 	eoreq	r0, r9, #0, 10
    17f4:	05000060 	streq	r0, [r0, #-96]	; 0xffffffa0
    17f8:	00223335 	eoreq	r3, r2, r5, lsr r3
    17fc:	793f0500 	ldmdbvc	pc!, {r8, sl}	; <UNPREDICTABLE>
    1800:	05000067 	streq	r0, [r0, #-103]	; 0xffffff99
    1804:	00117a49 	andseq	r7, r1, r9, asr #20
    1808:	54530500 	ldrbpl	r0, [r3], #-1280	; 0xfffffb00
    180c:	0500002c 	streq	r0, [r0, #-44]	; 0xffffffd4
    1810:	aab90180 	bge	fee41e18 <_estack+0xdee3ce18>
    1814:	81050000 	mrshi	r0, (UNDEF: 5)
    1818:	006c1701 	rsbeq	r1, ip, r1, lsl #14
    181c:	01820500 	orreq	r0, r2, r0, lsl #10
    1820:	00001da2 	andeq	r1, r0, r2, lsr #27
    1824:	f2019805 	vadd.i8	d9, d1, d5
    1828:	05000043 	streq	r0, [r0, #-67]	; 0xffffffbd
    182c:	0eeb0199 	mcreq	1, 7, r0, cr11, cr9, {4}
    1830:	9a050000 	bls	141838 <_Min_Stack_Size+0x141438>
    1834:	00a4af01 	adceq	sl, r4, r1, lsl #30
    1838:	01a20500 			; <UNDEFINED> instruction: 0x01a20500
    183c:	00009315 	andeq	r9, r0, r5, lsl r3
    1840:	2301a305 	movwcs	sl, #4869	; 0x1305
    1844:	05000030 	streq	r0, [r0, #-48]	; 0xffffffd0
    1848:	87dc01a4 	ldrbhi	r0, [ip, r4, lsr #3]
    184c:	ae050000 	cdpge	0, 0, cr0, cr5, cr0, {0}
    1850:	00029d01 	andeq	r9, r2, r1, lsl #26
    1854:	01af0500 			; <UNDEFINED> instruction: 0x01af0500
    1858:	000010f3 	strdeq	r1, [r0], -r3
    185c:	d001b005 	andle	fp, r1, r5
    1860:	0500009a 	streq	r0, [r0, #-154]	; 0xffffff66
    1864:	5f0101b8 	svcpl	0x000101b8
    1868:	b9050000 	stmdblt	r5, {}	; <UNPREDICTABLE>
    186c:	000df401 	andeq	pc, sp, r1, lsl #8
    1870:	01ba0500 			; <UNDEFINED> instruction: 0x01ba0500
    1874:	000037b6 			; <UNDEFINED> instruction: 0x000037b6
    1878:	0101c405 	tsteq	r1, r5, lsl #8
    187c:	05000015 	streq	r0, [r0, #-21]	; 0xffffffeb
    1880:	352301c5 	strcc	r0, [r3, #-453]!	; 0xfffffe3b
    1884:	c6050000 	strgt	r0, [r5], -r0
    1888:	003be301 	eorseq	lr, fp, r1, lsl #6
    188c:	01d40500 	bicseq	r0, r4, r0, lsl #10
    1890:	00003b23 	andeq	r3, r0, r3, lsr #22
    1894:	af01d505 	svcge	0x0001d505
    1898:	0500002f 	streq	r0, [r0, #-47]	; 0xffffffd1
    189c:	8a5701d6 	bhi	15c1ffc <_Min_Stack_Size+0x15c1bfc>
    18a0:	e6050000 	str	r0, [r5], -r0
    18a4:	008fed01 	addeq	lr, pc, r1, lsl #26
    18a8:	01e70500 	mvneq	r0, r0, lsl #10
    18ac:	0000565d 	andeq	r5, r0, sp, asr r6
    18b0:	fb01e805 	blx	7b8ce <_Min_Stack_Size+0x7b4ce>
    18b4:	05000064 	streq	r0, [r0, #-100]	; 0xffffff9c
    18b8:	16e801f6 			; <UNDEFINED> instruction: 0x16e801f6
    18bc:	f7050000 			; <UNDEFINED> instruction: 0xf7050000
    18c0:	0013ac01 	andseq	sl, r3, r1, lsl #24
    18c4:	01f80500 	mvnseq	r0, r0, lsl #10
    18c8:	00006275 	andeq	r6, r0, r5, ror r2
    18cc:	58028605 	stmdapl	r2, {r0, r2, r9, sl, pc}
    18d0:	05000066 	streq	r0, [r0, #-102]	; 0xffffff9a
    18d4:	2ae80287 	bcs	ffa022f8 <_estack+0xdf9fd2f8>
    18d8:	88050000 	stmdahi	r5, {}	; <UNPREDICTABLE>
    18dc:	00a50b02 	adceq	r0, r5, r2, lsl #22
    18e0:	02960500 	addseq	r0, r6, #0, 10
    18e4:	00000b56 	andeq	r0, r0, r6, asr fp
    18e8:	04029705 	streq	r9, [r2], #-1797	; 0xfffff8fb
    18ec:	05000067 	streq	r0, [r0, #-103]	; 0xffffff99
    18f0:	36bf0298 	ssatcc	r0, #32, r8, lsl #5
    18f4:	a6050000 	strge	r0, [r5], -r0
    18f8:	00190d02 	andseq	r0, r9, r2, lsl #26
    18fc:	02a70500 	adceq	r0, r7, #0, 10
    1900:	0000aa51 	andeq	sl, r0, r1, asr sl
    1904:	5a02a805 	bpl	ab920 <_Min_Stack_Size+0xab520>
    1908:	05000031 	streq	r0, [r0, #-49]	; 0xffffffcf
    190c:	705202b6 	ldrhvc	r0, [r2], #-38	; 0xffffffda
    1910:	b7050000 	strlt	r0, [r5, -r0]
    1914:	004d4302 	subeq	r4, sp, r2, lsl #6
    1918:	02b80500 	adcseq	r0, r8, #0, 10
    191c:	00003dab 	andeq	r3, r0, fp, lsr #27
    1920:	0702c605 	streq	ip, [r2, -r5, lsl #12]
    1924:	05000035 	streq	r0, [r0, #-53]	; 0xffffffcb
    1928:	244302c7 	strbcs	r0, [r3], #-711	; 0xfffffd39
    192c:	cf050000 	svcgt	0x00050000
    1930:	004ef202 	subeq	pc, lr, r2, lsl #4
    1934:	02d70500 	sbcseq	r0, r7, #0, 10
    1938:	000080e2 	andeq	r8, r0, r2, ror #1
    193c:	5c02dd05 	stcpl	13, cr13, [r2], {5}
    1940:	05000040 	streq	r0, [r0, #-64]	; 0xffffffc0
    1944:	30e602de 	ldrdcc	r0, [r6], #46	; 0x2e	; <UNPREDICTABLE>
    1948:	e2050000 	and	r0, r5, #0
    194c:	000f2a02 	andeq	r2, pc, r2, lsl #20
    1950:	02e60500 	rsceq	r0, r6, #0, 10
    1954:	0000aada 	ldrdeq	sl, [r0], -sl	; <UNPREDICTABLE>
    1958:	c702eb05 	strgt	lr, [r2, -r5, lsl #22]
    195c:	0500004d 	streq	r0, [r0, #-77]	; 0xffffffb3
    1960:	040a02f6 	streq	r0, [sl], #-758	; 0xfffffd0a
    1964:	80050000 	andhi	r0, r5, r0
    1968:	005a8103 	subseq	r8, sl, r3, lsl #2
    196c:	03850500 	orreq	r0, r5, #0, 10
    1970:	0000003e 	andeq	r0, r0, lr, lsr r0
    1974:	36038c05 	strcc	r8, [r3], -r5, lsl #24
    1978:	0500004a 	streq	r0, [r0, #-74]	; 0xffffffb6
    197c:	927f038d 	rsbsls	r0, pc, #872415234	; 0x34000002
    1980:	98050000 	stmdals	r5, {}	; <UNPREDICTABLE>
    1984:	0011d903 	andseq	sp, r1, r3, lsl #18
    1988:	03990500 	orrseq	r0, r9, #0, 10
    198c:	00004088 	andeq	r4, r0, r8, lsl #1
    1990:	d903a405 	stmdble	r3, {r0, r2, sl, sp, pc}
    1994:	05000089 	streq	r0, [r0, #-137]	; 0xffffff77
    1998:	65ba03a5 	ldrvs	r0, [sl, #933]!	; 0x3a5
    199c:	b1050000 	mrslt	r0, (UNDEF: 5)
    19a0:	0043cb03 	subeq	ip, r3, r3, lsl #22
    19a4:	03b20500 			; <UNDEFINED> instruction: 0x03b20500
    19a8:	000093aa 	andeq	r9, r0, sl, lsr #7
    19ac:	5203c105 	andpl	ip, r3, #1073741825	; 0x40000001
    19b0:	0500002f 	streq	r0, [r0, #-47]	; 0xffffffd1
    19b4:	765203c2 	ldrbvc	r0, [r2], -r2, asr #7
    19b8:	04000000 	streq	r0, [r0], #-0
    19bc:	11050000 	mrsne	r0, (UNDEF: 5)
    19c0:	00003ce6 	andeq	r3, r0, r6, ror #25
    19c4:	9ba51205 	blls	fe9461e0 <_estack+0xde9411e0>
    19c8:	13050000 	movwne	r0, #20480	; 0x5000
    19cc:	0000804b 	andeq	r8, r0, fp, asr #32
    19d0:	3bff1505 	blcc	fffc6dec <_estack+0xdffc1dec>
    19d4:	17050000 	strne	r0, [r5, -r0]
    19d8:	00005fb4 			; <UNDEFINED> instruction: 0x00005fb4
    19dc:	3e1c1905 	vnmlscc.f16	s2, s24, s10	; <UNPREDICTABLE>
    19e0:	1a050000 	bne	1419e8 <_Min_Stack_Size+0x1415e8>
    19e4:	00007da6 	andeq	r7, r0, r6, lsr #27
    19e8:	a8c51b05 	stmiage	r5, {r0, r2, r8, r9, fp, ip}^
    19ec:	1c050000 	stcne	0, cr0, [r5], {-0}
    19f0:	00002d4e 	andeq	r2, r0, lr, asr #26
    19f4:	31e91d05 	mvncc	r1, r5, lsl #26
    19f8:	1e050000 	cdpne	0, 0, cr0, cr5, cr0, {0}
    19fc:	00003ca5 	andeq	r3, r0, r5, lsr #25
    1a00:	5de11f05 	stclpl	15, cr1, [r1, #20]!
    1a04:	23050000 	movwcs	r0, #20480	; 0x5000
    1a08:	00008d44 	andeq	r8, r0, r4, asr #26
    1a0c:	2e0e2b05 	vmlacs.f64	d2, d14, d5
    1a10:	2c050000 	stccs	0, cr0, [r5], {-0}
    1a14:	00009615 	andeq	r9, r0, r5, lsl r6
    1a18:	7bc02e05 	blvc	ff00d234 <_estack+0xdf008234>
    1a1c:	2f050000 	svccs	0x00050000
    1a20:	0000062c 	andeq	r0, r0, ip, lsr #12
    1a24:	353d3105 	ldrcc	r3, [sp, #-261]!	; 0xfffffefb
    1a28:	34050000 	strcc	r0, [r5], #-0
    1a2c:	00009cfb 	strdeq	r9, [r0], -fp
    1a30:	39223505 	stmdbcc	r2!, {r0, r2, r8, sl, ip, sp}
    1a34:	37050000 	strcc	r0, [r5, -r0]
    1a38:	0000356a 	andeq	r3, r0, sl, ror #10
    1a3c:	7d583905 	vldrvc.16	s7, [r8, #-10]	; <UNPREDICTABLE>
    1a40:	3b050000 	blcc	141a48 <_Min_Stack_Size+0x141648>
    1a44:	00002de4 	andeq	r2, r0, r4, ror #27
    1a48:	a3f43c05 	mvnsge	r3, #1280	; 0x500
    1a4c:	41050000 	mrsmi	r0, (UNDEF: 5)
    1a50:	000011ab 	andeq	r1, r0, fp, lsr #3
    1a54:	14b44205 	ldrtne	r4, [r4], #517	; 0x205
    1a58:	44050000 	strmi	r0, [r5], #-0
    1a5c:	00009565 	andeq	r9, r0, r5, ror #10
    1a60:	4001b805 	andmi	fp, r1, r5, lsl #16
    1a64:	05000047 	streq	r0, [r0, #-71]	; 0xffffffb9
    1a68:	462001b9 			; <UNDEFINED> instruction: 0x462001b9
    1a6c:	ba050000 	blt	141a74 <_Min_Stack_Size+0x141674>
    1a70:	0020f501 	eoreq	pc, r0, r1, lsl #10
    1a74:	01bb0500 			; <UNDEFINED> instruction: 0x01bb0500
    1a78:	000047ba 			; <UNDEFINED> instruction: 0x000047ba
    1a7c:	9401bc05 	strls	fp, [r1], #-3077	; 0xfffff3fb
    1a80:	05000098 	streq	r0, [r0, #-152]	; 0xffffff68
    1a84:	077301be 			; <UNDEFINED> instruction: 0x077301be
    1a88:	c0050000 	andgt	r0, r5, r0
    1a8c:	009c1f01 	addseq	r1, ip, r1, lsl #30
    1a90:	01c10500 	biceq	r0, r1, r0, lsl #10
    1a94:	0000048d 	andeq	r0, r0, sp, lsl #9
    1a98:	d301c305 	movwle	ip, #4869	; 0x1305
    1a9c:	0500003a 	streq	r0, [r0, #-58]	; 0xffffffc6
    1aa0:	2dbe01c4 	ldfcss	f0, [lr, #784]!	; 0x310
    1aa4:	c5050000 	strgt	r0, [r5, #-0]
    1aa8:	00135801 	andseq	r5, r3, r1, lsl #16
    1aac:	01c70500 	biceq	r0, r7, r0, lsl #10
    1ab0:	0000098f 	andeq	r0, r0, pc, lsl #19
    1ab4:	8e01c805 	cdphi	8, 0, cr12, cr1, cr5, {0}
    1ab8:	050000a9 	streq	r0, [r0, #-169]	; 0xffffff57
    1abc:	862301ca 	strthi	r0, [r3], -sl, asr #3
    1ac0:	cb050000 	blgt	141ac8 <_Min_Stack_Size+0x1416c8>
    1ac4:	00831501 	addeq	r1, r3, r1, lsl #10
    1ac8:	01d50500 	bicseq	r0, r5, r0, lsl #10
    1acc:	000060a4 	andeq	r6, r0, r4, lsr #1
    1ad0:	bb01d705 	bllt	776ec <_Min_Stack_Size+0x772ec>
    1ad4:	05000031 	streq	r0, [r0, #-49]	; 0xffffffcf
    1ad8:	2bf601d8 	blcs	ffd82240 <_estack+0xdfd7d240>
    1adc:	d9050000 	stmdble	r5, {}	; <UNPREDICTABLE>
    1ae0:	00758201 	rsbseq	r8, r5, r1, lsl #4
    1ae4:	01da0500 	bicseq	r0, sl, r0, lsl #10
    1ae8:	00000d75 	andeq	r0, r0, r5, ror sp
    1aec:	9f01dc05 	svcls	0x0001dc05
    1af0:	05000041 	streq	r0, [r0, #-65]	; 0xffffffbf
    1af4:	86c701de 			; <UNDEFINED> instruction: 0x86c701de
    1af8:	df050000 	svcle	0x00050000
    1afc:	0005dc01 	andeq	sp, r5, r1, lsl #24
    1b00:	01e00500 	mvneq	r0, r0, lsl #10
    1b04:	00009dea 	andeq	r9, r0, sl, ror #27
    1b08:	6201e205 	andvs	lr, r1, #1342177280	; 0x50000000
    1b0c:	05000087 	streq	r0, [r0, #-135]	; 0xffffff79
    1b10:	068c01e3 	streq	r0, [ip], r3, ror #3
    1b14:	e5050000 	str	r0, [r5, #-0]
    1b18:	007f1401 	rsbseq	r1, pc, r1, lsl #8
    1b1c:	01e60500 	mvneq	r0, r0, lsl #10
    1b20:	000012bd 			; <UNDEFINED> instruction: 0x000012bd
    1b24:	6201e905 	andvs	lr, r1, #81920	; 0x14000
    1b28:	0500000c 	streq	r0, [r0, #-12]
    1b2c:	15dc01ea 	ldrbne	r0, [ip, #490]	; 0x1ea
    1b30:	eb050000 	bl	141b38 <_Min_Stack_Size+0x141738>
    1b34:	0070fe01 	rsbseq	pc, r0, r1, lsl #28
    1b38:	01ed0500 	mvneq	r0, r0, lsl #10
    1b3c:	00000573 	andeq	r0, r0, r3, ror r5
    1b40:	8e01ee05 	cdphi	14, 0, cr14, cr1, cr5, {0}
    1b44:	0500007f 	streq	r0, [r0, #-127]	; 0xffffff81
    1b48:	9cd101f0 	ldflse	f0, [r1], {240}	; 0xf0
    1b4c:	f1050000 			; <UNDEFINED> instruction: 0xf1050000
    1b50:	00a61b01 	adceq	r1, r6, r1, lsl #22
    1b54:	01f70500 	mvnseq	r0, r0, lsl #10
    1b58:	000080bf 	strheq	r8, [r0], -pc	; <UNPREDICTABLE>
    1b5c:	a801f805 	stmdage	r1, {r0, r2, fp, ip, sp, lr, pc}
    1b60:	050000a5 	streq	r0, [r0, #-165]	; 0xffffff5b
    1b64:	33fc01f9 	mvnscc	r0, #1073741886	; 0x4000003e
    1b68:	fa050000 	blx	141b70 <_Min_Stack_Size+0x141770>
    1b6c:	003e3501 	eorseq	r3, lr, r1, lsl #10
    1b70:	01fb0500 	mvnseq	r0, r0, lsl #10
    1b74:	00007885 	andeq	r7, r0, r5, lsl #17
    1b78:	7c01fc05 	stcvc	12, cr15, [r1], {5}
    1b7c:	05000065 	streq	r0, [r0, #-101]	; 0xffffff9b
    1b80:	228d01fd 	addcs	r0, sp, #1073741887	; 0x4000003f
    1b84:	fe050000 	cdp2	0, 0, cr0, cr5, cr0, {0}
    1b88:	0091c301 	addseq	ip, r1, r1, lsl #6
    1b8c:	01ff0500 	mvnseq	r0, r0, lsl #10
    1b90:	00008afc 	strdeq	r8, [r0], -ip
    1b94:	d3028005 	movwle	r8, #8197	; 0x2005
    1b98:	05000003 	streq	r0, [r0, #-3]
    1b9c:	62470281 	subvs	r0, r7, #268435464	; 0x10000008
    1ba0:	82050000 	andhi	r0, r5, #0
    1ba4:	003ee402 	eorseq	lr, lr, r2, lsl #8
    1ba8:	02830500 	addeq	r0, r3, #0, 10
    1bac:	00008e7f 	andeq	r8, r0, pc, ror lr
    1bb0:	f0028405 			; <UNDEFINED> instruction: 0xf0028405
    1bb4:	05000022 	streq	r0, [r0, #-34]	; 0xffffffde
    1bb8:	62ac0285 	adcvs	r0, ip, #1342177288	; 0x50000008
    1bbc:	86050000 	strhi	r0, [r5], -r0
    1bc0:	007ee202 	rsbseq	lr, lr, r2, lsl #4
    1bc4:	02880500 	addeq	r0, r8, #0, 10
    1bc8:	00004e74 	andeq	r4, r0, r4, ror lr
    1bcc:	ea028905 	b	a3fe8 <_Min_Stack_Size+0xa3be8>
    1bd0:	050000ac 	streq	r0, [r0, #-172]	; 0xffffff54
    1bd4:	6d91028a 	lfmvs	f0, 4, [r1, #552]	; 0x228
    1bd8:	8c050000 	stchi	0, cr0, [r5], {-0}
    1bdc:	00733302 	rsbseq	r3, r3, r2, lsl #6
    1be0:	028d0500 	addeq	r0, sp, #0, 10
    1be4:	00003180 	andeq	r3, r0, r0, lsl #3
    1be8:	00028f05 	andeq	r8, r2, r5, lsl #30
    1bec:	05000000 	streq	r0, [r0, #-0]
    1bf0:	9e5b0290 	mrcls	2, 2, r0, cr11, cr0, {4}
    1bf4:	91050000 	mrsls	r0, (UNDEF: 5)
    1bf8:	004c4d02 	subeq	r4, ip, r2, lsl #26
    1bfc:	02920500 	addseq	r0, r2, #0, 10
    1c00:	00008e0c 	andeq	r8, r0, ip, lsl #28
    1c04:	55029705 	strpl	r9, [r2, #-1797]	; 0xfffff8fb
    1c08:	0500005a 	streq	r0, [r0, #-90]	; 0xffffffa6
    1c0c:	478e0298 			; <UNDEFINED> instruction: 0x478e0298
    1c10:	99050000 	stmdbls	r5, {}	; <UNPREDICTABLE>
    1c14:	000da302 	andeq	sl, sp, r2, lsl #6
    1c18:	029a0500 	addseq	r0, sl, #0, 10
    1c1c:	00006728 	andeq	r6, r0, r8, lsr #14
    1c20:	db029b05 	blle	a883c <_Min_Stack_Size+0xa843c>
    1c24:	05000039 	streq	r0, [r0, #-57]	; 0xffffffc7
    1c28:	56d0029c 			; <UNDEFINED> instruction: 0x56d0029c
    1c2c:	9d050000 	stcls	0, cr0, [r5, #-0]
    1c30:	00394e02 	eorseq	r4, r9, r2, lsl #28
    1c34:	029f0500 	addseq	r0, pc, #0, 10
    1c38:	00008092 	muleq	r0, r2, r0
    1c3c:	9602a005 	strls	sl, [r2], -r5
    1c40:	0500003e 	streq	r0, [r0, #-62]	; 0xffffffc2
    1c44:	6a8402a1 	bvs	fe1026d0 <_estack+0xde0fd6d0>
    1c48:	a2050000 	andge	r0, r5, #0
    1c4c:	006df402 	rsbeq	pc, sp, r2, lsl #8
    1c50:	02a30500 	adceq	r0, r3, #0, 10
    1c54:	00000cc5 	andeq	r0, r0, r5, asr #25
    1c58:	2f02a405 	svccs	0x0002a405
    1c5c:	050000ab 	streq	r0, [r0, #-171]	; 0xffffff55
    1c60:	01a702a5 			; <UNDEFINED> instruction: 0x01a702a5
    1c64:	a8050000 	stmdage	r5, {}	; <UNPREDICTABLE>
    1c68:	002cb402 	eoreq	fp, ip, r2, lsl #8
    1c6c:	02a90500 	adceq	r0, r9, #0, 10
    1c70:	00007936 	andeq	r7, r0, r6, lsr r9
    1c74:	4702aa05 	strmi	sl, [r2, -r5, lsl #20]
    1c78:	05000049 	streq	r0, [r0, #-73]	; 0xffffffb7
    1c7c:	95d502ac 	ldrbls	r0, [r5, #684]	; 0x2ac
    1c80:	ad050000 	stcge	0, cr0, [r5, #-0]
    1c84:	0063e002 	rsbeq	lr, r3, r2
    1c88:	02ae0500 	adceq	r0, lr, #0, 10
    1c8c:	00006ee0 	andeq	r6, r0, r0, ror #29
    1c90:	f402b005 	vst4.8	{d11-d14}, [r2], r5
    1c94:	05000083 	streq	r0, [r0, #-131]	; 0xffffff7d
    1c98:	1d5902b1 	lfmne	f0, 2, [r9, #-708]	; 0xfffffd3c
    1c9c:	b3050000 	movwlt	r0, #20480	; 0x5000
    1ca0:	006f8d02 	rsbeq	r8, pc, r2, lsl #26
    1ca4:	02b40500 	adcseq	r0, r4, #0, 10
    1ca8:	00003de0 	andeq	r3, r0, r0, ror #27
    1cac:	5702b605 	strpl	fp, [r2, -r5, lsl #12]
    1cb0:	05000020 	streq	r0, [r0, #-32]	; 0xffffffe0
    1cb4:	3a7402b7 	bcc	1d02798 <_Min_Stack_Size+0x1d02398>
    1cb8:	b8050000 	stmdalt	r5, {}	; <UNPREDICTABLE>
    1cbc:	00290302 	eoreq	r0, r9, r2, lsl #6
    1cc0:	02b90500 	adcseq	r0, r9, #0, 10
    1cc4:	0000361c 	andeq	r3, r0, ip, lsl r6
    1cc8:	2602bb05 	strcs	fp, [r2], -r5, lsl #22
    1ccc:	05000052 	streq	r0, [r0, #-82]	; 0xffffffae
    1cd0:	99ec02bc 	stmibls	ip!, {r2, r3, r4, r5, r7, r9}^
    1cd4:	bd050000 	stclt	0, cr0, [r5, #-0]
    1cd8:	0084d802 	addeq	sp, r4, r2, lsl #16
    1cdc:	02be0500 	adcseq	r0, lr, #0, 10
    1ce0:	0000a35a 	andeq	sl, r0, sl, asr r3
    1ce4:	8002c805 	andhi	ip, r2, r5, lsl #16
    1ce8:	05000051 	streq	r0, [r0, #-81]	; 0xffffffaf
    1cec:	3d0502c9 	sfmcc	f0, 4, [r5, #-804]	; 0xfffffcdc
    1cf0:	ca050000 	bgt	141cf8 <_Min_Stack_Size+0x1418f8>
    1cf4:	0035eb02 	eorseq	lr, r5, r2, lsl #22
    1cf8:	02cb0500 	sbceq	r0, fp, #0, 10
    1cfc:	00003e41 	andeq	r3, r0, r1, asr #28
    1d00:	e602cc05 	str	ip, [r2], -r5, lsl #24
    1d04:	05000068 	streq	r0, [r0, #-104]	; 0xffffff98
    1d08:	199202cd 	ldmibne	r2, {r0, r2, r3, r6, r7, r9}
    1d0c:	ce050000 	cdpgt	0, 0, cr0, cr5, cr0, {0}
    1d10:	00a52f02 	adceq	r2, r5, r2, lsl #30
    1d14:	02cf0500 	sbceq	r0, pc, #0, 10
    1d18:	00000c92 	muleq	r0, r2, ip
    1d1c:	6402d005 	strvs	sp, [r2], #-5
    1d20:	05000041 	streq	r0, [r0, #-65]	; 0xffffffbf
    1d24:	42d402d1 	sbcsmi	r0, r4, #268435469	; 0x1000000d
    1d28:	d2050000 	andle	r0, r5, #0
    1d2c:	00a0d502 	adceq	sp, r0, r2, lsl #10
    1d30:	02d30500 	sbcseq	r0, r3, #0, 10
    1d34:	0000504e 	andeq	r5, r0, lr, asr #32
    1d38:	9002d405 	andls	sp, r2, r5, lsl #8
    1d3c:	05000001 	streq	r0, [r0, #-1]
    1d40:	a9ae02d5 	stmibge	lr!, {r0, r2, r4, r6, r7, r9}
    1d44:	d6050000 	strle	r0, [r5], -r0
    1d48:	00933e02 	addseq	r3, r3, r2, lsl #28
    1d4c:	02d70500 	sbcseq	r0, r7, #0, 10
    1d50:	00009c6f 	andeq	r9, r0, pc, ror #24
    1d54:	4702d805 	strmi	sp, [r2, -r5, lsl #16]
    1d58:	0500003a 	streq	r0, [r0, #-58]	; 0xffffffc6
    1d5c:	194502d9 	stmdbne	r5, {r0, r3, r4, r6, r7, r9}^
    1d60:	da050000 	ble	141d68 <_Min_Stack_Size+0x141968>
    1d64:	00815702 	addeq	r5, r1, r2, lsl #14
    1d68:	02db0500 	sbcseq	r0, fp, #0, 10
    1d6c:	00007df3 	strdeq	r7, [r0], -r3
    1d70:	0e02dc05 	cdpeq	12, 0, cr13, cr2, cr5, {0}
    1d74:	0500004a 	streq	r0, [r0, #-74]	; 0xffffffb6
    1d78:	4edb02dd 	mrcmi	2, 6, r0, cr11, cr13, {6}
    1d7c:	de050000 	cdple	0, 0, cr0, cr5, cr0, {0}
    1d80:	00745702 	rsbseq	r5, r4, r2, lsl #14
    1d84:	02df0500 	sbcseq	r0, pc, #0, 10
    1d88:	00004e28 	andeq	r4, r0, r8, lsr #28
    1d8c:	b002e005 	andlt	lr, r2, r5
    1d90:	05000075 	streq	r0, [r0, #-117]	; 0xffffff8b
    1d94:	1f4702e1 	svcne	0x004702e1
    1d98:	e2050000 	and	r0, r5, #0
    1d9c:	002bbf02 	eoreq	fp, fp, r2, lsl #30
    1da0:	02e30500 	rsceq	r0, r3, #0, 10
    1da4:	00001223 	andeq	r1, r0, r3, lsr #4
    1da8:	eb02e405 	bl	badc4 <_Min_Stack_Size+0xba9c4>
    1dac:	0500005c 	streq	r0, [r0, #-92]	; 0xffffffa4
    1db0:	9f6402e5 	svcls	0x006402e5
    1db4:	e6050000 	str	r0, [r5], -r0
    1db8:	00613a02 	rsbeq	r3, r1, r2, lsl #20
    1dbc:	02e70500 	rsceq	r0, r7, #0, 10
    1dc0:	00009daf 	andeq	r9, r0, pc, lsr #27
    1dc4:	a702e805 	strge	lr, [r2, -r5, lsl #16]
    1dc8:	05000056 	streq	r0, [r0, #-86]	; 0xffffffaa
    1dcc:	149e02e9 	ldrne	r0, [lr], #745	; 0x2e9
    1dd0:	ea050000 	b	141dd8 <_Min_Stack_Size+0x1419d8>
    1dd4:	00013002 	andeq	r3, r1, r2
    1dd8:	02eb0500 	rsceq	r0, fp, #0, 10
    1ddc:	0000130a 	andeq	r1, r0, sl, lsl #6
    1de0:	0402ec05 	streq	lr, [r2], #-3077	; 0xfffff3fb
    1de4:	05000026 	streq	r0, [r0, #-38]	; 0xffffffda
    1de8:	7a2502ed 	bvc	9429a4 <_Min_Stack_Size+0x9425a4>
    1dec:	ee050000 	cdp	0, 0, cr0, cr5, cr0, {0}
    1df0:	003bad02 	eorseq	sl, fp, r2, lsl #26
    1df4:	02ef0500 	rsceq	r0, pc, #0, 10
    1df8:	00007892 	muleq	r0, r2, r8
    1dfc:	3002f005 	andcc	pc, r2, r5
    1e00:	05000075 	streq	r0, [r0, #-117]	; 0xffffff8b
    1e04:	196302f1 	stmdbne	r3!, {r0, r4, r5, r6, r7, r9}^
    1e08:	f3050000 	vhadd.u8	d0, d5, d0
    1e0c:	0021c002 	eoreq	ip, r1, r2
    1e10:	02f40500 	rscseq	r0, r4, #0, 10
    1e14:	00009510 	andeq	r9, r0, r0, lsl r5
    1e18:	d602f505 	strle	pc, [r2], -r5, lsl #10
    1e1c:	050000a3 	streq	r0, [r0, #-163]	; 0xffffff5d
    1e20:	133f02f6 	teqne	pc, #1610612751	; 0x6000000f
    1e24:	f7050000 			; <UNDEFINED> instruction: 0xf7050000
    1e28:	00310d02 	eorseq	r0, r1, r2, lsl #26
    1e2c:	02f80500 	rscseq	r0, r8, #0, 10
    1e30:	000016a4 	andeq	r1, r0, r4, lsr #13
    1e34:	9302f905 	movwls	pc, #10501	; 0x2905	; <UNPREDICTABLE>
    1e38:	05000053 	streq	r0, [r0, #-83]	; 0xffffffad
    1e3c:	55d602fa 	ldrbpl	r0, [r6, #762]	; 0x2fa
    1e40:	fb050000 	blx	141e4a <_Min_Stack_Size+0x141a4a>
    1e44:	00663402 	rsbeq	r3, r6, r2, lsl #8
    1e48:	02fc0500 	rscseq	r0, ip, #0, 10
    1e4c:	00002219 	andeq	r2, r0, r9, lsl r2
    1e50:	7c02fd05 	stcvc	13, cr15, [r2], {5}
    1e54:	05000077 	streq	r0, [r0, #-119]	; 0xffffff89
    1e58:	19ba02fe 	ldmibne	sl!, {r1, r2, r3, r4, r5, r6, r7, r9}
    1e5c:	ff050000 			; <UNDEFINED> instruction: 0xff050000
    1e60:	003b9502 	eorseq	r9, fp, r2, lsl #10
    1e64:	03800500 	orreq	r0, r0, #0, 10
    1e68:	0000651f 	andeq	r6, r0, pc, lsl r5
    1e6c:	81038105 	tsthi	r3, r5, lsl #2
    1e70:	0500005e 	streq	r0, [r0, #-94]	; 0xffffffa2
    1e74:	7ecb0382 	cdpvc	3, 12, cr0, cr11, cr2, {4}
    1e78:	83050000 	movwhi	r0, #20480	; 0x5000
    1e7c:	00a73103 	adceq	r3, r7, r3, lsl #2
    1e80:	03840500 	orreq	r0, r4, #0, 10
    1e84:	00007419 	andeq	r7, r0, r9, lsl r4
    1e88:	75038605 	strvc	r8, [r3, #-1541]	; 0xfffff9fb
    1e8c:	05000047 	streq	r0, [r0, #-71]	; 0xffffffb9
    1e90:	27170387 	ldrcs	r0, [r7, -r7, lsl #7]
    1e94:	88050000 	stmdahi	r5, {}	; <UNPREDICTABLE>
    1e98:	00491803 	subeq	r1, r9, r3, lsl #16
    1e9c:	03890500 	orreq	r0, r9, #0, 10
    1ea0:	00003092 	muleq	r0, r2, r0
    1ea4:	2d038b05 	vstrcs	d8, [r3, #-20]	; 0xffffffec
    1ea8:	05000090 	streq	r0, [r0, #-144]	; 0xffffff70
    1eac:	3a1e038c 	bcc	782ce4 <_Min_Stack_Size+0x7828e4>
    1eb0:	8d050000 	stchi	0, cr0, [r5, #-0]
    1eb4:	002d3403 	eoreq	r3, sp, r3, lsl #8
    1eb8:	038e0500 	orreq	r0, lr, #0, 10
    1ebc:	00008ddf 	ldrdeq	r8, [r0], -pc	; <UNPREDICTABLE>
    1ec0:	ac038f05 	stcge	15, cr8, [r3], {5}
    1ec4:	0500008a 	streq	r0, [r0, #-138]	; 0xffffff76
    1ec8:	97730390 			; <UNDEFINED> instruction: 0x97730390
    1ecc:	91050000 	mrsls	r0, (UNDEF: 5)
    1ed0:	007b8d03 	rsbseq	r8, fp, r3, lsl #26
    1ed4:	03920500 	orrseq	r0, r2, #0, 10
    1ed8:	000061a4 	andeq	r6, r0, r4, lsr #3
    1edc:	fe039305 	cdp2	3, 0, cr9, cr3, cr5, {0}
    1ee0:	0500004a 	streq	r0, [r0, #-74]	; 0xffffffb6
    1ee4:	6abf0394 	bvs	fefc2d3c <_estack+0xdefbdd3c>
    1ee8:	95050000 	strls	r0, [r5, #-0]
    1eec:	00318c03 	eorseq	r8, r1, r3, lsl #24
    1ef0:	03960500 	orrseq	r0, r6, #0, 10
    1ef4:	00006d71 	andeq	r6, r0, r1, ror sp
    1ef8:	0c039705 	stceq	7, cr9, [r3], {5}
    1efc:	05000055 	streq	r0, [r0, #-85]	; 0xffffffab
    1f00:	6ceb0398 	stclvs	3, cr0, [fp], #608	; 0x260
    1f04:	99050000 	stmdbls	r5, {}	; <UNPREDICTABLE>
    1f08:	00625503 	rsbeq	r5, r2, r3, lsl #10
    1f0c:	039a0500 	orrseq	r0, sl, #0, 10
    1f10:	0000734e 	andeq	r7, r0, lr, asr #6
    1f14:	50039b05 	andpl	r9, r3, r5, lsl #22
    1f18:	0500007e 	streq	r0, [r0, #-126]	; 0xffffff82
    1f1c:	9297039c 	addsls	r0, r7, #156, 6	; 0x70000002
    1f20:	9d050000 	stcls	0, cr0, [r5, #-0]
    1f24:	00367903 	eorseq	r7, r6, r3, lsl #18
    1f28:	039e0500 	orrseq	r0, lr, #0, 10
    1f2c:	00000d31 	andeq	r0, r0, r1, lsr sp
    1f30:	d8039f05 	stmdale	r3, {r0, r2, r8, r9, sl, fp, ip, pc}
    1f34:	05000083 	streq	r0, [r0, #-131]	; 0xffffff7d
    1f38:	18dd03a0 	ldmne	sp, {r5, r7, r8, r9}^
    1f3c:	a1050000 	mrsge	r0, (UNDEF: 5)
    1f40:	000f6f03 	andeq	r6, pc, r3, lsl #30
    1f44:	03a20500 			; <UNDEFINED> instruction: 0x03a20500
    1f48:	0000110d 	andeq	r1, r0, sp, lsl #2
    1f4c:	0903a305 	stmdbeq	r3, {r0, r2, r8, r9, sp, pc}
    1f50:	05000094 	streq	r0, [r0, #-148]	; 0xffffff6c
    1f54:	501403a4 	andspl	r0, r4, r4, lsr #7
    1f58:	a5050000 	strge	r0, [r5, #-0]
    1f5c:	0005be03 	andeq	fp, r5, r3, lsl #28
    1f60:	03a60500 			; <UNDEFINED> instruction: 0x03a60500
    1f64:	00008643 	andeq	r8, r0, r3, asr #12
    1f68:	c203a705 	andgt	sl, r3, #1310720	; 0x140000
    1f6c:	05000033 	streq	r0, [r0, #-51]	; 0xffffffcd
    1f70:	967803a8 	ldrbtls	r0, [r8], -r8, lsr #7
    1f74:	a9050000 	stmdbge	r5, {}	; <UNPREDICTABLE>
    1f78:	008b3203 	addeq	r3, fp, r3, lsl #4
    1f7c:	03aa0500 			; <UNDEFINED> instruction: 0x03aa0500
    1f80:	00004e82 	andeq	r4, r0, r2, lsl #29
    1f84:	3203ab05 	andcc	sl, r3, #5120	; 0x1400
    1f88:	05000041 	streq	r0, [r0, #-65]	; 0xffffffbf
    1f8c:	2bdd03ac 	blcs	ff742e44 <_estack+0xdf73de44>
    1f90:	ad050000 	stcge	0, cr0, [r5, #-0]
    1f94:	0090f403 	addseq	pc, r0, r3, lsl #8
    1f98:	03ae0500 			; <UNDEFINED> instruction: 0x03ae0500
    1f9c:	00006a06 	andeq	r6, r0, r6, lsl #20
    1fa0:	1a03af05 	bne	edbbc <_Min_Stack_Size+0xed7bc>
    1fa4:	0500004b 	streq	r0, [r0, #-75]	; 0xffffffb5
    1fa8:	23f603b0 	mvnscs	r0, #176, 6	; 0xc0000002
    1fac:	b1050000 	mrslt	r0, (UNDEF: 5)
    1fb0:	0087b803 	addeq	fp, r7, r3, lsl #16
    1fb4:	03b20500 			; <UNDEFINED> instruction: 0x03b20500
    1fb8:	000040e0 	andeq	r4, r0, r0, ror #1
    1fbc:	2b03b305 	blcs	eebd8 <_Min_Stack_Size+0xee7d8>
    1fc0:	05000009 	streq	r0, [r0, #-9]
    1fc4:	8d6f03b4 	stclhi	3, cr0, [pc, #-720]!	; 1cfc <_Min_Stack_Size+0x18fc>
    1fc8:	b7050000 	strlt	r0, [r5, -r0]
    1fcc:	001cdd03 	andseq	sp, ip, r3, lsl #26
    1fd0:	03b80500 			; <UNDEFINED> instruction: 0x03b80500
    1fd4:	00004f10 	andeq	r4, r0, r0, lsl pc
    1fd8:	d603b905 	strle	fp, [r3], -r5, lsl #18
    1fdc:	05000075 	streq	r0, [r0, #-117]	; 0xffffff8b
    1fe0:	9bc503ba 	blls	ff142ed0 <_estack+0xdf13ded0>
    1fe4:	bb050000 	bllt	141fec <_Min_Stack_Size+0x141bec>
    1fe8:	009a5e03 	addseq	r5, sl, r3, lsl #28
    1fec:	03bc0500 			; <UNDEFINED> instruction: 0x03bc0500
    1ff0:	000040fb 	strdeq	r4, [r0], -fp
    1ff4:	b203bd05 	andlt	fp, r3, #320	; 0x140
    1ff8:	05000086 	streq	r0, [r0, #-134]	; 0xffffff7a
    1ffc:	833f03be 	teqhi	pc, #-134217726	; 0xf8000002
    2000:	bf050000 	svclt	0x00050000
    2004:	00065903 	andeq	r5, r6, r3, lsl #18
    2008:	03c00500 	biceq	r0, r0, #0, 10
    200c:	000025b1 			; <UNDEFINED> instruction: 0x000025b1
    2010:	6303c105 	movwvs	ip, #12549	; 0x3105
    2014:	0500001e 	streq	r0, [r0, #-30]	; 0xffffffe2
    2018:	7c3303c2 	ldcvc	3, cr0, [r3], #-776	; 0xfffffcf8
    201c:	c3050000 	movwgt	r0, #20480	; 0x5000
    2020:	004c1b03 	subeq	r1, ip, r3, lsl #22
    2024:	03c40500 	biceq	r0, r4, #0, 10
    2028:	00007743 	andeq	r7, r0, r3, asr #14
    202c:	8003c505 	andhi	ip, r3, r5, lsl #10
    2030:	05000093 	streq	r0, [r0, #-147]	; 0xffffff6d
    2034:	8fd403c6 	svchi	0x00d403c6
    2038:	c7050000 	strgt	r0, [r5, -r0]
    203c:	00531403 	subseq	r1, r3, r3, lsl #8
    2040:	03c80500 	biceq	r0, r8, #0, 10
    2044:	0000648d 	andeq	r6, r0, sp, lsl #9
    2048:	0f03c905 	svceq	0x0003c905
    204c:	0500009f 	streq	r0, [r0, #-159]	; 0xffffff61
    2050:	7b2003ca 	blvc	802f80 <_Min_Stack_Size+0x802b80>
    2054:	cb050000 	blgt	14205c <_Min_Stack_Size+0x141c5c>
    2058:	002c3403 	eoreq	r3, ip, r3, lsl #8
    205c:	03cc0500 	biceq	r0, ip, #0, 10
    2060:	000037f4 	strdeq	r3, [r0], -r4
    2064:	7a03cd05 	bvc	f5480 <_Min_Stack_Size+0xf5080>
    2068:	050000a0 	streq	r0, [r0, #-160]	; 0xffffff60
    206c:	a85403ce 	ldmdage	r4, {r1, r2, r3, r6, r7, r8, r9}^
    2070:	04000000 	streq	r0, [r0], #-0
    2074:	09050000 	stmdbeq	r5, {}	; <UNPREDICTABLE>
    2078:	00004fb6 			; <UNDEFINED> instruction: 0x00004fb6
    207c:	71c03005 	bicvc	r3, r0, r5
    2080:	31050000 	mrscc	r0, (UNDEF: 5)
    2084:	00008977 	andeq	r8, r0, r7, ror r9
    2088:	68c73205 	stmiavs	r7, {r0, r2, r9, ip, sp}^
    208c:	33050000 	movwcc	r0, #20480	; 0x5000
    2090:	00006085 	andeq	r6, r0, r5, lsl #1
    2094:	8bcc3405 	blhi	ff30f0b0 <_estack+0xdf30a0b0>
    2098:	35050000 	strcc	r0, [r5, #-0]
    209c:	0000a711 	andeq	sl, r0, r1, lsl r7
    20a0:	98c53605 	stmials	r5, {r0, r2, r9, sl, ip, sp}^
    20a4:	37050000 	strcc	r0, [r5, -r0]
    20a8:	00007618 	andeq	r7, r0, r8, lsl r6
    20ac:	9e1a3805 	cdpls	8, 1, cr3, cr10, cr5, {0}
    20b0:	41050000 	mrsmi	r0, (UNDEF: 5)
    20b4:	00007492 	muleq	r0, r2, r4
    20b8:	a4e24205 	strbtge	r4, [r2], #517	; 0x205
    20bc:	43050000 	movwmi	r0, #20480	; 0x5000
    20c0:	000046c4 	andeq	r4, r0, r4, asr #13
    20c4:	046f4805 	strbteq	r4, [pc], #-2053	; 20cc <_Min_Stack_Size+0x1ccc>
    20c8:	49050000 	stmdbmi	r5, {}	; <UNPREDICTABLE>
    20cc:	00007a54 	andeq	r7, r0, r4, asr sl
    20d0:	56094a05 	strpl	r4, [r9], -r5, lsl #20
    20d4:	4b050000 	blmi	1420dc <_Min_Stack_Size+0x141cdc>
    20d8:	00002e75 	andeq	r2, r0, r5, ror lr
    20dc:	994a4c05 	stmdbls	sl, {r0, r2, sl, fp, lr}^
    20e0:	4d050000 	stcmi	0, cr0, [r5, #-0]
    20e4:	00007ba2 	andeq	r7, r0, r2, lsr #23
    20e8:	99684e05 	stmdbls	r8!, {r0, r2, r9, sl, fp, lr}^
    20ec:	4f050000 	svcmi	0x00050000
    20f0:	000089bb 			; <UNDEFINED> instruction: 0x000089bb
    20f4:	138e5005 	orrne	r5, lr, #5
    20f8:	51050000 	mrspl	r0, (UNDEF: 5)
    20fc:	00000b7f 	andeq	r0, r0, pc, ror fp
    2100:	5a995205 	bpl	fe65691c <_estack+0xde65191c>
    2104:	53050000 	movwpl	r0, #20480	; 0x5000
    2108:	0000a6df 	ldrdeq	sl, [r0], -pc	; <UNPREDICTABLE>
    210c:	23c05405 	biccs	r5, r0, #83886080	; 0x5000000
    2110:	55050000 	strpl	r0, [r5, #-0]
    2114:	000054bf 			; <UNDEFINED> instruction: 0x000054bf
    2118:	8d185605 	ldchi	6, cr5, [r8, #-20]	; 0xffffffec
    211c:	57050000 	strpl	r0, [r5, -r0]
    2120:	00009462 	andeq	r9, r0, r2, ror #8
    2124:	9a2f5805 	bls	bd8140 <_Min_Stack_Size+0xbd7d40>
    2128:	5a050000 	bpl	142130 <_Min_Stack_Size+0x141d30>
    212c:	00003140 	andeq	r3, r0, r0, asr #2
    2130:	2b0a6105 	blcs	29a54c <_Min_Stack_Size+0x29a14c>
    2134:	62050000 	andvs	r0, r5, #0
    2138:	00006fde 	ldrdeq	r6, [r0], -lr
    213c:	4c166705 	ldcmi	7, cr6, [r6], {5}
    2140:	68050000 	stmdavs	r5, {}	; <UNPREDICTABLE>
    2144:	00007145 	andeq	r7, r0, r5, asr #2
    2148:	00000400 	andeq	r0, r0, r0, lsl #8
    214c:	782b2d05 	stmdavc	fp!, {r0, r2, r8, sl, fp, sp}
    2150:	2e050000 	cdpcs	0, 0, cr0, cr5, cr0, {0}
    2154:	0000861b 	andeq	r8, r0, fp, lsl r6
    2158:	84852f05 	strhi	r2, [r5], #3845	; 0xf05
    215c:	30050000 	andcc	r0, r5, r0
    2160:	0000a550 	andeq	sl, r0, r0, asr r5
    2164:	714d3105 	cmpvc	sp, r5, lsl #2
    2168:	32050000 	andcc	r0, r5, #0
    216c:	00003f66 	andeq	r3, r0, r6, ror #30
    2170:	65173305 	ldrvs	r3, [r7, #-773]	; 0xfffffcfb
    2174:	34050000 	strcc	r0, [r5], #-0
    2178:	000029aa 	andeq	r2, r0, sl, lsr #19
    217c:	a6d73505 	ldrbge	r3, [r7], r5, lsl #10
    2180:	36050000 	strcc	r0, [r5], -r0
    2184:	00001ef8 	strdeq	r1, [r0], -r8
    2188:	10203705 	eorne	r3, r0, r5, lsl #14
    218c:	38050000 	stmdacc	r5, {}	; <UNPREDICTABLE>
    2190:	000069ef 	andeq	r6, r0, pc, ror #19
    2194:	113f3905 	teqne	pc, r5, lsl #18
    2198:	3a050000 	bcc	1421a0 <_Min_Stack_Size+0x141da0>
    219c:	0000a5b4 			; <UNDEFINED> instruction: 0x0000a5b4
    21a0:	12863b05 	addne	r3, r6, #5120	; 0x1400
    21a4:	3c050000 	stccc	0, cr0, [r5], {-0}
    21a8:	00009ff7 	strdeq	r9, [r0], -r7
    21ac:	2c6d4805 	stclcs	8, cr4, [sp], #-20	; 0xffffffec
    21b0:	49050000 	stmdbmi	r5, {}	; <UNPREDICTABLE>
    21b4:	0000a948 	andeq	sl, r0, r8, asr #18
    21b8:	6ba14a05 	blvs	fe8549d4 <_estack+0xde84f9d4>
    21bc:	4b050000 	blmi	1421c4 <_Min_Stack_Size+0x141dc4>
    21c0:	00002945 	andeq	r2, r0, r5, asr #18
    21c4:	08794f05 	ldmdaeq	r9!, {r0, r2, r8, r9, sl, fp, lr}^
    21c8:	50050000 	andpl	r0, r5, r0
    21cc:	00009f90 	muleq	r0, r0, pc	; <UNPREDICTABLE>
    21d0:	72bd5105 	adcsvc	r5, sp, #1073741825	; 0x40000001
    21d4:	52050000 	andpl	r0, r5, #0
    21d8:	0000921c 	andeq	r9, r0, ip, lsl r2
    21dc:	38095605 	stmdacc	r9, {r0, r2, r9, sl, ip, lr}
    21e0:	57050000 	strpl	r0, [r5, -r0]
    21e4:	00000359 	andeq	r0, r0, r9, asr r3
    21e8:	3c305805 	ldccc	8, cr5, [r0], #-20	; 0xffffffec
    21ec:	59050000 	stmdbpl	r5, {}	; <UNPREDICTABLE>
    21f0:	00006b5a 	andeq	r6, r0, sl, asr fp
    21f4:	24a75d05 	strtcs	r5, [r7], #3333	; 0xd05
    21f8:	5e050000 	cdppl	0, 0, cr0, cr5, cr0, {0}
    21fc:	0000506e 	andeq	r5, r0, lr, rrx
    2200:	724f5f05 	subvc	r5, pc, #5, 30
    2204:	60050000 	andvs	r0, r5, r0
    2208:	0000a645 	andeq	sl, r0, r5, asr #12
    220c:	a26d6405 	rsbge	r6, sp, #83886080	; 0x5000000
    2210:	65050000 	strvs	r0, [r5, #-0]
    2214:	000013eb 	andeq	r1, r0, fp, ror #7
    2218:	0bf26605 	bleq	ffc9ba34 <_estack+0xdfc96a34>
    221c:	67050000 	strvs	r0, [r5, -r0]
    2220:	000071f1 	strdeq	r7, [r0], -r1
    2224:	88656b05 	stmdahi	r5!, {r0, r2, r8, r9, fp, sp, lr}^
    2228:	6c050000 	stcvs	0, cr0, [r5], {-0}
    222c:	000022aa 	andeq	r2, r0, sl, lsr #5
    2230:	3f1f6d05 	svccc	0x001f6d05
    2234:	6e050000 	cdpvs	0, 0, cr0, cr5, cr0, {0}
    2238:	0000397f 	andeq	r3, r0, pc, ror r9
    223c:	820e7205 	andhi	r7, lr, #1342177280	; 0x50000000
    2240:	73050000 	movwvc	r0, #20480	; 0x5000
    2244:	00005194 	muleq	r0, r4, r1
    2248:	3b4e7405 	blcc	139f264 <_Min_Stack_Size+0x139ee64>
    224c:	75050000 	strvc	r0, [r5, #-0]
    2250:	00002a45 	andeq	r2, r0, r5, asr #20
    2254:	376f7905 	strbcc	r7, [pc, -r5, lsl #18]!
    2258:	7a050000 	bvc	142260 <_Min_Stack_Size+0x141e60>
    225c:	00008430 	andeq	r8, r0, r0, lsr r4
    2260:	5eaa7b05 	vfmapl.f64	d7, d10, d5
    2264:	7c050000 	stcvc	0, cr0, [r5], {-0}
    2268:	00002460 	andeq	r2, r0, r0, ror #8
    226c:	21018005 	tstcs	r1, r5
    2270:	0500006e 	streq	r0, [r0, #-110]	; 0xffffff92
    2274:	7bed0181 	blvc	ffb42880 <_estack+0xdfb3d880>
    2278:	82050000 	andhi	r0, r5, #0
    227c:	002b6801 	eoreq	r6, fp, r1, lsl #16
    2280:	01830500 	orreq	r0, r3, r0, lsl #10
    2284:	000052cd 	andeq	r5, r0, sp, asr #5
    2288:	f7018705 			; <UNDEFINED> instruction: 0xf7018705
    228c:	05000042 	streq	r0, [r0, #-66]	; 0xffffffbe
    2290:	29ff0188 	ldmibcs	pc!, {r3, r7, r8}^	; <UNPREDICTABLE>
    2294:	89050000 	stmdbhi	r5, {}	; <UNPREDICTABLE>
    2298:	0006d101 	andeq	sp, r6, r1, lsl #2
    229c:	018a0500 	orreq	r0, sl, r0, lsl #10
    22a0:	0000421e 	andeq	r4, r0, lr, lsl r2
    22a4:	7d018e05 	stcvc	14, cr8, [r1, #-20]	; 0xffffffec
    22a8:	05000018 	streq	r0, [r0, #-24]	; 0xffffffe8
    22ac:	8c49018f 	stfhie	f0, [r9], {143}	; 0x8f
    22b0:	90050000 	andls	r0, r5, r0
    22b4:	00abe701 	adceq	lr, fp, r1, lsl #14
    22b8:	01910500 	orrseq	r0, r1, r0, lsl #10
    22bc:	000085bc 			; <UNDEFINED> instruction: 0x000085bc
    22c0:	85019505 	strhi	r9, [r1, #-1285]	; 0xfffffafb
    22c4:	0500009c 	streq	r0, [r0, #-156]	; 0xffffff64
    22c8:	74ad0196 	strtvc	r0, [sp], #406	; 0x196
    22cc:	97050000 	strls	r0, [r5, -r0]
    22d0:	00601c01 	rsbeq	r1, r0, r1, lsl #24
    22d4:	01980500 	orrseq	r0, r8, r0, lsl #10
    22d8:	000077df 	ldrdeq	r7, [r0], -pc	; <UNPREDICTABLE>
    22dc:	7f019c05 	svcvc	0x00019c05
    22e0:	05000076 	streq	r0, [r0, #-118]	; 0xffffff8a
    22e4:	4596019d 	ldrmi	r0, [r6, #413]	; 0x19d
    22e8:	9e050000 	cdpls	0, 0, cr0, cr5, cr0, {0}
    22ec:	00a22101 	adceq	r2, r2, r1, lsl #2
    22f0:	019f0500 	orrseq	r0, pc, r0, lsl #10
    22f4:	00008658 	andeq	r8, r0, r8, asr r6
    22f8:	5101a305 	tstpl	r1, r5, lsl #6
    22fc:	0500005f 	streq	r0, [r0, #-95]	; 0xffffffa1
    2300:	ac3301a4 	ldfges	f0, [r3], #-656	; 0xfffffd70
    2304:	a5050000 	strge	r0, [r5, #-0]
    2308:	0051da01 	subseq	sp, r1, r1, lsl #20
    230c:	01a60500 			; <UNDEFINED> instruction: 0x01a60500
    2310:	00006792 	muleq	r0, r2, r7
    2314:	4701aa05 	strmi	sl, [r1, -r5, lsl #20]
    2318:	05000053 	streq	r0, [r0, #-83]	; 0xffffffad
    231c:	1dd601ab 	ldfnee	f0, [r6, #684]	; 0x2ac
    2320:	ac050000 	stcge	0, cr0, [r5], {-0}
    2324:	005c0a01 	subseq	r0, ip, r1, lsl #20
    2328:	01ad0500 			; <UNDEFINED> instruction: 0x01ad0500
    232c:	0000a463 	andeq	sl, r0, r3, ror #8
    2330:	4a01b105 	bmi	6e74c <_Min_Stack_Size+0x6e34c>
    2334:	05000027 	streq	r0, [r0, #-39]	; 0xffffffd9
    2338:	82c101b2 	sbchi	r0, r1, #-2147483604	; 0x8000002c
    233c:	b3050000 	movwlt	r0, #20480	; 0x5000
    2340:	00ab8701 	adceq	r8, fp, r1, lsl #14
    2344:	01b40500 			; <UNDEFINED> instruction: 0x01b40500
    2348:	0000153e 	andeq	r1, r0, lr, lsr r5
    234c:	3201ba05 	andcc	fp, r1, #20480	; 0x5000
    2350:	05000026 	streq	r0, [r0, #-38]	; 0xffffffda
    2354:	23df01bb 	bicscs	r0, pc, #-1073741778	; 0xc000002e
    2358:	bc050000 	stclt	0, cr0, [r5], {-0}
    235c:	0028c901 	eoreq	ip, r8, r1, lsl #18
    2360:	01bf0500 			; <UNDEFINED> instruction: 0x01bf0500
    2364:	0000268a 	andeq	r2, r0, sl, lsl #13
    2368:	e801c005 	stmda	r1, {r0, r2, lr, pc}
    236c:	00000017 	andeq	r0, r0, r7, lsl r0
    2370:	d3020004 	movwle	r0, #8196	; 0x2004
    2374:	0700000a 	streq	r0, [r0, -sl]
    2378:	0000015b 	andeq	r0, r0, fp, asr r1
    237c:	03010003 	movweq	r0, #4099	; 0x1003
    2380:	09050507 	stmdbeq	r5, {r0, r1, r2, r8, sl}
    2384:	00004fb6 			; <UNDEFINED> instruction: 0x00004fb6
    2388:	05040c03 	streq	r0, [r4, #-3075]	; 0xfffff3fd
    238c:	005d2109 	subseq	r2, sp, r9, lsl #2
    2390:	060b0300 	streq	r0, [fp], -r0, lsl #6
    2394:	89970805 	ldmibhi	r7, {r0, r2, fp}
    2398:	0a030000 	beq	c23a0 <_Min_Stack_Size+0xc1fa0>
    239c:	0bfd0707 	bleq	fff43fc0 <_estack+0xdff3efc0>
    23a0:	03040000 	movweq	r0, #16384	; 0x4000
    23a4:	0805080b 	stmdaeq	r5, {r0, r1, r3, fp}
    23a8:	00006239 	andeq	r6, r0, r9, lsr r2
    23ac:	05090a03 	streq	r0, [r9, #-2563]	; 0xfffff5fd
    23b0:	0015b507 	andseq	fp, r5, r7, lsl #10
    23b4:	0a0a0300 	beq	282fbc <_Min_Stack_Size+0x282bbc>
    23b8:	000c2107 	andeq	r2, ip, r7, lsl #2
    23bc:	43070400 	movwmi	r0, #29696	; 0x7400
    23c0:	0400000c 	streq	r0, [r0], #-12
    23c4:	050b0b03 	streq	r0, [fp, #-2819]	; 0xfffff4fd
    23c8:	0093d902 	addseq	sp, r3, r2, lsl #18
    23cc:	07040300 	streq	r0, [r4, -r0, lsl #6]
    23d0:	0c050304 	stceq	3, cr0, [r5], {4}
    23d4:	000c9e07 	andeq	r9, ip, r7, lsl #28
    23d8:	32070400 	andcc	r0, r7, #0, 8
    23dc:	0400000d 	streq	r0, [r0], #-13
    23e0:	000d7507 	andeq	r7, sp, r7, lsl #10
    23e4:	a9070400 	stmdbge	r7, {sl}
    23e8:	0300000d 	movweq	r0, #13
    23ec:	bf070d10 	svclt	0x00070d10
    23f0:	0400000d 	streq	r0, [r0], #-13
    23f4:	050e1203 	streq	r1, [lr, #-515]	; 0xfffffdfd
    23f8:	0067540b 	rsbeq	r5, r7, fp, lsl #8
    23fc:	080d0300 	stmdaeq	sp, {r8, r9}
    2400:	0d0e0304 	stceq	3, cr0, [lr, #-16]
    2404:	000ecd07 	andeq	ip, lr, r7, lsl #26
    2408:	0f030400 	svceq	0x00030400
    240c:	0f5a070f 	svceq	0x005a070f
    2410:	18030000 	stmdane	r3, {}	; <UNPREDICTABLE>
    2414:	0f70070d 	svceq	0x0070070d
    2418:	03040000 	movweq	r0, #16384	; 0x4000
    241c:	0605101b 			; <UNDEFINED> instruction: 0x0605101b
    2420:	00006c8e 	andeq	r6, r0, lr, lsl #25
    2424:	07020703 	streq	r0, [r2, -r3, lsl #14]
    2428:	00000fb3 			; <UNDEFINED> instruction: 0x00000fb3
    242c:	0a070404 	beq	1c3444 <_Min_Stack_Size+0x1c3044>
    2430:	04000010 	streq	r0, [r0], #-16
    2434:	00103e07 	andseq	r3, r0, r7, lsl #28
    2438:	11220300 			; <UNDEFINED> instruction: 0x11220300
    243c:	00104e07 	andseq	r4, r0, r7, lsl #28
    2440:	a6070400 	strge	r0, [r7], -r0, lsl #8
    2444:	03000010 	movweq	r0, #16
    2448:	071203ba 			; <UNDEFINED> instruction: 0x071203ba
    244c:	00001134 	andeq	r1, r0, r4, lsr r1
    2450:	11500704 	cmpne	r0, r4, lsl #14
    2454:	03040000 	movweq	r0, #16384	; 0x4000
    2458:	2b051313 	blcs	1470ac <_Min_Stack_Size+0x146cac>
    245c:	0000a4fc 	strdeq	sl, [r0], -ip
    2460:	040d2f03 	streq	r2, [sp], #-3843	; 0xfffff0fd
    2464:	0012c707 	andseq	ip, r2, r7, lsl #14
    2468:	14030400 	strne	r0, [r3], #-1024	; 0xfffffc00
    246c:	65020514 	strvs	r0, [r2, #-1300]	; 0xfffffaec
    2470:	0400002e 	streq	r0, [r0], #-46	; 0xffffffd2
    2474:	07151603 	ldreq	r1, [r5, -r3, lsl #12]
    2478:	00001630 	andeq	r1, r0, r0, lsr r6
    247c:	16460704 	strbne	r0, [r6], -r4, lsl #14
    2480:	03040000 	movweq	r0, #16384	; 0x4000
    2484:	0903160c 	stmdbeq	r3, {r2, r3, r9, sl, ip}
    2488:	c90a0517 	stmdbgt	sl, {r0, r1, r2, r4, r8, sl}
    248c:	03000008 	movweq	r0, #8
    2490:	6f07180d 	svcvs	0x0007180d
    2494:	04000016 	streq	r0, [r0], #-22	; 0xffffffea
    2498:	07030e03 	streq	r0, [r3, -r3, lsl #28]
    249c:	00001772 	andeq	r1, r0, r2, ror r7
    24a0:	17dc0704 	ldrbne	r0, [ip, r4, lsl #14]
    24a4:	05040000 	streq	r0, [r4, #-0]
    24a8:	0008c00d 	andeq	ip, r8, sp
    24ac:	bb070400 	bllt	1c34b4 <_Min_Stack_Size+0x1c30b4>
    24b0:	04000019 	streq	r0, [r0], #-25	; 0xffffffe7
    24b4:	0024bc07 	eoreq	fp, r4, r7, lsl #24
    24b8:	00040400 	andeq	r0, r4, r0, lsl #8
    24bc:	05000004 	streq	r0, [r0, #-4]
    24c0:	0071c030 	rsbseq	ip, r1, r0, lsr r0
    24c4:	77310500 	ldrvc	r0, [r1, -r0, lsl #10]!
    24c8:	05000089 	streq	r0, [r0, #-137]	; 0xffffff77
    24cc:	0068c732 	rsbeq	ip, r8, r2, lsr r7
    24d0:	85330500 	ldrhi	r0, [r3, #-1280]!	; 0xfffffb00
    24d4:	05000060 	streq	r0, [r0, #-96]	; 0xffffffa0
    24d8:	008bcc34 	addeq	ip, fp, r4, lsr ip
    24dc:	11350500 	teqne	r5, r0, lsl #10
    24e0:	050000a7 	streq	r0, [r0, #-167]	; 0xffffff59
    24e4:	0098c536 	addseq	ip, r8, r6, lsr r5
    24e8:	18370500 	ldmdane	r7!, {r8, sl}
    24ec:	05000076 	streq	r0, [r0, #-118]	; 0xffffff8a
    24f0:	009e1a38 	addseq	r1, lr, r8, lsr sl
    24f4:	92410500 	subls	r0, r1, #0, 10
    24f8:	05000074 	streq	r0, [r0, #-116]	; 0xffffff8c
    24fc:	00a4e242 	adceq	lr, r4, r2, asr #4
    2500:	c4430500 	strbgt	r0, [r3], #-1280	; 0xfffffb00
    2504:	05000046 	streq	r0, [r0, #-70]	; 0xffffffba
    2508:	00046f48 	andeq	r6, r4, r8, asr #30
    250c:	54490500 	strbpl	r0, [r9], #-1280	; 0xfffffb00
    2510:	0500007a 	streq	r0, [r0, #-122]	; 0xffffff86
    2514:	0056094a 	subseq	r0, r6, sl, asr #18
    2518:	754b0500 	strbvc	r0, [fp, #-1280]	; 0xfffffb00
    251c:	0500002e 	streq	r0, [r0, #-46]	; 0xffffffd2
    2520:	00994a4c 	addseq	r4, r9, ip, asr #20
    2524:	a24d0500 	subge	r0, sp, #0, 10
    2528:	0500007b 	streq	r0, [r0, #-123]	; 0xffffff85
    252c:	0099684e 	addseq	r6, r9, lr, asr #16
    2530:	bb4f0500 	bllt	13c3938 <_Min_Stack_Size+0x13c3538>
    2534:	05000089 	streq	r0, [r0, #-137]	; 0xffffff77
    2538:	00138e50 	andseq	r8, r3, r0, asr lr
    253c:	7f510500 	svcvc	0x00510500
    2540:	0500000b 	streq	r0, [r0, #-11]
    2544:	005a9952 	subseq	r9, sl, r2, asr r9
    2548:	df530500 	svcle	0x00530500
    254c:	050000a6 	streq	r0, [r0, #-166]	; 0xffffff5a
    2550:	0023c054 	eoreq	ip, r3, r4, asr r0
    2554:	bf550500 	svclt	0x00550500
    2558:	05000054 	streq	r0, [r0, #-84]	; 0xffffffac
    255c:	008d1856 	addeq	r1, sp, r6, asr r8
    2560:	62570500 	subsvs	r0, r7, #0, 10
    2564:	05000094 	streq	r0, [r0, #-148]	; 0xffffff6c
    2568:	009a2f58 	addseq	r2, sl, r8, asr pc
    256c:	405a0500 	subsmi	r0, sl, r0, lsl #10
    2570:	05000031 	streq	r0, [r0, #-49]	; 0xffffffcf
    2574:	002b0a61 	eoreq	r0, fp, r1, ror #20
    2578:	de620500 	cdple	5, 6, cr0, cr2, cr0, {0}
    257c:	0500006f 	streq	r0, [r0, #-111]	; 0xffffff91
    2580:	004c1667 	subeq	r1, ip, r7, ror #12
    2584:	45680500 	strbmi	r0, [r8, #-1280]!	; 0xfffffb00
    2588:	00000071 	andeq	r0, r0, r1, ror r0
    258c:	00020004 	andeq	r0, r2, r4
    2590:	07000014 	smladeq	r0, r4, r0, r0
    2594:	0000015b 	andeq	r0, r0, fp, asr r1
    2598:	03010003 	movweq	r0, #4099	; 0x1003
    259c:	09030613 	stmdbeq	r3, {r0, r1, r4, r9, sl}
    25a0:	c90a0507 	stmdbgt	sl, {r0, r1, r2, r8, sl}
    25a4:	03000008 	movweq	r0, #8
    25a8:	0605020c 	streq	r0, [r5], -ip, lsl #4
    25ac:	0000707b 	andeq	r7, r0, fp, ror r0
    25b0:	05080803 	streq	r0, [r8, #-2051]	; 0xfffff7fd
    25b4:	002dfd16 	eoreq	pc, sp, r6, lsl sp	; <UNPREDICTABLE>
    25b8:	091c0300 	ldmdbeq	ip, {r8, r9}
    25bc:	000c2107 	andeq	r2, ip, r7, lsl #2
    25c0:	f1070400 			; <UNDEFINED> instruction: 0xf1070400
    25c4:	04000026 	streq	r0, [r0], #-38	; 0xffffffda
    25c8:	00277f07 	eoreq	r7, r7, r7, lsl #30
    25cc:	0d030400 	cfstrseq	mvf0, [r3, #-0]
    25d0:	166f070a 	strbtne	r0, [pc], -sl, lsl #14
    25d4:	03040000 	movweq	r0, #16384	; 0x4000
    25d8:	7207030e 	andvc	r0, r7, #939524096	; 0x38000000
    25dc:	04000017 	streq	r0, [r0], #-23	; 0xffffffe9
    25e0:	0017dc07 	andseq	sp, r7, r7, lsl #24
    25e4:	0d050400 	cfstrseq	mvf0, [r5, #-0]
    25e8:	000008c0 	andeq	r0, r0, r0, asr #17
    25ec:	0b140304 	bleq	503204 <_Min_Stack_Size+0x502e04>
    25f0:	4fb60905 	svcmi	0x00b60905
    25f4:	0c030000 	stceq	0, cr0, [r3], {-0}
    25f8:	21090504 	tstcs	r9, r4, lsl #10
    25fc:	0300005d 	movweq	r0, #93	; 0x5d
    2600:	08050c0b 	stmdaeq	r5, {r0, r1, r3, sl, fp}
    2604:	00008997 	muleq	r0, r7, r9
    2608:	070d0a03 	streq	r0, [sp, -r3, lsl #20]
    260c:	00000bfd 	strdeq	r0, [r0], -sp
    2610:	0e0b0304 	cdpeq	3, 0, cr0, cr11, cr4, {0}
    2614:	62390805 	eorsvs	r0, r9, #327680	; 0x50000
    2618:	0a030000 	beq	c2620 <_Min_Stack_Size+0xc2220>
    261c:	27d0070f 	ldrbcs	r0, [r0, pc, lsl #14]
    2620:	03040000 	movweq	r0, #16384	; 0x4000
    2624:	0205100b 	andeq	r1, r5, #11
    2628:	000093d9 	ldrdeq	r9, [r0], -r9	; <UNPREDICTABLE>
    262c:	040d0403 	streq	r0, [sp], #-1027	; 0xfffffbfd
    2630:	000d3207 	andeq	r3, sp, r7, lsl #4
    2634:	75070400 	strvc	r0, [r7, #-1024]	; 0xfffffc00
    2638:	0400000d 	streq	r0, [r0], #-13
    263c:	000da907 	andeq	sl, sp, r7, lsl #18
    2640:	11100300 	tstne	r0, r0, lsl #6
    2644:	000dbf07 	andeq	fp, sp, r7, lsl #30
    2648:	12030400 	andne	r0, r3, #0, 8
    264c:	540b0512 	strpl	r0, [fp], #-1298	; 0xfffffaee
    2650:	03000067 	movweq	r0, #103	; 0x67
    2654:	03040e0d 	movweq	r0, #19981	; 0x4e0d
    2658:	cd07110e 	stfgts	f1, [r7, #-56]	; 0xffffffc8
    265c:	0400000e 	streq	r0, [r0], #-14
    2660:	07130f03 	ldreq	r0, [r3, -r3, lsl #30]
    2664:	00000f5a 	andeq	r0, r0, sl, asr pc
    2668:	07111803 	ldreq	r1, [r1, -r3, lsl #16]
    266c:	00000f70 	andeq	r0, r0, r0, ror pc
    2670:	141b0304 	ldrne	r0, [fp], #-772	; 0xfffffcfc
    2674:	6c8e0605 	stcvs	6, cr0, [lr], {5}
    2678:	07040000 	streq	r0, [r4, -r0]
    267c:	0000100a 	andeq	r1, r0, sl
    2680:	103e0704 	eorsne	r0, lr, r4, lsl #14
    2684:	22030000 	andcs	r0, r3, #0
    2688:	104e0715 	subne	r0, lr, r5, lsl r7
    268c:	07040000 	streq	r0, [r4, -r0]
    2690:	000010a6 	andeq	r1, r0, r6, lsr #1
    2694:	1603ba03 	strne	fp, [r3], -r3, lsl #20
    2698:	00113407 	andseq	r3, r1, r7, lsl #8
    269c:	50070400 	andpl	r0, r7, r0, lsl #8
    26a0:	04000011 	streq	r0, [r0], #-17	; 0xffffffef
    26a4:	05171303 	ldreq	r1, [r7, #-771]	; 0xfffffcfd
    26a8:	00a4fc2b 	adceq	pc, r4, fp, lsr #24
    26ac:	112f0300 			; <UNDEFINED> instruction: 0x112f0300
    26b0:	12c70704 	sbcne	r0, r7, #4, 14	; 0x100000
    26b4:	03040000 	movweq	r0, #16384	; 0x4000
    26b8:	02051814 	andeq	r1, r5, #20, 16	; 0x140000
    26bc:	00002e65 	andeq	r2, r0, r5, ror #28
    26c0:	19160304 	ldmdbne	r6, {r2, r8, r9}
    26c4:	00163007 	andseq	r3, r6, r7
    26c8:	46070400 	strmi	r0, [r7], -r0, lsl #8
    26cc:	04000016 	streq	r0, [r0], #-22	; 0xffffffea
    26d0:	0019bb07 	andseq	fp, r9, r7, lsl #22
    26d4:	bc070400 	cfstrslt	mvf0, [r7], {-0}
    26d8:	04000024 	streq	r0, [r0], #-36	; 0xffffffdc
    26dc:	05051503 	streq	r1, [r5, #-1283]	; 0xfffffafd
    26e0:	00acdd09 	adceq	sp, ip, r9, lsl #26
    26e4:	0b0c0300 	bleq	3032ec <_Min_Stack_Size+0x302eec>
    26e8:	21490704 	cmpcs	r9, r4, lsl #14
    26ec:	04040000 	streq	r0, [r4], #-0
    26f0:	00000400 	andeq	r0, r0, r0, lsl #8
    26f4:	17fb2105 	ldrbne	r2, [fp, r5, lsl #2]!
    26f8:	28050000 	stmdacs	r5, {}	; <UNPREDICTABLE>
    26fc:	00008a7f 	andeq	r8, r0, pc, ror sl
    2700:	ec018306 	stc	3, cr8, [r1], {6}
    2704:	0500009a 	streq	r0, [r0, #-154]	; 0xffffff66
    2708:	4c040184 	stfmis	f0, [r4], {132}	; 0x84
    270c:	88060000 	stmdahi	r6, {}	; <UNPREDICTABLE>
    2710:	0048f601 	subeq	pc, r8, r1, lsl #12
    2714:	01890500 	orreq	r0, r9, r0, lsl #10
    2718:	00009dda 	ldrdeq	r9, [r0], -sl
    271c:	f9018a06 			; <UNDEFINED> instruction: 0xf9018a06
    2720:	050000aa 	streq	r0, [r0, #-170]	; 0xffffff56
    2724:	1f74018b 	svcne	0x0074018b
    2728:	9e060000 	cdpls	0, 0, cr0, cr6, cr0, {0}
    272c:	0043e301 	subeq	lr, r3, r1, lsl #6
    2730:	019f0500 	orrseq	r0, pc, r0, lsl #10
    2734:	00006162 	andeq	r6, r0, r2, ror #2
    2738:	5e01f705 	cdppl	7, 0, cr15, cr1, cr5, {0}
    273c:	0500006d 	streq	r0, [r0, #-109]	; 0xffffff93
    2740:	5ef101fd 	mrcpl	1, 7, r0, cr1, cr13, {7}
    2744:	85050000 	strhi	r0, [r5, #-0]
    2748:	007b4f02 	rsbseq	r4, fp, r2, lsl #30
    274c:	028a0500 	addeq	r0, sl, #0, 10
    2750:	00006fc9 	andeq	r6, r0, r9, asr #31
    2754:	03029505 	movweq	r9, #9477	; 0x2505
    2758:	05000022 	streq	r0, [r0, #-34]	; 0xffffffde
    275c:	766e0299 			; <UNDEFINED> instruction: 0x766e0299
    2760:	9f050000 	svcls	0x00050000
    2764:	00075c02 	andeq	r5, r7, r2, lsl #24
    2768:	02af0500 	adceq	r0, pc, #0, 10
    276c:	000000be 	strheq	r0, [r0], -lr
    2770:	ee02bf05 	cdp	15, 0, cr11, cr2, cr5, {0}
    2774:	05000094 	streq	r0, [r0, #-148]	; 0xffffff6c
    2778:	948102cb 	strls	r0, [r1], #715	; 0x2cb
    277c:	04000000 	streq	r0, [r0], #-0
    2780:	0f050000 	svceq	0x00050000
    2784:	0000618f 	andeq	r6, r0, pc, lsl #3
    2788:	7eb21a05 	vmovvc.f32	s2, #37	; 0x41280000  10.5
    278c:	21050000 	mrscs	r0, (UNDEF: 5)
    2790:	00009305 	andeq	r9, r0, r5, lsl #6
    2794:	47f92f05 	ldrbmi	r2, [r9, r5, lsl #30]!
    2798:	3d050000 	stccc	0, cr0, [r5, #-0]
    279c:	00003384 	andeq	r3, r0, r4, lsl #7
    27a0:	5d985305 	ldcpl	3, cr5, [r8, #20]
    27a4:	6d050000 	stcvs	0, cr0, [r5, #-0]
    27a8:	000076d1 	ldrdeq	r7, [r0], -r1
    27ac:	28018c05 	stmdacs	r1, {r0, r2, sl, fp, pc}
    27b0:	0500006a 	streq	r0, [r0, #-106]	; 0xffffff96
    27b4:	1c1301a6 	ldfnes	f0, [r3], {166}	; 0xa6
    27b8:	bc050000 	stclt	0, cr0, [r5], {-0}
    27bc:	00428f01 	subeq	r8, r2, r1, lsl #30
    27c0:	01ce0500 	biceq	r0, lr, r0, lsl #10
    27c4:	00006001 	andeq	r6, r0, r1
    27c8:	cb01f406 	blgt	7f7e8 <_Min_Stack_Size+0x7f3e8>
    27cc:	00000076 	andeq	r0, r0, r6, ror r0
    27d0:	05000004 	streq	r0, [r0, #-4]
    27d4:	0015b507 	andseq	fp, r5, r7, lsl #10
    27d8:	7d1b0500 	cfldr32vc	mvfx0, [fp, #-0]
    27dc:	05000055 	streq	r0, [r0, #-85]	; 0xffffffab
    27e0:	005dbe27 	subseq	fp, sp, r7, lsr #28
    27e4:	472b0500 	strmi	r0, [fp, -r0, lsl #10]!
    27e8:	05000085 	streq	r0, [r0, #-133]	; 0xffffff7b
    27ec:	0024f52e 	eoreq	pc, r4, lr, lsr #10
    27f0:	02e30500 	rsceq	r0, r3, #0, 10
    27f4:	00000e85 	andeq	r0, r0, r5, lsl #29
    27f8:	2002e605 	andcs	lr, r2, r5, lsl #12
    27fc:	05000090 	streq	r0, [r0, #-144]	; 0xffffff70
    2800:	34f902ec 	ldrbtcc	r0, [r9], #748	; 0x2ec
    2804:	ef050000 	svc	0x00050000
    2808:	00aa3c02 	adceq	r3, sl, r2, lsl #24
    280c:	02f20500 	rscseq	r0, r2, #0, 10
    2810:	00001983 	andeq	r1, r0, r3, lsl #19
    2814:	9902f505 	stmdbls	r2, {r0, r2, r8, sl, ip, sp, lr, pc}
    2818:	0500009d 	streq	r0, [r0, #-157]	; 0xffffff63
    281c:	919a02f8 			; <UNDEFINED> instruction: 0x919a02f8
    2820:	91050000 	mrsls	r0, (UNDEF: 5)
    2824:	00606803 	rsbeq	r6, r0, r3, lsl #16
    2828:	039b0500 	orrseq	r0, fp, #0, 10
    282c:	000078e6 	andeq	r7, r0, r6, ror #17
	...

Disassembly of section .debug_line:

00000000 <.debug_line>:
       0:	00000acf 	andeq	r0, r0, pc, asr #21
       4:	06a80003 	strteq	r0, [r8], r3
       8:	01020000 	mrseq	r0, (UNDEF: 2)
       c:	000d0efb 	strdeq	r0, [sp], -fp
      10:	01010101 	tsteq	r1, r1, lsl #2
      14:	01000000 	mrseq	r0, (UNDEF: 0)
      18:	2e010000 	cdpcs	0, 0, cr0, cr1, cr0, {0}
      1c:	434d2f2e 	movtmi	r2, #57134	; 0xdf2e
      20:	5f5f4c41 	svcpl	0x005f4c41
      24:	5c3a4400 	cfldrspl	mvf4, [sl], #-0
      28:	334d5453 	movtcc	r5, #54355	; 0xd453
      2c:	62754332 	rsbsvs	r4, r5, #-939524096	; 0xc8000000
      30:	45444965 	strbmi	r4, [r4, #-2405]	; 0xfffff69b
      34:	312e315f 			; <UNDEFINED> instruction: 0x312e315f
      38:	5c302e33 	ldcpl	14, cr2, [r0], #-204	; 0xffffff34
      3c:	334d5453 	movtcc	r5, #54355	; 0xd453
      40:	62754332 	rsbsvs	r4, r5, #-939524096	; 0xc8000000
      44:	45444965 	strbmi	r4, [r4, #-2405]	; 0xfffff69b
      48:	4d54535c 	ldclmi	3, cr5, [r4, #-368]	; 0xfffffe90
      4c:	75433233 	strbvc	r3, [r3, #-563]	; 0xfffffdcd
      50:	44496562 	strbmi	r6, [r9], #-1378	; 0xfffffa9e
      54:	6c705c45 	ldclvs	12, cr5, [r0], #-276	; 0xfffffeec
      58:	6e696775 	mcrvs	7, 3, r6, cr9, cr5, {3}
      5c:	6f635c73 	svcvs	0x00635c73
      60:	74732e6d 	ldrbtvc	r2, [r3], #-3693	; 0xfffff193
      64:	6d74732e 	ldclvs	3, cr7, [r4, #-184]!	; 0xffffff48
      68:	75633233 	strbvc	r3, [r3, #-563]!	; 0xfffffdcd
      6c:	692e6562 	stmdbvs	lr!, {r1, r5, r6, r8, sl, sp, lr}
      70:	6d2e6564 	cfstr32vs	mvfx6, [lr, #-400]!	; 0xfffffe70
      74:	652e7563 	strvs	r7, [lr, #-1379]!	; 0xfffffa9d
      78:	72657478 	rsbvc	r7, r5, #120, 8	; 0x78000000
      7c:	746c616e 	strbtvc	r6, [ip], #-366	; 0xfffffe92
      80:	736c6f6f 	cmnvc	ip, #444	; 0x1bc
      84:	756e672e 	strbvc	r6, [lr, #-1838]!	; 0xfffff8d2
      88:	6f6f742d 	svcvs	0x006f742d
      8c:	662d736c 	strtvs	r7, [sp], -ip, ror #6
      90:	732d726f 			; <UNDEFINED> instruction: 0x732d726f
      94:	32336d74 	eorscc	r6, r3, #116, 26	; 0x1d00
      98:	2e31312e 	rsfcssp	f3, f1, #0.5
      9c:	65722e33 	ldrbvs	r2, [r2, #-3635]!	; 0xfffff1cd
      a0:	772e316c 	strvc	r3, [lr, -ip, ror #2]!
      a4:	32336e69 	eorscc	r6, r3, #1680	; 0x690
      a8:	312e315f 			; <UNDEFINED> instruction: 0x312e315f
      ac:	322e302e 	eorcc	r3, lr, #46	; 0x2e
      b0:	30333230 	eorscc	r3, r3, r0, lsr r2
      b4:	31333235 	teqcc	r3, r5, lsr r2
      b8:	5c363035 	ldcpl	0, cr3, [r6], #-212	; 0xffffff2c
      bc:	6c6f6f74 	stclvs	15, cr6, [pc], #-464	; fffffef4 <_estack+0xdfffaef4>
      c0:	72615c73 	rsbvc	r5, r1, #29440	; 0x7300
      c4:	6f6e2d6d 	svcvs	0x006e2d6d
      c8:	652d656e 	strvs	r6, [sp, #-1390]!	; 0xfffffa92
      cc:	5c696261 	sfmpl	f6, 2, [r9], #-388	; 0xfffffe7c
      d0:	6c636e69 	stclvs	14, cr6, [r3], #-420	; 0xfffffe5c
      d4:	5c656475 	cfstrdpl	mvd6, [r5], #-468	; 0xfffffe2c
      d8:	6863616d 	stmdavs	r3!, {r0, r2, r3, r5, r6, r8, sp, lr}^
      dc:	00656e69 	rsbeq	r6, r5, r9, ror #28
      e0:	535c3a44 	cmppl	ip, #68, 20	; 0x44000
      e4:	32334d54 	eorscc	r4, r3, #84, 26	; 0x1500
      e8:	65627543 	strbvs	r7, [r2, #-1347]!	; 0xfffffabd
      ec:	5f454449 	svcpl	0x00454449
      f0:	33312e31 	teqcc	r1, #784	; 0x310
      f4:	535c302e 	cmppl	ip, #46	; 0x2e
      f8:	32334d54 	eorscc	r4, r3, #84, 26	; 0x1500
      fc:	65627543 	strbvs	r7, [r2, #-1347]!	; 0xfffffabd
     100:	5c454449 	cfstrdpl	mvd4, [r5], {73}	; 0x49
     104:	334d5453 	movtcc	r5, #54355	; 0xd453
     108:	62754332 	rsbsvs	r4, r5, #-939524096	; 0xc8000000
     10c:	45444965 	strbmi	r4, [r4, #-2405]	; 0xfffff69b
     110:	756c705c 	strbvc	r7, [ip, #-92]!	; 0xffffffa4
     114:	736e6967 	cmnvc	lr, #1687552	; 0x19c000
     118:	6d6f635c 	stclvs	3, cr6, [pc, #-368]!	; ffffffb0 <_estack+0xdfffafb0>
     11c:	2e74732e 	cdpcs	3, 7, cr7, cr4, cr14, {1}
     120:	336d7473 	cmncc	sp, #1929379840	; 0x73000000
     124:	62756332 	rsbsvs	r6, r5, #-939524096	; 0xc8000000
     128:	64692e65 	strbtvs	r2, [r9], #-3685	; 0xfffff19b
     12c:	636d2e65 	cmnvs	sp, #1616	; 0x650
     130:	78652e75 	stmdavc	r5!, {r0, r2, r4, r5, r6, r9, sl, fp, sp}^
     134:	6e726574 	mrcvs	5, 3, r6, cr2, cr4, {3}
     138:	6f746c61 	svcvs	0x00746c61
     13c:	2e736c6f 	cdpcs	12, 7, cr6, cr3, cr15, {3}
     140:	2d756e67 	ldclcs	14, cr6, [r5, #-412]!	; 0xfffffe64
     144:	6c6f6f74 	stclvs	15, cr6, [pc], #-464	; ffffff7c <_estack+0xdfffaf7c>
     148:	6f662d73 	svcvs	0x00662d73
     14c:	74732d72 	ldrbtvc	r2, [r3], #-3442	; 0xfffff28e
     150:	2e32336d 	cdpcs	3, 3, cr3, cr2, cr13, {3}
     154:	332e3131 			; <UNDEFINED> instruction: 0x332e3131
     158:	6c65722e 	sfmvs	f7, 2, [r5], #-184	; 0xffffff48
     15c:	69772e31 	ldmdbvs	r7!, {r0, r4, r5, r9, sl, fp, sp}^
     160:	5f32336e 	svcpl	0x0032336e
     164:	2e312e31 	mrccs	14, 1, r2, cr1, cr1, {1}
     168:	30322e30 	eorscc	r2, r2, r0, lsr lr
     16c:	35303332 	ldrcc	r3, [r0, #-818]!	; 0xfffffcce
     170:	35313332 	ldrcc	r3, [r1, #-818]!	; 0xfffffcce
     174:	745c3630 	ldrbvc	r3, [ip], #-1584	; 0xfffff9d0
     178:	736c6f6f 	cmnvc	ip, #444	; 0x1bc
     17c:	6e69625c 	mcrvs	2, 3, r6, cr9, cr12, {2}
     180:	2f2e2e2f 	svccs	0x002e2e2f
     184:	2f62696c 	svccs	0x0062696c
     188:	2f636367 	svccs	0x00636367
     18c:	2d6d7261 	sfmcs	f7, 2, [sp, #-388]!	; 0xfffffe7c
     190:	656e6f6e 	strbvs	r6, [lr, #-3950]!	; 0xfffff092
     194:	6261652d 	rsbvs	r6, r1, #188743680	; 0xb400000
     198:	31312f69 	teqcc	r1, r9, ror #30
     19c:	312e332e 			; <UNDEFINED> instruction: 0x312e332e
     1a0:	2f2e2e2f 	svccs	0x002e2e2f
     1a4:	2e2f2e2e 	cdpcs	14, 2, cr2, cr15, cr14, {1}
     1a8:	2e2e2f2e 	cdpcs	15, 2, cr2, cr14, cr14, {1}
     1ac:	6d72612f 	ldfvse	f6, [r2, #-188]!	; 0xffffff44
     1b0:	6e6f6e2d 	cdpvs	14, 6, cr6, cr15, cr13, {1}
     1b4:	61652d65 	cmnvs	r5, r5, ror #26
     1b8:	692f6962 	stmdbvs	pc!, {r1, r5, r6, r8, fp, sp, lr}	; <UNPREDICTABLE>
     1bc:	756c636e 	strbvc	r6, [ip, #-878]!	; 0xfffffc92
     1c0:	732f6564 			; <UNDEFINED> instruction: 0x732f6564
     1c4:	44007379 	strmi	r7, [r0], #-889	; 0xfffffc87
     1c8:	736b2f3a 	cmnvc	fp, #58, 30	; 0xe8
     1cc:	626d6520 	rsbvs	r6, sp, #32, 10	; 0x8000000
     1d0:	65646465 	strbvs	r6, [r4, #-1125]!	; 0xfffffb9b
     1d4:	79732064 	ldmdbvc	r3!, {r2, r5, r6, sp}^
     1d8:	6d657473 	cfstrdvs	mvd7, [r5, #-460]!	; 0xfffffe34
     1dc:	73736120 	cmnvc	r3, #32, 2
     1e0:	6d72612f 	ldfvse	f6, [r2, #-188]!	; 0xffffff44
     1e4:	63726120 	cmnvs	r2, #32, 2
     1e8:	65746968 	ldrbvs	r6, [r4, #-2408]!	; 0xfffff698
     1ec:	72757463 	rsbsvc	r7, r5, #1660944384	; 0x63000000
     1f0:	6e752065 	cdpvs	0, 7, cr2, cr5, cr5, {3}
     1f4:	31207469 			; <UNDEFINED> instruction: 0x31207469
     1f8:	656c2f34 	strbvs	r2, [ip, #-3892]!	; 0xfffff0cc
     1fc:	6e6f7373 	mcrvs	3, 3, r7, cr15, cr3, {3}
     200:	616c2033 	cmnvs	ip, r3, lsr r0
     204:	632f7362 			; <UNDEFINED> instruction: 0x632f7362
     208:	2f65646f 	svccs	0x0065646f
     20c:	4c41434d 	mcrrmi	3, 4, r4, r1, cr13
     210:	692f5f5f 	stmdbvs	pc!, {r0, r1, r2, r3, r4, r6, r8, r9, sl, fp, ip, lr}	; <UNPREDICTABLE>
     214:	4400636e 	strmi	r6, [r0], #-878	; 0xfffffc92
     218:	54535c3a 	ldrbpl	r5, [r3], #-3130	; 0xfffff3c6
     21c:	4332334d 	teqmi	r2, #872415233	; 0x34000001
     220:	49656275 	stmdbmi	r5!, {r0, r2, r4, r5, r6, r9, sp, lr}^
     224:	315f4544 	cmpcc	pc, r4, asr #10
     228:	2e33312e 	rsfcssp	f3, f3, #0.5
     22c:	54535c30 	ldrbpl	r5, [r3], #-3120	; 0xfffff3d0
     230:	4332334d 	teqmi	r2, #872415233	; 0x34000001
     234:	49656275 	stmdbmi	r5!, {r0, r2, r4, r5, r6, r9, sp, lr}^
     238:	535c4544 	cmppl	ip, #68, 10	; 0x11000000
     23c:	32334d54 	eorscc	r4, r3, #84, 26	; 0x1500
     240:	65627543 	strbvs	r7, [r2, #-1347]!	; 0xfffffabd
     244:	5c454449 	cfstrdpl	mvd4, [r5], {73}	; 0x49
     248:	67756c70 			; <UNDEFINED> instruction: 0x67756c70
     24c:	5c736e69 	ldclpl	14, cr6, [r3], #-420	; 0xfffffe5c
     250:	2e6d6f63 	cdpcs	15, 6, cr6, cr13, cr3, {3}
     254:	732e7473 			; <UNDEFINED> instruction: 0x732e7473
     258:	32336d74 	eorscc	r6, r3, #116, 26	; 0x1d00
     25c:	65627563 	strbvs	r7, [r2, #-1379]!	; 0xfffffa9d
     260:	6564692e 	strbvs	r6, [r4, #-2350]!	; 0xfffff6d2
     264:	75636d2e 	strbvc	r6, [r3, #-3374]!	; 0xfffff2d2
     268:	7478652e 	ldrbtvc	r6, [r8], #-1326	; 0xfffffad2
     26c:	616e7265 	cmnvs	lr, r5, ror #4
     270:	6f6f746c 	svcvs	0x006f746c
     274:	672e736c 	strvs	r7, [lr, -ip, ror #6]!
     278:	742d756e 	strtvc	r7, [sp], #-1390	; 0xfffffa92
     27c:	736c6f6f 	cmnvc	ip, #444	; 0x1bc
     280:	726f662d 	rsbvc	r6, pc, #47185920	; 0x2d00000
     284:	6d74732d 	ldclvs	3, cr7, [r4, #-180]!	; 0xffffff4c
     288:	312e3233 			; <UNDEFINED> instruction: 0x312e3233
     28c:	2e332e31 	mrccs	14, 1, r2, cr3, cr1, {1}
     290:	316c6572 	smccc	50770	; 0xc652
     294:	6e69772e 	cdpvs	7, 6, cr7, cr9, cr14, {1}
     298:	315f3233 	cmpcc	pc, r3, lsr r2	; <UNPREDICTABLE>
     29c:	302e312e 	eorcc	r3, lr, lr, lsr #2
     2a0:	3230322e 	eorscc	r3, r0, #-536870910	; 0xe0000002
     2a4:	32353033 	eorscc	r3, r5, #51	; 0x33
     2a8:	30353133 	eorscc	r3, r5, r3, lsr r1
     2ac:	6f745c36 	svcvs	0x00745c36
     2b0:	5c736c6f 	ldclpl	12, cr6, [r3], #-444	; 0xfffffe44
     2b4:	2f6e6962 	svccs	0x006e6962
     2b8:	6c2f2e2e 	stcvs	14, cr2, [pc], #-184	; 208 <_Min_Heap_Size+0x8>
     2bc:	672f6269 	strvs	r6, [pc, -r9, ror #4]!
     2c0:	612f6363 			; <UNDEFINED> instruction: 0x612f6363
     2c4:	6e2d6d72 	mcrvs	13, 1, r6, cr13, cr2, {3}
     2c8:	2d656e6f 	stclcs	14, cr6, [r5, #-444]!	; 0xfffffe44
     2cc:	69626165 	stmdbvs	r2!, {r0, r2, r5, r6, r8, sp, lr}^
     2d0:	2e31312f 	rsfcssp	f3, f1, #10.0
     2d4:	2f312e33 	svccs	0x00312e33
     2d8:	2e2f2e2e 	cdpcs	14, 2, cr2, cr15, cr14, {1}
     2dc:	2e2e2f2e 	cdpcs	15, 2, cr2, cr14, cr14, {1}
     2e0:	2f2e2e2f 	svccs	0x002e2e2f
     2e4:	2d6d7261 	sfmcs	f7, 2, [sp, #-388]!	; 0xfffffe7c
     2e8:	656e6f6e 	strbvs	r6, [lr, #-3950]!	; 0xfffff092
     2ec:	6261652d 	rsbvs	r6, r1, #188743680	; 0xb400000
     2f0:	6e692f69 	cdpvs	15, 6, cr2, cr9, cr9, {3}
     2f4:	64756c63 	ldrbtvs	r6, [r5], #-3171	; 0xfffff39d
     2f8:	3a440065 	bcc	1100494 <_Min_Stack_Size+0x1100094>
     2fc:	4d54535c 	ldclmi	3, cr5, [r4, #-368]	; 0xfffffe90
     300:	75433233 	strbvc	r3, [r3, #-563]	; 0xfffffdcd
     304:	44496562 	strbmi	r6, [r9], #-1378	; 0xfffffa9e
     308:	2e315f45 	cdpcs	15, 3, cr5, cr1, cr5, {2}
     30c:	302e3331 	eorcc	r3, lr, r1, lsr r3
     310:	4d54535c 	ldclmi	3, cr5, [r4, #-368]	; 0xfffffe90
     314:	75433233 	strbvc	r3, [r3, #-563]	; 0xfffffdcd
     318:	44496562 	strbmi	r6, [r9], #-1378	; 0xfffffa9e
     31c:	54535c45 	ldrbpl	r5, [r3], #-3141	; 0xfffff3bb
     320:	4332334d 	teqmi	r2, #872415233	; 0x34000001
     324:	49656275 	stmdbmi	r5!, {r0, r2, r4, r5, r6, r9, sp, lr}^
     328:	705c4544 	subsvc	r4, ip, r4, asr #10
     32c:	6967756c 	stmdbvs	r7!, {r2, r3, r5, r6, r8, sl, ip, sp, lr}^
     330:	635c736e 	cmpvs	ip, #-1207959551	; 0xb8000001
     334:	732e6d6f 			; <UNDEFINED> instruction: 0x732e6d6f
     338:	74732e74 	ldrbtvc	r2, [r3], #-3700	; 0xfffff18c
     33c:	6332336d 	teqvs	r2, #-1275068415	; 0xb4000001
     340:	2e656275 	mcrcs	2, 3, r6, cr5, cr5, {3}
     344:	2e656469 	cdpcs	4, 6, cr6, cr5, cr9, {3}
     348:	2e75636d 	cdpcs	3, 7, cr6, cr5, cr13, {3}
     34c:	65747865 	ldrbvs	r7, [r4, #-2149]!	; 0xfffff79b
     350:	6c616e72 	stclvs	14, cr6, [r1], #-456	; 0xfffffe38
     354:	6c6f6f74 	stclvs	15, cr6, [pc], #-464	; 18c <_Min_Heap_Size-0x74>
     358:	6e672e73 	mcrvs	14, 3, r2, cr7, cr3, {3}
     35c:	6f742d75 	svcvs	0x00742d75
     360:	2d736c6f 	ldclcs	12, cr6, [r3, #-444]!	; 0xfffffe44
     364:	2d726f66 	ldclcs	15, cr6, [r2, #-408]!	; 0xfffffe68
     368:	336d7473 	cmncc	sp, #1929379840	; 0x73000000
     36c:	31312e32 	teqcc	r1, r2, lsr lr
     370:	722e332e 	eorvc	r3, lr, #-1207959552	; 0xb8000000
     374:	2e316c65 	cdpcs	12, 3, cr6, cr1, cr5, {3}
     378:	336e6977 	cmncc	lr, #1949696	; 0x1dc000
     37c:	2e315f32 	mrccs	15, 1, r5, cr1, cr2, {1}
     380:	2e302e31 	mrccs	14, 1, r2, cr0, cr1, {1}
     384:	33323032 	teqcc	r2, #50	; 0x32
     388:	33323530 	teqcc	r2, #48, 10	; 0xc000000
     38c:	36303531 			; <UNDEFINED> instruction: 0x36303531
     390:	6f6f745c 	svcvs	0x006f745c
     394:	625c736c 	subsvs	r7, ip, #108, 6	; 0xb0000001
     398:	2e2f6e69 	cdpcs	14, 2, cr6, cr15, cr9, {3}
     39c:	696c2f2e 	stmdbvs	ip!, {r1, r2, r3, r5, r8, r9, sl, fp, sp}^
     3a0:	63672f62 	cmnvs	r7, #392	; 0x188
     3a4:	72612f63 	rsbvc	r2, r1, #396	; 0x18c
     3a8:	6f6e2d6d 	svcvs	0x006e2d6d
     3ac:	652d656e 	strvs	r6, [sp, #-1390]!	; 0xfffffa92
     3b0:	2f696261 	svccs	0x00696261
     3b4:	332e3131 			; <UNDEFINED> instruction: 0x332e3131
     3b8:	2e2f312e 	sufcsep	f3, f7, #0.5
     3bc:	2e2e2f2e 	cdpcs	15, 2, cr2, cr14, cr14, {1}
     3c0:	2f2e2e2f 	svccs	0x002e2e2f
     3c4:	612f2e2e 			; <UNDEFINED> instruction: 0x612f2e2e
     3c8:	6e2d6d72 	mcrvs	13, 1, r6, cr13, cr2, {3}
     3cc:	2d656e6f 	stclcs	14, cr6, [r5, #-444]!	; 0xfffffe44
     3d0:	69626165 	stmdbvs	r2!, {r0, r2, r5, r6, r8, sp, lr}^
     3d4:	636e692f 	cmnvs	lr, #770048	; 0xbc000
     3d8:	6564756c 	strbvs	r7, [r4, #-1388]!	; 0xfffffa94
     3dc:	63616d2f 	cmnvs	r1, #3008	; 0xbc0
     3e0:	656e6968 	strbvs	r6, [lr, #-2408]!	; 0xfffff698
     3e4:	5c3a4400 	cfldrspl	mvf4, [sl], #-0
     3e8:	334d5453 	movtcc	r5, #54355	; 0xd453
     3ec:	62754332 	rsbsvs	r4, r5, #-939524096	; 0xc8000000
     3f0:	45444965 	strbmi	r4, [r4, #-2405]	; 0xfffff69b
     3f4:	312e315f 			; <UNDEFINED> instruction: 0x312e315f
     3f8:	5c302e33 	ldcpl	14, cr2, [r0], #-204	; 0xffffff34
     3fc:	334d5453 	movtcc	r5, #54355	; 0xd453
     400:	62754332 	rsbsvs	r4, r5, #-939524096	; 0xc8000000
     404:	45444965 	strbmi	r4, [r4, #-2405]	; 0xfffff69b
     408:	4d54535c 	ldclmi	3, cr5, [r4, #-368]	; 0xfffffe90
     40c:	75433233 	strbvc	r3, [r3, #-563]	; 0xfffffdcd
     410:	44496562 	strbmi	r6, [r9], #-1378	; 0xfffffa9e
     414:	6c705c45 	ldclvs	12, cr5, [r0], #-276	; 0xfffffeec
     418:	6e696775 	mcrvs	7, 3, r6, cr9, cr5, {3}
     41c:	6f635c73 	svcvs	0x00635c73
     420:	74732e6d 	ldrbtvc	r2, [r3], #-3693	; 0xfffff193
     424:	6d74732e 	ldclvs	3, cr7, [r4, #-184]!	; 0xffffff48
     428:	75633233 	strbvc	r3, [r3, #-563]!	; 0xfffffdcd
     42c:	692e6562 	stmdbvs	lr!, {r1, r5, r6, r8, sl, sp, lr}
     430:	6d2e6564 	cfstr32vs	mvfx6, [lr, #-400]!	; 0xfffffe70
     434:	652e7563 	strvs	r7, [lr, #-1379]!	; 0xfffffa9d
     438:	72657478 	rsbvc	r7, r5, #120, 8	; 0x78000000
     43c:	746c616e 	strbtvc	r6, [ip], #-366	; 0xfffffe92
     440:	736c6f6f 	cmnvc	ip, #444	; 0x1bc
     444:	756e672e 	strbvc	r6, [lr, #-1838]!	; 0xfffff8d2
     448:	6f6f742d 	svcvs	0x006f742d
     44c:	662d736c 	strtvs	r7, [sp], -ip, ror #6
     450:	732d726f 			; <UNDEFINED> instruction: 0x732d726f
     454:	32336d74 	eorscc	r6, r3, #116, 26	; 0x1d00
     458:	2e31312e 	rsfcssp	f3, f1, #0.5
     45c:	65722e33 	ldrbvs	r2, [r2, #-3635]!	; 0xfffff1cd
     460:	772e316c 	strvc	r3, [lr, -ip, ror #2]!
     464:	32336e69 	eorscc	r6, r3, #1680	; 0x690
     468:	312e315f 			; <UNDEFINED> instruction: 0x312e315f
     46c:	322e302e 	eorcc	r3, lr, #46	; 0x2e
     470:	30333230 	eorscc	r3, r3, r0, lsr r2
     474:	31333235 	teqcc	r3, r5, lsr r2
     478:	5c363035 	ldcpl	0, cr3, [r6], #-212	; 0xffffff2c
     47c:	6c6f6f74 	stclvs	15, cr6, [pc], #-464	; 2b4 <_Min_Heap_Size+0xb4>
     480:	69625c73 	stmdbvs	r2!, {r0, r1, r4, r5, r6, sl, fp, ip, lr}^
     484:	2e2e2f6e 	cdpcs	15, 2, cr2, cr14, cr14, {3}
     488:	6d72612f 	ldfvse	f6, [r2, #-188]!	; 0xffffff44
     48c:	6e6f6e2d 	cdpvs	14, 6, cr6, cr15, cr13, {1}
     490:	61652d65 	cmnvs	r5, r5, ror #26
     494:	692f6962 	stmdbvs	pc!, {r1, r5, r6, r8, fp, sp, lr}	; <UNPREDICTABLE>
     498:	756c636e 	strbvc	r6, [ip, #-878]!	; 0xfffffc92
     49c:	6e2f6564 	cfsh64vs	mvdx6, mvdx15, #52
     4a0:	696c7765 	stmdbvs	ip!, {r0, r2, r5, r6, r8, r9, sl, ip, sp, lr}^
     4a4:	616e2d62 	cmnvs	lr, r2, ror #26
     4a8:	44006f6e 	strmi	r6, [r0], #-3950	; 0xfffff092
     4ac:	54535c3a 	ldrbpl	r5, [r3], #-3130	; 0xfffff3c6
     4b0:	4332334d 	teqmi	r2, #872415233	; 0x34000001
     4b4:	49656275 	stmdbmi	r5!, {r0, r2, r4, r5, r6, r9, sp, lr}^
     4b8:	315f4544 	cmpcc	pc, r4, asr #10
     4bc:	2e33312e 	rsfcssp	f3, f3, #0.5
     4c0:	54535c30 	ldrbpl	r5, [r3], #-3120	; 0xfffff3d0
     4c4:	4332334d 	teqmi	r2, #872415233	; 0x34000001
     4c8:	49656275 	stmdbmi	r5!, {r0, r2, r4, r5, r6, r9, sp, lr}^
     4cc:	535c4544 	cmppl	ip, #68, 10	; 0x11000000
     4d0:	32334d54 	eorscc	r4, r3, #84, 26	; 0x1500
     4d4:	65627543 	strbvs	r7, [r2, #-1347]!	; 0xfffffabd
     4d8:	5c454449 	cfstrdpl	mvd4, [r5], {73}	; 0x49
     4dc:	67756c70 			; <UNDEFINED> instruction: 0x67756c70
     4e0:	5c736e69 	ldclpl	14, cr6, [r3], #-420	; 0xfffffe5c
     4e4:	2e6d6f63 	cdpcs	15, 6, cr6, cr13, cr3, {3}
     4e8:	732e7473 			; <UNDEFINED> instruction: 0x732e7473
     4ec:	32336d74 	eorscc	r6, r3, #116, 26	; 0x1d00
     4f0:	65627563 	strbvs	r7, [r2, #-1379]!	; 0xfffffa9d
     4f4:	6564692e 	strbvs	r6, [r4, #-2350]!	; 0xfffff6d2
     4f8:	75636d2e 	strbvc	r6, [r3, #-3374]!	; 0xfffff2d2
     4fc:	7478652e 	ldrbtvc	r6, [r8], #-1326	; 0xfffffad2
     500:	616e7265 	cmnvs	lr, r5, ror #4
     504:	6f6f746c 	svcvs	0x006f746c
     508:	672e736c 	strvs	r7, [lr, -ip, ror #6]!
     50c:	742d756e 	strtvc	r7, [sp], #-1390	; 0xfffffa92
     510:	736c6f6f 	cmnvc	ip, #444	; 0x1bc
     514:	726f662d 	rsbvc	r6, pc, #47185920	; 0x2d00000
     518:	6d74732d 	ldclvs	3, cr7, [r4, #-180]!	; 0xffffff4c
     51c:	312e3233 			; <UNDEFINED> instruction: 0x312e3233
     520:	2e332e31 	mrccs	14, 1, r2, cr3, cr1, {1}
     524:	316c6572 	smccc	50770	; 0xc652
     528:	6e69772e 	cdpvs	7, 6, cr7, cr9, cr14, {1}
     52c:	315f3233 	cmpcc	pc, r3, lsr r2	; <UNPREDICTABLE>
     530:	302e312e 	eorcc	r3, lr, lr, lsr #2
     534:	3230322e 	eorscc	r3, r0, #-536870910	; 0xe0000002
     538:	32353033 	eorscc	r3, r5, #51	; 0x33
     53c:	30353133 	eorscc	r3, r5, r3, lsr r1
     540:	6f745c36 	svcvs	0x00745c36
     544:	5c736c6f 	ldclpl	12, cr6, [r3], #-444	; 0xfffffe44
     548:	2f6e6962 	svccs	0x006e6962
     54c:	6c2f2e2e 	stcvs	14, cr2, [pc], #-184	; 49c <_Min_Stack_Size+0x9c>
     550:	672f6269 	strvs	r6, [pc, -r9, ror #4]!
     554:	612f6363 			; <UNDEFINED> instruction: 0x612f6363
     558:	6e2d6d72 	mcrvs	13, 1, r6, cr13, cr2, {3}
     55c:	2d656e6f 	stclcs	14, cr6, [r5, #-444]!	; 0xfffffe44
     560:	69626165 	stmdbvs	r2!, {r0, r2, r5, r6, r8, sp, lr}^
     564:	2e31312f 	rsfcssp	f3, f1, #10.0
     568:	2f312e33 	svccs	0x00312e33
     56c:	6c636e69 	stclvs	14, cr6, [r3], #-420	; 0xfffffe5c
     570:	00656475 	rsbeq	r6, r5, r5, ror r4
     574:	54584500 	ldrbpl	r4, [r8], #-1280	; 0xfffffb00
     578:	00632e49 	rsbeq	r2, r3, r9, asr #28
     57c:	5f000001 	svcpl	0x00000001
     580:	61666564 	cmnvs	r6, r4, ror #10
     584:	5f746c75 	svcpl	0x00746c75
     588:	65707974 	ldrbvs	r7, [r0, #-2420]!	; 0xfffff68c
     58c:	00682e73 	rsbeq	r2, r8, r3, ror lr
     590:	5f000002 	svcpl	0x00000002
     594:	69647473 	stmdbvs	r4!, {r0, r1, r4, r5, r6, sl, ip, sp, lr}^
     598:	682e746e 	stmdavs	lr!, {r1, r2, r3, r5, r6, sl, ip, sp, lr}
     59c:	00000300 	andeq	r0, r0, r0, lsl #6
     5a0:	336d7473 	cmncc	sp, #1929379840	; 0x73000000
     5a4:	30316632 	eorscc	r6, r1, r2, lsr r6
     5a8:	78787833 	ldmdavc	r8!, {r0, r1, r4, r5, fp, ip, sp, lr}^
     5ac:	0400682e 	streq	r6, [r0], #-2094	; 0xfffff7d2
     5b0:	50470000 	subpl	r0, r7, r0
     5b4:	682e4f49 	stmdavs	lr!, {r0, r3, r6, r8, r9, sl, fp, lr}
     5b8:	00000400 	andeq	r0, r0, r0, lsl #8
     5bc:	49545845 	ldmdbmi	r4, {r0, r2, r6, fp, ip, lr}^
     5c0:	0400682e 	streq	r6, [r0], #-2094	; 0xfffff7d2
     5c4:	74730000 	ldrbtvc	r0, [r3], #-0
     5c8:	62696c64 	rsbvs	r6, r9, #100, 24	; 0x6400
     5cc:	0500682e 	streq	r6, [r0, #-2094]	; 0xfffff7d2
     5d0:	65690000 	strbvs	r0, [r9, #-0]!
     5d4:	70666565 	rsbvc	r6, r6, r5, ror #10
     5d8:	0600682e 	streq	r6, [r0], -lr, lsr #16
     5dc:	615f0000 	cmpvs	pc, r0
     5e0:	2e69736e 	cdpcs	3, 6, cr7, cr9, cr14, {3}
     5e4:	00050068 	andeq	r0, r5, r8, rrx
     5e8:	77656e00 	strbvc	r6, [r5, -r0, lsl #28]!
     5ec:	2e62696c 	vnmulcs.f16	s13, s4, s25	; <UNPREDICTABLE>
     5f0:	00070068 	andeq	r0, r7, r8, rrx
     5f4:	656e5f00 	strbvs	r5, [lr, #-3840]!	; 0xfffff100
     5f8:	62696c77 	rsbvs	r6, r9, #30464	; 0x7700
     5fc:	7265765f 	rsbvc	r7, r5, #99614720	; 0x5f00000
     600:	6e6f6973 			; <UNDEFINED> instruction: 0x6e6f6973
     604:	0500682e 	streq	r6, [r0, #-2094]	; 0xfffff7d2
     608:	6f630000 	svcvs	0x00630000
     60c:	6769666e 	strbvs	r6, [r9, -lr, ror #12]!
     610:	0300682e 	movweq	r6, #2094	; 0x82e
     614:	65660000 	strbvs	r0, [r6, #-0]!
     618:	72757461 	rsbsvc	r7, r5, #1627389952	; 0x61000000
     61c:	682e7365 	stmdavs	lr!, {r0, r2, r5, r6, r8, r9, ip, sp, lr}
     620:	00000300 	andeq	r0, r0, r0, lsl #6
     624:	64647473 	strbtvs	r7, [r4], #-1139	; 0xfffffb8d
     628:	682e6665 	stmdavs	lr!, {r0, r2, r5, r6, r9, sl, sp, lr}
     62c:	00000800 	andeq	r0, r0, r0, lsl #16
     630:	6e656572 	mcrvs	5, 3, r6, cr5, cr2, {3}
     634:	00682e74 	rsbeq	r2, r8, r4, ror lr
     638:	5f000003 	svcpl	0x00000003
     63c:	65707974 	ldrbvs	r7, [r0, #-2420]!	; 0xfffff68c
     640:	00682e73 	rsbeq	r2, r8, r3, ror lr
     644:	5f000003 	svcpl	0x00000003
     648:	65707974 	ldrbvs	r7, [r0, #-2420]!	; 0xfffff68c
     64c:	00682e73 	rsbeq	r2, r8, r3, ror lr
     650:	6c000006 	stcvs	0, cr0, [r0], {6}
     654:	2e6b636f 	cdpcs	3, 6, cr6, cr11, cr15, {3}
     658:	00030068 	andeq	r0, r3, r8, rrx
     65c:	73736100 	cmnvc	r3, #0, 2
     660:	2e747265 	cdpcs	2, 7, cr7, cr4, cr5, {3}
     664:	00050068 	andeq	r0, r5, r8, rrx
     668:	65646300 	strbvs	r6, [r4, #-768]!	; 0xfffffd00
     66c:	682e7366 	stmdavs	lr!, {r1, r2, r5, r6, r8, r9, ip, sp, lr}
     670:	00000300 	andeq	r0, r0, r0, lsl #6
     674:	6c647473 	cfstrdvs	mvd7, [r4], #-460	; 0xfffffe34
     678:	682e6269 	stmdavs	lr!, {r0, r3, r5, r6, r9, sp, lr}
     67c:	00000600 	andeq	r0, r0, r0, lsl #12
     680:	6f6c6c61 	svcvs	0x006c6c61
     684:	682e6163 	stmdavs	lr!, {r0, r1, r5, r6, r8, sp, lr}
     688:	00000500 	andeq	r0, r0, r0, lsl #10
     68c:	69647473 	stmdbvs	r4!, {r0, r1, r4, r5, r6, sl, ip, sp, lr}^
     690:	682e746e 	stmdavs	lr!, {r1, r2, r3, r5, r6, sl, ip, sp, lr}
     694:	00000800 	andeq	r0, r0, r0, lsl #16
     698:	69647473 	stmdbvs	r4!, {r0, r1, r4, r5, r6, sl, ip, sp, lr}^
     69c:	682e746e 	stmdavs	lr!, {r1, r2, r3, r5, r6, sl, ip, sp, lr}
     6a0:	00000500 	andeq	r0, r0, r0, lsl #10
     6a4:	746e695f 	strbtvc	r6, [lr], #-2399	; 0xfffff6a1
     6a8:	2e707573 	mrccs	5, 3, r7, cr0, cr3, {3}
     6ac:	00030068 	andeq	r0, r3, r8, rrx
     6b0:	01050000 	mrseq	r0, (UNDEF: 5)
     6b4:	70020500 	andvc	r0, r2, r0, lsl #10
     6b8:	03080001 	movweq	r0, #32769	; 0x8001
     6bc:	02050125 	andeq	r0, r5, #1073741833	; 0x40000009
     6c0:	02030559 	andeq	r0, r3, #373293056	; 0x16400000
     6c4:	22671527 	rsbcs	r1, r7, #163577856	; 0x9c00000
     6c8:	22672267 	rsbcs	r2, r7, #1879048198	; 0x70000006
     6cc:	26672267 	strbtcs	r2, [r7], -r7, ror #4
     6d0:	05672867 	strbeq	r2, [r7, #-2151]!	; 0xfffff799
     6d4:	09022301 	stmdbeq	r2, {r0, r8, r9, sp}
     6d8:	05010100 	streq	r0, [r1, #-256]	; 0xffffff00
     6dc:	02050001 	andeq	r0, r5, #1
     6e0:	0800023c 	stmdaeq	r0, {r2, r3, r4, r5, r9}
     6e4:	0100cc03 	tsteq	r0, r3, lsl #24
     6e8:	05590205 	ldrbeq	r0, [r9, #-517]	; 0xfffffdfb
     6ec:	15270204 	strne	r0, [r7, #-516]!	; 0xfffffdfc
     6f0:	22672267 	rsbcs	r2, r7, #1879048198	; 0x70000006
     6f4:	22672267 	rsbcs	r2, r7, #1879048198	; 0x70000006
     6f8:	28672667 	stmdacs	r7!, {r0, r1, r2, r5, r6, r9, sl, sp}^
     6fc:	24010567 	strcs	r0, [r1], #-1383	; 0xfffffa99
     700:	01000902 	tsteq	r0, r2, lsl #18
     704:	00010501 	andeq	r0, r1, r1, lsl #10
     708:	03080205 	movweq	r0, #33285	; 0x8205
     70c:	f7030800 			; <UNDEFINED> instruction: 0xf7030800
     710:	2f050100 	svccs	0x00050100
     714:	2e18054f 	cfmac32cs	mvfx0, mvfx8, mvfx15
     718:	05211305 	streq	r1, [r1, #-773]!	; 0xfffffcfb
     71c:	34052f02 	strcc	r2, [r5], #-3842	; 0xfffff0fe
     720:	2e0b0587 	cfsh32cs	mvfx0, mvfx11, #-57
     724:	053e3605 	ldreq	r3, [lr, #-1541]!	; 0xfffff9fb
     728:	23052e0a 	movwcs	r2, #24074	; 0x5e0a
     72c:	582c0569 	stmdapl	ip!, {r0, r3, r5, r6, r8, sl}
     730:	054a2605 	strbeq	r2, [sl, #-1541]	; 0xfffff9fb
     734:	05682e23 	strbeq	r2, [r8, #-3619]!	; 0xfffff1dd
     738:	60055828 	andvs	r5, r5, r8, lsr #16
     73c:	0028052e 	eoreq	r0, r8, lr, lsr #10
     740:	3c010402 	cfstrscc	mvf0, [r1], {2}
     744:	02006005 	andeq	r6, r0, #5
     748:	052e0104 	streq	r0, [lr, #-260]!	; 0xfffffefc
     74c:	04020028 	streq	r0, [r2], #-40	; 0xffffffd8
     750:	60053c03 	andvs	r3, r5, r3, lsl #24
     754:	03040200 	movweq	r0, #16896	; 0x4200
     758:	0028052e 	eoreq	r0, r8, lr, lsr #10
     75c:	3c050402 	cfstrscc	mvf0, [r5], {2}
     760:	02006005 	andeq	r6, r0, #5
     764:	002e0504 	eoreq	r0, lr, r4, lsl #10
     768:	06070402 	streq	r0, [r7], -r2, lsl #8
     76c:	0402003c 	streq	r0, [r2], #-60	; 0xffffffc4
     770:	02002e08 	andeq	r2, r0, #8, 28	; 0x80
     774:	002e0604 	eoreq	r0, lr, r4, lsl #12
     778:	2e040402 	cdpcs	4, 0, cr0, cr4, cr2, {0}
     77c:	02040200 	andeq	r0, r4, #0, 4
     780:	0066052e 	rsbeq	r0, r6, lr, lsr #10
     784:	06100402 	ldreq	r0, [r0], -r2, lsl #8
     788:	00230520 	eoreq	r0, r3, r0, lsr #10
     78c:	3c100402 	cfldrscc	mvf0, [r0], {2}
     790:	02000d05 	andeq	r0, r0, #320	; 0x140
     794:	056b1004 	strbeq	r1, [fp, #-4]!
     798:	0402002b 	streq	r0, [r2], #-43	; 0xffffffd5
     79c:	13052e10 	movwne	r2, #24080	; 0x5e10
     7a0:	10040200 	andne	r0, r4, r0, lsl #4
     7a4:	0010053c 	andseq	r0, r0, ip, lsr r5
     7a8:	2e100402 	cfmulscs	mvf0, mvf0, mvf2
     7ac:	02000d05 	andeq	r0, r0, #320	; 0x140
     7b0:	002e1004 	eoreq	r1, lr, r4
     7b4:	3d100402 	cfldrscc	mvf0, [r0, #-8]
     7b8:	02002b05 	andeq	r2, r0, #5120	; 0x1400
     7bc:	052e1004 	streq	r1, [lr, #-4]!
     7c0:	04020013 	streq	r0, [r2], #-19	; 0xffffffed
     7c4:	10053c10 	andne	r3, r5, r0, lsl ip
     7c8:	10040200 	andne	r0, r4, r0, lsl #4
     7cc:	000d052e 	andeq	r0, sp, lr, lsr #10
     7d0:	2e100402 	cfmulscs	mvf0, mvf0, mvf2
     7d4:	02001105 	andeq	r1, r0, #1073741825	; 0x40000001
     7d8:	053e1004 	ldreq	r1, [lr, #-4]!
     7dc:	04020005 	streq	r0, [r2], #-5
     7e0:	0e052e10 	mcreq	14, 0, r2, cr5, cr0, {0}
     7e4:	2e2c0530 	mcrcs	5, 1, r0, cr12, cr0, {1}
     7e8:	053c1405 	ldreq	r1, [ip, #-1029]!	; 0xfffffbfb
     7ec:	18053c0e 	stmdane	r5, {r1, r2, r3, sl, fp, ip, sp}
     7f0:	2e0c054c 	cfsh32cs	mvfx0, mvfx12, #44
     7f4:	05300e05 	ldreq	r0, [r0, #-3589]!	; 0xfffff1fb
     7f8:	13052e2b 	movwne	r2, #24107	; 0x5e2b
     7fc:	3c0e053c 	cfstr32cc	mvfx0, [lr], {60}	; 0x3c
     800:	054d1805 	strbeq	r1, [sp, #-2053]	; 0xfffff7fb
     804:	0e052e0c 	cdpeq	14, 0, cr2, cr5, cr12, {0}
     808:	2e2c0530 	mcrcs	5, 1, r0, cr12, cr0, {1}
     80c:	053c1405 	ldreq	r1, [ip, #-1029]!	; 0xfffffbfb
     810:	053d3c0e 	ldreq	r3, [sp, #-3086]!	; 0xfffff3f2
     814:	13052e2b 	movwne	r2, #24107	; 0x5e2b
     818:	3c0e053c 	cfstr32cc	mvfx0, [lr], {60}	; 0x3c
     81c:	05422705 	strbeq	r2, [r2, #-1797]	; 0xfffff8fb
     820:	3d053c4a 	stccc	12, cr3, [r5, #-296]	; 0xfffffed8
     824:	4011052e 	andsmi	r0, r1, lr, lsr #10
     828:	052e0505 	streq	r0, [lr, #-1285]!	; 0xfffffafb
     82c:	2a05300d 	bcs	14c868 <_Min_Stack_Size+0x14c468>
     830:	3c12052e 	cfldr32cc	mvfx0, [r2], {46}	; 0x2e
     834:	053c0d05 	ldreq	r0, [ip, #-3333]!	; 0xfffff2fb
     838:	01053d03 	tsteq	r5, r3, lsl #26
     83c:	1d0d055e 	cfstr32ne	mvfx0, [sp, #-376]	; 0xfffffe88
     840:	052e2b05 	streq	r2, [lr, #-2821]!	; 0xfffff4fb
     844:	10053c13 	andne	r3, r5, r3, lsl ip
     848:	2e0d052e 	cfsh32cs	mvfx0, mvfx13, #30
     84c:	053d0305 	ldreq	r0, [sp, #-773]!	; 0xfffffcfb
     850:	12025a01 	andne	r5, r2, #4096	; 0x1000
     854:	05010100 	streq	r0, [r1, #-256]	; 0xffffff00
     858:	02050001 	andeq	r0, r5, #1
     85c:	00000000 	andeq	r0, r0, r0
     860:	0101c103 	tsteq	r1, r3, lsl #2
     864:	052f0605 	streq	r0, [pc, #-1541]!	; 267 <_Min_Heap_Size+0x67>
     868:	0605200c 	streq	r2, [r5], -ip
     86c:	200c052f 	andcs	r0, ip, pc, lsr #10
     870:	05300605 	ldreq	r0, [r0, #-1541]!	; 0xfffff9fb
     874:	0605200d 	streq	r2, [r5], -sp
     878:	200d0530 	andcs	r0, sp, r0, lsr r5
     87c:	052f0605 	streq	r0, [pc, #-1541]!	; 27f <_Min_Heap_Size+0x7f>
     880:	0605200e 	streq	r2, [r5], -lr
     884:	200c0531 	andcs	r0, ip, r1, lsr r5
     888:	673f0205 	ldrvs	r0, [pc, -r5, lsl #4]!
     88c:	67676767 	strbvs	r6, [r7, -r7, ror #14]!
     890:	68010567 	stmdavs	r1, {r0, r1, r2, r5, r6, r8, sl}
     894:	01000b02 	tsteq	r0, r2, lsl #22
     898:	00010501 	andeq	r0, r1, r1, lsl #10
     89c:	04e00205 	strbteq	r0, [r0], #517	; 0x205
     8a0:	e3030800 	movw	r0, #14336	; 0x3800
     8a4:	02050101 	andeq	r0, r5, #1073741824	; 0x40000000
     8a8:	3d01054b 	cfstr32cc	mvfx0, [r1, #-300]	; 0xfffffed4
     8ac:	01000402 	tsteq	r0, r2, lsl #8
     8b0:	00010501 	andeq	r0, r1, r1, lsl #10
     8b4:	00000205 	andeq	r0, r0, r5, lsl #4
     8b8:	f1030000 			; <UNDEFINED> instruction: 0xf1030000
     8bc:	02050101 	andeq	r0, r5, #1073741824	; 0x40000000
     8c0:	3e01054b 	cfsh32cc	mvfx0, mvfx1, #43
     8c4:	01000402 	tsteq	r0, r2, lsl #8
     8c8:	00010501 	andeq	r0, r1, r1, lsl #10
     8cc:	04f80205 	ldrbteq	r0, [r8], #517	; 0x205
     8d0:	80030800 	andhi	r0, r3, r0, lsl #16
     8d4:	0b050102 	bleq	140ce4 <_Min_Stack_Size+0x1408e4>
     8d8:	68110530 	ldmdavs	r1, {r4, r5, r8, sl}
     8dc:	052e0205 	streq	r0, [lr, #-517]!	; 0xfffffdfb
     8e0:	07022101 	streq	r2, [r2, -r1, lsl #2]
     8e4:	05010100 	streq	r0, [r1, #-256]	; 0xffffff00
     8e8:	0205001e 	andeq	r0, r5, #30
     8ec:	0800051c 	stmdaeq	r0, {r2, r3, r4, r8, sl}
     8f0:	01028703 	tsteq	r2, r3, lsl #14
     8f4:	052f0b05 	streq	r0, [pc, #-2821]!	; fffffdf7 <_estack+0xdfffadf7>
     8f8:	02056811 	andeq	r6, r5, #1114112	; 0x110000
     8fc:	2019052e 	andscs	r0, r9, lr, lsr #10
     900:	01000702 	tsteq	r0, r2, lsl #14
     904:	001e0501 	andseq	r0, lr, r1, lsl #10
     908:	05400205 	strbeq	r0, [r0, #-517]	; 0xfffffdfb
     90c:	8d030800 	stchi	8, cr0, [r3, #-0]
     910:	0b050102 	bleq	140d20 <_Min_Stack_Size+0x140920>
     914:	6811052f 	ldmdavs	r1, {r0, r1, r2, r3, r5, r8, sl}
     918:	052e0205 	streq	r0, [lr, #-517]!	; 0xfffffdfb
     91c:	07022019 	smladeq	r2, r9, r0, r2
     920:	05010100 	streq	r0, [r1, #-256]	; 0xffffff00
     924:	0205001e 	andeq	r0, r5, #30
     928:	08000564 	stmdaeq	r0, {r2, r5, r6, r8, sl}
     92c:	01029303 	tsteq	r2, r3, lsl #6
     930:	052f0b05 	streq	r0, [pc, #-2821]!	; fffffe33 <_estack+0xdfffae33>
     934:	02056811 	andeq	r6, r5, #1114112	; 0x110000
     938:	2019052e 	andscs	r0, r9, lr, lsr #10
     93c:	01000702 	tsteq	r0, r2, lsl #14
     940:	001e0501 	andseq	r0, lr, r1, lsl #10
     944:	05880205 	streq	r0, [r8, #517]	; 0x205
     948:	99030800 	stmdbls	r3, {fp}
     94c:	0b050102 	bleq	140d5c <_Min_Stack_Size+0x14095c>
     950:	6711052f 	ldrvs	r0, [r1, -pc, lsr #10]
     954:	052e0205 	streq	r0, [lr, #-517]!	; 0xfffffdfb
     958:	07022019 	smladeq	r2, r9, r0, r2
     95c:	05010100 	streq	r0, [r1, #-256]	; 0xffffff00
     960:	02050001 	andeq	r0, r5, #1
     964:	080005ac 	stmdaeq	r0, {r2, r3, r5, r7, r8, sl}
     968:	01029f03 	tsteq	r2, r3, lsl #30
     96c:	052f0a05 	streq	r0, [pc, #-2565]!	; ffffff6f <_estack+0xdfffaf6f>
     970:	05052e0f 	streq	r2, [r5, #-3599]	; 0xfffff1f1
     974:	0023052e 	eoreq	r0, r3, lr, lsr #10
     978:	2e010402 	cdpcs	4, 0, cr0, cr1, cr2, {0}
     97c:	02004205 	andeq	r4, r0, #1342177280	; 0x50000000
     980:	05660104 	strbeq	r0, [r6, #-260]!	; 0xfffffefc
     984:	04020033 	streq	r0, [r2], #-51	; 0xffffffcd
     988:	0a052e01 	beq	14c194 <_Min_Stack_Size+0x14bd94>
     98c:	2e0f0521 	cfsh32cs	mvfx0, mvfx15, #17
     990:	052e0505 	streq	r0, [lr, #-1285]!	; 0xfffffafb
     994:	04020023 	streq	r0, [r2], #-35	; 0xffffffdd
     998:	42052e01 	andmi	r2, r5, #1, 28
     99c:	01040200 	mrseq	r0, R12_usr
     9a0:	00330566 	eorseq	r0, r3, r6, ror #10
     9a4:	2e010402 	cdpcs	4, 0, cr0, cr1, cr2, {0}
     9a8:	05210a05 	streq	r0, [r1, #-2565]!	; 0xfffff5fb
     9ac:	05052e0f 	streq	r2, [r5, #-3599]	; 0xfffff1f1
     9b0:	0023052e 	eoreq	r0, r3, lr, lsr #10
     9b4:	2e010402 	cdpcs	4, 0, cr0, cr1, cr2, {0}
     9b8:	02004205 	andeq	r4, r0, #1342177280	; 0x50000000
     9bc:	05660104 	strbeq	r0, [r6, #-260]!	; 0xfffffefc
     9c0:	04020033 	streq	r0, [r2], #-51	; 0xffffffcd
     9c4:	0a052e01 	beq	14c1d0 <_Min_Stack_Size+0x14bdd0>
     9c8:	2e0f0521 	cfsh32cs	mvfx0, mvfx15, #17
     9cc:	052e0505 	streq	r0, [lr, #-1285]!	; 0xfffffafb
     9d0:	04020023 	streq	r0, [r2], #-35	; 0xffffffdd
     9d4:	42052e01 	andmi	r2, r5, #1, 28
     9d8:	01040200 	mrseq	r0, R12_usr
     9dc:	00330566 	eorseq	r0, r3, r6, ror #10
     9e0:	2e010402 	cdpcs	4, 0, cr0, cr1, cr2, {0}
     9e4:	05210a05 	streq	r0, [r1, #-2565]!	; 0xfffff5fb
     9e8:	05052e0f 	streq	r2, [r5, #-3599]	; 0xfffff1f1
     9ec:	0023052e 	eoreq	r0, r3, lr, lsr #10
     9f0:	2e010402 	cdpcs	4, 0, cr0, cr1, cr2, {0}
     9f4:	02004205 	andeq	r4, r0, #1342177280	; 0x50000000
     9f8:	05660104 	strbeq	r0, [r6, #-260]!	; 0xfffffefc
     9fc:	04020033 	streq	r0, [r2], #-51	; 0xffffffcd
     a00:	01052e01 	tsteq	r5, r1, lsl #28
     a04:	00070222 	andeq	r0, r7, r2, lsr #4
     a08:	01050101 	tsteq	r5, r1, lsl #2
     a0c:	54020500 	strpl	r0, [r2], #-1280	; 0xfffffb00
     a10:	03080006 	movweq	r0, #32774	; 0x8006
     a14:	050102a8 	streq	r0, [r1, #-680]	; 0xfffffd58
     a18:	0f052f0a 	svceq	0x00052f0a
     a1c:	2e05052e 	cfsh32cs	mvfx0, mvfx5, #30
     a20:	02002405 	andeq	r2, r0, #83886080	; 0x5000000
     a24:	052e0104 	streq	r0, [lr, #-260]!	; 0xfffffefc
     a28:	04020044 	streq	r0, [r2], #-68	; 0xffffffbc
     a2c:	35056601 	strcc	r6, [r5, #-1537]	; 0xfffff9ff
     a30:	01040200 	mrseq	r0, R12_usr
     a34:	210a052e 	tstcs	sl, lr, lsr #10
     a38:	052e0f05 	streq	r0, [lr, #-3845]!	; 0xfffff0fb
     a3c:	24052e05 	strcs	r2, [r5], #-3589	; 0xfffff1fb
     a40:	01040200 	mrseq	r0, R12_usr
     a44:	0044052e 	subeq	r0, r4, lr, lsr #10
     a48:	66010402 	strvs	r0, [r1], -r2, lsl #8
     a4c:	02003505 	andeq	r3, r0, #20971520	; 0x1400000
     a50:	052e0104 	streq	r0, [lr, #-260]!	; 0xfffffefc
     a54:	0f05210a 	svceq	0x0005210a
     a58:	2e05052e 	cfsh32cs	mvfx0, mvfx5, #30
     a5c:	02002405 	andeq	r2, r0, #83886080	; 0x5000000
     a60:	052e0104 	streq	r0, [lr, #-260]!	; 0xfffffefc
     a64:	04020044 	streq	r0, [r2], #-68	; 0xffffffbc
     a68:	35056601 	strcc	r6, [r5, #-1537]	; 0xfffff9ff
     a6c:	01040200 	mrseq	r0, R12_usr
     a70:	210a052e 	tstcs	sl, lr, lsr #10
     a74:	052e0f05 	streq	r0, [lr, #-3845]!	; 0xfffff0fb
     a78:	24052e05 	strcs	r2, [r5], #-3589	; 0xfffff1fb
     a7c:	01040200 	mrseq	r0, R12_usr
     a80:	0044052e 	subeq	r0, r4, lr, lsr #10
     a84:	66010402 	strvs	r0, [r1], -r2, lsl #8
     a88:	02003505 	andeq	r3, r0, #20971520	; 0x1400000
     a8c:	052e0104 	streq	r0, [lr, #-260]!	; 0xfffffefc
     a90:	0f05210a 	svceq	0x0005210a
     a94:	2e05052e 	cfsh32cs	mvfx0, mvfx5, #30
     a98:	02002405 	andeq	r2, r0, #83886080	; 0x5000000
     a9c:	052e0104 	streq	r0, [lr, #-260]!	; 0xfffffefc
     aa0:	04020044 	streq	r0, [r2], #-68	; 0xffffffbc
     aa4:	35056601 	strcc	r6, [r5, #-1537]	; 0xfffff9ff
     aa8:	01040200 	mrseq	r0, R12_usr
     aac:	210a052e 	tstcs	sl, lr, lsr #10
     ab0:	052e0f05 	streq	r0, [lr, #-3845]!	; 0xfffff0fb
     ab4:	24052e05 	strcs	r2, [r5], #-3589	; 0xfffff1fb
     ab8:	01040200 	mrseq	r0, R12_usr
     abc:	0044052e 	subeq	r0, r4, lr, lsr #10
     ac0:	66010402 	strvs	r0, [r1], -r2, lsl #8
     ac4:	02003505 	andeq	r3, r0, #20971520	; 0x1400000
     ac8:	052e0104 	streq	r0, [lr, #-260]!	; 0xfffffefc
     acc:	06022201 	streq	r2, [r2], -r1, lsl #4
     ad0:	29010100 	stmdbcs	r1, {r8}
     ad4:	03000009 	movweq	r0, #9
     ad8:	00069e00 	andeq	r9, r6, r0, lsl #28
     adc:	fb010200 	blx	412e6 <_Min_Stack_Size+0x40ee6>
     ae0:	01000d0e 	tsteq	r0, lr, lsl #26
     ae4:	00010101 	andeq	r0, r1, r1, lsl #2
     ae8:	00010000 	andeq	r0, r1, r0
     aec:	2e2e0100 	sufcse	f0, f6, f0
     af0:	41434d2f 	cmpmi	r3, pc, lsr #26
     af4:	005f5f4c 	subseq	r5, pc, ip, asr #30
     af8:	535c3a44 	cmppl	ip, #68, 20	; 0x44000
     afc:	32334d54 	eorscc	r4, r3, #84, 26	; 0x1500
     b00:	65627543 	strbvs	r7, [r2, #-1347]!	; 0xfffffabd
     b04:	5f454449 	svcpl	0x00454449
     b08:	33312e31 	teqcc	r1, #784	; 0x310
     b0c:	535c302e 	cmppl	ip, #46	; 0x2e
     b10:	32334d54 	eorscc	r4, r3, #84, 26	; 0x1500
     b14:	65627543 	strbvs	r7, [r2, #-1347]!	; 0xfffffabd
     b18:	5c454449 	cfstrdpl	mvd4, [r5], {73}	; 0x49
     b1c:	334d5453 	movtcc	r5, #54355	; 0xd453
     b20:	62754332 	rsbsvs	r4, r5, #-939524096	; 0xc8000000
     b24:	45444965 	strbmi	r4, [r4, #-2405]	; 0xfffff69b
     b28:	756c705c 	strbvc	r7, [ip, #-92]!	; 0xffffffa4
     b2c:	736e6967 	cmnvc	lr, #1687552	; 0x19c000
     b30:	6d6f635c 	stclvs	3, cr6, [pc, #-368]!	; 9c8 <_Min_Stack_Size+0x5c8>
     b34:	2e74732e 	cdpcs	3, 7, cr7, cr4, cr14, {1}
     b38:	336d7473 	cmncc	sp, #1929379840	; 0x73000000
     b3c:	62756332 	rsbsvs	r6, r5, #-939524096	; 0xc8000000
     b40:	64692e65 	strbtvs	r2, [r9], #-3685	; 0xfffff19b
     b44:	636d2e65 	cmnvs	sp, #1616	; 0x650
     b48:	78652e75 	stmdavc	r5!, {r0, r2, r4, r5, r6, r9, sl, fp, sp}^
     b4c:	6e726574 	mrcvs	5, 3, r6, cr2, cr4, {3}
     b50:	6f746c61 	svcvs	0x00746c61
     b54:	2e736c6f 	cdpcs	12, 7, cr6, cr3, cr15, {3}
     b58:	2d756e67 	ldclcs	14, cr6, [r5, #-412]!	; 0xfffffe64
     b5c:	6c6f6f74 	stclvs	15, cr6, [pc], #-464	; 994 <_Min_Stack_Size+0x594>
     b60:	6f662d73 	svcvs	0x00662d73
     b64:	74732d72 	ldrbtvc	r2, [r3], #-3442	; 0xfffff28e
     b68:	2e32336d 	cdpcs	3, 3, cr3, cr2, cr13, {3}
     b6c:	332e3131 			; <UNDEFINED> instruction: 0x332e3131
     b70:	6c65722e 	sfmvs	f7, 2, [r5], #-184	; 0xffffff48
     b74:	69772e31 	ldmdbvs	r7!, {r0, r4, r5, r9, sl, fp, sp}^
     b78:	5f32336e 	svcpl	0x0032336e
     b7c:	2e312e31 	mrccs	14, 1, r2, cr1, cr1, {1}
     b80:	30322e30 	eorscc	r2, r2, r0, lsr lr
     b84:	35303332 	ldrcc	r3, [r0, #-818]!	; 0xfffffcce
     b88:	35313332 	ldrcc	r3, [r1, #-818]!	; 0xfffffcce
     b8c:	745c3630 	ldrbvc	r3, [ip], #-1584	; 0xfffff9d0
     b90:	736c6f6f 	cmnvc	ip, #444	; 0x1bc
     b94:	6d72615c 	ldfvse	f6, [r2, #-368]!	; 0xfffffe90
     b98:	6e6f6e2d 	cdpvs	14, 6, cr6, cr15, cr13, {1}
     b9c:	61652d65 	cmnvs	r5, r5, ror #26
     ba0:	695c6962 	ldmdbvs	ip, {r1, r5, r6, r8, fp, sp, lr}^
     ba4:	756c636e 	strbvc	r6, [ip, #-878]!	; 0xfffffc92
     ba8:	6d5c6564 	cfldr64vs	mvdx6, [ip, #-400]	; 0xfffffe70
     bac:	69686361 	stmdbvs	r8!, {r0, r5, r6, r8, r9, sp, lr}^
     bb0:	4400656e 	strmi	r6, [r0], #-1390	; 0xfffffa92
     bb4:	54535c3a 	ldrbpl	r5, [r3], #-3130	; 0xfffff3c6
     bb8:	4332334d 	teqmi	r2, #872415233	; 0x34000001
     bbc:	49656275 	stmdbmi	r5!, {r0, r2, r4, r5, r6, r9, sp, lr}^
     bc0:	315f4544 	cmpcc	pc, r4, asr #10
     bc4:	2e33312e 	rsfcssp	f3, f3, #0.5
     bc8:	54535c30 	ldrbpl	r5, [r3], #-3120	; 0xfffff3d0
     bcc:	4332334d 	teqmi	r2, #872415233	; 0x34000001
     bd0:	49656275 	stmdbmi	r5!, {r0, r2, r4, r5, r6, r9, sp, lr}^
     bd4:	535c4544 	cmppl	ip, #68, 10	; 0x11000000
     bd8:	32334d54 	eorscc	r4, r3, #84, 26	; 0x1500
     bdc:	65627543 	strbvs	r7, [r2, #-1347]!	; 0xfffffabd
     be0:	5c454449 	cfstrdpl	mvd4, [r5], {73}	; 0x49
     be4:	67756c70 			; <UNDEFINED> instruction: 0x67756c70
     be8:	5c736e69 	ldclpl	14, cr6, [r3], #-420	; 0xfffffe5c
     bec:	2e6d6f63 	cdpcs	15, 6, cr6, cr13, cr3, {3}
     bf0:	732e7473 			; <UNDEFINED> instruction: 0x732e7473
     bf4:	32336d74 	eorscc	r6, r3, #116, 26	; 0x1d00
     bf8:	65627563 	strbvs	r7, [r2, #-1379]!	; 0xfffffa9d
     bfc:	6564692e 	strbvs	r6, [r4, #-2350]!	; 0xfffff6d2
     c00:	75636d2e 	strbvc	r6, [r3, #-3374]!	; 0xfffff2d2
     c04:	7478652e 	ldrbtvc	r6, [r8], #-1326	; 0xfffffad2
     c08:	616e7265 	cmnvs	lr, r5, ror #4
     c0c:	6f6f746c 	svcvs	0x006f746c
     c10:	672e736c 	strvs	r7, [lr, -ip, ror #6]!
     c14:	742d756e 	strtvc	r7, [sp], #-1390	; 0xfffffa92
     c18:	736c6f6f 	cmnvc	ip, #444	; 0x1bc
     c1c:	726f662d 	rsbvc	r6, pc, #47185920	; 0x2d00000
     c20:	6d74732d 	ldclvs	3, cr7, [r4, #-180]!	; 0xffffff4c
     c24:	312e3233 			; <UNDEFINED> instruction: 0x312e3233
     c28:	2e332e31 	mrccs	14, 1, r2, cr3, cr1, {1}
     c2c:	316c6572 	smccc	50770	; 0xc652
     c30:	6e69772e 	cdpvs	7, 6, cr7, cr9, cr14, {1}
     c34:	315f3233 	cmpcc	pc, r3, lsr r2	; <UNPREDICTABLE>
     c38:	302e312e 	eorcc	r3, lr, lr, lsr #2
     c3c:	3230322e 	eorscc	r3, r0, #-536870910	; 0xe0000002
     c40:	32353033 	eorscc	r3, r5, #51	; 0x33
     c44:	30353133 	eorscc	r3, r5, r3, lsr r1
     c48:	6f745c36 	svcvs	0x00745c36
     c4c:	5c736c6f 	ldclpl	12, cr6, [r3], #-444	; 0xfffffe44
     c50:	2f6e6962 	svccs	0x006e6962
     c54:	6c2f2e2e 	stcvs	14, cr2, [pc], #-184	; ba4 <_Min_Stack_Size+0x7a4>
     c58:	672f6269 	strvs	r6, [pc, -r9, ror #4]!
     c5c:	612f6363 			; <UNDEFINED> instruction: 0x612f6363
     c60:	6e2d6d72 	mcrvs	13, 1, r6, cr13, cr2, {3}
     c64:	2d656e6f 	stclcs	14, cr6, [r5, #-444]!	; 0xfffffe44
     c68:	69626165 	stmdbvs	r2!, {r0, r2, r5, r6, r8, sp, lr}^
     c6c:	2e31312f 	rsfcssp	f3, f1, #10.0
     c70:	2f312e33 	svccs	0x00312e33
     c74:	2e2f2e2e 	cdpcs	14, 2, cr2, cr15, cr14, {1}
     c78:	2e2e2f2e 	cdpcs	15, 2, cr2, cr14, cr14, {1}
     c7c:	2f2e2e2f 	svccs	0x002e2e2f
     c80:	2d6d7261 	sfmcs	f7, 2, [sp, #-388]!	; 0xfffffe7c
     c84:	656e6f6e 	strbvs	r6, [lr, #-3950]!	; 0xfffff092
     c88:	6261652d 	rsbvs	r6, r1, #188743680	; 0xb400000
     c8c:	6e692f69 	cdpvs	15, 6, cr2, cr9, cr9, {3}
     c90:	64756c63 	ldrbtvs	r6, [r5], #-3171	; 0xfffff39d
     c94:	79732f65 	ldmdbvc	r3!, {r0, r2, r5, r6, r8, r9, sl, fp, sp}^
     c98:	3a440073 	bcc	1100e6c <_Min_Stack_Size+0x1100a6c>
     c9c:	20736b2f 	rsbscs	r6, r3, pc, lsr #22
     ca0:	65626d65 	strbvs	r6, [r2, #-3429]!	; 0xfffff29b
     ca4:	64656464 	strbtvs	r6, [r5], #-1124	; 0xfffffb9c
     ca8:	73797320 	cmnvc	r9, #32, 6	; 0x80000000
     cac:	206d6574 	rsbcs	r6, sp, r4, ror r5
     cb0:	2f737361 	svccs	0x00737361
     cb4:	206d7261 	rsbcs	r7, sp, r1, ror #4
     cb8:	68637261 	stmdavs	r3!, {r0, r5, r6, r9, ip, sp, lr}^
     cbc:	63657469 	cmnvs	r5, #1761607680	; 0x69000000
     cc0:	65727574 	ldrbvs	r7, [r2, #-1396]!	; 0xfffffa8c
     cc4:	696e7520 	stmdbvs	lr!, {r5, r8, sl, ip, sp, lr}^
     cc8:	34312074 	ldrtcc	r2, [r1], #-116	; 0xffffff8c
     ccc:	73656c2f 	cmnvc	r5, #12032	; 0x2f00
     cd0:	336e6f73 	cmncc	lr, #460	; 0x1cc
     cd4:	62616c20 	rsbvs	r6, r1, #32, 24	; 0x2000
     cd8:	6f632f73 	svcvs	0x00632f73
     cdc:	4d2f6564 	cfstr32mi	mvfx6, [pc, #-400]!	; b54 <_Min_Stack_Size+0x754>
     ce0:	5f4c4143 	svcpl	0x004c4143
     ce4:	6e692f5f 	mcrvs	15, 3, r2, cr9, cr15, {2}
     ce8:	3a440063 	bcc	1100e7c <_Min_Stack_Size+0x1100a7c>
     cec:	4d54535c 	ldclmi	3, cr5, [r4, #-368]	; 0xfffffe90
     cf0:	75433233 	strbvc	r3, [r3, #-563]	; 0xfffffdcd
     cf4:	44496562 	strbmi	r6, [r9], #-1378	; 0xfffffa9e
     cf8:	2e315f45 	cdpcs	15, 3, cr5, cr1, cr5, {2}
     cfc:	302e3331 	eorcc	r3, lr, r1, lsr r3
     d00:	4d54535c 	ldclmi	3, cr5, [r4, #-368]	; 0xfffffe90
     d04:	75433233 	strbvc	r3, [r3, #-563]	; 0xfffffdcd
     d08:	44496562 	strbmi	r6, [r9], #-1378	; 0xfffffa9e
     d0c:	54535c45 	ldrbpl	r5, [r3], #-3141	; 0xfffff3bb
     d10:	4332334d 	teqmi	r2, #872415233	; 0x34000001
     d14:	49656275 	stmdbmi	r5!, {r0, r2, r4, r5, r6, r9, sp, lr}^
     d18:	705c4544 	subsvc	r4, ip, r4, asr #10
     d1c:	6967756c 	stmdbvs	r7!, {r2, r3, r5, r6, r8, sl, ip, sp, lr}^
     d20:	635c736e 	cmpvs	ip, #-1207959551	; 0xb8000001
     d24:	732e6d6f 			; <UNDEFINED> instruction: 0x732e6d6f
     d28:	74732e74 	ldrbtvc	r2, [r3], #-3700	; 0xfffff18c
     d2c:	6332336d 	teqvs	r2, #-1275068415	; 0xb4000001
     d30:	2e656275 	mcrcs	2, 3, r6, cr5, cr5, {3}
     d34:	2e656469 	cdpcs	4, 6, cr6, cr5, cr9, {3}
     d38:	2e75636d 	cdpcs	3, 7, cr6, cr5, cr13, {3}
     d3c:	65747865 	ldrbvs	r7, [r4, #-2149]!	; 0xfffff79b
     d40:	6c616e72 	stclvs	14, cr6, [r1], #-456	; 0xfffffe38
     d44:	6c6f6f74 	stclvs	15, cr6, [pc], #-464	; b7c <_Min_Stack_Size+0x77c>
     d48:	6e672e73 	mcrvs	14, 3, r2, cr7, cr3, {3}
     d4c:	6f742d75 	svcvs	0x00742d75
     d50:	2d736c6f 	ldclcs	12, cr6, [r3, #-444]!	; 0xfffffe44
     d54:	2d726f66 	ldclcs	15, cr6, [r2, #-408]!	; 0xfffffe68
     d58:	336d7473 	cmncc	sp, #1929379840	; 0x73000000
     d5c:	31312e32 	teqcc	r1, r2, lsr lr
     d60:	722e332e 	eorvc	r3, lr, #-1207959552	; 0xb8000000
     d64:	2e316c65 	cdpcs	12, 3, cr6, cr1, cr5, {3}
     d68:	336e6977 	cmncc	lr, #1949696	; 0x1dc000
     d6c:	2e315f32 	mrccs	15, 1, r5, cr1, cr2, {1}
     d70:	2e302e31 	mrccs	14, 1, r2, cr0, cr1, {1}
     d74:	33323032 	teqcc	r2, #50	; 0x32
     d78:	33323530 	teqcc	r2, #48, 10	; 0xc000000
     d7c:	36303531 			; <UNDEFINED> instruction: 0x36303531
     d80:	6f6f745c 	svcvs	0x006f745c
     d84:	625c736c 	subsvs	r7, ip, #108, 6	; 0xb0000001
     d88:	2e2f6e69 	cdpcs	14, 2, cr6, cr15, cr9, {3}
     d8c:	696c2f2e 	stmdbvs	ip!, {r1, r2, r3, r5, r8, r9, sl, fp, sp}^
     d90:	63672f62 	cmnvs	r7, #392	; 0x188
     d94:	72612f63 	rsbvc	r2, r1, #396	; 0x18c
     d98:	6f6e2d6d 	svcvs	0x006e2d6d
     d9c:	652d656e 	strvs	r6, [sp, #-1390]!	; 0xfffffa92
     da0:	2f696261 	svccs	0x00696261
     da4:	332e3131 			; <UNDEFINED> instruction: 0x332e3131
     da8:	2e2f312e 	sufcsep	f3, f7, #0.5
     dac:	2e2e2f2e 	cdpcs	15, 2, cr2, cr14, cr14, {1}
     db0:	2f2e2e2f 	svccs	0x002e2e2f
     db4:	612f2e2e 			; <UNDEFINED> instruction: 0x612f2e2e
     db8:	6e2d6d72 	mcrvs	13, 1, r6, cr13, cr2, {3}
     dbc:	2d656e6f 	stclcs	14, cr6, [r5, #-444]!	; 0xfffffe44
     dc0:	69626165 	stmdbvs	r2!, {r0, r2, r5, r6, r8, sp, lr}^
     dc4:	636e692f 	cmnvs	lr, #770048	; 0xbc000
     dc8:	6564756c 	strbvs	r7, [r4, #-1388]!	; 0xfffffa94
     dcc:	5c3a4400 	cfldrspl	mvf4, [sl], #-0
     dd0:	334d5453 	movtcc	r5, #54355	; 0xd453
     dd4:	62754332 	rsbsvs	r4, r5, #-939524096	; 0xc8000000
     dd8:	45444965 	strbmi	r4, [r4, #-2405]	; 0xfffff69b
     ddc:	312e315f 			; <UNDEFINED> instruction: 0x312e315f
     de0:	5c302e33 	ldcpl	14, cr2, [r0], #-204	; 0xffffff34
     de4:	334d5453 	movtcc	r5, #54355	; 0xd453
     de8:	62754332 	rsbsvs	r4, r5, #-939524096	; 0xc8000000
     dec:	45444965 	strbmi	r4, [r4, #-2405]	; 0xfffff69b
     df0:	4d54535c 	ldclmi	3, cr5, [r4, #-368]	; 0xfffffe90
     df4:	75433233 	strbvc	r3, [r3, #-563]	; 0xfffffdcd
     df8:	44496562 	strbmi	r6, [r9], #-1378	; 0xfffffa9e
     dfc:	6c705c45 	ldclvs	12, cr5, [r0], #-276	; 0xfffffeec
     e00:	6e696775 	mcrvs	7, 3, r6, cr9, cr5, {3}
     e04:	6f635c73 	svcvs	0x00635c73
     e08:	74732e6d 	ldrbtvc	r2, [r3], #-3693	; 0xfffff193
     e0c:	6d74732e 	ldclvs	3, cr7, [r4, #-184]!	; 0xffffff48
     e10:	75633233 	strbvc	r3, [r3, #-563]!	; 0xfffffdcd
     e14:	692e6562 	stmdbvs	lr!, {r1, r5, r6, r8, sl, sp, lr}
     e18:	6d2e6564 	cfstr32vs	mvfx6, [lr, #-400]!	; 0xfffffe70
     e1c:	652e7563 	strvs	r7, [lr, #-1379]!	; 0xfffffa9d
     e20:	72657478 	rsbvc	r7, r5, #120, 8	; 0x78000000
     e24:	746c616e 	strbtvc	r6, [ip], #-366	; 0xfffffe92
     e28:	736c6f6f 	cmnvc	ip, #444	; 0x1bc
     e2c:	756e672e 	strbvc	r6, [lr, #-1838]!	; 0xfffff8d2
     e30:	6f6f742d 	svcvs	0x006f742d
     e34:	662d736c 	strtvs	r7, [sp], -ip, ror #6
     e38:	732d726f 			; <UNDEFINED> instruction: 0x732d726f
     e3c:	32336d74 	eorscc	r6, r3, #116, 26	; 0x1d00
     e40:	2e31312e 	rsfcssp	f3, f1, #0.5
     e44:	65722e33 	ldrbvs	r2, [r2, #-3635]!	; 0xfffff1cd
     e48:	772e316c 	strvc	r3, [lr, -ip, ror #2]!
     e4c:	32336e69 	eorscc	r6, r3, #1680	; 0x690
     e50:	312e315f 			; <UNDEFINED> instruction: 0x312e315f
     e54:	322e302e 	eorcc	r3, lr, #46	; 0x2e
     e58:	30333230 	eorscc	r3, r3, r0, lsr r2
     e5c:	31333235 	teqcc	r3, r5, lsr r2
     e60:	5c363035 	ldcpl	0, cr3, [r6], #-212	; 0xffffff2c
     e64:	6c6f6f74 	stclvs	15, cr6, [pc], #-464	; c9c <_Min_Stack_Size+0x89c>
     e68:	69625c73 	stmdbvs	r2!, {r0, r1, r4, r5, r6, sl, fp, ip, lr}^
     e6c:	2e2e2f6e 	cdpcs	15, 2, cr2, cr14, cr14, {3}
     e70:	62696c2f 	rsbvs	r6, r9, #12032	; 0x2f00
     e74:	6363672f 	cmnvs	r3, #12320768	; 0xbc0000
     e78:	6d72612f 	ldfvse	f6, [r2, #-188]!	; 0xffffff44
     e7c:	6e6f6e2d 	cdpvs	14, 6, cr6, cr15, cr13, {1}
     e80:	61652d65 	cmnvs	r5, r5, ror #26
     e84:	312f6962 			; <UNDEFINED> instruction: 0x312f6962
     e88:	2e332e31 	mrccs	14, 1, r2, cr3, cr1, {1}
     e8c:	2e2e2f31 	mcrcs	15, 1, r2, cr14, cr1, {1}
     e90:	2f2e2e2f 	svccs	0x002e2e2f
     e94:	2e2f2e2e 	cdpcs	14, 2, cr2, cr15, cr14, {1}
     e98:	72612f2e 	rsbvc	r2, r1, #46, 30	; 0xb8
     e9c:	6f6e2d6d 	svcvs	0x006e2d6d
     ea0:	652d656e 	strvs	r6, [sp, #-1390]!	; 0xfffffa92
     ea4:	2f696261 	svccs	0x00696261
     ea8:	6c636e69 	stclvs	14, cr6, [r3], #-420	; 0xfffffe5c
     eac:	2f656475 	svccs	0x00656475
     eb0:	6863616d 	stmdavs	r3!, {r0, r2, r3, r5, r6, r8, sp, lr}^
     eb4:	00656e69 	rsbeq	r6, r5, r9, ror #28
     eb8:	535c3a44 	cmppl	ip, #68, 20	; 0x44000
     ebc:	32334d54 	eorscc	r4, r3, #84, 26	; 0x1500
     ec0:	65627543 	strbvs	r7, [r2, #-1347]!	; 0xfffffabd
     ec4:	5f454449 	svcpl	0x00454449
     ec8:	33312e31 	teqcc	r1, #784	; 0x310
     ecc:	535c302e 	cmppl	ip, #46	; 0x2e
     ed0:	32334d54 	eorscc	r4, r3, #84, 26	; 0x1500
     ed4:	65627543 	strbvs	r7, [r2, #-1347]!	; 0xfffffabd
     ed8:	5c454449 	cfstrdpl	mvd4, [r5], {73}	; 0x49
     edc:	334d5453 	movtcc	r5, #54355	; 0xd453
     ee0:	62754332 	rsbsvs	r4, r5, #-939524096	; 0xc8000000
     ee4:	45444965 	strbmi	r4, [r4, #-2405]	; 0xfffff69b
     ee8:	756c705c 	strbvc	r7, [ip, #-92]!	; 0xffffffa4
     eec:	736e6967 	cmnvc	lr, #1687552	; 0x19c000
     ef0:	6d6f635c 	stclvs	3, cr6, [pc, #-368]!	; d88 <_Min_Stack_Size+0x988>
     ef4:	2e74732e 	cdpcs	3, 7, cr7, cr4, cr14, {1}
     ef8:	336d7473 	cmncc	sp, #1929379840	; 0x73000000
     efc:	62756332 	rsbsvs	r6, r5, #-939524096	; 0xc8000000
     f00:	64692e65 	strbtvs	r2, [r9], #-3685	; 0xfffff19b
     f04:	636d2e65 	cmnvs	sp, #1616	; 0x650
     f08:	78652e75 	stmdavc	r5!, {r0, r2, r4, r5, r6, r9, sl, fp, sp}^
     f0c:	6e726574 	mrcvs	5, 3, r6, cr2, cr4, {3}
     f10:	6f746c61 	svcvs	0x00746c61
     f14:	2e736c6f 	cdpcs	12, 7, cr6, cr3, cr15, {3}
     f18:	2d756e67 	ldclcs	14, cr6, [r5, #-412]!	; 0xfffffe64
     f1c:	6c6f6f74 	stclvs	15, cr6, [pc], #-464	; d54 <_Min_Stack_Size+0x954>
     f20:	6f662d73 	svcvs	0x00662d73
     f24:	74732d72 	ldrbtvc	r2, [r3], #-3442	; 0xfffff28e
     f28:	2e32336d 	cdpcs	3, 3, cr3, cr2, cr13, {3}
     f2c:	332e3131 			; <UNDEFINED> instruction: 0x332e3131
     f30:	6c65722e 	sfmvs	f7, 2, [r5], #-184	; 0xffffff48
     f34:	69772e31 	ldmdbvs	r7!, {r0, r4, r5, r9, sl, fp, sp}^
     f38:	5f32336e 	svcpl	0x0032336e
     f3c:	2e312e31 	mrccs	14, 1, r2, cr1, cr1, {1}
     f40:	30322e30 	eorscc	r2, r2, r0, lsr lr
     f44:	35303332 	ldrcc	r3, [r0, #-818]!	; 0xfffffcce
     f48:	35313332 	ldrcc	r3, [r1, #-818]!	; 0xfffffcce
     f4c:	745c3630 	ldrbvc	r3, [ip], #-1584	; 0xfffff9d0
     f50:	736c6f6f 	cmnvc	ip, #444	; 0x1bc
     f54:	6e69625c 	mcrvs	2, 3, r6, cr9, cr12, {2}
     f58:	2f2e2e2f 	svccs	0x002e2e2f
     f5c:	2d6d7261 	sfmcs	f7, 2, [sp, #-388]!	; 0xfffffe7c
     f60:	656e6f6e 	strbvs	r6, [lr, #-3950]!	; 0xfffff092
     f64:	6261652d 	rsbvs	r6, r1, #188743680	; 0xb400000
     f68:	6e692f69 	cdpvs	15, 6, cr2, cr9, cr9, {3}
     f6c:	64756c63 	ldrbtvs	r6, [r5], #-3171	; 0xfffff39d
     f70:	656e2f65 	strbvs	r2, [lr, #-3941]!	; 0xfffff09b
     f74:	62696c77 	rsbvs	r6, r9, #30464	; 0x7700
     f78:	6e616e2d 	cdpvs	14, 6, cr6, cr1, cr13, {1}
     f7c:	3a44006f 	bcc	1101140 <_Min_Stack_Size+0x1100d40>
     f80:	4d54535c 	ldclmi	3, cr5, [r4, #-368]	; 0xfffffe90
     f84:	75433233 	strbvc	r3, [r3, #-563]	; 0xfffffdcd
     f88:	44496562 	strbmi	r6, [r9], #-1378	; 0xfffffa9e
     f8c:	2e315f45 	cdpcs	15, 3, cr5, cr1, cr5, {2}
     f90:	302e3331 	eorcc	r3, lr, r1, lsr r3
     f94:	4d54535c 	ldclmi	3, cr5, [r4, #-368]	; 0xfffffe90
     f98:	75433233 	strbvc	r3, [r3, #-563]	; 0xfffffdcd
     f9c:	44496562 	strbmi	r6, [r9], #-1378	; 0xfffffa9e
     fa0:	54535c45 	ldrbpl	r5, [r3], #-3141	; 0xfffff3bb
     fa4:	4332334d 	teqmi	r2, #872415233	; 0x34000001
     fa8:	49656275 	stmdbmi	r5!, {r0, r2, r4, r5, r6, r9, sp, lr}^
     fac:	705c4544 	subsvc	r4, ip, r4, asr #10
     fb0:	6967756c 	stmdbvs	r7!, {r2, r3, r5, r6, r8, sl, ip, sp, lr}^
     fb4:	635c736e 	cmpvs	ip, #-1207959551	; 0xb8000001
     fb8:	732e6d6f 			; <UNDEFINED> instruction: 0x732e6d6f
     fbc:	74732e74 	ldrbtvc	r2, [r3], #-3700	; 0xfffff18c
     fc0:	6332336d 	teqvs	r2, #-1275068415	; 0xb4000001
     fc4:	2e656275 	mcrcs	2, 3, r6, cr5, cr5, {3}
     fc8:	2e656469 	cdpcs	4, 6, cr6, cr5, cr9, {3}
     fcc:	2e75636d 	cdpcs	3, 7, cr6, cr5, cr13, {3}
     fd0:	65747865 	ldrbvs	r7, [r4, #-2149]!	; 0xfffff79b
     fd4:	6c616e72 	stclvs	14, cr6, [r1], #-456	; 0xfffffe38
     fd8:	6c6f6f74 	stclvs	15, cr6, [pc], #-464	; e10 <_Min_Stack_Size+0xa10>
     fdc:	6e672e73 	mcrvs	14, 3, r2, cr7, cr3, {3}
     fe0:	6f742d75 	svcvs	0x00742d75
     fe4:	2d736c6f 	ldclcs	12, cr6, [r3, #-444]!	; 0xfffffe44
     fe8:	2d726f66 	ldclcs	15, cr6, [r2, #-408]!	; 0xfffffe68
     fec:	336d7473 	cmncc	sp, #1929379840	; 0x73000000
     ff0:	31312e32 	teqcc	r1, r2, lsr lr
     ff4:	722e332e 	eorvc	r3, lr, #-1207959552	; 0xb8000000
     ff8:	2e316c65 	cdpcs	12, 3, cr6, cr1, cr5, {3}
     ffc:	336e6977 	cmncc	lr, #1949696	; 0x1dc000
    1000:	2e315f32 	mrccs	15, 1, r5, cr1, cr2, {1}
    1004:	2e302e31 	mrccs	14, 1, r2, cr0, cr1, {1}
    1008:	33323032 	teqcc	r2, #50	; 0x32
    100c:	33323530 	teqcc	r2, #48, 10	; 0xc000000
    1010:	36303531 			; <UNDEFINED> instruction: 0x36303531
    1014:	6f6f745c 	svcvs	0x006f745c
    1018:	625c736c 	subsvs	r7, ip, #108, 6	; 0xb0000001
    101c:	2e2f6e69 	cdpcs	14, 2, cr6, cr15, cr9, {3}
    1020:	696c2f2e 	stmdbvs	ip!, {r1, r2, r3, r5, r8, r9, sl, fp, sp}^
    1024:	63672f62 	cmnvs	r7, #392	; 0x188
    1028:	72612f63 	rsbvc	r2, r1, #396	; 0x18c
    102c:	6f6e2d6d 	svcvs	0x006e2d6d
    1030:	652d656e 	strvs	r6, [sp, #-1390]!	; 0xfffffa92
    1034:	2f696261 	svccs	0x00696261
    1038:	332e3131 			; <UNDEFINED> instruction: 0x332e3131
    103c:	692f312e 	stmdbvs	pc!, {r1, r2, r3, r5, r8, ip, sp}	; <UNPREDICTABLE>
    1040:	756c636e 	strbvc	r6, [ip, #-878]!	; 0xfffffc92
    1044:	00006564 	andeq	r6, r0, r4, ror #10
    1048:	4f495047 	svcmi	0x00495047
    104c:	0100632e 	tsteq	r0, lr, lsr #6
    1050:	645f0000 	ldrbvs	r0, [pc], #-0	; 1058 <_Min_Stack_Size+0xc58>
    1054:	75616665 	strbvc	r6, [r1, #-1637]!	; 0xfffff99b
    1058:	745f746c 	ldrbvc	r7, [pc], #-1132	; 1060 <_Min_Stack_Size+0xc60>
    105c:	73657079 	cmnvc	r5, #121	; 0x79
    1060:	0200682e 	andeq	r6, r0, #3014656	; 0x2e0000
    1064:	735f0000 	cmpvc	pc, #0
    1068:	6e696474 	mcrvs	4, 3, r6, cr9, cr4, {3}
    106c:	00682e74 	rsbeq	r2, r8, r4, ror lr
    1070:	73000003 	movwvc	r0, #3
    1074:	32336d74 	eorscc	r6, r3, #116, 26	; 0x1d00
    1078:	33303166 	teqcc	r0, #-2147483623	; 0x80000019
    107c:	2e787878 	mrccs	8, 3, r7, cr8, cr8, {3}
    1080:	00040068 	andeq	r0, r4, r8, rrx
    1084:	49504700 	ldmdbmi	r0, {r8, r9, sl, lr}^
    1088:	00682e4f 	rsbeq	r2, r8, pc, asr #28
    108c:	73000004 	movwvc	r0, #4
    1090:	696c6474 	stmdbvs	ip!, {r2, r4, r5, r6, sl, sp, lr}^
    1094:	00682e62 	rsbeq	r2, r8, r2, ror #28
    1098:	69000005 	stmdbvs	r0, {r0, r2}
    109c:	66656565 	strbtvs	r6, [r5], -r5, ror #10
    10a0:	00682e70 	rsbeq	r2, r8, r0, ror lr
    10a4:	5f000006 	svcpl	0x00000006
    10a8:	69736e61 	ldmdbvs	r3!, {r0, r5, r6, r9, sl, fp, sp, lr}^
    10ac:	0500682e 	streq	r6, [r0, #-2094]	; 0xfffff7d2
    10b0:	656e0000 	strbvs	r0, [lr, #-0]!
    10b4:	62696c77 	rsbvs	r6, r9, #30464	; 0x7700
    10b8:	0700682e 	streq	r6, [r0, -lr, lsr #16]
    10bc:	6e5f0000 	cdpvs	0, 5, cr0, cr15, cr0, {0}
    10c0:	696c7765 	stmdbvs	ip!, {r0, r2, r5, r6, r8, r9, sl, ip, sp, lr}^
    10c4:	65765f62 	ldrbvs	r5, [r6, #-3938]!	; 0xfffff09e
    10c8:	6f697372 	svcvs	0x00697372
    10cc:	00682e6e 	rsbeq	r2, r8, lr, ror #28
    10d0:	63000005 	movwvs	r0, #5
    10d4:	69666e6f 	stmdbvs	r6!, {r0, r1, r2, r3, r5, r6, r9, sl, fp, sp, lr}^
    10d8:	00682e67 	rsbeq	r2, r8, r7, ror #28
    10dc:	66000003 	strvs	r0, [r0], -r3
    10e0:	75746165 	ldrbvc	r6, [r4, #-357]!	; 0xfffffe9b
    10e4:	2e736572 	mrccs	5, 3, r6, cr3, cr2, {3}
    10e8:	00030068 	andeq	r0, r3, r8, rrx
    10ec:	64747300 	ldrbtvs	r7, [r4], #-768	; 0xfffffd00
    10f0:	2e666564 	cdpcs	5, 6, cr6, cr6, cr4, {3}
    10f4:	00080068 	andeq	r0, r8, r8, rrx
    10f8:	65657200 	strbvs	r7, [r5, #-512]!	; 0xfffffe00
    10fc:	682e746e 	stmdavs	lr!, {r1, r2, r3, r5, r6, sl, ip, sp, lr}
    1100:	00000300 	andeq	r0, r0, r0, lsl #6
    1104:	7079745f 	rsbsvc	r7, r9, pc, asr r4
    1108:	682e7365 	stmdavs	lr!, {r0, r2, r5, r6, r8, r9, ip, sp, lr}
    110c:	00000300 	andeq	r0, r0, r0, lsl #6
    1110:	7079745f 	rsbsvc	r7, r9, pc, asr r4
    1114:	682e7365 	stmdavs	lr!, {r0, r2, r5, r6, r8, r9, ip, sp, lr}
    1118:	00000600 	andeq	r0, r0, r0, lsl #12
    111c:	6b636f6c 	blvs	18dced4 <_Min_Stack_Size+0x18dcad4>
    1120:	0300682e 	movweq	r6, #2094	; 0x82e
    1124:	73610000 	cmnvc	r1, #0
    1128:	74726573 	ldrbtvc	r6, [r2], #-1395	; 0xfffffa8d
    112c:	0500682e 	streq	r6, [r0, #-2094]	; 0xfffff7d2
    1130:	64630000 	strbtvs	r0, [r3], #-0
    1134:	2e736665 	cdpcs	6, 7, cr6, cr3, cr5, {3}
    1138:	00030068 	andeq	r0, r3, r8, rrx
    113c:	64747300 	ldrbtvs	r7, [r4], #-768	; 0xfffffd00
    1140:	2e62696c 	vnmulcs.f16	s13, s4, s25	; <UNPREDICTABLE>
    1144:	00060068 	andeq	r0, r6, r8, rrx
    1148:	6c6c6100 	stfvse	f6, [ip], #-0
    114c:	2e61636f 	cdpcs	3, 6, cr6, cr1, cr15, {3}
    1150:	00050068 	andeq	r0, r5, r8, rrx
    1154:	64747300 	ldrbtvs	r7, [r4], #-768	; 0xfffffd00
    1158:	2e746e69 	cdpcs	14, 7, cr6, cr4, cr9, {3}
    115c:	00080068 	andeq	r0, r8, r8, rrx
    1160:	64747300 	ldrbtvs	r7, [r4], #-768	; 0xfffffd00
    1164:	2e746e69 	cdpcs	14, 7, cr6, cr4, cr9, {3}
    1168:	00050068 	andeq	r0, r5, r8, rrx
    116c:	6e695f00 	cdpvs	15, 6, cr5, cr9, cr0, {0}
    1170:	70757374 	rsbsvc	r7, r5, r4, ror r3
    1174:	0300682e 	movweq	r6, #2094	; 0x82e
    1178:	05000000 	streq	r0, [r0, #-0]
    117c:	02050001 	andeq	r0, r5, #1
    1180:	08000718 	stmdaeq	r0, {r3, r4, r8, r9, sl}
    1184:	05011703 	streq	r1, [r1, #-1795]	; 0xfffff8fd
    1188:	0a055902 	beq	157598 <_Min_Stack_Size+0x157198>
    118c:	15018c02 	strne	r8, [r1, #-3074]	; 0xfffff3fe
    1190:	32323231 	eorscc	r3, r2, #268435459	; 0x10000003
    1194:	32323233 	eorscc	r3, r2, #805306371	; 0x30000003
    1198:	32323231 	eorscc	r3, r2, #268435459	; 0x10000003
    119c:	05323233 	ldreq	r3, [r2, #-563]!	; 0xfffffdcd
    11a0:	01053308 	tsteq	r5, r8, lsl #6
    11a4:	00050222 	andeq	r0, r5, r2, lsr #4
    11a8:	01050101 	tsteq	r5, r1, lsl #2
    11ac:	88020500 	stmdahi	r2, {r8, sl}
    11b0:	03080008 	movweq	r0, #32776	; 0x8008
    11b4:	050100f4 	streq	r0, [r1, #-244]	; 0xffffff0c
    11b8:	0a055915 	beq	157614 <_Min_Stack_Size+0x157214>
    11bc:	301d052f 	andscc	r0, sp, pc, lsr #10
    11c0:	002e4e05 	eoreq	r4, lr, r5, lsl #28
    11c4:	06010402 	streq	r0, [r1], -r2, lsl #8
    11c8:	0402002e 	streq	r0, [r2], #-46	; 0xffffffd2
    11cc:	11052e02 	tstne	r5, r2, lsl #28
    11d0:	04040200 	streq	r0, [r4], #-512	; 0xfffffe00
    11d4:	20052e06 	andcs	r2, r5, r6, lsl #28
    11d8:	04040200 	streq	r0, [r4], #-512	; 0xfffffe00
    11dc:	001d0523 	andseq	r0, sp, r3, lsr #10
    11e0:	74040402 	strvc	r0, [r4], #-1026	; 0xfffffbfe
    11e4:	02001705 	andeq	r1, r0, #1310720	; 0x140000
    11e8:	052e0404 	streq	r0, [lr, #-1028]!	; 0xfffffbfc
    11ec:	04020014 	streq	r0, [r2], #-20	; 0xffffffec
    11f0:	11052004 	tstne	r5, r4
    11f4:	04040200 	streq	r0, [r4], #-512	; 0xfffffe00
    11f8:	0005055b 	andeq	r0, r5, fp, asr r5
    11fc:	2e040402 	cdpcs	4, 0, cr0, cr4, cr2, {0}
    1200:	02004405 	andeq	r4, r0, #83886080	; 0x5000000
    1204:	052e0104 	streq	r0, [lr, #-260]!	; 0xfffffefc
    1208:	04020036 	streq	r0, [r2], #-54	; 0xffffffca
    120c:	76052e01 	strvc	r2, [r5], -r1, lsl #28
    1210:	02040200 	andeq	r0, r4, #0, 4
    1214:	0069052e 	rsbeq	r0, r9, lr, lsr #10
    1218:	2e020402 	cdpcs	4, 0, cr0, cr2, cr2, {0}
    121c:	0001aa05 	andeq	sl, r1, r5, lsl #20
    1220:	2e030402 	cdpcs	4, 0, cr0, cr3, cr2, {0}
    1224:	00019e05 	andeq	r9, r1, r5, lsl #28
    1228:	2e030402 	cdpcs	4, 0, cr0, cr3, cr2, {0}
    122c:	05302305 	ldreq	r2, [r0, #-773]!	; 0xfffffcfb
    1230:	34052e2f 	strcc	r2, [r5], #-3631	; 0xfffff1d1
    1234:	203a0520 	eorscs	r0, sl, r0, lsr #10
    1238:	05204605 	streq	r4, [r0, #-1541]!	; 0xfffff9fb
    123c:	5e053c3a 	mcrpl	12, 0, r3, cr5, cr10, {1}
    1240:	200f052e 	andcs	r0, pc, lr, lsr #10
    1244:	053d2c05 	ldreq	r2, [sp, #-3077]!	; 0xfffff3fb
    1248:	2c052031 	stccs	0, cr2, [r5], {49}	; 0x31
    124c:	2e150566 	cfmsc32cs	mvfx0, mvfx5, mvfx6
    1250:	05580305 	ldrbeq	r0, [r8, #-773]	; 0xfffffcfb
    1254:	06052513 			; <UNDEFINED> instruction: 0x06052513
    1258:	0042052e 	subeq	r0, r2, lr, lsr #10
    125c:	2e010402 	cdpcs	4, 0, cr0, cr1, cr2, {0}
    1260:	02003505 	andeq	r3, r0, #20971520	; 0x1400000
    1264:	052e0104 	streq	r0, [lr, #-260]!	; 0xfffffefc
    1268:	35053023 	strcc	r3, [r5, #-35]	; 0xffffffdd
    126c:	2040052e 	subcs	r0, r0, lr, lsr #10
    1270:	05201005 	streq	r1, [r0, #-5]!
    1274:	32053d2d 	andcc	r3, r5, #2880	; 0xb40
    1278:	662d0520 	strtvs	r0, [sp], -r0, lsr #10
    127c:	052e1605 	streq	r1, [lr, #-1541]!	; 0xfffff9fb
    1280:	15055804 	strne	r5, [r5, #-2052]	; 0xfffff7fc
    1284:	2e0b0522 	cfsh32cs	mvfx0, mvfx11, #18
    1288:	05301005 	ldreq	r1, [r0, #-5]!
    128c:	32052f2d 	andcc	r2, r5, #45, 30	; 0xb4
    1290:	662d0520 	strtvs	r0, [sp], -r0, lsr #10
    1294:	052e1605 	streq	r1, [lr, #-1541]!	; 0xfffff9fb
    1298:	58160301 	ldmdapl	r6, {r0, r8, r9}
    129c:	6f031005 	svcvs	0x00031005
    12a0:	2f2d0520 	svccs	0x002d0520
    12a4:	05203205 	streq	r3, [r0, #-517]!	; 0xfffffdfb
    12a8:	1605662d 	strne	r6, [r5], -sp, lsr #12
    12ac:	5a11052e 	bpl	44276c <_Min_Stack_Size+0x44236c>
    12b0:	052e0705 	streq	r0, [lr, #-1797]!	; 0xfffff8fb
    12b4:	1c053110 	stfnes	f3, [r5], {16}
    12b8:	2e10052e 	cfmul64cs	mvdx0, mvdx0, mvdx14
    12bc:	0b030105 	bleq	c16d8 <_Min_Stack_Size+0xc12d8>
    12c0:	0310053c 	tsteq	r0, #60, 10	; 0xf000000
    12c4:	1e052079 	mcrne	0, 0, r2, cr5, cr9, {3}
    12c8:	2e13052e 	cfmul64cs	mvdx0, mvdx3, mvdx14
    12cc:	05201005 	streq	r1, [r0, #-5]!
    12d0:	05024301 	streq	r4, [r2, #-769]	; 0xfffffcff
    12d4:	05010100 	streq	r0, [r1, #-256]	; 0xffffff00
    12d8:	02050001 	andeq	r0, r5, #1
    12dc:	00000000 	andeq	r0, r0, r0
    12e0:	0101ae03 	tsteq	r1, r3, lsl #28
    12e4:	0f030505 	svceq	0x00030505
    12e8:	4c11054a 	cfldr32mi	mvfx0, [r1], {74}	; 0x4a
    12ec:	03010567 	movweq	r0, #5479	; 0x1567
    12f0:	0b056618 	bleq	15ab58 <_Min_Stack_Size+0x15a758>
    12f4:	05206a03 	streq	r6, [r0, #-2563]!	; 0xfffff5fd
    12f8:	05674c11 	strbeq	r4, [r7, #-3089]!	; 0xfffff3ef
    12fc:	66130301 	ldrvs	r0, [r3], -r1, lsl #6
    1300:	6f030b05 	svcvs	0x00030b05
    1304:	4c110520 	cfldr32mi	mvfx0, [r1], {32}
    1308:	03010567 	movweq	r0, #5479	; 0x1567
    130c:	0b05660e 	bleq	15ab4c <_Min_Stack_Size+0x15a74c>
    1310:	05207403 	streq	r7, [r0, #-1027]!	; 0xfffffbfd
    1314:	05674c11 	strbeq	r4, [r7, #-3089]!	; 0xfffff3ef
    1318:	66090301 	strvs	r0, [r9], -r1, lsl #6
    131c:	79030b05 	stmdbvc	r3, {r0, r2, r8, r9, fp}
    1320:	4c110520 	cfldr32mi	mvfx0, [r1], {32}
    1324:	6a010567 	bvs	428c8 <_Min_Stack_Size+0x424c8>
    1328:	01001202 	tsteq	r0, r2, lsl #4
    132c:	00010501 	andeq	r0, r1, r1, lsl #10
    1330:	00000205 	andeq	r0, r0, r5, lsl #4
    1334:	e3030000 	movw	r0, #12288	; 0x3000
    1338:	0c050101 	stfeqs	f0, [r5], {1}
    133c:	2e120568 	cfmsc32cs	mvfx0, mvfx2, mvfx8
    1340:	052e0505 	streq	r0, [lr, #-1285]!	; 0xfffffafb
    1344:	053f300d 	ldreq	r3, [pc, #-13]!	; 133f <_Min_Stack_Size+0xf3f>
    1348:	01053009 	tsteq	r5, r9
    134c:	00050221 	andeq	r0, r5, r1, lsr #4
    1350:	01050101 	tsteq	r5, r1, lsl #2
    1354:	00020500 	andeq	r0, r2, r0, lsl #10
    1358:	03000000 	movweq	r0, #0
    135c:	050101f7 	streq	r0, [r1, #-503]	; 0xfffffe09
    1360:	0d054c1f 	stceq	12, cr4, [r5, #-124]	; 0xffffff84
    1364:	2109052e 	tstcs	r9, lr, lsr #10
    1368:	02210105 	eoreq	r0, r1, #1073741825	; 0x40000001
    136c:	01010005 	tsteq	r1, r5
    1370:	05000105 	streq	r0, [r0, #-261]	; 0xfffffefb
    1374:	00000002 	andeq	r0, r0, r2
    1378:	02850300 	addeq	r0, r5, #0, 6
    137c:	680f0501 	stmdavs	pc, {r0, r8, sl}	; <UNPREDICTABLE>
    1380:	05200d05 	streq	r0, [r0, #-3333]!	; 0xfffff2fb
    1384:	05022f01 	streq	r2, [r2, #-3841]	; 0xfffff0ff
    1388:	05010100 	streq	r0, [r1, #-256]	; 0xffffff00
    138c:	02050001 	andeq	r0, r5, #1
    1390:	00000000 	andeq	r0, r0, r0
    1394:	01029503 	tsteq	r2, r3, lsl #10
    1398:	05830505 	streq	r0, [r3, #1285]	; 0x505
    139c:	0105420f 	tsteq	r5, pc, lsl #4
    13a0:	053c1103 	ldreq	r1, [ip, #-259]!	; 0xfffffefd
    13a4:	207a0310 	rsbscs	r0, sl, r0, lsl r3
    13a8:	05200e05 	streq	r0, [r0, #-3589]!	; 0xfffff1fb
    13ac:	05023401 	streq	r3, [r2, #-1025]	; 0xfffffbff
    13b0:	05010100 	streq	r0, [r1, #-256]	; 0xffffff00
    13b4:	02050001 	andeq	r0, r5, #1
    13b8:	00000000 	andeq	r0, r0, r0
    13bc:	0102b903 	tsteq	r2, r3, lsl #18
    13c0:	05670d05 	strbeq	r0, [r7, #-3333]!	; 0xfffff2fb
    13c4:	05026701 	streq	r6, [r2, #-1793]	; 0xfffff8ff
    13c8:	05010100 	streq	r0, [r1, #-256]	; 0xffffff00
    13cc:	02050001 	andeq	r0, r5, #1
    13d0:	00000000 	andeq	r0, r0, r0
    13d4:	0102c603 	tsteq	r2, r3, lsl #12
    13d8:	1c031405 	cfstrsne	mvf1, [r3], {5}
    13dc:	3f060566 	svccc	0x00060566
    13e0:	3e4e0e05 	cdpcc	14, 4, cr0, cr14, cr5, {0}
    13e4:	3f0d053f 	svccc	0x000d053f
    13e8:	052e0605 	streq	r0, [lr, #-1541]!	; 0xfffff9fb
    13ec:	06052316 			; <UNDEFINED> instruction: 0x06052316
    13f0:	2e05052e 	cfsh32cs	mvfx0, mvfx5, #30
    13f4:	32300b05 	eorscc	r0, r0, #5120	; 0x1400
    13f8:	02220105 	eoreq	r0, r2, #1073741825	; 0x40000001
    13fc:	01010005 	tsteq	r1, r5
    1400:	00000730 	andeq	r0, r0, r0, lsr r7
    1404:	06a50003 	strteq	r0, [r5], r3
    1408:	01020000 	mrseq	r0, (UNDEF: 2)
    140c:	000d0efb 	strdeq	r0, [sp], -fp
    1410:	01010101 	tsteq	r1, r1, lsl #2
    1414:	01000000 	mrseq	r0, (UNDEF: 0)
    1418:	2e010000 	cdpcs	0, 0, cr0, cr1, cr0, {0}
    141c:	72532f2e 	subsvc	r2, r3, #46, 30	; 0xb8
    1420:	3a440063 	bcc	11015b4 <_Min_Stack_Size+0x11011b4>
    1424:	4d54535c 	ldclmi	3, cr5, [r4, #-368]	; 0xfffffe90
    1428:	75433233 	strbvc	r3, [r3, #-563]	; 0xfffffdcd
    142c:	44496562 	strbmi	r6, [r9], #-1378	; 0xfffffa9e
    1430:	2e315f45 	cdpcs	15, 3, cr5, cr1, cr5, {2}
    1434:	302e3331 	eorcc	r3, lr, r1, lsr r3
    1438:	4d54535c 	ldclmi	3, cr5, [r4, #-368]	; 0xfffffe90
    143c:	75433233 	strbvc	r3, [r3, #-563]	; 0xfffffdcd
    1440:	44496562 	strbmi	r6, [r9], #-1378	; 0xfffffa9e
    1444:	54535c45 	ldrbpl	r5, [r3], #-3141	; 0xfffff3bb
    1448:	4332334d 	teqmi	r2, #872415233	; 0x34000001
    144c:	49656275 	stmdbmi	r5!, {r0, r2, r4, r5, r6, r9, sp, lr}^
    1450:	705c4544 	subsvc	r4, ip, r4, asr #10
    1454:	6967756c 	stmdbvs	r7!, {r2, r3, r5, r6, r8, sl, ip, sp, lr}^
    1458:	635c736e 	cmpvs	ip, #-1207959551	; 0xb8000001
    145c:	732e6d6f 			; <UNDEFINED> instruction: 0x732e6d6f
    1460:	74732e74 	ldrbtvc	r2, [r3], #-3700	; 0xfffff18c
    1464:	6332336d 	teqvs	r2, #-1275068415	; 0xb4000001
    1468:	2e656275 	mcrcs	2, 3, r6, cr5, cr5, {3}
    146c:	2e656469 	cdpcs	4, 6, cr6, cr5, cr9, {3}
    1470:	2e75636d 	cdpcs	3, 7, cr6, cr5, cr13, {3}
    1474:	65747865 	ldrbvs	r7, [r4, #-2149]!	; 0xfffff79b
    1478:	6c616e72 	stclvs	14, cr6, [r1], #-456	; 0xfffffe38
    147c:	6c6f6f74 	stclvs	15, cr6, [pc], #-464	; 12b4 <_Min_Stack_Size+0xeb4>
    1480:	6e672e73 	mcrvs	14, 3, r2, cr7, cr3, {3}
    1484:	6f742d75 	svcvs	0x00742d75
    1488:	2d736c6f 	ldclcs	12, cr6, [r3, #-444]!	; 0xfffffe44
    148c:	2d726f66 	ldclcs	15, cr6, [r2, #-408]!	; 0xfffffe68
    1490:	336d7473 	cmncc	sp, #1929379840	; 0x73000000
    1494:	31312e32 	teqcc	r1, r2, lsr lr
    1498:	722e332e 	eorvc	r3, lr, #-1207959552	; 0xb8000000
    149c:	2e316c65 	cdpcs	12, 3, cr6, cr1, cr5, {3}
    14a0:	336e6977 	cmncc	lr, #1949696	; 0x1dc000
    14a4:	2e315f32 	mrccs	15, 1, r5, cr1, cr2, {1}
    14a8:	2e302e31 	mrccs	14, 1, r2, cr0, cr1, {1}
    14ac:	33323032 	teqcc	r2, #50	; 0x32
    14b0:	33323530 	teqcc	r2, #48, 10	; 0xc000000
    14b4:	36303531 			; <UNDEFINED> instruction: 0x36303531
    14b8:	6f6f745c 	svcvs	0x006f745c
    14bc:	615c736c 	cmpvs	ip, ip, ror #6
    14c0:	6e2d6d72 	mcrvs	13, 1, r6, cr13, cr2, {3}
    14c4:	2d656e6f 	stclcs	14, cr6, [r5, #-444]!	; 0xfffffe44
    14c8:	69626165 	stmdbvs	r2!, {r0, r2, r5, r6, r8, sp, lr}^
    14cc:	636e695c 	cmnvs	lr, #92, 18	; 0x170000
    14d0:	6564756c 	strbvs	r7, [r4, #-1388]!	; 0xfffffa94
    14d4:	63616d5c 	cmnvs	r1, #92, 26	; 0x1700
    14d8:	656e6968 	strbvs	r6, [lr, #-2408]!	; 0xfffff698
    14dc:	5c3a4400 	cfldrspl	mvf4, [sl], #-0
    14e0:	334d5453 	movtcc	r5, #54355	; 0xd453
    14e4:	62754332 	rsbsvs	r4, r5, #-939524096	; 0xc8000000
    14e8:	45444965 	strbmi	r4, [r4, #-2405]	; 0xfffff69b
    14ec:	312e315f 			; <UNDEFINED> instruction: 0x312e315f
    14f0:	5c302e33 	ldcpl	14, cr2, [r0], #-204	; 0xffffff34
    14f4:	334d5453 	movtcc	r5, #54355	; 0xd453
    14f8:	62754332 	rsbsvs	r4, r5, #-939524096	; 0xc8000000
    14fc:	45444965 	strbmi	r4, [r4, #-2405]	; 0xfffff69b
    1500:	4d54535c 	ldclmi	3, cr5, [r4, #-368]	; 0xfffffe90
    1504:	75433233 	strbvc	r3, [r3, #-563]	; 0xfffffdcd
    1508:	44496562 	strbmi	r6, [r9], #-1378	; 0xfffffa9e
    150c:	6c705c45 	ldclvs	12, cr5, [r0], #-276	; 0xfffffeec
    1510:	6e696775 	mcrvs	7, 3, r6, cr9, cr5, {3}
    1514:	6f635c73 	svcvs	0x00635c73
    1518:	74732e6d 	ldrbtvc	r2, [r3], #-3693	; 0xfffff193
    151c:	6d74732e 	ldclvs	3, cr7, [r4, #-184]!	; 0xffffff48
    1520:	75633233 	strbvc	r3, [r3, #-563]!	; 0xfffffdcd
    1524:	692e6562 	stmdbvs	lr!, {r1, r5, r6, r8, sl, sp, lr}
    1528:	6d2e6564 	cfstr32vs	mvfx6, [lr, #-400]!	; 0xfffffe70
    152c:	652e7563 	strvs	r7, [lr, #-1379]!	; 0xfffffa9d
    1530:	72657478 	rsbvc	r7, r5, #120, 8	; 0x78000000
    1534:	746c616e 	strbtvc	r6, [ip], #-366	; 0xfffffe92
    1538:	736c6f6f 	cmnvc	ip, #444	; 0x1bc
    153c:	756e672e 	strbvc	r6, [lr, #-1838]!	; 0xfffff8d2
    1540:	6f6f742d 	svcvs	0x006f742d
    1544:	662d736c 	strtvs	r7, [sp], -ip, ror #6
    1548:	732d726f 			; <UNDEFINED> instruction: 0x732d726f
    154c:	32336d74 	eorscc	r6, r3, #116, 26	; 0x1d00
    1550:	2e31312e 	rsfcssp	f3, f1, #0.5
    1554:	65722e33 	ldrbvs	r2, [r2, #-3635]!	; 0xfffff1cd
    1558:	772e316c 	strvc	r3, [lr, -ip, ror #2]!
    155c:	32336e69 	eorscc	r6, r3, #1680	; 0x690
    1560:	312e315f 			; <UNDEFINED> instruction: 0x312e315f
    1564:	322e302e 	eorcc	r3, lr, #46	; 0x2e
    1568:	30333230 	eorscc	r3, r3, r0, lsr r2
    156c:	31333235 	teqcc	r3, r5, lsr r2
    1570:	5c363035 	ldcpl	0, cr3, [r6], #-212	; 0xffffff2c
    1574:	6c6f6f74 	stclvs	15, cr6, [pc], #-464	; 13ac <_Min_Stack_Size+0xfac>
    1578:	69625c73 	stmdbvs	r2!, {r0, r1, r4, r5, r6, sl, fp, ip, lr}^
    157c:	2e2e2f6e 	cdpcs	15, 2, cr2, cr14, cr14, {3}
    1580:	62696c2f 	rsbvs	r6, r9, #12032	; 0x2f00
    1584:	6363672f 	cmnvs	r3, #12320768	; 0xbc0000
    1588:	6d72612f 	ldfvse	f6, [r2, #-188]!	; 0xffffff44
    158c:	6e6f6e2d 	cdpvs	14, 6, cr6, cr15, cr13, {1}
    1590:	61652d65 	cmnvs	r5, r5, ror #26
    1594:	312f6962 			; <UNDEFINED> instruction: 0x312f6962
    1598:	2e332e31 	mrccs	14, 1, r2, cr3, cr1, {1}
    159c:	2e2e2f31 	mcrcs	15, 1, r2, cr14, cr1, {1}
    15a0:	2f2e2e2f 	svccs	0x002e2e2f
    15a4:	2e2f2e2e 	cdpcs	14, 2, cr2, cr15, cr14, {1}
    15a8:	72612f2e 	rsbvc	r2, r1, #46, 30	; 0xb8
    15ac:	6f6e2d6d 	svcvs	0x006e2d6d
    15b0:	652d656e 	strvs	r6, [sp, #-1390]!	; 0xfffffa92
    15b4:	2f696261 	svccs	0x00696261
    15b8:	6c636e69 	stclvs	14, cr6, [r3], #-420	; 0xfffffe5c
    15bc:	2f656475 	svccs	0x00656475
    15c0:	00737973 	rsbseq	r7, r3, r3, ror r9
    15c4:	6b2f3a44 	blvs	bcfedc <_Min_Stack_Size+0xbcfadc>
    15c8:	6d652073 	stclvs	0, cr2, [r5, #-460]!	; 0xfffffe34
    15cc:	64646562 	strbtvs	r6, [r4], #-1378	; 0xfffffa9e
    15d0:	73206465 			; <UNDEFINED> instruction: 0x73206465
    15d4:	65747379 	ldrbvs	r7, [r4, #-889]!	; 0xfffffc87
    15d8:	7361206d 	cmnvc	r1, #109	; 0x6d
    15dc:	72612f73 	rsbvc	r2, r1, #460	; 0x1cc
    15e0:	7261206d 	rsbvc	r2, r1, #109	; 0x6d
    15e4:	74696863 	strbtvc	r6, [r9], #-2147	; 0xfffff79d
    15e8:	75746365 	ldrbvc	r6, [r4, #-869]!	; 0xfffffc9b
    15ec:	75206572 	strvc	r6, [r0, #-1394]!	; 0xfffffa8e
    15f0:	2074696e 	rsbscs	r6, r4, lr, ror #18
    15f4:	6c2f3431 	cfstrsvs	mvf3, [pc], #-196	; 1538 <_Min_Stack_Size+0x1138>
    15f8:	6f737365 	svcvs	0x00737365
    15fc:	6c20336e 	stcvs	3, cr3, [r0], #-440	; 0xfffffe48
    1600:	2f736261 	svccs	0x00736261
    1604:	65646f63 	strbvs	r6, [r4, #-3939]!	; 0xfffff09d
    1608:	41434d2f 	cmpmi	r3, pc, lsr #26
    160c:	2f5f5f4c 	svccs	0x005f5f4c
    1610:	00636e69 	rsbeq	r6, r3, r9, ror #28
    1614:	535c3a44 	cmppl	ip, #68, 20	; 0x44000
    1618:	32334d54 	eorscc	r4, r3, #84, 26	; 0x1500
    161c:	65627543 	strbvs	r7, [r2, #-1347]!	; 0xfffffabd
    1620:	5f454449 	svcpl	0x00454449
    1624:	33312e31 	teqcc	r1, #784	; 0x310
    1628:	535c302e 	cmppl	ip, #46	; 0x2e
    162c:	32334d54 	eorscc	r4, r3, #84, 26	; 0x1500
    1630:	65627543 	strbvs	r7, [r2, #-1347]!	; 0xfffffabd
    1634:	5c454449 	cfstrdpl	mvd4, [r5], {73}	; 0x49
    1638:	334d5453 	movtcc	r5, #54355	; 0xd453
    163c:	62754332 	rsbsvs	r4, r5, #-939524096	; 0xc8000000
    1640:	45444965 	strbmi	r4, [r4, #-2405]	; 0xfffff69b
    1644:	756c705c 	strbvc	r7, [ip, #-92]!	; 0xffffffa4
    1648:	736e6967 	cmnvc	lr, #1687552	; 0x19c000
    164c:	6d6f635c 	stclvs	3, cr6, [pc, #-368]!	; 14e4 <_Min_Stack_Size+0x10e4>
    1650:	2e74732e 	cdpcs	3, 7, cr7, cr4, cr14, {1}
    1654:	336d7473 	cmncc	sp, #1929379840	; 0x73000000
    1658:	62756332 	rsbsvs	r6, r5, #-939524096	; 0xc8000000
    165c:	64692e65 	strbtvs	r2, [r9], #-3685	; 0xfffff19b
    1660:	636d2e65 	cmnvs	sp, #1616	; 0x650
    1664:	78652e75 	stmdavc	r5!, {r0, r2, r4, r5, r6, r9, sl, fp, sp}^
    1668:	6e726574 	mrcvs	5, 3, r6, cr2, cr4, {3}
    166c:	6f746c61 	svcvs	0x00746c61
    1670:	2e736c6f 	cdpcs	12, 7, cr6, cr3, cr15, {3}
    1674:	2d756e67 	ldclcs	14, cr6, [r5, #-412]!	; 0xfffffe64
    1678:	6c6f6f74 	stclvs	15, cr6, [pc], #-464	; 14b0 <_Min_Stack_Size+0x10b0>
    167c:	6f662d73 	svcvs	0x00662d73
    1680:	74732d72 	ldrbtvc	r2, [r3], #-3442	; 0xfffff28e
    1684:	2e32336d 	cdpcs	3, 3, cr3, cr2, cr13, {3}
    1688:	332e3131 			; <UNDEFINED> instruction: 0x332e3131
    168c:	6c65722e 	sfmvs	f7, 2, [r5], #-184	; 0xffffff48
    1690:	69772e31 	ldmdbvs	r7!, {r0, r4, r5, r9, sl, fp, sp}^
    1694:	5f32336e 	svcpl	0x0032336e
    1698:	2e312e31 	mrccs	14, 1, r2, cr1, cr1, {1}
    169c:	30322e30 	eorscc	r2, r2, r0, lsr lr
    16a0:	35303332 	ldrcc	r3, [r0, #-818]!	; 0xfffffcce
    16a4:	35313332 	ldrcc	r3, [r1, #-818]!	; 0xfffffcce
    16a8:	745c3630 	ldrbvc	r3, [ip], #-1584	; 0xfffff9d0
    16ac:	736c6f6f 	cmnvc	ip, #444	; 0x1bc
    16b0:	6e69625c 	mcrvs	2, 3, r6, cr9, cr12, {2}
    16b4:	2f2e2e2f 	svccs	0x002e2e2f
    16b8:	2f62696c 	svccs	0x0062696c
    16bc:	2f636367 	svccs	0x00636367
    16c0:	2d6d7261 	sfmcs	f7, 2, [sp, #-388]!	; 0xfffffe7c
    16c4:	656e6f6e 	strbvs	r6, [lr, #-3950]!	; 0xfffff092
    16c8:	6261652d 	rsbvs	r6, r1, #188743680	; 0xb400000
    16cc:	31312f69 	teqcc	r1, r9, ror #30
    16d0:	312e332e 			; <UNDEFINED> instruction: 0x312e332e
    16d4:	636e692f 	cmnvs	lr, #770048	; 0xbc000
    16d8:	6564756c 	strbvs	r7, [r4, #-1388]!	; 0xfffffa94
    16dc:	5c3a4400 	cfldrspl	mvf4, [sl], #-0
    16e0:	334d5453 	movtcc	r5, #54355	; 0xd453
    16e4:	62754332 	rsbsvs	r4, r5, #-939524096	; 0xc8000000
    16e8:	45444965 	strbmi	r4, [r4, #-2405]	; 0xfffff69b
    16ec:	312e315f 			; <UNDEFINED> instruction: 0x312e315f
    16f0:	5c302e33 	ldcpl	14, cr2, [r0], #-204	; 0xffffff34
    16f4:	334d5453 	movtcc	r5, #54355	; 0xd453
    16f8:	62754332 	rsbsvs	r4, r5, #-939524096	; 0xc8000000
    16fc:	45444965 	strbmi	r4, [r4, #-2405]	; 0xfffff69b
    1700:	4d54535c 	ldclmi	3, cr5, [r4, #-368]	; 0xfffffe90
    1704:	75433233 	strbvc	r3, [r3, #-563]	; 0xfffffdcd
    1708:	44496562 	strbmi	r6, [r9], #-1378	; 0xfffffa9e
    170c:	6c705c45 	ldclvs	12, cr5, [r0], #-276	; 0xfffffeec
    1710:	6e696775 	mcrvs	7, 3, r6, cr9, cr5, {3}
    1714:	6f635c73 	svcvs	0x00635c73
    1718:	74732e6d 	ldrbtvc	r2, [r3], #-3693	; 0xfffff193
    171c:	6d74732e 	ldclvs	3, cr7, [r4, #-184]!	; 0xffffff48
    1720:	75633233 	strbvc	r3, [r3, #-563]!	; 0xfffffdcd
    1724:	692e6562 	stmdbvs	lr!, {r1, r5, r6, r8, sl, sp, lr}
    1728:	6d2e6564 	cfstr32vs	mvfx6, [lr, #-400]!	; 0xfffffe70
    172c:	652e7563 	strvs	r7, [lr, #-1379]!	; 0xfffffa9d
    1730:	72657478 	rsbvc	r7, r5, #120, 8	; 0x78000000
    1734:	746c616e 	strbtvc	r6, [ip], #-366	; 0xfffffe92
    1738:	736c6f6f 	cmnvc	ip, #444	; 0x1bc
    173c:	756e672e 	strbvc	r6, [lr, #-1838]!	; 0xfffff8d2
    1740:	6f6f742d 	svcvs	0x006f742d
    1744:	662d736c 	strtvs	r7, [sp], -ip, ror #6
    1748:	732d726f 			; <UNDEFINED> instruction: 0x732d726f
    174c:	32336d74 	eorscc	r6, r3, #116, 26	; 0x1d00
    1750:	2e31312e 	rsfcssp	f3, f1, #0.5
    1754:	65722e33 	ldrbvs	r2, [r2, #-3635]!	; 0xfffff1cd
    1758:	772e316c 	strvc	r3, [lr, -ip, ror #2]!
    175c:	32336e69 	eorscc	r6, r3, #1680	; 0x690
    1760:	312e315f 			; <UNDEFINED> instruction: 0x312e315f
    1764:	322e302e 	eorcc	r3, lr, #46	; 0x2e
    1768:	30333230 	eorscc	r3, r3, r0, lsr r2
    176c:	31333235 	teqcc	r3, r5, lsr r2
    1770:	5c363035 	ldcpl	0, cr3, [r6], #-212	; 0xffffff2c
    1774:	6c6f6f74 	stclvs	15, cr6, [pc], #-464	; 15ac <_Min_Stack_Size+0x11ac>
    1778:	69625c73 	stmdbvs	r2!, {r0, r1, r4, r5, r6, sl, fp, ip, lr}^
    177c:	2e2e2f6e 	cdpcs	15, 2, cr2, cr14, cr14, {3}
    1780:	62696c2f 	rsbvs	r6, r9, #12032	; 0x2f00
    1784:	6363672f 	cmnvs	r3, #12320768	; 0xbc0000
    1788:	6d72612f 	ldfvse	f6, [r2, #-188]!	; 0xffffff44
    178c:	6e6f6e2d 	cdpvs	14, 6, cr6, cr15, cr13, {1}
    1790:	61652d65 	cmnvs	r5, r5, ror #26
    1794:	312f6962 			; <UNDEFINED> instruction: 0x312f6962
    1798:	2e332e31 	mrccs	14, 1, r2, cr3, cr1, {1}
    179c:	2e2e2f31 	mcrcs	15, 1, r2, cr14, cr1, {1}
    17a0:	2f2e2e2f 	svccs	0x002e2e2f
    17a4:	2e2f2e2e 	cdpcs	14, 2, cr2, cr15, cr14, {1}
    17a8:	72612f2e 	rsbvc	r2, r1, #46, 30	; 0xb8
    17ac:	6f6e2d6d 	svcvs	0x006e2d6d
    17b0:	652d656e 	strvs	r6, [sp, #-1390]!	; 0xfffffa92
    17b4:	2f696261 	svccs	0x00696261
    17b8:	6c636e69 	stclvs	14, cr6, [r3], #-420	; 0xfffffe5c
    17bc:	00656475 	rsbeq	r6, r5, r5, ror r4
    17c0:	535c3a44 	cmppl	ip, #68, 20	; 0x44000
    17c4:	32334d54 	eorscc	r4, r3, #84, 26	; 0x1500
    17c8:	65627543 	strbvs	r7, [r2, #-1347]!	; 0xfffffabd
    17cc:	5f454449 	svcpl	0x00454449
    17d0:	33312e31 	teqcc	r1, #784	; 0x310
    17d4:	535c302e 	cmppl	ip, #46	; 0x2e
    17d8:	32334d54 	eorscc	r4, r3, #84, 26	; 0x1500
    17dc:	65627543 	strbvs	r7, [r2, #-1347]!	; 0xfffffabd
    17e0:	5c454449 	cfstrdpl	mvd4, [r5], {73}	; 0x49
    17e4:	334d5453 	movtcc	r5, #54355	; 0xd453
    17e8:	62754332 	rsbsvs	r4, r5, #-939524096	; 0xc8000000
    17ec:	45444965 	strbmi	r4, [r4, #-2405]	; 0xfffff69b
    17f0:	756c705c 	strbvc	r7, [ip, #-92]!	; 0xffffffa4
    17f4:	736e6967 	cmnvc	lr, #1687552	; 0x19c000
    17f8:	6d6f635c 	stclvs	3, cr6, [pc, #-368]!	; 1690 <_Min_Stack_Size+0x1290>
    17fc:	2e74732e 	cdpcs	3, 7, cr7, cr4, cr14, {1}
    1800:	336d7473 	cmncc	sp, #1929379840	; 0x73000000
    1804:	62756332 	rsbsvs	r6, r5, #-939524096	; 0xc8000000
    1808:	64692e65 	strbtvs	r2, [r9], #-3685	; 0xfffff19b
    180c:	636d2e65 	cmnvs	sp, #1616	; 0x650
    1810:	78652e75 	stmdavc	r5!, {r0, r2, r4, r5, r6, r9, sl, fp, sp}^
    1814:	6e726574 	mrcvs	5, 3, r6, cr2, cr4, {3}
    1818:	6f746c61 	svcvs	0x00746c61
    181c:	2e736c6f 	cdpcs	12, 7, cr6, cr3, cr15, {3}
    1820:	2d756e67 	ldclcs	14, cr6, [r5, #-412]!	; 0xfffffe64
    1824:	6c6f6f74 	stclvs	15, cr6, [pc], #-464	; 165c <_Min_Stack_Size+0x125c>
    1828:	6f662d73 	svcvs	0x00662d73
    182c:	74732d72 	ldrbtvc	r2, [r3], #-3442	; 0xfffff28e
    1830:	2e32336d 	cdpcs	3, 3, cr3, cr2, cr13, {3}
    1834:	332e3131 			; <UNDEFINED> instruction: 0x332e3131
    1838:	6c65722e 	sfmvs	f7, 2, [r5], #-184	; 0xffffff48
    183c:	69772e31 	ldmdbvs	r7!, {r0, r4, r5, r9, sl, fp, sp}^
    1840:	5f32336e 	svcpl	0x0032336e
    1844:	2e312e31 	mrccs	14, 1, r2, cr1, cr1, {1}
    1848:	30322e30 	eorscc	r2, r2, r0, lsr lr
    184c:	35303332 	ldrcc	r3, [r0, #-818]!	; 0xfffffcce
    1850:	35313332 	ldrcc	r3, [r1, #-818]!	; 0xfffffcce
    1854:	745c3630 	ldrbvc	r3, [ip], #-1584	; 0xfffff9d0
    1858:	736c6f6f 	cmnvc	ip, #444	; 0x1bc
    185c:	6e69625c 	mcrvs	2, 3, r6, cr9, cr12, {2}
    1860:	2f2e2e2f 	svccs	0x002e2e2f
    1864:	2f62696c 	svccs	0x0062696c
    1868:	2f636367 	svccs	0x00636367
    186c:	2d6d7261 	sfmcs	f7, 2, [sp, #-388]!	; 0xfffffe7c
    1870:	656e6f6e 	strbvs	r6, [lr, #-3950]!	; 0xfffff092
    1874:	6261652d 	rsbvs	r6, r1, #188743680	; 0xb400000
    1878:	31312f69 	teqcc	r1, r9, ror #30
    187c:	312e332e 			; <UNDEFINED> instruction: 0x312e332e
    1880:	2f2e2e2f 	svccs	0x002e2e2f
    1884:	2e2f2e2e 	cdpcs	14, 2, cr2, cr15, cr14, {1}
    1888:	2e2e2f2e 	cdpcs	15, 2, cr2, cr14, cr14, {1}
    188c:	6d72612f 	ldfvse	f6, [r2, #-188]!	; 0xffffff44
    1890:	6e6f6e2d 	cdpvs	14, 6, cr6, cr15, cr13, {1}
    1894:	61652d65 	cmnvs	r5, r5, ror #26
    1898:	692f6962 	stmdbvs	pc!, {r1, r5, r6, r8, fp, sp, lr}	; <UNPREDICTABLE>
    189c:	756c636e 	strbvc	r6, [ip, #-878]!	; 0xfffffc92
    18a0:	6d2f6564 	cfstr32vs	mvfx6, [pc, #-400]!	; 1718 <_Min_Stack_Size+0x1318>
    18a4:	69686361 	stmdbvs	r8!, {r0, r5, r6, r8, r9, sp, lr}^
    18a8:	4400656e 	strmi	r6, [r0], #-1390	; 0xfffffa92
    18ac:	54535c3a 	ldrbpl	r5, [r3], #-3130	; 0xfffff3c6
    18b0:	4332334d 	teqmi	r2, #872415233	; 0x34000001
    18b4:	49656275 	stmdbmi	r5!, {r0, r2, r4, r5, r6, r9, sp, lr}^
    18b8:	315f4544 	cmpcc	pc, r4, asr #10
    18bc:	2e33312e 	rsfcssp	f3, f3, #0.5
    18c0:	54535c30 	ldrbpl	r5, [r3], #-3120	; 0xfffff3d0
    18c4:	4332334d 	teqmi	r2, #872415233	; 0x34000001
    18c8:	49656275 	stmdbmi	r5!, {r0, r2, r4, r5, r6, r9, sp, lr}^
    18cc:	535c4544 	cmppl	ip, #68, 10	; 0x11000000
    18d0:	32334d54 	eorscc	r4, r3, #84, 26	; 0x1500
    18d4:	65627543 	strbvs	r7, [r2, #-1347]!	; 0xfffffabd
    18d8:	5c454449 	cfstrdpl	mvd4, [r5], {73}	; 0x49
    18dc:	67756c70 			; <UNDEFINED> instruction: 0x67756c70
    18e0:	5c736e69 	ldclpl	14, cr6, [r3], #-420	; 0xfffffe5c
    18e4:	2e6d6f63 	cdpcs	15, 6, cr6, cr13, cr3, {3}
    18e8:	732e7473 			; <UNDEFINED> instruction: 0x732e7473
    18ec:	32336d74 	eorscc	r6, r3, #116, 26	; 0x1d00
    18f0:	65627563 	strbvs	r7, [r2, #-1379]!	; 0xfffffa9d
    18f4:	6564692e 	strbvs	r6, [r4, #-2350]!	; 0xfffff6d2
    18f8:	75636d2e 	strbvc	r6, [r3, #-3374]!	; 0xfffff2d2
    18fc:	7478652e 	ldrbtvc	r6, [r8], #-1326	; 0xfffffad2
    1900:	616e7265 	cmnvs	lr, r5, ror #4
    1904:	6f6f746c 	svcvs	0x006f746c
    1908:	672e736c 	strvs	r7, [lr, -ip, ror #6]!
    190c:	742d756e 	strtvc	r7, [sp], #-1390	; 0xfffffa92
    1910:	736c6f6f 	cmnvc	ip, #444	; 0x1bc
    1914:	726f662d 	rsbvc	r6, pc, #47185920	; 0x2d00000
    1918:	6d74732d 	ldclvs	3, cr7, [r4, #-180]!	; 0xffffff4c
    191c:	312e3233 			; <UNDEFINED> instruction: 0x312e3233
    1920:	2e332e31 	mrccs	14, 1, r2, cr3, cr1, {1}
    1924:	316c6572 	smccc	50770	; 0xc652
    1928:	6e69772e 	cdpvs	7, 6, cr7, cr9, cr14, {1}
    192c:	315f3233 	cmpcc	pc, r3, lsr r2	; <UNPREDICTABLE>
    1930:	302e312e 	eorcc	r3, lr, lr, lsr #2
    1934:	3230322e 	eorscc	r3, r0, #-536870910	; 0xe0000002
    1938:	32353033 	eorscc	r3, r5, #51	; 0x33
    193c:	30353133 	eorscc	r3, r5, r3, lsr r1
    1940:	6f745c36 	svcvs	0x00745c36
    1944:	5c736c6f 	ldclpl	12, cr6, [r3], #-444	; 0xfffffe44
    1948:	2f6e6962 	svccs	0x006e6962
    194c:	612f2e2e 			; <UNDEFINED> instruction: 0x612f2e2e
    1950:	6e2d6d72 	mcrvs	13, 1, r6, cr13, cr2, {3}
    1954:	2d656e6f 	stclcs	14, cr6, [r5, #-444]!	; 0xfffffe44
    1958:	69626165 	stmdbvs	r2!, {r0, r2, r5, r6, r8, sp, lr}^
    195c:	636e692f 	cmnvs	lr, #770048	; 0xbc000
    1960:	6564756c 	strbvs	r7, [r4, #-1388]!	; 0xfffffa94
    1964:	77656e2f 	strbvc	r6, [r5, -pc, lsr #28]!
    1968:	2d62696c 			; <UNDEFINED> instruction: 0x2d62696c
    196c:	6f6e616e 	svcvs	0x006e616e
    1970:	616d0000 	cmnvs	sp, r0
    1974:	632e6e69 			; <UNDEFINED> instruction: 0x632e6e69
    1978:	00000100 	andeq	r0, r0, r0, lsl #2
    197c:	6665645f 			; <UNDEFINED> instruction: 0x6665645f
    1980:	746c7561 	strbtvc	r7, [ip], #-1377	; 0xfffffa9f
    1984:	7079745f 	rsbsvc	r7, r9, pc, asr r4
    1988:	682e7365 	stmdavs	lr!, {r0, r2, r5, r6, r8, r9, ip, sp, lr}
    198c:	00000200 	andeq	r0, r0, r0, lsl #4
    1990:	6474735f 	ldrbtvs	r7, [r4], #-863	; 0xfffffca1
    1994:	2e746e69 	cdpcs	14, 7, cr6, cr4, cr9, {3}
    1998:	00030068 	andeq	r0, r3, r8, rrx
    199c:	6d747300 	ldclvs	3, cr7, [r4, #-0]
    19a0:	31663233 	cmncc	r6, r3, lsr r2
    19a4:	78783330 	ldmdavc	r8!, {r4, r5, r8, r9, ip, sp}^
    19a8:	00682e78 	rsbeq	r2, r8, r8, ror lr
    19ac:	45000004 	strmi	r0, [r0, #-4]
    19b0:	2e495458 	mcrcs	4, 2, r5, cr9, cr8, {2}
    19b4:	00040068 	andeq	r0, r4, r8, rrx
    19b8:	64747300 	ldrbtvs	r7, [r4], #-768	; 0xfffffd00
    19bc:	2e746e69 	cdpcs	14, 7, cr6, cr4, cr9, {3}
    19c0:	00050068 	andeq	r0, r5, r8, rrx
    19c4:	64747300 	ldrbtvs	r7, [r4], #-768	; 0xfffffd00
    19c8:	2e746e69 	cdpcs	14, 7, cr6, cr4, cr9, {3}
    19cc:	00060068 	andeq	r0, r6, r8, rrx
    19d0:	61656600 	cmnvs	r5, r0, lsl #12
    19d4:	65727574 	ldrbvs	r7, [r2, #-1396]!	; 0xfffffa8c
    19d8:	00682e73 	rsbeq	r2, r8, r3, ror lr
    19dc:	5f000003 	svcpl	0x00000003
    19e0:	6c77656e 	cfldr64vs	mvdx6, [r7], #-440	; 0xfffffe48
    19e4:	765f6269 	ldrbvc	r6, [pc], -r9, ror #4
    19e8:	69737265 	ldmdbvs	r3!, {r0, r2, r5, r6, r9, ip, sp, lr}^
    19ec:	682e6e6f 	stmdavs	lr!, {r0, r1, r2, r3, r5, r6, r9, sl, fp, sp, lr}
    19f0:	00000600 	andeq	r0, r0, r0, lsl #12
    19f4:	746e695f 	strbtvc	r6, [lr], #-2399	; 0xfffff6a1
    19f8:	2e707573 	mrccs	5, 3, r7, cr0, cr3, {3}
    19fc:	00030068 	andeq	r0, r3, r8, rrx
    1a00:	49504700 	ldmdbmi	r0, {r8, r9, sl, lr}^
    1a04:	00682e4f 	rsbeq	r2, r8, pc, asr #28
    1a08:	73000004 	movwvc	r0, #4
    1a0c:	696c6474 	stmdbvs	ip!, {r2, r4, r5, r6, sl, sp, lr}^
    1a10:	00682e62 	rsbeq	r2, r8, r2, ror #28
    1a14:	69000006 	stmdbvs	r0, {r1, r2}
    1a18:	66656565 	strbtvs	r6, [r5], -r5, ror #10
    1a1c:	00682e70 	rsbeq	r2, r8, r0, ror lr
    1a20:	5f000007 	svcpl	0x00000007
    1a24:	69736e61 	ldmdbvs	r3!, {r0, r5, r6, r9, sl, fp, sp, lr}^
    1a28:	0600682e 	streq	r6, [r0], -lr, lsr #16
    1a2c:	656e0000 	strbvs	r0, [lr, #-0]!
    1a30:	62696c77 	rsbvs	r6, r9, #30464	; 0x7700
    1a34:	0800682e 	stmdaeq	r0, {r1, r2, r3, r5, fp, sp, lr}
    1a38:	6f630000 	svcvs	0x00630000
    1a3c:	6769666e 	strbvs	r6, [r9, -lr, ror #12]!
    1a40:	0300682e 	movweq	r6, #2094	; 0x82e
    1a44:	74730000 	ldrbtvc	r0, [r3], #-0
    1a48:	66656464 	strbtvs	r6, [r5], -r4, ror #8
    1a4c:	0500682e 	streq	r6, [r0, #-2094]	; 0xfffff7d2
    1a50:	65720000 	ldrbvs	r0, [r2, #-0]!
    1a54:	2e746e65 	cdpcs	14, 7, cr6, cr4, cr5, {3}
    1a58:	00030068 	andeq	r0, r3, r8, rrx
    1a5c:	79745f00 	ldmdbvc	r4!, {r8, r9, sl, fp, ip, lr}^
    1a60:	2e736570 	mrccs	5, 3, r6, cr3, cr0, {3}
    1a64:	00030068 	andeq	r0, r3, r8, rrx
    1a68:	79745f00 	ldmdbvc	r4!, {r8, r9, sl, fp, ip, lr}^
    1a6c:	2e736570 	mrccs	5, 3, r6, cr3, cr0, {3}
    1a70:	00070068 	andeq	r0, r7, r8, rrx
    1a74:	636f6c00 	cmnvs	pc, #0, 24
    1a78:	00682e6b 	rsbeq	r2, r8, fp, ror #28
    1a7c:	61000003 	tstvs	r0, r3
    1a80:	72657373 	rsbvc	r7, r5, #-872415231	; 0xcc000001
    1a84:	00682e74 	rsbeq	r2, r8, r4, ror lr
    1a88:	63000006 	movwvs	r0, #6
    1a8c:	73666564 	cmnvc	r6, #100, 10	; 0x19000000
    1a90:	0300682e 	movweq	r6, #2094	; 0x82e
    1a94:	74730000 	ldrbtvc	r0, [r3], #-0
    1a98:	62696c64 	rsbvs	r6, r9, #100, 24	; 0x6400
    1a9c:	0700682e 	streq	r6, [r0, -lr, lsr #16]
    1aa0:	6c610000 	stclvs	0, cr0, [r1], #-0
    1aa4:	61636f6c 	cmnvs	r3, ip, ror #30
    1aa8:	0600682e 	streq	r6, [r0], -lr, lsr #16
    1aac:	05000000 	streq	r0, [r0, #-0]
    1ab0:	02050001 	andeq	r0, r5, #1
    1ab4:	080009dc 	stmdaeq	r0, {r2, r3, r4, r6, r7, r8, fp}
    1ab8:	30011e03 	andcc	r1, r1, r3, lsl #28
    1abc:	01000402 	tsteq	r0, r2, lsl #8
    1ac0:	00010501 	andeq	r0, r1, r1, lsl #10
    1ac4:	09e80205 	stmibeq	r8!, {r0, r2, r9}^
    1ac8:	2a030800 	bcs	c3ad0 <_Min_Stack_Size+0xc36d0>
    1acc:	59020501 	stmdbpl	r2, {r0, r8, sl}
    1ad0:	12030105 	andne	r0, r3, #1073741825	; 0x40000001
    1ad4:	03030558 	movweq	r0, #13656	; 0x3558
    1ad8:	23872072 	orrcs	r2, r7, #114	; 0x72
    1adc:	23010569 	movwcs	r0, #5481	; 0x1569
    1ae0:	01000502 	tsteq	r0, r2, lsl #10
    1ae4:	00010501 	andeq	r0, r1, r1, lsl #10
    1ae8:	0a280205 	beq	a02304 <_Min_Stack_Size+0xa01f04>
    1aec:	c1030800 	tstgt	r3, r0, lsl #16
    1af0:	07050100 	streq	r0, [r5, -r0, lsl #2]
    1af4:	3e02052f 	cfsh32cc	mvfx0, mvfx2, #31
    1af8:	023e0105 	eorseq	r0, lr, #1073741825	; 0x40000001
    1afc:	01010004 	tsteq	r1, r4
    1b00:	05000105 	streq	r0, [r0, #-261]	; 0xfffffefb
    1b04:	000a4002 	andeq	r4, sl, r2
    1b08:	00c80308 	sbceq	r0, r8, r8, lsl #6
    1b0c:	3d030501 	cfstr32cc	mvfx0, [r3, #-4]
    1b10:	6c170567 	cfldr32vs	mvfx0, [r7], {103}	; 0x67
    1b14:	05671505 	strbeq	r1, [r7, #-1285]!	; 0xfffffafb
    1b18:	1d052f1b 	stcne	15, cr2, [r5, #-108]	; 0xffffff94
    1b1c:	2f02052f 	svccs	0x0002052f
    1b20:	055a0305 	ldrbeq	r0, [sl, #-773]	; 0xfffffcfb
    1b24:	05054206 	streq	r4, [r5, #-518]	; 0xfffffdfa
    1b28:	3008052e 	andcc	r0, r8, lr, lsr #10
    1b2c:	023a0505 	eorseq	r0, sl, #20971520	; 0x1400000
    1b30:	0101000a 	tsteq	r1, sl
    1b34:	00000080 	andeq	r0, r0, r0, lsl #1
    1b38:	00390003 	eorseq	r0, r9, r3
    1b3c:	01020000 	mrseq	r0, (UNDEF: 2)
    1b40:	000d0efb 	strdeq	r0, [sp], -fp
    1b44:	01010101 	tsteq	r1, r1, lsl #2
    1b48:	01000000 	mrseq	r0, (UNDEF: 0)
    1b4c:	2e010000 	cdpcs	0, 0, cr0, cr1, cr0, {0}
    1b50:	74532f2e 	ldrbvc	r2, [r3], #-3886	; 0xfffff0d2
    1b54:	75747261 	ldrbvc	r7, [r4, #-609]!	; 0xfffffd9f
    1b58:	73000070 	movwvc	r0, #112	; 0x70
    1b5c:	74726174 	ldrbtvc	r6, [r2], #-372	; 0xfffffe8c
    1b60:	735f7075 	cmpvc	pc, #117	; 0x75
    1b64:	32336d74 	eorscc	r6, r3, #116, 26	; 0x1d00
    1b68:	33303166 	teqcc	r0, #-2147483623	; 0x80000019
    1b6c:	78743863 	ldmdavc	r4!, {r0, r1, r5, r6, fp, ip, sp}^
    1b70:	0100732e 	tsteq	r0, lr, lsr #6
    1b74:	00000000 	andeq	r0, r0, r0
    1b78:	0aa80205 	beq	fea02394 <_estack+0xde9fd394>
    1b7c:	39030800 	stmdbcc	r3, {fp}
    1b80:	31222101 			; <UNDEFINED> instruction: 0x31222101
    1b84:	21212121 			; <UNDEFINED> instruction: 0x21212121
    1b88:	23212123 			; <UNDEFINED> instruction: 0x23212123
    1b8c:	21232121 			; <UNDEFINED> instruction: 0x21232121
    1b90:	21232121 			; <UNDEFINED> instruction: 0x21232121
    1b94:	30232123 	eorcc	r2, r3, r3, lsr #2
    1b98:	20560331 	subscs	r0, r6, r1, lsr r3
    1b9c:	032f2f34 			; <UNDEFINED> instruction: 0x032f2f34
    1ba0:	022f2e0f 	eoreq	r2, pc, #15, 28	; 0xf0
    1ba4:	01010002 	tsteq	r1, r2
    1ba8:	f8020500 			; <UNDEFINED> instruction: 0xf8020500
    1bac:	0308000a 	movweq	r0, #32778	; 0x800a
    1bb0:	020100f2 	andeq	r0, r1, #242	; 0xf2
    1bb4:	01010001 	tsteq	r1, r1

Disassembly of section .debug_str:

00000000 <.debug_str>:
       0:	31433249 	cmpcc	r3, r9, asr #4
       4:	5f56455f 	svcpl	0x0056455f
       8:	20515249 	subscs	r5, r1, r9, asr #4
       c:	5f003133 	svcpl	0x00003133
      10:	554e475f 	strbpl	r4, [lr, #-1887]	; 0xfffff8a1
      14:	4b494c43 	blmi	1253128 <_Min_Stack_Size+0x1252d28>
      18:	5f5f5f45 	svcpl	0x005f5f45
      1c:	54434553 	strbpl	r4, [r3], #-1363	; 0xfffffaad
      20:	204e4f49 	subcs	r4, lr, r9, asr #30
      24:	4e5f0031 	mrcmi	0, 2, r0, cr15, cr1, {1}
      28:	494c5745 	stmdbmi	ip, {r0, r2, r6, r8, r9, sl, ip, lr}^
      2c:	45565f42 	ldrbmi	r5, [r6, #-3906]	; 0xfffff0be
      30:	4f495352 	svcmi	0x00495352
      34:	3422204e 	strtcc	r2, [r2], #-78	; 0xffffffb2
      38:	302e322e 	eorcc	r3, lr, lr, lsr #4
      3c:	49570022 	ldmdbmi	r7, {r1, r5}^
      40:	4d5f544e 	cfldrdmi	mvd5, [pc, #-312]	; ffffff10 <_estack+0xdfffaf10>
      44:	28204e49 	stmdacs	r0!, {r0, r3, r6, r9, sl, fp, lr}
      48:	49575f5f 	ldmdbmi	r7, {r0, r1, r2, r3, r4, r6, r8, r9, sl, fp, ip, lr}^
      4c:	4d5f544e 	cfldrdmi	mvd5, [pc, #-312]	; ffffff1c <_estack+0xdfffaf1c>
      50:	5f5f4e49 	svcpl	0x005f4e49
      54:	5f5f0029 	svcpl	0x005f0029
      58:	49434544 	stmdbmi	r3, {r2, r6, r8, sl, lr}^
      5c:	5f4c414d 	svcpl	0x004c414d
      60:	5f474944 	svcpl	0x00474944
      64:	3731205f 			; <UNDEFINED> instruction: 0x3731205f
      68:	625f5f00 	subsvs	r5, pc, #0, 30
      6c:	746c6975 	strbtvc	r6, [ip], #-2421	; 0xfffff68b
      70:	695f6e69 	ldmdbvs	pc, {r0, r3, r5, r6, r9, sl, fp, sp, lr}^	; <UNPREDICTABLE>
      74:	6c615f73 	stclvs	15, cr5, [r1], #-460	; 0xfffffe34
      78:	656e6769 	strbvs	r6, [lr, #-1897]!	; 0xfffff897
      7c:	2c782864 	ldclcs	8, cr2, [r8], #-400	; 0xfffffe70
      80:	67696c61 	strbvs	r6, [r9, -r1, ror #24]!
      84:	2820296e 	stmdacs	r0!, {r1, r2, r3, r5, r6, r8, fp, sp}
      88:	5f5f2828 	svcpl	0x005f2828
      8c:	746e6975 	strbtvc	r6, [lr], #-2421	; 0xfffff68b
      90:	5f727470 	svcpl	0x00727470
      94:	20782974 	rsbscs	r2, r8, r4, ror r9
      98:	28282026 	stmdacs	r8!, {r1, r2, r5, sp}
      9c:	67696c61 	strbvs	r6, [r9, -r1, ror #24]!
      a0:	2d20296e 			; <UNDEFINED> instruction: 0x2d20296e
      a4:	29293120 	stmdbcs	r9!, {r5, r8, ip, sp}
      a8:	203d3d20 	eorscs	r3, sp, r0, lsr #26
      ac:	5f002930 	svcpl	0x00002930
      b0:	4148555f 	cmpmi	r8, pc, asr r5
      b4:	4942465f 	stmdbmi	r2, {r0, r1, r2, r3, r4, r6, r9, sl, lr}^
      b8:	205f5f54 	subscs	r5, pc, r4, asr pc	; <UNPREDICTABLE>
      bc:	5f5f0038 	svcpl	0x005f0038
      c0:	44495653 	strbmi	r5, [r9], #-1619	; 0xfffff9ad
      c4:	5349565f 	movtpl	r5, #38495	; 0x965f
      c8:	454c4249 	strbmi	r4, [ip, #-585]	; 0xfffffdb7
      cc:	5f003120 	svcpl	0x00003120
      d0:	746e695f 	strbtvc	r6, [lr], #-2399	; 0xfffff6a1
      d4:	2b203032 	blcs	80c1a4 <_Min_Stack_Size+0x80bda4>
      d8:	434d0032 	movtmi	r0, #53298	; 0xd032
      dc:	475f4c41 	ldrbmi	r4, [pc, -r1, asr #24]
      e0:	5f4f4950 	svcpl	0x004f4950
      e4:	74696e49 	strbtvc	r6, [r9], #-3657	; 0xfffff1b7
      e8:	465f5f00 	ldrbmi	r5, [pc], -r0, lsl #30
      ec:	3436544c 	ldrtcc	r5, [r6], #-1100	; 0xfffffbb4
      f0:	4e45445f 	mcrmi	4, 2, r4, cr5, cr15, {2}
      f4:	5f4d524f 	svcpl	0x004d524f
      f8:	5f4e494d 	svcpl	0x004e494d
      fc:	2e34205f 	mrccs	0, 1, r2, cr4, cr15, {2}
     100:	36303439 			; <UNDEFINED> instruction: 0x36303439
     104:	35343635 	ldrcc	r3, [r4, #-1589]!	; 0xfffff9cb
     108:	32313438 	eorscc	r3, r1, #56, 8	; 0x38000000
     10c:	34353634 	ldrtcc	r3, [r5], #-1588	; 0xfffff9cc
     110:	32332d65 	eorscc	r2, r3, #6464	; 0x1940
     114:	34364634 	ldrtcc	r4, [r6], #-1588	; 0xfffff9cc
     118:	435f5f00 	cmpmi	pc, #0, 30
     11c:	55535f43 	ldrbpl	r5, [r3, #-3907]	; 0xfffff0bd
     120:	524f5050 	subpl	r5, pc, #80	; 0x50
     124:	495f5354 	ldmdbmi	pc, {r2, r4, r6, r8, r9, ip, lr}^	; <UNPREDICTABLE>
     128:	4e494c4e 	cdpmi	12, 4, cr4, cr9, cr14, {2}
     12c:	00312045 	eorseq	r2, r1, r5, asr #32
     130:	5f433249 	svcpl	0x00433249
     134:	5f315243 	svcpl	0x00315243
     138:	5f434550 	svcpl	0x00434550
     13c:	206b734d 	rsbcs	r7, fp, sp, asr #6
     140:	31783028 	cmncc	r8, r8, lsr #32
     144:	3c204c55 	stccc	12, cr4, [r0], #-340	; 0xfffffeac
     148:	3249203c 	subcc	r2, r9, #60	; 0x3c
     14c:	52435f43 	subpl	r5, r3, #268	; 0x10c
     150:	45505f31 	ldrbmi	r5, [r0, #-3889]	; 0xfffff0cf
     154:	6f505f43 	svcvs	0x00505f43
     158:	5f002973 	svcpl	0x00002973
     15c:	4343475f 	movtmi	r4, #14175	; 0x375f
     160:	4f54415f 	svcmi	0x0054415f
     164:	5f43494d 	svcpl	0x0043494d
     168:	41484357 	cmpmi	r8, r7, asr r3
     16c:	5f545f52 	svcpl	0x00545f52
     170:	4b434f4c 	blmi	10d3ea8 <_Min_Stack_Size+0x10d3aa8>
     174:	4552465f 	ldrbmi	r4, [r2, #-1631]	; 0xfffff9a1
     178:	00322045 	eorseq	r2, r2, r5, asr #32
     17c:	48435f5f 	stmdami	r3, {r0, r1, r2, r3, r4, r6, r8, r9, sl, fp, ip, lr}^
     180:	555f5241 	ldrbpl	r5, [pc, #-577]	; ffffff47 <_estack+0xdfffaf47>
     184:	4749534e 	strbmi	r5, [r9, -lr, asr #6]
     188:	5f44454e 	svcpl	0x0044454e
     18c:	0031205f 	eorseq	r2, r1, pc, asr r0
     190:	5f433249 	svcpl	0x00433249
     194:	5f315243 	svcpl	0x00315243
     198:	45504e45 	ldrbmi	r4, [r0, #-3653]	; 0xfffff1bb
     19c:	6f505f43 	svcvs	0x00505f43
     1a0:	35282073 	strcc	r2, [r8, #-115]!	; 0xffffff8d
     1a4:	4e002955 			; <UNDEFINED> instruction: 0x4e002955
     1a8:	5f434956 	svcpl	0x00434956
     1ac:	34515249 	ldrbcc	r5, [r1], #-585	; 0xfffffdb7
     1b0:	58455f30 	stmdapl	r5, {r4, r5, r8, r9, sl, fp, ip, lr}^
     1b4:	30314954 	eorscc	r4, r1, r4, asr r9
     1b8:	5f35315f 	svcpl	0x0035315f
     1bc:	61736944 	cmnvs	r3, r4, asr #18
     1c0:	20656c62 	rsbcs	r6, r5, r2, ror #24
     1c4:	49564e28 	ldmdbmi	r6, {r3, r5, r9, sl, fp, lr}^
     1c8:	43495f43 	movtmi	r5, #40771	; 0x9f43
     1cc:	20315245 	eorscs	r5, r1, r5, asr #4
     1d0:	31203d7c 			; <UNDEFINED> instruction: 0x31203d7c
     1d4:	29383c3c 	ldmdbcs	r8!, {r2, r3, r4, r5, sl, fp, ip, sp}
     1d8:	775f5f00 	ldrbvc	r5, [pc, -r0, lsl #30]
     1dc:	5f6b6165 	svcpl	0x006b6165
     1e0:	626d7973 	rsbvs	r7, sp, #1884160	; 0x1cc000
     1e4:	5f206c6f 	svcpl	0x00206c6f
     1e8:	7474615f 	ldrbtvc	r6, [r4], #-351	; 0xfffffea1
     1ec:	75626972 	strbvc	r6, [r2, #-2418]!	; 0xfffff68e
     1f0:	5f5f6574 	svcpl	0x005f6574
     1f4:	5f5f2828 	svcpl	0x005f2828
     1f8:	6b616577 	blvs	18597dc <_Min_Stack_Size+0x18593dc>
     1fc:	29295f5f 	stmdbcs	r9!, {r0, r1, r2, r3, r4, r6, r8, r9, sl, fp, ip, lr}
     200:	54584500 	ldrbpl	r4, [r8], #-1280	; 0xfffffb00
     204:	00524349 	subseq	r4, r2, r9, asr #6
     208:	4c465f5f 	mcrrmi	15, 5, r5, r6, cr15
     20c:	5f343654 	svcpl	0x00343654
     210:	5f534148 	svcpl	0x00534148
     214:	49464e49 	stmdbmi	r6, {r0, r3, r6, r9, sl, fp, lr}^
     218:	5954494e 	ldmdbpl	r4, {r1, r2, r3, r6, r8, fp, lr}^
     21c:	31205f5f 			; <UNDEFINED> instruction: 0x31205f5f
     220:	725f5f00 	subsvc	r5, pc, #0, 30
     224:	69757165 	ldmdbvs	r5!, {r0, r2, r5, r6, r8, ip, sp, lr}^
     228:	5f736572 	svcpl	0x00736572
     22c:	6c637865 	stclvs	8, cr7, [r3], #-404	; 0xfffffe6c
     230:	76697375 			; <UNDEFINED> instruction: 0x76697375
     234:	2e2e2865 	cdpcs	8, 2, cr2, cr14, cr5, {3}
     238:	5f20292e 	svcpl	0x0020292e
     23c:	636f6c5f 	cmnvs	pc, #24320	; 0x5f00
     240:	6e615f6b 	cdpvs	15, 6, cr5, cr1, cr11, {3}
     244:	61746f6e 	cmnvs	r4, lr, ror #30
     248:	65286574 	strvs	r6, [r8, #-1396]!	; 0xfffffa8c
     24c:	756c6378 	strbvc	r6, [ip, #-888]!	; 0xfffffc88
     250:	65766973 	ldrbvs	r6, [r6, #-2419]!	; 0xfffff68d
     254:	636f6c5f 	cmnvs	pc, #24320	; 0x5f00
     258:	725f736b 	subsvc	r7, pc, #-1409286143	; 0xac000001
     25c:	69757165 	ldmdbvs	r5!, {r0, r2, r5, r6, r8, ip, sp, lr}^
     260:	28646572 	stmdacs	r4!, {r1, r4, r5, r6, r8, sl, sp, lr}^
     264:	41565f5f 	cmpmi	r6, pc, asr pc
     268:	4752415f 			; <UNDEFINED> instruction: 0x4752415f
     26c:	295f5f53 	ldmdbcs	pc, {r0, r1, r4, r6, r8, r9, sl, fp, ip, lr}^	; <UNPREDICTABLE>
     270:	525f0029 	subspl	r0, pc, #41	; 0x29
     274:	544e4545 	strbpl	r4, [lr], #-1349	; 0xfffffabb
     278:	4e41525f 	mcrmi	2, 2, r5, cr1, cr15, {2}
     27c:	5f383444 	svcpl	0x00383444
     280:	28444441 	stmdacs	r4, {r0, r6, sl, lr}^
     284:	29727470 	ldmdbcs	r2!, {r4, r5, r6, sl, ip, sp, lr}^
     288:	70282820 	eorvc	r2, r8, r0, lsr #16
     28c:	2d297274 	sfmcs	f7, 4, [r9, #-464]!	; 0xfffffe30
     290:	34725f3e 	ldrbtcc	r5, [r2], #-3902	; 0xfffff0c2
     294:	5f3e2d38 	svcpl	0x003e2d38
     298:	29646461 	stmdbcs	r4!, {r0, r5, r6, sl, sp, lr}^
     29c:	544e4900 	strbpl	r4, [lr], #-2304	; 0xfffff700
     2a0:	4d5f3631 	ldclmi	6, cr3, [pc, #-196]	; 1e4 <_Min_Heap_Size-0x1c>
     2a4:	28204e49 	stmdacs	r0!, {r0, r3, r6, r9, sl, fp, lr}
     2a8:	495f5f2d 	ldmdbmi	pc, {r0, r2, r3, r5, r8, r9, sl, fp, ip, lr}^	; <UNPREDICTABLE>
     2ac:	3631544e 	ldrtcc	r5, [r1], -lr, asr #8
     2b0:	58414d5f 	stmdapl	r1, {r0, r1, r2, r3, r4, r6, r8, sl, fp, lr}^
     2b4:	2d205f5f 	stccs	15, cr5, [r0, #-380]!	; 0xfffffe84
     2b8:	00293120 	eoreq	r3, r9, r0, lsr #2
     2bc:	4c4c5f5f 	mcrrmi	15, 5, r5, ip, cr15
     2c0:	55434341 	strbpl	r4, [r3, #-833]	; 0xfffffcbf
     2c4:	494d5f4d 	stmdbmi	sp, {r0, r2, r3, r6, r8, r9, sl, fp, ip, lr}^
     2c8:	205f5f4e 	subscs	r5, pc, lr, asr #30
     2cc:	58302d28 	ldmdapl	r0!, {r3, r5, r8, sl, fp, sp}
     2d0:	31335031 	teqcc	r3, r1, lsr r0
     2d4:	2d4b4c4c 	stclcs	12, cr4, [fp, #-304]	; 0xfffffed0
     2d8:	50315830 	eorspl	r5, r1, r0, lsr r8
     2dc:	4c4c3133 	stfmie	f3, [ip], {51}	; 0x33
     2e0:	4700294b 	strmi	r2, [r0, -fp, asr #18]
     2e4:	5f4f4950 	svcpl	0x004f4950
     2e8:	7074754f 	rsbsvc	r7, r4, pc, asr #10
     2ec:	535f7475 	cmppl	pc, #1962934272	; 0x75000000
     2f0:	64656570 	strbtvs	r6, [r5], #-1392	; 0xfffffa90
     2f4:	4c5f5f00 	mrrcmi	15, 0, r5, pc, cr0	; <UNPREDICTABLE>
     2f8:	5f4b434f 	svcpl	0x004b434f
     2fc:	54494e49 	strbpl	r4, [r9], #-3657	; 0xfffff1b7
     300:	616c6328 	cmnvs	ip, r8, lsr #6
     304:	6c2c7373 	stcvs	3, cr7, [ip], #-460	; 0xfffffe34
     308:	296b636f 	stmdbcs	fp!, {r0, r1, r2, r3, r5, r6, r8, r9, sp, lr}^
     30c:	74786520 	ldrbtvc	r6, [r8], #-1312	; 0xfffffae0
     310:	206e7265 	rsbcs	r7, lr, r5, ror #4
     314:	75727473 	ldrbvc	r7, [r2, #-1139]!	; 0xfffffb8d
     318:	5f207463 	svcpl	0x00207463
     31c:	636f6c5f 	cmnvs	pc, #24320	; 0x5f00
     320:	5f5f206b 	svcpl	0x005f206b
     324:	6b636f6c 	blvs	18dc0dc <_Min_Stack_Size+0x18dbcdc>
     328:	2323205f 			; <UNDEFINED> instruction: 0x2323205f
     32c:	636f6c20 	cmnvs	pc, #32, 24	; 0x2000
     330:	63203b6b 			; <UNDEFINED> instruction: 0x63203b6b
     334:	7373616c 	cmnvc	r3, #108, 2
     338:	4f4c5f20 	svcmi	0x004c5f20
     33c:	545f4b43 	ldrbpl	r4, [pc], #-2883	; 344 <_Min_Heap_Size+0x144>
     340:	636f6c20 	cmnvs	pc, #32, 24	; 0x2000
     344:	203d206b 	eorscs	r2, sp, fp, rrx
     348:	6c5f5f26 	mrrcvs	15, 2, r5, pc, cr6	; <UNPREDICTABLE>
     34c:	5f6b636f 	svcpl	0x006b636f
     350:	20232320 	eorcs	r2, r3, r0, lsr #6
     354:	6b636f6c 	blvs	18dc10c <_Min_Stack_Size+0x18dbd0c>
     358:	54584500 	ldrbpl	r4, [r8], #-1280	; 0xfffffb00
     35c:	42503249 	subsmi	r3, r0, #-1879048188	; 0x90000004
     360:	45282032 	strmi	r2, [r8, #-50]!	; 0xffffffce
     364:	5f495458 	svcpl	0x00495458
     368:	4f495047 	svcmi	0x00495047
     36c:	70614d5f 	rsbvc	r4, r1, pc, asr sp
     370:	676e6970 			; <UNDEFINED> instruction: 0x676e6970
     374:	7b29745f 	blvc	a5d4f8 <_Min_Stack_Size+0xa5d0f8>
     378:	49545845 	ldmdbmi	r4, {r0, r2, r6, fp, ip, lr}^
     37c:	47202c32 			; <UNDEFINED> instruction: 0x47202c32
     380:	424f4950 	submi	r4, pc, #80, 18	; 0x140000
     384:	47202c20 	strmi	r2, [r0, -r0, lsr #24]!
     388:	5f4f4950 	svcpl	0x004f4950
     38c:	5f4e4950 	svcpl	0x004e4950
     390:	452c2032 	strmi	r2, [ip, #-50]!	; 0xffffffce
     394:	32495458 	subcc	r5, r9, #88, 8	; 0x58000000
     398:	5152495f 	cmppl	r2, pc, asr r9
     39c:	5f007d20 	svcpl	0x00007d20
     3a0:	5254505f 	subspl	r5, r4, #95	; 0x5f
     3a4:	46464944 	strbmi	r4, [r6], -r4, asr #18
     3a8:	58414d5f 	stmdapl	r1, {r0, r1, r2, r3, r4, r6, r8, sl, fp, lr}^
     3ac:	30205f5f 	eorcc	r5, r0, pc, asr pc
     3b0:	66663778 			; <UNDEFINED> instruction: 0x66663778
     3b4:	66666666 	strbtvs	r6, [r6], -r6, ror #12
     3b8:	4c5f0066 	mrrcmi	0, 6, r0, pc, cr6	; <UNPREDICTABLE>
     3bc:	5f474e4f 	svcpl	0x00474e4f
     3c0:	42554f44 	subsmi	r4, r5, #68, 30	; 0x110
     3c4:	6c20454c 	cfstr32vs	mvfx4, [r0], #-304	; 0xfffffed0
     3c8:	20676e6f 	rsbcs	r6, r7, pc, ror #28
     3cc:	62756f64 	rsbsvs	r6, r5, #100, 30	; 0x190
     3d0:	4500656c 	strmi	r6, [r0, #-1388]	; 0xfffffa94
     3d4:	39495458 	stmdbcc	r9, {r3, r4, r6, sl, ip, lr}^
     3d8:	5152495f 	cmppl	r2, pc, asr r9
     3dc:	00333220 	eorseq	r3, r3, r0, lsr #4
     3e0:	4e495f5f 	mcrmi	15, 2, r5, cr9, cr15, {2}
     3e4:	58414d54 	stmdapl	r1, {r2, r4, r6, r8, sl, fp, lr}^
     3e8:	6328435f 			; <UNDEFINED> instruction: 0x6328435f
     3ec:	20632029 	rsbcs	r2, r3, r9, lsr #32
     3f0:	4c202323 	stcmi	3, cr2, [r0], #-140	; 0xffffff74
     3f4:	555f004c 	ldrbpl	r0, [pc, #-76]	; 3b0 <_Min_Heap_Size+0x1b0>
     3f8:	33544e49 	cmpcc	r4, #1168	; 0x490
     3fc:	5f545f32 	svcpl	0x00545f32
     400:	4c434544 	cfstr64mi	mvdx4, [r3], {68}	; 0x44
     404:	44455241 	strbmi	r5, [r5], #-577	; 0xfffffdbf
     408:	43570020 	cmpmi	r7, #32
     40c:	5f524148 	svcpl	0x00524148
     410:	2058414d 	subscs	r4, r8, sp, asr #2
     414:	575f5f28 	ldrbpl	r5, [pc, -r8, lsr #30]
     418:	52414843 	subpl	r4, r1, #4390912	; 0x430000
     41c:	58414d5f 	stmdapl	r1, {r0, r1, r2, r3, r4, r6, r8, sl, fp, lr}^
     420:	00295f5f 	eoreq	r5, r9, pc, asr pc
     424:	4e495f5f 	mcrmi	15, 2, r5, cr9, cr15, {2}
     428:	58414d54 	stmdapl	r1, {r2, r4, r6, r8, sl, fp, lr}^
     42c:	58414d5f 	stmdapl	r1, {r0, r1, r2, r3, r4, r6, r8, sl, fp, lr}^
     430:	30205f5f 	eorcc	r5, r0, pc, asr pc
     434:	66663778 			; <UNDEFINED> instruction: 0x66663778
     438:	66666666 	strbtvs	r6, [r6], -r6, ror #12
     43c:	66666666 	strbtvs	r6, [r6], -r6, ror #12
     440:	66666666 	strbtvs	r6, [r6], -r6, ror #12
     444:	004c4c66 	subeq	r4, ip, r6, ror #24
     448:	51545f5f 	cmppl	r4, pc, asr pc
     44c:	4942495f 	stmdbmi	r2, {r0, r1, r2, r3, r4, r6, r8, fp, lr}^
     450:	205f5f54 	subscs	r5, pc, r4, asr pc	; <UNPREDICTABLE>
     454:	5f5f0030 	svcpl	0x005f0030
     458:	36544c46 	ldrbcc	r4, [r4], -r6, asr #24
     45c:	45445f34 	strbmi	r5, [r4, #-3892]	; 0xfffff0cc
     460:	414d4943 	cmpmi	sp, r3, asr #18
     464:	49445f4c 	stmdbmi	r4, {r2, r3, r6, r8, r9, sl, fp, ip, lr}^
     468:	205f5f47 	subscs	r5, pc, r7, asr #30
     46c:	47003731 	smladxmi	r0, r1, r7, r3
     470:	5f4f4950 	svcpl	0x004f4950
     474:	5f4e4950 	svcpl	0x004e4950
     478:	28282030 	stmdacs	r8!, {r4, r5, sp}
     47c:	746e6975 	strbtvc	r6, [lr], #-2421	; 0xfffff68b
     480:	745f3631 	ldrbvc	r3, [pc], #-1585	; 488 <_Min_Stack_Size+0x88>
     484:	30783029 	rsbscc	r3, r8, r9, lsr #32
     488:	29313030 	ldmdbcs	r1!, {r4, r5, ip, sp}
     48c:	54584500 	ldrbpl	r4, [r8], #-1280	; 0xfffffb00
     490:	28282049 	stmdacs	r8!, {r0, r3, r6, sp}
     494:	49545845 	ldmdbmi	r4, {r0, r2, r6, fp, ip, lr}^
     498:	7079545f 	rsbsvc	r5, r9, pc, asr r4
     49c:	66654465 	strbtvs	r4, [r5], -r5, ror #8
     4a0:	45292a20 	strmi	r2, [r9, #-2592]!	; 0xfffff5e0
     4a4:	5f495458 	svcpl	0x00495458
     4a8:	45534142 	ldrbmi	r4, [r3, #-322]	; 0xfffffebe
     4ac:	525f0029 	subspl	r0, pc, #41	; 0x29
     4b0:	544e4545 	strbpl	r4, [lr], #-1349	; 0xfffffabb
     4b4:	4749535f 	smlsldmi	r5, r9, pc, r3	; <UNPREDICTABLE>
     4b8:	5f4c414e 	svcpl	0x004c414e
     4bc:	455a4953 	ldrbmi	r4, [sl, #-2387]	; 0xfffff6ad
     4c0:	00343220 	eorseq	r3, r4, r0, lsr #4
     4c4:	616d4b5f 	cmnvs	sp, pc, asr fp
     4c8:	73282078 			; <UNDEFINED> instruction: 0x73282078
     4cc:	6f657a69 	svcvs	0x00657a69
     4d0:	73282066 			; <UNDEFINED> instruction: 0x73282066
     4d4:	5f657a69 	svcpl	0x00657a69
     4d8:	3c202974 			; <UNDEFINED> instruction: 0x3c202974
     4dc:	2933203c 	ldmdbcs	r3!, {r2, r3, r4, r5, sp}
     4e0:	45525f00 	ldrbmi	r5, [r2, #-3840]	; 0xfffff100
     4e4:	5f544e45 	svcpl	0x00544e45
     4e8:	43454843 	movtmi	r4, #22595	; 0x5843
     4ec:	49535f4b 	ldmdbmi	r3, {r0, r1, r3, r6, r8, r9, sl, fp, ip, lr}^
     4f0:	4c414e47 	mcrrmi	14, 4, r4, r1, cr7
     4f4:	4655425f 			; <UNDEFINED> instruction: 0x4655425f
     4f8:	72617628 	rsbvc	r7, r1, #40, 12	; 0x2800000
     4fc:	525f2029 	subspl	r2, pc, #41	; 0x29
     500:	544e4545 	strbpl	r4, [lr], #-1349	; 0xfffffabb
     504:	4548435f 	strbmi	r4, [r8, #-863]	; 0xfffffca1
     508:	76284b43 	strtvc	r4, [r8], -r3, asr #22
     50c:	202c7261 	eorcs	r7, ip, r1, ror #4
     510:	6769735f 			; <UNDEFINED> instruction: 0x6769735f
     514:	5f6c616e 	svcpl	0x006c616e
     518:	2c667562 	cfstr64cs	mvdx7, [r6], #-392	; 0xfffffe78
     51c:	61686320 	cmnvs	r8, r0, lsr #6
     520:	2c2a2072 	stccs	0, cr2, [sl], #-456	; 0xfffffe38
     524:	45525f20 	ldrbmi	r5, [r2, #-3872]	; 0xfffff0e0
     528:	5f544e45 	svcpl	0x00544e45
     52c:	4e474953 			; <UNDEFINED> instruction: 0x4e474953
     530:	535f4c41 	cmppl	pc, #16640	; 0x4100
     534:	2c455a49 	mcrrcs	10, 4, r5, r5, cr9
     538:	5f002920 	svcpl	0x00002920
     53c:	52464c5f 	subpl	r4, r6, #24320	; 0x5f00
     540:	5f544341 	svcpl	0x00544341
     544:	5f4e494d 	svcpl	0x004e494d
     548:	2d28205f 	stccs	0, cr2, [r8, #-380]!	; 0xfffffe84
     54c:	4c352e30 	ldcmi	14, cr2, [r5], #-192	; 0xffffff40
     550:	2e302d52 	mrccs	13, 1, r2, cr0, cr2, {2}
     554:	29524c35 	ldmdbcs	r2, {r0, r2, r4, r5, sl, fp, lr}^
     558:	575f5f00 	ldrbpl	r5, [pc, -r0, lsl #30]
     55c:	52414843 	subpl	r4, r1, #4390912	; 0x430000
     560:	58414d5f 	stmdapl	r1, {r0, r1, r2, r3, r4, r6, r8, sl, fp, lr}^
     564:	30205f5f 	eorcc	r5, r0, pc, asr pc
     568:	66666678 			; <UNDEFINED> instruction: 0x66666678
     56c:	66666666 	strbtvs	r6, [r6], -r6, ror #12
     570:	52005566 	andpl	r5, r0, #427819008	; 0x19800000
     574:	535f4343 	cmppl	pc, #201326593	; 0xc000001
     578:	5f314950 	svcpl	0x00314950
     57c:	65736552 	ldrbvs	r6, [r3, #-1362]!	; 0xfffffaae
     580:	20292874 	eorcs	r2, r9, r4, ror r8
     584:	43522028 	cmpmi	r2, #40	; 0x28
     588:	413e2d43 	teqmi	lr, r3, asr #26
     58c:	52324250 	eorspl	r4, r2, #80, 4
     590:	20525453 	subscs	r5, r2, r3, asr r4
     594:	28203d7c 	stmdacs	r0!, {r2, r3, r4, r5, r6, r8, sl, fp, ip, sp}
     598:	313c3c31 	teqcc	ip, r1, lsr ip
     59c:	29202932 	stmdbcs	r0!, {r1, r4, r5, r8, fp, sp}
     5a0:	435f5f00 	cmpmi	pc, #0, 30
     5a4:	41434e4f 	cmpmi	r3, pc, asr #28
     5a8:	2c782854 	ldclcs	8, cr2, [r8], #-336	; 0xfffffeb0
     5ac:	5f202979 	svcpl	0x00202979
     5b0:	4e4f435f 	mcrmi	3, 2, r4, cr15, cr15, {2}
     5b4:	31544143 	cmpcc	r4, r3, asr #2
     5b8:	792c7828 	stmdbvc	ip!, {r3, r5, fp, ip, sp, lr}
     5bc:	32490029 	subcc	r0, r9, #41	; 0x29
     5c0:	52535f43 	subspl	r5, r3, #268	; 0x10c
     5c4:	52415f31 	subpl	r5, r1, #49, 30	; 0xc4
     5c8:	49204f4c 	stmdbmi	r0!, {r2, r3, r6, r8, r9, sl, fp, lr}
     5cc:	535f4332 	cmppl	pc, #-939524096	; 0xc8000000
     5d0:	415f3152 	cmpmi	pc, r2, asr r1	; <UNPREDICTABLE>
     5d4:	5f4f4c52 	svcpl	0x004f4c52
     5d8:	006b734d 	rsbeq	r7, fp, sp, asr #6
     5dc:	5f434352 	svcpl	0x00434352
     5e0:	52415355 	subpl	r5, r1, #1409286145	; 0x54000001
     5e4:	435f3254 	cmpmi	pc, #84, 4	; 0x40000005
     5e8:	455f4b4c 	ldrbmi	r4, [pc, #-2892]	; fffffaa4 <_estack+0xdfffaaa4>
     5ec:	2029284e 	eorcs	r2, r9, lr, asr #16
     5f0:	43522028 	cmpmi	r2, #40	; 0x28
     5f4:	413e2d43 	teqmi	lr, r3, asr #26
     5f8:	45314250 	ldrmi	r4, [r1, #-592]!	; 0xfffffdb0
     5fc:	7c20524e 	sfmvc	f5, 4, [r0], #-312	; 0xfffffec8
     600:	3128203d 			; <UNDEFINED> instruction: 0x3128203d
     604:	37313c3c 			; <UNDEFINED> instruction: 0x37313c3c
     608:	00292029 	eoreq	r2, r9, r9, lsr #32
     60c:	4e475f5f 	mcrmi	15, 2, r5, cr7, cr15, {2}
     610:	494c4355 	stmdbmi	ip, {r0, r2, r4, r6, r8, r9, lr}^
     614:	5f5f454b 	svcpl	0x005f454b
     618:	5059545f 	subspl	r5, r9, pc, asr r4
     61c:	20464f45 	subcs	r4, r6, r5, asr #30
     620:	5f5f0031 	svcpl	0x005f0031
     624:	32746e69 	rsbscc	r6, r4, #1680	; 0x690
     628:	005f5f30 	subseq	r5, pc, r0, lsr pc	; <UNPREDICTABLE>
     62c:	4f495047 	svcmi	0x00495047
     630:	41425f44 	cmpmi	r2, r4, asr #30
     634:	28204553 	stmdacs	r0!, {r0, r1, r4, r6, r8, sl, lr}
     638:	69726550 	ldmdbvs	r2!, {r4, r6, r8, sl, sp, lr}^
     63c:	72656870 	rsbvc	r6, r5, #112, 16	; 0x700000
     640:	5f736c61 	svcpl	0x00736c61
     644:	45534142 	ldrbmi	r4, [r3, #-322]	; 0xfffffebe
     648:	30202b20 	eorcc	r2, r0, r0, lsr #22
     64c:	30303078 	eorscc	r3, r0, r8, ror r0
     650:	30343131 	eorscc	r3, r4, r1, lsr r1
     654:	294c5530 	stmdbcs	ip, {r4, r5, r8, sl, ip, lr}^
     658:	43324900 	teqmi	r2, #0, 18
     65c:	3252535f 	subscc	r5, r2, #2080374785	; 0x7c000001
     660:	4152545f 	cmpmi	r2, pc, asr r4
     664:	43324920 	teqmi	r2, #32, 18	; 0x80000
     668:	3252535f 	subscc	r5, r2, #2080374785	; 0x7c000001
     66c:	4152545f 	cmpmi	r2, pc, asr r4
     670:	6b734d5f 	blvs	1cd3bf4 <_Min_Stack_Size+0x1cd37f4>
     674:	535f5f00 	cmppl	pc, #0, 30
     678:	4f455a49 	svcmi	0x00455a49
     67c:	4f4c5f46 	svcmi	0x004c5f46
     680:	4c5f474e 	mrrcmi	7, 4, r4, pc, cr14	; <UNPREDICTABLE>
     684:	5f474e4f 	svcpl	0x00474e4f
     688:	0038205f 	eorseq	r2, r8, pc, asr r0
     68c:	5f434352 	svcpl	0x00434352
     690:	32495053 	subcc	r5, r9, #83	; 0x53
     694:	4b4c435f 	blmi	1311418 <_Min_Stack_Size+0x1311018>
     698:	284e455f 	stmdacs	lr, {r0, r1, r2, r3, r4, r6, r8, sl, lr}^
     69c:	20282029 	eorcs	r2, r8, r9, lsr #32
     6a0:	2d434352 	stclcs	3, cr4, [r3, #-328]	; 0xfffffeb8
     6a4:	4250413e 	subsmi	r4, r0, #-2147483633	; 0x8000000f
     6a8:	524e4531 	subpl	r4, lr, #205520896	; 0xc400000
     6ac:	203d7c20 	eorscs	r7, sp, r0, lsr #24
     6b0:	3c3c3128 	ldfccs	f3, [ip], #-160	; 0xffffff60
     6b4:	20293431 	eorcs	r3, r9, r1, lsr r4
     6b8:	5f5f0029 	svcpl	0x005f0029
     6bc:	5f4c4244 	svcpl	0x004c4244
     6c0:	5f58414d 	svcpl	0x0058414d
     6c4:	455f3031 	ldrbmi	r3, [pc, #-49]	; 69b <_Min_Stack_Size+0x29b>
     6c8:	5f5f5058 	svcpl	0x005f5058
     6cc:	38303320 	ldmdacc	r0!, {r5, r8, r9, ip, sp}
     6d0:	54584500 	ldrbpl	r4, [r8], #-1280	; 0xfffffb00
     6d4:	43503949 	cmpmi	r0, #1196032	; 0x124000
     6d8:	45282039 	strmi	r2, [r8, #-57]!	; 0xffffffc7
     6dc:	5f495458 	svcpl	0x00495458
     6e0:	4f495047 	svcmi	0x00495047
     6e4:	70614d5f 	rsbvc	r4, r1, pc, asr sp
     6e8:	676e6970 			; <UNDEFINED> instruction: 0x676e6970
     6ec:	7b29745f 	blvc	a5d870 <_Min_Stack_Size+0xa5d470>
     6f0:	49545845 	ldmdbmi	r4, {r0, r2, r6, fp, ip, lr}^
     6f4:	202c2039 	eorcs	r2, ip, r9, lsr r0
     6f8:	4f495047 	svcmi	0x00495047
     6fc:	202c2043 	eorcs	r2, ip, r3, asr #32
     700:	4f495047 	svcmi	0x00495047
     704:	4e49505f 	mcrmi	0, 2, r5, cr9, cr15, {2}
     708:	2c20395f 			; <UNDEFINED> instruction: 0x2c20395f
     70c:	49545845 	ldmdbmi	r4, {r0, r2, r6, fp, ip, lr}^
     710:	52495f39 	subpl	r5, r9, #57, 30	; 0xe4
     714:	007d2051 	rsbseq	r2, sp, r1, asr r0
     718:	4c465f5f 	mcrrmi	15, 5, r5, r6, cr15
     71c:	5f343654 	svcpl	0x00343654
     720:	544e414d 	strbpl	r4, [lr], #-333	; 0xfffffeb3
     724:	4749445f 	smlsldmi	r4, r9, pc, r4	; <UNPREDICTABLE>
     728:	35205f5f 	strcc	r5, [r0, #-3935]!	; 0xfffff0a1
     72c:	5f5f0033 	svcpl	0x005f0033
     730:	43415246 	movtmi	r5, #4678	; 0x1246
     734:	494d5f54 	stmdbmi	sp, {r2, r4, r6, r8, r9, sl, fp, ip, lr}^
     738:	205f5f4e 	subscs	r5, pc, lr, asr #30
     73c:	2e302d28 	cdpcs	13, 3, cr2, cr0, cr8, {1}
     740:	302d5235 	eorcc	r5, sp, r5, lsr r2
     744:	2952352e 	ldmdbcs	r2, {r1, r2, r3, r5, r8, sl, ip, sp}^
     748:	505f5f00 	subspl	r5, pc, r0, lsl #30
     74c:	6f727028 	svcvs	0x00727028
     750:	29736f74 	ldmdbcs	r3!, {r2, r4, r5, r6, r8, r9, sl, fp, sp, lr}^
     754:	6f727020 	svcvs	0x00727020
     758:	00736f74 	rsbseq	r6, r3, r4, ror pc
     75c:	4f505f5f 	svcmi	0x00505f5f
     760:	5f584953 	svcpl	0x00584953
     764:	49534956 	ldmdbmi	r3, {r1, r2, r4, r6, r8, fp, lr}^
     768:	20454c42 	subcs	r4, r5, r2, asr #24
     76c:	38303032 	ldmdacc	r0!, {r1, r4, r5, ip, sp}
     770:	52003930 	andpl	r3, r0, #48, 18	; 0xc0000
     774:	28204343 	stmdacs	r0!, {r0, r1, r6, r8, r9, lr}
     778:	43435228 	movtmi	r5, #12840	; 0x3228
     77c:	7079545f 	rsbsvc	r5, r9, pc, asr r4
     780:	66654465 	strbtvs	r4, [r5], -r5, ror #8
     784:	52292a20 	eorpl	r2, r9, #32, 20	; 0x20000
     788:	425f4343 	subsmi	r4, pc, #201326593	; 0xc000001
     78c:	29455341 	stmdbcs	r5, {r0, r6, r8, r9, ip, lr}^
     790:	555f5f00 	ldrbpl	r5, [pc, #-3840]	; fffff898 <_estack+0xdfffa898>
     794:	43434153 	movtmi	r4, #12627	; 0x3153
     798:	4d5f4d55 	ldclmi	13, cr4, [pc, #-340]	; 64c <_Min_Stack_Size+0x24c>
     79c:	5f5f5841 	svcpl	0x005f5841
     7a0:	46583020 	ldrbmi	r3, [r8], -r0, lsr #32
     7a4:	50464646 	subpl	r4, r6, r6, asr #12
     7a8:	4855382d 	ldmdami	r5, {r0, r2, r3, r5, fp, ip, sp}^
     7ac:	5f5f004b 	svcpl	0x005f004b
     7b0:	41524653 	cmpmi	r2, r3, asr r6
     7b4:	465f5443 	ldrbmi	r5, [pc], -r3, asr #8
     7b8:	5f544942 	svcpl	0x00544942
     7bc:	0037205f 	eorseq	r2, r7, pc, asr r0
     7c0:	4e495f5f 	mcrmi	15, 2, r5, cr9, cr15, {2}
     7c4:	58414d54 	stmdapl	r1, {r2, r4, r6, r8, sl, fp, lr}^
     7c8:	4449575f 	strbmi	r5, [r9], #-1887	; 0xfffff8a1
     7cc:	5f5f4854 	svcpl	0x005f4854
     7d0:	00343620 	eorseq	r3, r4, r0, lsr #12
     7d4:	4545525f 	strbmi	r5, [r5, #-607]	; 0xfffffda1
     7d8:	4d5f544e 	cfldrdmi	mvd5, [pc, #-312]	; 6a8 <_Min_Stack_Size+0x2a8>
     7dc:	54525342 	ldrbpl	r5, [r2], #-834	; 0xfffffcbe
     7e0:	5343574f 	movtpl	r5, #14159	; 0x374f
     7e4:	4154535f 	cmpmi	r4, pc, asr r3
     7e8:	70284554 	eorvc	r4, r8, r4, asr r5
     7ec:	20297274 	eorcs	r7, r9, r4, ror r2
     7f0:	74702828 	ldrbtvc	r2, [r0], #-2088	; 0xfffff7d8
     7f4:	3e2d2972 			; <UNDEFINED> instruction: 0x3e2d2972
     7f8:	73696d5f 	cmnvc	r9, #6080	; 0x17c0
     7fc:	5f3e2d63 	svcpl	0x003e2d63
     800:	7273626d 	rsbsvc	r6, r3, #-805306362	; 0xd0000006
     804:	63776f74 	cmnvs	r7, #116, 30	; 0x1d0
     808:	74735f73 	ldrbtvc	r5, [r3], #-3955	; 0xfffff08d
     80c:	29657461 	stmdbcs	r5!, {r0, r5, r6, sl, ip, sp, lr}^
     810:	415f5f00 	cmpmi	pc, r0, lsl #30
     814:	465f4d52 			; <UNDEFINED> instruction: 0x465f4d52
     818:	55544145 	ldrbpl	r4, [r4, #-325]	; 0xfffffebb
     81c:	425f4552 	subsmi	r4, pc, #343932928	; 0x14800000
     820:	5f363146 	svcpl	0x00363146
     824:	4c414353 	mcrrmi	3, 5, r4, r1, cr3
     828:	415f5241 	cmpmi	pc, r1, asr #4
     82c:	48544952 	ldmdami	r4, {r1, r4, r6, r8, fp, lr}^
     830:	4954454d 	ldmdbmi	r4, {r0, r2, r3, r6, r8, sl, lr}^
     834:	5f5f0043 	svcpl	0x005f0043
     838:	495f5153 	ldmdbmi	pc, {r0, r1, r4, r6, r8, ip, lr}^	; <UNPREDICTABLE>
     83c:	5f544942 	svcpl	0x00544942
     840:	0030205f 	eorseq	r2, r0, pc, asr r0
     844:	524f5f5f 	subpl	r5, pc, #380	; 0x17c
     848:	5f524544 	svcpl	0x00524544
     84c:	5f504450 	svcpl	0x00504450
     850:	49444e45 	stmdbmi	r4, {r0, r2, r6, r9, sl, fp, lr}^
     854:	5f5f4e41 	svcpl	0x005f4e41
     858:	31343320 	teqcc	r4, r0, lsr #6
     85c:	5f5f0032 	svcpl	0x005f0032
     860:	455a4953 	ldrbmi	r4, [sl, #-2387]	; 0xfffff6ad
     864:	5059545f 	subspl	r5, r9, pc, asr r4
     868:	205f5f45 	subscs	r5, pc, r5, asr #30
     86c:	69736e75 	ldmdbvs	r3!, {r0, r2, r4, r5, r6, r9, sl, fp, sp, lr}^
     870:	64656e67 	strbtvs	r6, [r5], #-3687	; 0xfffff199
     874:	746e6920 	strbtvc	r6, [lr], #-2336	; 0xfffff6e0
     878:	54584500 	ldrbpl	r4, [r8], #-1280	; 0xfffffb00
     87c:	41503149 	cmpmi	r0, r9, asr #2
     880:	45282031 	strmi	r2, [r8, #-49]!	; 0xffffffcf
     884:	5f495458 	svcpl	0x00495458
     888:	4f495047 	svcmi	0x00495047
     88c:	70614d5f 	rsbvc	r4, r1, pc, asr sp
     890:	676e6970 			; <UNDEFINED> instruction: 0x676e6970
     894:	7b29745f 	blvc	a5da18 <_Min_Stack_Size+0xa5d618>
     898:	49545845 	ldmdbmi	r4, {r0, r2, r6, fp, ip, lr}^
     89c:	47202c31 			; <UNDEFINED> instruction: 0x47202c31
     8a0:	414f4950 	cmpmi	pc, r0, asr r9	; <UNPREDICTABLE>
     8a4:	47202c20 	strmi	r2, [r0, -r0, lsr #24]!
     8a8:	5f4f4950 	svcpl	0x004f4950
     8ac:	5f4e4950 	svcpl	0x004e4950
     8b0:	202c2031 	eorcs	r2, ip, r1, lsr r0
     8b4:	49545845 	ldmdbmi	r4, {r0, r2, r6, fp, ip, lr}^
     8b8:	52495f31 	subpl	r5, r9, #49, 30	; 0xc4
     8bc:	007d2051 	rsbseq	r2, sp, r1, asr r0
     8c0:	4343475f 	movtmi	r4, #14175	; 0x375f
     8c4:	4152575f 	cmpmi	r2, pc, asr r7
     8c8:	54535f50 	ldrbpl	r5, [r3], #-3920	; 0xfffff0b0
     8cc:	544e4944 	strbpl	r4, [lr], #-2372	; 0xfffff6bc
     8d0:	0020485f 	eoreq	r4, r0, pc, asr r8
     8d4:	4c465f5f 	mcrrmi	15, 5, r5, r6, cr15
     8d8:	41485f54 	cmpmi	r8, r4, asr pc
     8dc:	45445f53 	strbmi	r5, [r4, #-3923]	; 0xfffff0ad
     8e0:	4d524f4e 	ldclmi	15, cr4, [r2, #-312]	; 0xfffffec8
     8e4:	31205f5f 			; <UNDEFINED> instruction: 0x31205f5f
     8e8:	495f5f00 	ldmdbmi	pc, {r8, r9, sl, fp, ip, lr}^	; <UNPREDICTABLE>
     8ec:	5f38544e 	svcpl	0x0038544e
     8f0:	45505954 	ldrbmi	r5, [r0, #-2388]	; 0xfffff6ac
     8f4:	73205f5f 			; <UNDEFINED> instruction: 0x73205f5f
     8f8:	656e6769 	strbvs	r6, [lr, #-1897]!	; 0xfffff897
     8fc:	68632064 	stmdavs	r3!, {r2, r5, r6, sp}^
     900:	5f007261 	svcpl	0x00007261
     904:	544c465f 	strbpl	r4, [ip], #-1631	; 0xfffff9a1
     908:	4d5f3233 	lfmmi	f3, 2, [pc, #-204]	; 844 <_Min_Stack_Size+0x444>
     90c:	5f5f4e49 	svcpl	0x005f4e49
     910:	312e3120 			; <UNDEFINED> instruction: 0x312e3120
     914:	39343537 	ldmdbcc	r4!, {r0, r1, r2, r4, r5, r8, sl, ip, sp}
     918:	30353334 	eorscc	r3, r5, r4, lsr r3
     91c:	32323238 	eorscc	r3, r2, #56, 4	; 0x80000003
     920:	65353738 	ldrvs	r3, [r5, #-1848]!	; 0xfffff8c8
     924:	4638332d 	ldrtmi	r3, [r8], -sp, lsr #6
     928:	49003233 	stmdbmi	r0, {r0, r1, r4, r5, r9, ip, sp}
     92c:	535f4332 	cmppl	pc, #-939524096	; 0xc8000000
     930:	535f3152 	cmppl	pc, #-2147483628	; 0x80000014
     934:	4c41424d 	sfmmi	f4, 2, [r1], {77}	; 0x4d
     938:	5f545245 	svcpl	0x00545245
     93c:	206b734d 	rsbcs	r7, fp, sp, asr #6
     940:	31783028 	cmncc	r8, r8, lsr #32
     944:	3c204c55 	stccc	12, cr4, [r0], #-340	; 0xfffffeac
     948:	3249203c 	subcc	r2, r9, #60	; 0x3c
     94c:	52535f43 	subspl	r5, r3, #268	; 0x10c
     950:	4d535f31 	ldclmi	15, cr5, [r3, #-196]	; 0xffffff3c
     954:	454c4142 	strbmi	r4, [ip, #-322]	; 0xfffffebe
     958:	505f5452 	subspl	r5, pc, r2, asr r4	; <UNPREDICTABLE>
     95c:	0029736f 	eoreq	r7, r9, pc, ror #6
     960:	53555f5f 	cmppl	r5, #380	; 0x17c
     964:	55434341 	strbpl	r4, [r3, #-833]	; 0xfffffcbf
     968:	494d5f4d 	stmdbmi	sp, {r0, r2, r3, r6, r8, r9, sl, fp, ip, lr}^
     96c:	205f5f4e 	subscs	r5, pc, lr, asr #30
     970:	55302e30 	ldrpl	r2, [r0, #-3632]!	; 0xfffff1d0
     974:	5f004b48 	svcpl	0x00004b48
     978:	544c465f 	strbpl	r4, [ip], #-1631	; 0xfffff9a1
     97c:	445f3233 	ldrbmi	r3, [pc], #-563	; 984 <_Min_Stack_Size+0x584>
     980:	4d494345 	stclmi	3, cr4, [r9, #-276]	; 0xfffffeec
     984:	445f4c41 	ldrbmi	r4, [pc], #-3137	; 98c <_Min_Stack_Size+0x58c>
     988:	5f5f4749 	svcpl	0x005f4749
     98c:	53003920 	movwpl	r3, #2336	; 0x920
     990:	20314950 	eorscs	r4, r1, r0, asr r9
     994:	50532828 	subspl	r2, r3, r8, lsr #16
     998:	79545f49 	ldmdbvc	r4, {r0, r3, r6, r8, r9, sl, fp, ip, lr}^
     99c:	65446570 	strbvs	r6, [r4, #-1392]	; 0xfffffa90
     9a0:	292a2066 	stmdbcs	sl!, {r1, r2, r5, r6, sp}
     9a4:	31495053 	qdaddcc	r5, r3, r9
     9a8:	5341425f 	movtpl	r4, #4703	; 0x125f
     9ac:	5f002945 	svcpl	0x00002945
     9b0:	4343475f 	movtmi	r4, #14175	; 0x375f
     9b4:	4f54415f 	svcmi	0x0054415f
     9b8:	5f43494d 	svcpl	0x0043494d
     9bc:	4e4f4c4c 	cdpmi	12, 4, cr4, cr15, cr12, {2}
     9c0:	4f4c5f47 	svcmi	0x004c5f47
     9c4:	465f4b43 	ldrbmi	r4, [pc], -r3, asr #22
     9c8:	20454552 	subcs	r4, r5, r2, asr r5
     9cc:	5f5f0031 	svcpl	0x005f0031
     9d0:	4c42444c 	cfstrdmi	mvd4, [r2], {76}	; 0x4c
     9d4:	4e494d5f 	mcrmi	13, 2, r4, cr9, cr15, {2}
     9d8:	5058455f 	subspl	r4, r8, pc, asr r5
     9dc:	28205f5f 	stmdacs	r0!, {r0, r1, r2, r3, r4, r6, r8, r9, sl, fp, ip, lr}
     9e0:	3230312d 	eorscc	r3, r0, #1073741835	; 0x4000000b
     9e4:	5f002931 	svcpl	0x00002931
     9e8:	4e454552 	mcrmi	5, 2, r4, cr5, cr2, {2}
     9ec:	4e495f54 	mcrmi	15, 2, r5, cr9, cr4, {2}
     9f0:	525f5449 	subspl	r5, pc, #1224736768	; 0x49000000
     9f4:	34444e41 	strbcc	r4, [r4], #-3649	; 0xfffff1bf
     9f8:	61762838 	cmnvs	r6, r8, lsr r8
     9fc:	64202972 	strtvs	r2, [r0], #-2418	; 0xfffff68e
     a00:	207b206f 	rsbscs	r2, fp, pc, rrx
     a04:	75727473 	ldrbvc	r7, [r2, #-1139]!	; 0xfffffb8d
     a08:	5f207463 	svcpl	0x00207463
     a0c:	6e656572 	mcrvs	5, 3, r6, cr5, cr2, {3}
     a10:	5f2a2074 	svcpl	0x002a2074
     a14:	203d2072 	eorscs	r2, sp, r2, ror r0
     a18:	72617628 	rsbvc	r7, r1, #40, 12	; 0x2800000
     a1c:	5f203b29 	svcpl	0x00203b29
     a20:	5f3e2d72 	svcpl	0x003e2d72
     a24:	2d383472 	cfldrscs	mvf3, [r8, #-456]!	; 0xfffffe38
     a28:	65735f3e 	ldrbvs	r5, [r3, #-3902]!	; 0xfffff0c2
     a2c:	305b6465 	subscc	r6, fp, r5, ror #8
     a30:	203d205d 	eorscs	r2, sp, sp, asr r0
     a34:	4e41525f 	mcrmi	2, 2, r5, cr1, cr15, {2}
     a38:	5f383444 	svcpl	0x00383444
     a3c:	44454553 	strbmi	r4, [r5], #-1363	; 0xfffffaad
     a40:	203b305f 	eorscs	r3, fp, pc, asr r0
     a44:	3e2d725f 	mcrcc	2, 1, r7, cr13, cr15, {2}
     a48:	3834725f 	ldmdacc	r4!, {r0, r1, r2, r3, r4, r6, r9, ip, sp, lr}
     a4c:	735f3e2d 	cmpvc	pc, #720	; 0x2d0
     a50:	5b646565 	blpl	1919fec <_Min_Stack_Size+0x1919bec>
     a54:	3d205d31 	stccc	13, cr5, [r0, #-196]!	; 0xffffff3c
     a58:	41525f20 	cmpmi	r2, r0, lsr #30
     a5c:	3834444e 	ldmdacc	r4!, {r1, r2, r3, r6, sl, lr}
     a60:	4545535f 	strbmi	r5, [r5, #-863]	; 0xfffffca1
     a64:	3b315f44 	blcc	c5877c <_Min_Stack_Size+0xc5837c>
     a68:	2d725f20 	ldclcs	15, cr5, [r2, #-128]!	; 0xffffff80
     a6c:	34725f3e 	ldrbtcc	r5, [r2], #-3902	; 0xfffff0c2
     a70:	5f3e2d38 	svcpl	0x003e2d38
     a74:	64656573 	strbtvs	r6, [r5], #-1395	; 0xfffffa8d
     a78:	205d325b 	subscs	r3, sp, fp, asr r2
     a7c:	525f203d 	subspl	r2, pc, #61	; 0x3d
     a80:	34444e41 	strbcc	r4, [r4], #-3649	; 0xfffff1bf
     a84:	45535f38 	ldrbmi	r5, [r3, #-3896]	; 0xfffff0c8
     a88:	325f4445 	subscc	r4, pc, #1157627904	; 0x45000000
     a8c:	725f203b 	subsvc	r2, pc, #59	; 0x3b
     a90:	725f3e2d 	subsvc	r3, pc, #720	; 0x2d0
     a94:	3e2d3834 	mcrcc	8, 1, r3, cr13, cr4, {1}
     a98:	6c756d5f 	ldclvs	13, cr6, [r5], #-380	; 0xfffffe84
     a9c:	5d305b74 	vldmdbpl	r0!, {d5-<overflow reg d62>}
     aa0:	5f203d20 	svcpl	0x00203d20
     aa4:	444e4152 	strbmi	r4, [lr], #-338	; 0xfffffeae
     aa8:	4d5f3834 	ldclmi	8, cr3, [pc, #-208]	; 9e0 <_Min_Stack_Size+0x5e0>
     aac:	5f544c55 	svcpl	0x00544c55
     ab0:	5f203b30 	svcpl	0x00203b30
     ab4:	5f3e2d72 	svcpl	0x003e2d72
     ab8:	2d383472 	cfldrscs	mvf3, [r8, #-456]!	; 0xfffffe38
     abc:	756d5f3e 	strbvc	r5, [sp, #-3902]!	; 0xfffff0c2
     ac0:	315b746c 	cmpcc	fp, ip, ror #8
     ac4:	203d205d 	eorscs	r2, sp, sp, asr r0
     ac8:	4e41525f 	mcrmi	2, 2, r5, cr1, cr15, {2}
     acc:	5f383444 	svcpl	0x00383444
     ad0:	544c554d 	strbpl	r5, [ip], #-1357	; 0xfffffab3
     ad4:	203b315f 	eorscs	r3, fp, pc, asr r1
     ad8:	3e2d725f 	mcrcc	2, 1, r7, cr13, cr15, {2}
     adc:	3834725f 	ldmdacc	r4!, {r0, r1, r2, r3, r4, r6, r9, ip, sp, lr}
     ae0:	6d5f3e2d 	ldclvs	14, cr3, [pc, #-180]	; a34 <_Min_Stack_Size+0x634>
     ae4:	5b746c75 	blpl	1d1bcc0 <_Min_Stack_Size+0x1d1b8c0>
     ae8:	3d205d32 	stccc	13, cr5, [r0, #-200]!	; 0xffffff38
     aec:	41525f20 	cmpmi	r2, r0, lsr #30
     af0:	3834444e 	ldmdacc	r4!, {r1, r2, r3, r6, sl, lr}
     af4:	4c554d5f 	mrrcmi	13, 5, r4, r5, cr15
     af8:	3b325f54 	blcc	c98850 <_Min_Stack_Size+0xc98450>
     afc:	2d725f20 	ldclcs	15, cr5, [r2, #-128]!	; 0xffffff80
     b00:	34725f3e 	ldrbtcc	r5, [r2], #-3902	; 0xfffff0c2
     b04:	5f3e2d38 	svcpl	0x003e2d38
     b08:	20646461 	rsbcs	r6, r4, r1, ror #8
     b0c:	525f203d 	subspl	r2, pc, #61	; 0x3d
     b10:	34444e41 	strbcc	r4, [r4], #-3649	; 0xfffff1bf
     b14:	44415f38 	strbmi	r5, [r1], #-3896	; 0xfffff0c8
     b18:	5f203b44 	svcpl	0x00203b44
     b1c:	5f3e2d72 	svcpl	0x003e2d72
     b20:	2d383472 	cfldrscs	mvf3, [r8, #-456]!	; 0xfffffe38
     b24:	61725f3e 	cmnvs	r2, lr, lsr pc
     b28:	6e5f646e 	cdpvs	4, 5, cr6, cr15, cr14, {3}
     b2c:	20747865 	rsbscs	r7, r4, r5, ror #16
     b30:	3b31203d 	blcc	c48c2c <_Min_Stack_Size+0xc4882c>
     b34:	77207d20 	strvc	r7, [r0, -r0, lsr #26]!
     b38:	656c6968 	strbvs	r6, [ip, #-2408]!	; 0xfffff698
     b3c:	29302820 	ldmdbcs	r0!, {r5, fp, sp}
     b40:	4c5f5f00 	mrrcmi	15, 0, r5, pc, cr0	; <UNPREDICTABLE>
     b44:	5f4c4244 	svcpl	0x004c4244
     b48:	544e414d 	strbpl	r4, [lr], #-333	; 0xfffffeb3
     b4c:	4749445f 	smlsldmi	r4, r9, pc, r4	; <UNPREDICTABLE>
     b50:	35205f5f 	strcc	r5, [r0, #-3935]!	; 0xfffff0a1
     b54:	4e490033 	mcrmi	0, 2, r0, cr9, cr3, {1}
     b58:	41465f54 	cmpmi	r6, r4, asr pc
     b5c:	36315453 			; <UNDEFINED> instruction: 0x36315453
     b60:	4e494d5f 	mcrmi	13, 2, r4, cr9, cr15, {2}
     b64:	5f2d2820 	svcpl	0x002d2820
     b68:	544e495f 	strbpl	r4, [lr], #-2399	; 0xfffff6a1
     b6c:	5341465f 	movtpl	r4, #5727	; 0x165f
     b70:	5f363154 	svcpl	0x00363154
     b74:	5f58414d 	svcpl	0x0058414d
     b78:	202d205f 	eorcs	r2, sp, pc, asr r0
     b7c:	47002931 	smladxmi	r0, r1, r9, r2
     b80:	5f4f4950 	svcpl	0x004f4950
     b84:	5f4e4950 	svcpl	0x004e4950
     b88:	28282039 	stmdacs	r8!, {r0, r3, r4, r5, sp}
     b8c:	746e6975 	strbtvc	r6, [lr], #-2421	; 0xfffff68b
     b90:	745f3631 	ldrbvc	r3, [pc], #-1585	; b98 <_Min_Stack_Size+0x798>
     b94:	30783029 	rsbscc	r3, r8, r9, lsr #32
     b98:	29303032 	ldmdbcs	r0!, {r1, r4, r5, ip, sp}
     b9c:	555f5f00 	ldrbpl	r5, [pc, #-3840]	; fffffca4 <_estack+0xdfffaca4>
     ba0:	38544e49 	ldmdacc	r4, {r0, r3, r6, r9, sl, fp, lr}^
     ba4:	6328435f 			; <UNDEFINED> instruction: 0x6328435f
     ba8:	00632029 	rsbeq	r2, r3, r9, lsr #32
     bac:	4e495f5f 	mcrmi	15, 2, r5, cr9, cr15, {2}
     bb0:	5f363154 	svcpl	0x00363154
     bb4:	45505954 	ldrbmi	r5, [r0, #-2388]	; 0xfffff6ac
     bb8:	73205f5f 			; <UNDEFINED> instruction: 0x73205f5f
     bbc:	74726f68 	ldrbtvc	r6, [r2], #-3944	; 0xfffff098
     bc0:	746e6920 	strbtvc	r6, [lr], #-2336	; 0xfffff6e0
     bc4:	615f5f00 	cmpvs	pc, r0, lsl #30
     bc8:	6e67696c 	vnmulvs.f16	s13, s14, s25	; <UNPREDICTABLE>
     bcc:	78286465 	stmdavc	r8!, {r0, r2, r5, r6, sl, sp, lr}
     bd0:	5f5f2029 	svcpl	0x005f2029
     bd4:	72747461 	rsbsvc	r7, r4, #1627389952	; 0x61000000
     bd8:	74756269 	ldrbtvc	r6, [r5], #-617	; 0xfffffd97
     bdc:	285f5f65 	ldmdacs	pc, {r0, r2, r5, r6, r8, r9, sl, fp, ip, lr}^	; <UNPREDICTABLE>
     be0:	615f5f28 	cmpvs	pc, r8, lsr #30
     be4:	6e67696c 	vnmulvs.f16	s13, s14, s25	; <UNPREDICTABLE>
     be8:	5f5f6465 	svcpl	0x005f6465
     bec:	29297828 	stmdbcs	r9!, {r3, r5, fp, ip, sp, lr}
     bf0:	58450029 	stmdapl	r5, {r0, r3, r5}^
     bf4:	50344954 	eorspl	r4, r4, r4, asr r9
     bf8:	28203443 	stmdacs	r0!, {r0, r1, r6, sl, ip, sp}
     bfc:	49545845 	ldmdbmi	r4, {r0, r2, r6, fp, ip, lr}^
     c00:	4950475f 	ldmdbmi	r0, {r0, r1, r2, r3, r4, r6, r8, r9, sl, lr}^
     c04:	614d5f4f 	cmpvs	sp, pc, asr #30
     c08:	6e697070 	mcrvs	0, 3, r7, cr9, cr0, {3}
     c0c:	29745f67 	ldmdbcs	r4!, {r0, r1, r2, r5, r6, r8, r9, sl, fp, ip, lr}^
     c10:	5458457b 	ldrbpl	r4, [r8], #-1403	; 0xfffffa85
     c14:	2c203449 	cfstrscs	mvf3, [r0], #-292	; 0xfffffedc
     c18:	49504720 	ldmdbmi	r0, {r5, r8, r9, sl, lr}^
     c1c:	2c20434f 	stccs	3, cr4, [r0], #-316	; 0xfffffec4
     c20:	49504720 	ldmdbmi	r0, {r5, r8, r9, sl, lr}^
     c24:	49505f4f 	ldmdbmi	r0, {r0, r1, r2, r3, r6, r8, r9, sl, fp, ip, lr}^
     c28:	20345f4e 	eorscs	r5, r4, lr, asr #30
     c2c:	5458452c 	ldrbpl	r4, [r8], #-1324	; 0xfffffad4
     c30:	495f3449 	ldmdbmi	pc, {r0, r3, r6, sl, ip, sp}^	; <UNPREDICTABLE>
     c34:	7d205152 	stfvcs	f5, [r0, #-328]!	; 0xfffffeb8
     c38:	465f5f00 	ldrbmi	r5, [pc], -r0, lsl #30
     c3c:	3436544c 	ldrtcc	r5, [r6], #-1100	; 0xfffffbb4
     c40:	58414d5f 	stmdapl	r1, {r0, r1, r2, r3, r4, r6, r8, sl, fp, lr}^
     c44:	31205f5f 			; <UNDEFINED> instruction: 0x31205f5f
     c48:	3739372e 	ldrcc	r3, [r9, -lr, lsr #14]!
     c4c:	31333936 	teqcc	r3, r6, lsr r9
     c50:	36383433 			; <UNDEFINED> instruction: 0x36383433
     c54:	35313332 	ldrcc	r3, [r1, #-818]!	; 0xfffffcce
     c58:	332b6537 			; <UNDEFINED> instruction: 0x332b6537
     c5c:	36463830 			; <UNDEFINED> instruction: 0x36463830
     c60:	43520034 	cmpmi	r2, #52	; 0x34
     c64:	53555f43 	cmppl	r5, #268	; 0x10c
     c68:	31545241 	cmpcc	r4, r1, asr #4
     c6c:	7365525f 	cmnvc	r5, #-268435451	; 0xf0000005
     c70:	29287465 	stmdbcs	r8!, {r0, r2, r5, r6, sl, ip, sp, lr}
     c74:	52202820 	eorpl	r2, r0, #32, 16	; 0x200000
     c78:	3e2d4343 	cdpcc	3, 2, cr4, cr13, cr3, {2}
     c7c:	32425041 	subcc	r5, r2, #65	; 0x41
     c80:	52545352 	subspl	r5, r4, #1207959553	; 0x48000001
     c84:	203d7c20 	eorscs	r7, sp, r0, lsr #24
     c88:	3c3c3128 	ldfccs	f3, [ip], #-160	; 0xffffff60
     c8c:	20293431 	eorcs	r3, r9, r1, lsr r4
     c90:	32490029 	subcc	r0, r9, #41	; 0x29
     c94:	52435f43 	subpl	r5, r3, #268	; 0x10c
     c98:	4d535f31 	ldclmi	15, cr5, [r3, #-196]	; 0xffffff3c
     c9c:	50595442 	subspl	r5, r9, r2, asr #8
     ca0:	734d5f45 	movtvc	r5, #57157	; 0xdf45
     ca4:	3028206b 	eorcc	r2, r8, fp, rrx
     ca8:	4c553178 	ldfmie	f3, [r5], {120}	; 0x78
     cac:	203c3c20 	eorscs	r3, ip, r0, lsr #24
     cb0:	5f433249 	svcpl	0x00433249
     cb4:	5f315243 	svcpl	0x00315243
     cb8:	54424d53 	strbpl	r4, [r2], #-3411	; 0xfffff2ad
     cbc:	5f455059 	svcpl	0x00455059
     cc0:	29736f50 	ldmdbcs	r3!, {r4, r6, r8, r9, sl, fp, sp, lr}^
     cc4:	49564e00 	ldmdbmi	r6, {r9, sl, fp, lr}^
     cc8:	52495f43 	subpl	r5, r9, #268	; 0x10c
     ccc:	5f303151 	svcpl	0x00303151
     cd0:	49545845 	ldmdbmi	r4, {r0, r2, r6, fp, ip, lr}^
     cd4:	69445f34 	stmdbvs	r4, {r2, r4, r5, r8, r9, sl, fp, ip, lr}^
     cd8:	6c626173 	stfvse	f6, [r2], #-460	; 0xfffffe34
     cdc:	4e282065 	cdpmi	0, 2, cr2, cr8, cr5, {3}
     ce0:	5f434956 	svcpl	0x00434956
     ce4:	52454349 	subpl	r4, r5, #603979777	; 0x24000001
     ce8:	3d7c2030 	ldclcc	0, cr2, [ip, #-192]!	; 0xffffff40
     cec:	3c3c3120 	ldfccs	f3, [ip], #-128	; 0xffffff80
     cf0:	00293031 	eoreq	r3, r9, r1, lsr r0
     cf4:	4545525f 	strbmi	r5, [r5, #-607]	; 0xfffffda1
     cf8:	575f544e 	ldrbpl	r5, [pc, -lr, asr #8]
     cfc:	54525343 	ldrbpl	r5, [r2], #-835	; 0xfffffcbd
     d00:	53424d4f 	movtpl	r4, #11599	; 0x2d4f
     d04:	4154535f 	cmpmi	r4, pc, asr r3
     d08:	70284554 	eorvc	r4, r8, r4, asr r5
     d0c:	20297274 	eorcs	r7, r9, r4, ror r2
     d10:	74702828 	ldrbtvc	r2, [r0], #-2088	; 0xfffff7d8
     d14:	3e2d2972 			; <UNDEFINED> instruction: 0x3e2d2972
     d18:	73696d5f 	cmnvc	r9, #6080	; 0x17c0
     d1c:	5f3e2d63 	svcpl	0x003e2d63
     d20:	72736377 	rsbsvc	r6, r3, #-603979775	; 0xdc000001
     d24:	626d6f74 	rsbvs	r6, sp, #116, 30	; 0x1d0
     d28:	74735f73 	ldrbtvc	r5, [r3], #-3955	; 0xfffff08d
     d2c:	29657461 	stmdbcs	r5!, {r0, r5, r6, sl, ip, sp, lr}^
     d30:	43324900 	teqmi	r2, #0, 18
     d34:	3152535f 	cmpcc	r2, pc, asr r3
     d38:	4558545f 	ldrbmi	r5, [r8, #-1119]	; 0xfffffba1
     d3c:	6b734d5f 	blvs	1cd42c0 <_Min_Stack_Size+0x1cd3ec0>
     d40:	78302820 	ldmdavc	r0!, {r5, fp, sp}
     d44:	204c5531 	subcs	r5, ip, r1, lsr r5
     d48:	49203c3c 	stmdbmi	r0!, {r2, r3, r4, r5, sl, fp, ip, sp}
     d4c:	535f4332 	cmppl	pc, #-939524096	; 0xc8000000
     d50:	545f3152 	ldrbpl	r3, [pc], #-338	; d58 <_Min_Stack_Size+0x958>
     d54:	505f4558 	subspl	r4, pc, r8, asr r5	; <UNPREDICTABLE>
     d58:	0029736f 	eoreq	r7, r9, pc, ror #6
     d5c:	6e755f5f 	mrcvs	15, 3, r5, cr5, cr15, {2}
     d60:	6e756f62 	cdpvs	15, 7, cr6, cr5, cr2, {3}
     d64:	20646564 	rsbcs	r6, r4, r4, ror #10
     d68:	495f5f00 	ldmdbmi	pc, {r8, r9, sl, fp, ip, lr}^	; <UNPREDICTABLE>
     d6c:	2038544e 	eorscs	r5, r8, lr, asr #8
     d70:	22686822 	rsbcs	r6, r8, #2228224	; 0x220000
     d74:	43435200 	movtmi	r5, #12800	; 0x3200
     d78:	4950475f 	ldmdbmi	r0, {r0, r1, r2, r3, r4, r6, r8, r9, sl, lr}^
     d7c:	435f454f 	cmpmi	pc, #331350016	; 0x13c00000
     d80:	455f4b4c 	ldrbmi	r4, [pc, #-2892]	; 23c <_Min_Heap_Size+0x3c>
     d84:	2029284e 	eorcs	r2, r9, lr, asr #16
     d88:	43522028 	cmpmi	r2, #40	; 0x28
     d8c:	413e2d43 	teqmi	lr, r3, asr #26
     d90:	45324250 	ldrmi	r4, [r2, #-592]!	; 0xfffffdb0
     d94:	7c20524e 	sfmvc	f5, 4, [r0], #-312	; 0xfffffec8
     d98:	3128203d 			; <UNDEFINED> instruction: 0x3128203d
     d9c:	29363c3c 	ldmdbcs	r6!, {r2, r3, r4, r5, sl, fp, ip, sp}
     da0:	4e002920 	vmlami.f16	s4, s0, s1	; <UNPREDICTABLE>
     da4:	5f434956 	svcpl	0x00434956
     da8:	38515249 	ldmdacc	r1, {r0, r3, r6, r9, ip, lr}^
     dac:	5458455f 	ldrbpl	r4, [r8], #-1375	; 0xfffffaa1
     db0:	455f3249 	ldrbmi	r3, [pc, #-585]	; b6f <_Min_Stack_Size+0x76f>
     db4:	6c62616e 	stfvse	f6, [r2], #-440	; 0xfffffe48
     db8:	4e282065 	cdpmi	0, 2, cr2, cr8, cr5, {3}
     dbc:	5f434956 	svcpl	0x00434956
     dc0:	52455349 	subpl	r5, r5, #603979777	; 0x24000001
     dc4:	3d7c2030 	ldclcc	0, cr2, [ip, #-192]!	; 0xffffff40
     dc8:	3c3c3120 	ldfccs	f3, [ip], #-128	; 0xffffff80
     dcc:	5f002938 	svcpl	0x00002938
     dd0:	4343475f 	movtmi	r4, #14175	; 0x375f
     dd4:	5641485f 			; <UNDEFINED> instruction: 0x5641485f
     dd8:	59535f45 	ldmdbpl	r3, {r0, r2, r6, r8, r9, sl, fp, ip, lr}^
     ddc:	435f434e 	cmpmi	pc, #939524097	; 0x38000001
     de0:	41504d4f 	cmpmi	r0, pc, asr #26
     de4:	415f4552 	cmpmi	pc, r2, asr r5	; <UNPREDICTABLE>
     de8:	535f444e 	cmppl	pc, #1308622848	; 0x4e000000
     dec:	5f504157 	svcpl	0x00504157
     df0:	00312031 	eorseq	r2, r1, r1, lsr r0
     df4:	5f544e49 	svcpl	0x00544e49
     df8:	5341454c 	movtpl	r4, #5452	; 0x154c
     dfc:	5f363154 	svcpl	0x00363154
     e00:	2058414d 	subscs	r4, r8, sp, asr #2
     e04:	495f5f28 	ldmdbmi	pc, {r3, r5, r8, r9, sl, fp, ip, lr}^	; <UNPREDICTABLE>
     e08:	4c5f544e 	cfldrdmi	mvd5, [pc], {78}	; 0x4e
     e0c:	54534145 	ldrbpl	r4, [r3], #-325	; 0xfffffebb
     e10:	4d5f3631 	ldclmi	6, cr3, [pc, #-196]	; d54 <_Min_Stack_Size+0x954>
     e14:	5f5f5841 	svcpl	0x005f5841
     e18:	5f5f0029 	svcpl	0x005f0029
     e1c:	6c697562 	cfstr64vs	mvdx7, [r9], #-392	; 0xfffffe78
     e20:	5f6e6974 	svcpl	0x006e6974
     e24:	67696c61 	strbvs	r6, [r9, -r1, ror #24]!
     e28:	6f645f6e 	svcvs	0x00645f6e
     e2c:	78286e77 	stmdavc	r8!, {r0, r1, r2, r4, r5, r6, r9, sl, fp, sp, lr}
     e30:	696c612c 	stmdbvs	ip!, {r2, r3, r5, r8, sp, lr}^
     e34:	20296e67 	eorcs	r6, r9, r7, ror #28
     e38:	5f5f2828 	svcpl	0x005f2828
     e3c:	65707974 	ldrbvs	r7, [r0, #-2420]!	; 0xfffff68c
     e40:	5f5f666f 	svcpl	0x005f666f
     e44:	29297828 	stmdbcs	r9!, {r3, r5, fp, ip, sp, lr}
     e48:	29782828 	ldmdbcs	r8!, {r3, r5, fp, sp}^
     e4c:	287e2826 	ldmdacs	lr!, {r1, r2, r5, fp, sp}^
     e50:	696c6128 	stmdbvs	ip!, {r3, r5, r8, sp, lr}^
     e54:	2d296e67 	stccs	14, cr6, [r9, #-412]!	; 0xfffffe64
     e58:	29292931 	stmdbcs	r9!, {r0, r4, r5, r8, fp, sp}
     e5c:	5f5f0029 	svcpl	0x005f0029
     e60:	43445453 	movtmi	r5, #17491	; 0x4453
     e64:	534f485f 	movtpl	r4, #63583	; 0xf85f
     e68:	5f444554 	svcpl	0x00444554
     e6c:	0031205f 	eorseq	r2, r1, pc, asr r0
     e70:	4c555f5f 	mrrcmi	15, 5, r5, r5, cr15	; <UNPREDICTABLE>
     e74:	4152464c 	cmpmi	r2, ip, asr #12
     e78:	465f5443 	ldrbmi	r5, [pc], -r3, asr #8
     e7c:	5f544942 	svcpl	0x00544942
     e80:	3436205f 	ldrtcc	r2, [r6], #-95	; 0xffffffa1
     e84:	444c5f00 	strbmi	r5, [ip], #-3840	; 0xfffff100
     e88:	455f4c42 	ldrbmi	r4, [pc, #-3138]	; 24e <_Min_Heap_Size+0x4e>
     e8c:	42445f51 	submi	r5, r4, #324	; 0x144
     e90:	0031204c 	eorseq	r2, r1, ip, asr #32
     e94:	4e495f5f 	mcrmi	15, 2, r5, cr9, cr15, {2}
     e98:	41465f54 	cmpmi	r6, r4, asr pc
     e9c:	34365453 	ldrtcc	r5, [r6], #-1107	; 0xfffffbad
     ea0:	5059545f 	subspl	r5, r9, pc, asr r4
     ea4:	205f5f45 	subscs	r5, pc, r5, asr #30
     ea8:	676e6f6c 	strbvs	r6, [lr, -ip, ror #30]!
     eac:	6e6f6c20 	cdpvs	12, 6, cr6, cr15, cr0, {1}
     eb0:	6e692067 	cdpvs	0, 6, cr2, cr9, cr7, {3}
     eb4:	5f5f0074 	svcpl	0x005f0074
     eb8:	544e4957 	strbpl	r4, [lr], #-2391	; 0xfffff6a9
     ebc:	5059545f 	subspl	r5, r9, pc, asr r4
     ec0:	205f5f45 	subscs	r5, pc, r5, asr #30
     ec4:	69736e75 	ldmdbvs	r3!, {r0, r2, r4, r5, r6, r9, sl, fp, sp, lr}^
     ec8:	64656e67 	strbtvs	r6, [r5], #-3687	; 0xfffff199
     ecc:	746e6920 	strbtvc	r6, [lr], #-2336	; 0xfffff6e0
     ed0:	415f5f00 	cmpmi	pc, r0, lsl #30
     ed4:	49525454 	ldmdbmi	r2, {r2, r4, r6, sl, ip, lr}^
     ed8:	45545542 	ldrbmi	r5, [r4, #-1346]	; 0xfffffabe
     edc:	504d495f 	subpl	r4, sp, pc, asr r9
     ee0:	5f455255 	svcpl	0x00455255
     ee4:	5f525450 	svcpl	0x00525450
     ee8:	4900205f 	stmdbmi	r0, {r0, r1, r2, r3, r4, r6, sp}
     eec:	5f38544e 	svcpl	0x0038544e
     ef0:	2058414d 	subscs	r4, r8, sp, asr #2
     ef4:	495f5f28 	ldmdbmi	pc, {r3, r5, r8, r9, sl, fp, ip, lr}^	; <UNPREDICTABLE>
     ef8:	5f38544e 	svcpl	0x0038544e
     efc:	5f58414d 	svcpl	0x0058414d
     f00:	5f00295f 	svcpl	0x0000295f
     f04:	544c465f 	strbpl	r4, [ip], #-1631	; 0xfffff9a1
     f08:	5f583233 	svcpl	0x00583233
     f0c:	5f534148 	svcpl	0x00534148
     f10:	45495551 	strbmi	r5, [r9, #-1361]	; 0xfffffaaf
     f14:	414e5f54 	cmpmi	lr, r4, asr pc
     f18:	205f5f4e 	subscs	r5, pc, lr, asr #30
     f1c:	5f5f0031 	svcpl	0x005f0031
     f20:	455a4953 	ldrbmi	r4, [sl, #-2387]	; 0xfffff6ad
     f24:	5f5f545f 	svcpl	0x005f545f
     f28:	54500020 	ldrbpl	r0, [r0], #-32	; 0xffffffe0
     f2c:	46494452 			; <UNDEFINED> instruction: 0x46494452
     f30:	414d5f46 	cmpmi	sp, r6, asr #30
     f34:	5f282058 	svcpl	0x00282058
     f38:	5254505f 	subspl	r5, r4, #95	; 0x5f
     f3c:	46464944 	strbmi	r4, [r6], -r4, asr #18
     f40:	58414d5f 	stmdapl	r1, {r0, r1, r2, r3, r4, r6, r8, sl, fp, lr}^
     f44:	00295f5f 	eoreq	r5, r9, pc, asr pc
     f48:	4c465f5f 	mcrrmi	15, 5, r5, r6, cr15
     f4c:	5f323354 	svcpl	0x00323354
     f50:	5f58414d 	svcpl	0x0058414d
     f54:	455f3031 	ldrbmi	r3, [pc, #-49]	; f2b <_Min_Stack_Size+0xb2b>
     f58:	5f5f5058 	svcpl	0x005f5058
     f5c:	00383320 	eorseq	r3, r8, r0, lsr #6
     f60:	51555f5f 	cmppl	r5, pc, asr pc
     f64:	42465f51 	submi	r5, r6, #324	; 0x144
     f68:	5f5f5449 	svcpl	0x005f5449
     f6c:	49003820 	stmdbmi	r0, {r5, fp, ip, sp}
     f70:	535f4332 	cmppl	pc, #-939524096	; 0xc8000000
     f74:	425f3152 	subsmi	r3, pc, #-2147483628	; 0x80000014
     f78:	5f525245 	svcpl	0x00525245
     f7c:	206b734d 	rsbcs	r7, fp, sp, asr #6
     f80:	31783028 	cmncc	r8, r8, lsr #32
     f84:	3c204c55 	stccc	12, cr4, [r0], #-340	; 0xfffffeac
     f88:	3249203c 	subcc	r2, r9, #60	; 0x3c
     f8c:	52535f43 	subspl	r5, r3, #268	; 0x10c
     f90:	45425f31 	strbmi	r5, [r2, #-3889]	; 0xfffff0cf
     f94:	505f5252 	subspl	r5, pc, r2, asr r2	; <UNPREDICTABLE>
     f98:	0029736f 	eoreq	r7, r9, pc, ror #6
     f9c:	4545525f 	strbmi	r5, [r5, #-607]	; 0xfffffda1
     fa0:	435f544e 	cmpmi	pc, #1308622848	; 0x4e000000
     fa4:	4b434548 	blmi	10d24cc <_Min_Stack_Size+0x10d20cc>
     fa8:	284d545f 	stmdacs	sp, {r0, r1, r2, r3, r4, r6, sl, ip, lr}^
     fac:	29726176 	ldmdbcs	r2!, {r1, r2, r4, r5, r6, r8, sp, lr}^
     fb0:	45525f20 	ldrbmi	r5, [r2, #-3872]	; 0xfffff0e0
     fb4:	5f544e45 	svcpl	0x00544e45
     fb8:	43454843 	movtmi	r4, #22595	; 0x5843
     fbc:	6176284b 	cmnvs	r6, fp, asr #16
     fc0:	5f202c72 	svcpl	0x00202c72
     fc4:	61636f6c 	cmnvs	r3, ip, ror #30
     fc8:	6d69746c 	cfstrdvs	mvd7, [r9, #-432]!	; 0xfffffe50
     fcc:	75625f65 	strbvc	r5, [r2, #-3941]!	; 0xfffff09b
     fd0:	73202c66 			; <UNDEFINED> instruction: 0x73202c66
     fd4:	63757274 	cmnvs	r5, #116, 4	; 0x40000007
     fd8:	5f5f2074 	svcpl	0x005f2074
     fdc:	2a206d74 	bcs	81c5b4 <_Min_Stack_Size+0x81c1b4>
     fe0:	6973202c 	ldmdbvs	r3!, {r2, r3, r5, sp}^
     fe4:	666f657a 			; <UNDEFINED> instruction: 0x666f657a
     fe8:	28282a20 	stmdacs	r8!, {r5, r9, fp, sp}
     fec:	29726176 	ldmdbcs	r2!, {r1, r2, r4, r5, r6, r8, sp, lr}^
     ff0:	6c5f3e2d 	mrrcvs	14, 2, r3, pc, cr13	; <UNPREDICTABLE>
     ff4:	6c61636f 	stclvs	3, cr6, [r1], #-444	; 0xfffffe44
     ff8:	656d6974 	strbvs	r6, [sp, #-2420]!	; 0xfffff68c
     ffc:	6675625f 			; <UNDEFINED> instruction: 0x6675625f
    1000:	29202c29 	stmdbcs	r0!, {r0, r3, r5, sl, fp, sp}
    1004:	555f5f00 	ldrbpl	r5, [pc, #-3840]	; 10c <_Min_Heap_Size-0xf4>
    1008:	41524653 	cmpmi	r2, r3, asr r6
    100c:	4d5f5443 	cfldrdmi	mvd5, [pc, #-268]	; f08 <_Min_Stack_Size+0xb08>
    1010:	5f5f5841 	svcpl	0x005f5841
    1014:	46583020 	ldrbmi	r3, [r8], -r0, lsr #32
    1018:	382d5046 	stmdacc	sp!, {r1, r2, r6, ip, lr}
    101c:	00524855 	subseq	r4, r2, r5, asr r8
    1020:	49545845 	ldmdbmi	r4, {r0, r2, r6, fp, ip, lr}^
    1024:	31203031 			; <UNDEFINED> instruction: 0x31203031
    1028:	5f5f0030 	svcpl	0x005f0030
    102c:	544e4955 	strbpl	r4, [lr], #-2389	; 0xfffff6ab
    1030:	5f525450 	svcpl	0x00525450
    1034:	5f58414d 	svcpl	0x0058414d
    1038:	7830205f 	ldmdavc	r0!, {r0, r1, r2, r3, r4, r6, sp}
    103c:	66666666 	strbtvs	r6, [r6], -r6, ror #12
    1040:	66666666 	strbtvs	r6, [r6], -r6, ror #12
    1044:	5f5f0055 	svcpl	0x005f0055
    1048:	6465656e 	strbtvs	r6, [r5], #-1390	; 0xfffffa92
    104c:	6863775f 	stmdavs	r3!, {r0, r1, r2, r3, r4, r6, r8, r9, sl, ip, sp, lr}^
    1050:	745f7261 	ldrbvc	r7, [pc], #-609	; 1058 <_Min_Stack_Size+0xc58>
    1054:	465f5f00 	ldrbmi	r5, [pc], -r0, lsl #30
    1058:	3233544c 	eorscc	r5, r3, #76, 8	; 0x4c000000
    105c:	4e494d5f 	mcrmi	13, 2, r4, cr9, cr15, {2}
    1060:	5058455f 	subspl	r4, r8, pc, asr r5
    1064:	28205f5f 	stmdacs	r0!, {r0, r1, r2, r3, r4, r6, r8, r9, sl, fp, ip, lr}
    1068:	3532312d 	ldrcc	r3, [r2, #-301]!	; 0xfffffed3
    106c:	2e2e0029 	cdpcs	0, 2, cr0, cr14, cr9, {1}
    1070:	41434d2f 	cmpmi	r3, pc, lsr #26
    1074:	2f5f5f4c 	svccs	0x005f5f4c
    1078:	49545845 	ldmdbmi	r4, {r0, r2, r6, fp, ip, lr}^
    107c:	5f00632e 	svcpl	0x0000632e
    1080:	696c615f 	stmdbvs	ip!, {r0, r1, r2, r3, r4, r6, r8, sp, lr}^
    1084:	645f6e67 	ldrbvs	r6, [pc], #-3687	; 108c <_Min_Stack_Size+0xc8c>
    1088:	286e776f 	stmdacs	lr!, {r0, r1, r2, r3, r5, r6, r8, r9, sl, ip, sp, lr}^
    108c:	29792c78 	ldmdbcs	r9!, {r3, r4, r5, r6, sl, fp, sp}^
    1090:	625f5f20 	subsvs	r5, pc, #32, 30	; 0x80
    1094:	746c6975 	strbtvc	r6, [ip], #-2421	; 0xfffff68b
    1098:	615f6e69 	cmpvs	pc, r9, ror #28
    109c:	6e67696c 	vnmulvs.f16	s13, s14, s25	; <UNPREDICTABLE>
    10a0:	776f645f 			; <UNDEFINED> instruction: 0x776f645f
    10a4:	2c78286e 	ldclcs	8, cr2, [r8], #-440	; 0xfffffe48
    10a8:	00297920 	eoreq	r7, r9, r0, lsr #18
    10ac:	4c41434d 	mcrrmi	3, 4, r4, r1, cr13
    10b0:	5458455f 	ldrbpl	r4, [r8], #-1375	; 0xfffffaa1
    10b4:	50475f49 	subpl	r5, r7, r9, asr #30
    10b8:	555f4f49 	ldrbpl	r4, [pc, #-3913]	; 177 <_Min_Heap_Size-0x89>
    10bc:	74616470 	strbtvc	r6, [r1], #-1136	; 0xfffffb90
    10c0:	5f5f0065 	svcpl	0x005f0065
    10c4:	49534352 	ldmdbmi	r3, {r1, r4, r6, r8, r9, lr}^
    10c8:	4f535f44 	svcmi	0x00535f44
    10cc:	45435255 	strbmi	r5, [r3, #-597]	; 0xfffffdab
    10d0:	20297328 	eorcs	r7, r9, r8, lsr #6
    10d4:	75727473 	ldrbvc	r7, [r2, #-1139]!	; 0xfffffb8d
    10d8:	5f207463 	svcpl	0x00207463
    10dc:	6361685f 	cmnvs	r1, #6225920	; 0x5f0000
    10e0:	425f006b 	subsmi	r0, pc, #107	; 0x6b
    10e4:	505f4453 	subspl	r4, pc, r3, asr r4	; <UNPREDICTABLE>
    10e8:	49445254 	stmdbmi	r4, {r2, r4, r6, r9, ip, lr}^
    10ec:	545f4646 	ldrbpl	r4, [pc], #-1606	; 10f4 <_Min_Stack_Size+0xcf4>
    10f0:	4900205f 	stmdbmi	r0, {r0, r1, r2, r3, r4, r6, sp}
    10f4:	3631544e 	ldrtcc	r5, [r1], -lr, asr #8
    10f8:	58414d5f 	stmdapl	r1, {r0, r1, r2, r3, r4, r6, r8, sl, fp, lr}^
    10fc:	5f5f2820 	svcpl	0x005f2820
    1100:	31544e49 	cmpcc	r4, r9, asr #28
    1104:	414d5f36 	cmpmi	sp, r6, lsr pc
    1108:	295f5f58 	ldmdbcs	pc, {r3, r4, r6, r8, r9, sl, fp, ip, lr}^	; <UNPREDICTABLE>
    110c:	43324900 	teqmi	r2, #0, 18
    1110:	3152535f 	cmpcc	r2, pc, asr r3
    1114:	5245425f 	subpl	r4, r5, #-268435451	; 0xf0000005
    1118:	32492052 	subcc	r2, r9, #82	; 0x52
    111c:	52535f43 	subspl	r5, r3, #268	; 0x10c
    1120:	45425f31 	strbmi	r5, [r2, #-3889]	; 0xfffff0cf
    1124:	4d5f5252 	lfmmi	f5, 2, [pc, #-328]	; fe4 <_Min_Stack_Size+0xbe4>
    1128:	5f006b73 	svcpl	0x00006b73
    112c:	464c555f 			; <UNDEFINED> instruction: 0x464c555f
    1130:	54434152 	strbpl	r4, [r3], #-338	; 0xfffffeae
    1134:	4942465f 	stmdbmi	r2, {r0, r1, r2, r3, r4, r6, r9, sl, lr}^
    1138:	205f5f54 	subscs	r5, pc, r4, asr pc	; <UNPREDICTABLE>
    113c:	45003233 	strmi	r3, [r0, #-563]	; 0xfffffdcd
    1140:	31495458 	cmpcc	r9, r8, asr r4
    1144:	32312032 	eorscc	r2, r1, #50	; 0x32
    1148:	465f5f00 	ldrbmi	r5, [pc], -r0, lsl #30
    114c:	3436544c 	ldrtcc	r5, [r6], #-1100	; 0xfffffbb4
    1150:	4e494d5f 	mcrmi	13, 2, r4, cr9, cr15, {2}
    1154:	5f30315f 	svcpl	0x0030315f
    1158:	5f505845 	svcpl	0x00505845
    115c:	2d28205f 	stccs	0, cr2, [r8, #-380]!	; 0xfffffe84
    1160:	29373033 	ldmdbcs	r7!, {r0, r1, r4, r5, ip, sp}
    1164:	735f5f00 	cmpvc	pc, #0, 30
    1168:	5f657a69 	svcpl	0x00657a69
    116c:	5f002074 	svcpl	0x00002074
    1170:	756f625f 	strbvc	r6, [pc, #-607]!	; f19 <_Min_Stack_Size+0xb19>
    1174:	6465646e 	strbtvs	r6, [r5], #-1134	; 0xfffffb92
    1178:	5f5f0020 	svcpl	0x005f0020
    117c:	5f746e69 	svcpl	0x00746e69
    1180:	74736166 	ldrbtvc	r6, [r3], #-358	; 0xfffffe9a
    1184:	745f3233 	ldrbvc	r3, [pc], #-563	; 118c <_Min_Stack_Size+0xd8c>
    1188:	6665645f 			; <UNDEFINED> instruction: 0x6665645f
    118c:	64656e69 	strbtvs	r6, [r5], #-3689	; 0xfffff197
    1190:	5f003120 	svcpl	0x00003120
    1194:	544e495f 	strbpl	r4, [lr], #-2399	; 0xfffff6a1
    1198:	5341465f 	movtpl	r4, #5727	; 0x165f
    119c:	5f343654 	svcpl	0x00343654
    11a0:	54444957 	strbpl	r4, [r4], #-2391	; 0xfffff6a9
    11a4:	205f5f48 	subscs	r5, pc, r8, asr #30
    11a8:	55003436 	strpl	r3, [r0, #-1078]	; 0xfffffbca
    11ac:	54524153 	ldrbpl	r4, [r2], #-339	; 0xfffffead
    11b0:	41425f32 	cmpmi	r2, r2, lsr pc
    11b4:	28204553 	stmdacs	r0!, {r0, r1, r4, r6, r8, sl, lr}
    11b8:	69726550 	ldmdbvs	r2!, {r4, r6, r8, sl, sp, lr}^
    11bc:	72656870 	rsbvc	r6, r5, #112, 16	; 0x700000
    11c0:	5f736c61 	svcpl	0x00736c61
    11c4:	45534142 	ldrbmi	r4, [r3, #-322]	; 0xfffffebe
    11c8:	30202b20 	eorcc	r2, r0, r0, lsr #22
    11cc:	30303078 	eorscc	r3, r0, r8, ror r0
    11d0:	30343430 	eorscc	r3, r4, r0, lsr r4
    11d4:	294c5530 	stmdbcs	ip, {r4, r5, r8, sl, ip, lr}^
    11d8:	544e4900 	strbpl	r4, [lr], #-2304	; 0xfffff700
    11dc:	435f3631 	cmpmi	pc, #51380224	; 0x3100000
    11e0:	20297828 	eorcs	r7, r9, r8, lsr #16
    11e4:	4e495f5f 	mcrmi	15, 2, r5, cr9, cr15, {2}
    11e8:	5f363154 	svcpl	0x00363154
    11ec:	29782843 	ldmdbcs	r8!, {r0, r1, r6, fp, sp}^
    11f0:	535f5f00 	cmppl	pc, #0, 30
    11f4:	43415246 	movtmi	r5, #4678	; 0x1246
    11f8:	50455f54 	subpl	r5, r5, r4, asr pc
    11fc:	4f4c4953 	svcmi	0x004c4953
    1200:	205f5f4e 	subscs	r5, pc, lr, asr #30
    1204:	50317830 	eorspl	r7, r1, r0, lsr r8
    1208:	5248372d 	subpl	r3, r8, #11796480	; 0xb40000
    120c:	435f5f00 	cmpmi	pc, #0, 30
    1210:	41434e4f 	cmpmi	r3, pc, asr #28
    1214:	78283154 	stmdavc	r8!, {r2, r4, r6, r8, ip, sp}
    1218:	2029792c 	eorcs	r7, r9, ip, lsr #18
    121c:	23232078 			; <UNDEFINED> instruction: 0x23232078
    1220:	49007920 	stmdbmi	r0, {r5, r8, fp, ip, sp, lr}
    1224:	435f4332 	cmpmi	pc, #-939524096	; 0xc8000000
    1228:	415f3152 	cmpmi	pc, r2, asr r1	; <UNPREDICTABLE>
    122c:	505f4b43 	subspl	r4, pc, r3, asr #22
    1230:	2820736f 	stmdacs	r0!, {r0, r1, r2, r3, r5, r6, r8, r9, ip, sp, lr}
    1234:	29553031 	ldmdbcs	r5, {r0, r4, r5, ip, sp}^
    1238:	5f545f00 	svcpl	0x00545f00
    123c:	455a4953 	ldrbmi	r4, [sl, #-2387]	; 0xfffff6ad
    1240:	5f5f0020 	svcpl	0x005f0020
    1244:	5f4c4244 	svcpl	0x004c4244
    1248:	5f4e494d 	svcpl	0x004e494d
    124c:	455f3031 	ldrbmi	r3, [pc, #-49]	; 1223 <_Min_Stack_Size+0xe23>
    1250:	5f5f5058 	svcpl	0x005f5058
    1254:	332d2820 			; <UNDEFINED> instruction: 0x332d2820
    1258:	00293730 	eoreq	r3, r9, r0, lsr r7
    125c:	53555f5f 	cmppl	r5, #380	; 0x17c
    1260:	42465f51 	submi	r5, r6, #324	; 0x144
    1264:	5f5f5449 	svcpl	0x005f5449
    1268:	00323320 	eorseq	r3, r2, r0, lsr #6
    126c:	524f5f5f 	subpl	r5, pc, #380	; 0x17c
    1270:	5f524544 	svcpl	0x00524544
    1274:	5f474942 	svcpl	0x00474942
    1278:	49444e45 	stmdbmi	r4, {r0, r2, r6, r9, sl, fp, lr}^
    127c:	5f5f4e41 	svcpl	0x005f4e41
    1280:	32333420 	eorscc	r3, r3, #32, 8	; 0x20000000
    1284:	58450031 	stmdapl	r5, {r0, r4, r5}^
    1288:	34314954 	ldrtcc	r4, [r1], #-2388	; 0xfffff6ac
    128c:	00343120 	eorseq	r3, r4, r0, lsr #2
    1290:	49555f5f 	ldmdbmi	r5, {r0, r1, r2, r3, r4, r6, r8, r9, sl, fp, ip, lr}^
    1294:	5450544e 	ldrbpl	r5, [r0], #-1102	; 0xfffffbb2
    1298:	59545f52 	ldmdbpl	r4, {r1, r4, r6, r8, r9, sl, fp, ip, lr}^
    129c:	5f5f4550 	svcpl	0x005f4550
    12a0:	736e7520 	cmnvc	lr, #32, 10	; 0x8000000
    12a4:	656e6769 	strbvs	r6, [lr, #-1897]!	; 0xfffff897
    12a8:	6e692064 	cdpvs	0, 6, cr2, cr9, cr4, {3}
    12ac:	5f5f0074 	svcpl	0x005f0074
    12b0:	465f5153 			; <UNDEFINED> instruction: 0x465f5153
    12b4:	5f544942 	svcpl	0x00544942
    12b8:	3133205f 	teqcc	r3, pc, asr r0
    12bc:	43435200 	movtmi	r5, #12800	; 0x3200
    12c0:	4332495f 	teqmi	r2, #1556480	; 0x17c000
    12c4:	4c435f32 	mcrrmi	15, 3, r5, r3, cr2
    12c8:	4e455f4b 	cdpmi	15, 4, cr5, cr5, cr11, {2}
    12cc:	28202928 	stmdacs	r0!, {r3, r5, r8, fp, sp}
    12d0:	2d434352 	stclcs	3, cr4, [r3, #-328]	; 0xfffffeb8
    12d4:	4250413e 	subsmi	r4, r0, #-2147483633	; 0x8000000f
    12d8:	524e4531 	subpl	r4, lr, #205520896	; 0xc400000
    12dc:	203d7c20 	eorscs	r7, sp, r0, lsr #24
    12e0:	323c3c31 	eorscc	r3, ip, #12544	; 0x3100
    12e4:	5f002932 	svcpl	0x00002932
    12e8:	44494c45 	strbmi	r4, [r9], #-3141	; 0xfffff3bb
    12ec:	454c4241 	strbmi	r4, [ip, #-577]	; 0xfffffdbf
    12f0:	4c4e495f 	mcrrmi	9, 5, r4, lr, cr15	; <UNPREDICTABLE>
    12f4:	20454e49 	subcs	r4, r5, r9, asr #28
    12f8:	74617473 	strbtvc	r7, [r1], #-1139	; 0xfffffb8d
    12fc:	5f206369 	svcpl	0x00206369
    1300:	6c6e695f 			; <UNDEFINED> instruction: 0x6c6e695f
    1304:	5f656e69 	svcpl	0x00656e69
    1308:	3249005f 	subcc	r0, r9, #95	; 0x5f
    130c:	52435f43 	subpl	r5, r3, #268	; 0x10c
    1310:	45505f31 	ldrbmi	r5, [r0, #-3889]	; 0xfffff0cf
    1314:	32492043 	subcc	r2, r9, #67	; 0x43
    1318:	52435f43 	subpl	r5, r3, #268	; 0x10c
    131c:	45505f31 	ldrbmi	r5, [r0, #-3889]	; 0xfffff0cf
    1320:	734d5f43 	movtvc	r5, #57155	; 0xdf43
    1324:	555f006b 	ldrbpl	r0, [pc, #-107]	; 12c1 <_Min_Stack_Size+0xec1>
    1328:	31544e49 	cmpcc	r4, r9, asr #28
    132c:	5f545f36 	svcpl	0x00545f36
    1330:	4c434544 	cfstr64mi	mvdx4, [r3], {68}	; 0x44
    1334:	44455241 	strbmi	r5, [r5], #-577	; 0xfffffdbf
    1338:	54460020 	strbpl	r0, [r6], #-32	; 0xffffffe0
    133c:	49005253 	stmdbmi	r0, {r0, r1, r4, r6, r9, ip, lr}
    1340:	435f4332 	cmpmi	pc, #-939524096	; 0xc8000000
    1344:	495f3252 	ldmdbmi	pc, {r1, r4, r6, r9, ip, sp}^	; <UNPREDICTABLE>
    1348:	52524554 	subspl	r4, r2, #84, 10	; 0x15000000
    134c:	505f4e45 	subspl	r4, pc, r5, asr #28
    1350:	2820736f 	stmdacs	r0!, {r0, r1, r2, r3, r5, r6, r8, r9, ip, sp, lr}
    1354:	00295538 	eoreq	r5, r9, r8, lsr r5
    1358:	52415355 	subpl	r5, r1, #1409286145	; 0x54000001
    135c:	28203354 	stmdacs	r0!, {r2, r4, r6, r8, r9, ip, sp}
    1360:	41535528 	cmpmi	r3, r8, lsr #10
    1364:	545f5452 	ldrbpl	r5, [pc], #-1106	; 136c <_Min_Stack_Size+0xf6c>
    1368:	44657079 	strbtmi	r7, [r5], #-121	; 0xffffff87
    136c:	2a206665 	bcs	81ad08 <_Min_Stack_Size+0x81a908>
    1370:	41535529 	cmpmi	r3, r9, lsr #10
    1374:	5f335452 	svcpl	0x00335452
    1378:	45534142 	ldrbmi	r4, [r3, #-322]	; 0xfffffebe
    137c:	5f5f0029 	svcpl	0x005f0029
    1380:	5f514855 	svcpl	0x00514855
    1384:	54494246 	strbpl	r4, [r9], #-582	; 0xfffffdba
    1388:	31205f5f 			; <UNDEFINED> instruction: 0x31205f5f
    138c:	50470036 	subpl	r0, r7, r6, lsr r0
    1390:	505f4f49 	subspl	r4, pc, r9, asr #30
    1394:	385f4e49 	ldmdacc	pc, {r0, r3, r6, r9, sl, fp, lr}^	; <UNPREDICTABLE>
    1398:	75282820 	strvc	r2, [r8, #-2080]!	; 0xfffff7e0
    139c:	31746e69 	cmncc	r4, r9, ror #28
    13a0:	29745f36 	ldmdbcs	r4!, {r1, r2, r4, r5, r8, r9, sl, fp, ip, lr}^
    13a4:	31307830 	teqcc	r0, r0, lsr r8
    13a8:	00293030 	eoreq	r3, r9, r0, lsr r0
    13ac:	5f544e49 	svcpl	0x00544e49
    13b0:	5341454c 	movtpl	r4, #5452	; 0x154c
    13b4:	5f343654 	svcpl	0x00343654
    13b8:	2058414d 	subscs	r4, r8, sp, asr #2
    13bc:	495f5f28 	ldmdbmi	pc, {r3, r5, r8, r9, sl, fp, ip, lr}^	; <UNPREDICTABLE>
    13c0:	4c5f544e 	cfldrdmi	mvd5, [pc], {78}	; 0x4e
    13c4:	54534145 	ldrbpl	r4, [r3], #-325	; 0xfffffebb
    13c8:	4d5f3436 	cfldrdmi	mvd3, [pc, #-216]	; 12f8 <_Min_Stack_Size+0xef8>
    13cc:	5f5f5841 	svcpl	0x005f5841
    13d0:	525f0029 	subspl	r0, pc, #41	; 0x29
    13d4:	544e4545 	strbpl	r4, [lr], #-1349	; 0xfffffabb
    13d8:	454d455f 	strbmi	r4, [sp, #-1375]	; 0xfffffaa1
    13dc:	4e454752 	mcrmi	7, 2, r4, cr5, cr2, {2}
    13e0:	535f5943 	cmppl	pc, #1097728	; 0x10c000
    13e4:	20455a49 	subcs	r5, r5, r9, asr #20
    13e8:	45003532 	strmi	r3, [r0, #-1330]	; 0xffffface
    13ec:	34495458 	strbcc	r5, [r9], #-1112	; 0xfffffba8
    13f0:	20344250 	eorscs	r4, r4, r0, asr r2
    13f4:	54584528 	ldrbpl	r4, [r8], #-1320	; 0xfffffad8
    13f8:	50475f49 	subpl	r5, r7, r9, asr #30
    13fc:	4d5f4f49 	ldclmi	15, cr4, [pc, #-292]	; 12e0 <_Min_Stack_Size+0xee0>
    1400:	69707061 	ldmdbvs	r0!, {r0, r5, r6, ip, sp, lr}^
    1404:	745f676e 	ldrbvc	r6, [pc], #-1902	; 140c <_Min_Stack_Size+0x100c>
    1408:	58457b29 	stmdapl	r5, {r0, r3, r5, r8, r9, fp, ip, sp, lr}^
    140c:	2c344954 			; <UNDEFINED> instruction: 0x2c344954
    1410:	49504720 	ldmdbmi	r0, {r5, r8, r9, sl, lr}^
    1414:	2c20424f 	sfmcs	f4, 4, [r0], #-316	; 0xfffffec4
    1418:	49504720 	ldmdbmi	r0, {r5, r8, r9, sl, lr}^
    141c:	49505f4f 	ldmdbmi	r0, {r0, r1, r2, r3, r6, r8, r9, sl, fp, ip, lr}^
    1420:	20345f4e 	eorscs	r5, r4, lr, asr #30
    1424:	5458452c 	ldrbpl	r4, [r8], #-1324	; 0xfffffad4
    1428:	495f3449 	ldmdbmi	pc, {r0, r3, r6, sl, ip, sp}^	; <UNPREDICTABLE>
    142c:	7d205152 	stfvcs	f5, [r0, #-328]!	; 0xfffffeb8
    1430:	505f5f00 	subspl	r5, pc, r0, lsl #30
    1434:	49445254 	stmdbmi	r4, {r2, r4, r6, r9, ip, lr}^
    1438:	575f4646 	ldrbpl	r4, [pc, -r6, asr #12]
    143c:	48544449 	ldmdami	r4, {r0, r3, r6, sl, lr}^
    1440:	33205f5f 			; <UNDEFINED> instruction: 0x33205f5f
    1444:	5f5f0032 	svcpl	0x005f0032
    1448:	6b616577 	blvs	185aa2c <_Min_Stack_Size+0x185a62c>
    144c:	6665725f 			; <UNDEFINED> instruction: 0x6665725f
    1450:	6e657265 	cdpvs	2, 6, cr7, cr5, cr5, {3}
    1454:	73286563 			; <UNDEFINED> instruction: 0x73286563
    1458:	612c6d79 			; <UNDEFINED> instruction: 0x612c6d79
    145c:	7361696c 	cmnvc	r1, #108, 18	; 0x1b0000
    1460:	5f5f2029 	svcpl	0x005f2029
    1464:	5f6d7361 	svcpl	0x006d7361
    1468:	2e22285f 	mcrcs	8, 1, r2, cr2, cr15, {2}
    146c:	6b616577 	blvs	185aa50 <_Min_Stack_Size+0x185a650>
    1470:	23202220 			; <UNDEFINED> instruction: 0x23202220
    1474:	61696c61 	cmnvs	r9, r1, ror #24
    1478:	203b2973 	eorscs	r2, fp, r3, ror r9
    147c:	73615f5f 	cmnvc	r1, #380	; 0x17c
    1480:	285f5f6d 	ldmdacs	pc, {r0, r2, r3, r5, r6, r8, r9, sl, fp, ip, lr}^	; <UNPREDICTABLE>
    1484:	71652e22 	cmnvc	r5, r2, lsr #28
    1488:	20222075 	eorcs	r2, r2, r5, ror r0
    148c:	696c6123 	stmdbvs	ip!, {r0, r1, r5, r8, sp, lr}^
    1490:	22207361 	eorcs	r7, r0, #-2080374783	; 0x84000001
    1494:	2022202c 	eorcs	r2, r2, ip, lsr #32
    1498:	6d797323 	ldclvs	3, cr7, [r9, #-140]!	; 0xffffff74
    149c:	32490029 	subcc	r0, r9, #41	; 0x29
    14a0:	52435f43 	subpl	r5, r3, #268	; 0x10c
    14a4:	45505f31 	ldrbmi	r5, [r0, #-3889]	; 0xfffff0cf
    14a8:	6f505f43 	svcvs	0x00505f43
    14ac:	31282073 			; <UNDEFINED> instruction: 0x31282073
    14b0:	00295532 	eoreq	r5, r9, r2, lsr r5
    14b4:	52415355 	subpl	r5, r1, #1409286145	; 0x54000001
    14b8:	425f3354 	subsmi	r3, pc, #84, 6	; 0x50000001
    14bc:	20455341 	subcs	r5, r5, r1, asr #6
    14c0:	72655028 	rsbvc	r5, r5, #40	; 0x28
    14c4:	65687069 	strbvs	r7, [r8, #-105]!	; 0xffffff97
    14c8:	736c6172 	cmnvc	ip, #-2147483620	; 0x8000001c
    14cc:	5341425f 	movtpl	r4, #4703	; 0x125f
    14d0:	202b2045 	eorcs	r2, fp, r5, asr #32
    14d4:	30307830 	eorscc	r7, r0, r0, lsr r8
    14d8:	38343030 	ldmdacc	r4!, {r4, r5, ip, sp}
    14dc:	4c553030 	mrrcmi	0, 3, r3, r5, cr0
    14e0:	5f5f0029 	svcpl	0x005f0029
    14e4:	544e4955 	strbpl	r4, [lr], #-2389	; 0xfffff6ab
    14e8:	5341465f 	movtpl	r4, #5727	; 0x165f
    14ec:	4d5f3854 	ldclmi	8, cr3, [pc, #-336]	; 13a4 <_Min_Stack_Size+0xfa4>
    14f0:	5f5f5841 	svcpl	0x005f5841
    14f4:	66783020 	ldrbtvs	r3, [r8], -r0, lsr #32
    14f8:	66666666 	strbtvs	r6, [r6], -r6, ror #12
    14fc:	55666666 	strbpl	r6, [r6, #-1638]!	; 0xfffff99a
    1500:	544e4900 	strbpl	r4, [lr], #-2304	; 0xfffff700
    1504:	4d5f3233 	lfmmi	f3, 2, [pc, #-204]	; 1440 <_Min_Stack_Size+0x1040>
    1508:	28204e49 	stmdacs	r0!, {r0, r3, r6, r9, sl, fp, lr}
    150c:	495f5f2d 	ldmdbmi	pc, {r0, r2, r3, r5, r8, r9, sl, fp, ip, lr}^	; <UNPREDICTABLE>
    1510:	3233544e 	eorscc	r5, r3, #1308622848	; 0x4e000000
    1514:	58414d5f 	stmdapl	r1, {r0, r1, r2, r3, r4, r6, r8, sl, fp, lr}^
    1518:	2d205f5f 	stccs	15, cr5, [r0, #-380]!	; 0xfffffe84
    151c:	00293120 	eoreq	r3, r9, r0, lsr #2
    1520:	61685f5f 	cmnvs	r8, pc, asr pc
    1524:	78655f73 	stmdavc	r5!, {r0, r1, r4, r5, r6, r8, r9, sl, fp, ip, lr}^
    1528:	736e6574 	cmnvc	lr, #116, 10	; 0x1d000000
    152c:	206e6f69 	rsbcs	r6, lr, r9, ror #30
    1530:	61685f5f 	cmnvs	r8, pc, asr pc
    1534:	65665f73 	strbvs	r5, [r6, #-3955]!	; 0xfffff08d
    1538:	72757461 	rsbsvc	r7, r5, #1627389952	; 0x61000000
    153c:	58450065 	stmdapl	r5, {r0, r2, r5, r6}^
    1540:	35314954 	ldrcc	r4, [r1, #-2388]!	; 0xfffff6ac
    1544:	35314450 	ldrcc	r4, [r1, #-1104]!	; 0xfffffbb0
    1548:	58452820 	stmdapl	r5, {r5, fp, sp}^
    154c:	475f4954 			; <UNDEFINED> instruction: 0x475f4954
    1550:	5f4f4950 	svcpl	0x004f4950
    1554:	7070614d 	rsbsvc	r6, r0, sp, asr #2
    1558:	5f676e69 	svcpl	0x00676e69
    155c:	457b2974 	ldrbmi	r2, [fp, #-2420]!	; 0xfffff68c
    1560:	31495458 	cmpcc	r9, r8, asr r4
    1564:	202c2035 	eorcs	r2, ip, r5, lsr r0
    1568:	4f495047 	svcmi	0x00495047
    156c:	202c2044 	eorcs	r2, ip, r4, asr #32
    1570:	4f495047 	svcmi	0x00495047
    1574:	4e49505f 	mcrmi	0, 2, r5, cr9, cr15, {2}
    1578:	2035315f 	eorscs	r3, r5, pc, asr r1
    157c:	5845202c 	stmdapl	r5, {r2, r3, r5, sp}^
    1580:	35314954 	ldrcc	r4, [r1, #-2388]!	; 0xfffff6ac
    1584:	5152495f 	cmppl	r2, pc, asr r9
    1588:	5f5f007d 	svcpl	0x005f007d
    158c:	4343414c 	movtmi	r4, #12620	; 0x314c
    1590:	495f4d55 	ldmdbmi	pc, {r0, r2, r4, r6, r8, sl, fp, lr}^	; <UNPREDICTABLE>
    1594:	5f544942 	svcpl	0x00544942
    1598:	3233205f 	eorscc	r2, r3, #95	; 0x5f
    159c:	755f5f00 	ldrbvc	r5, [pc, #-3840]	; 6a4 <_Min_Stack_Size+0x2a4>
    15a0:	38746e69 	ldmdacc	r4!, {r0, r3, r5, r6, r9, sl, fp, sp, lr}^
    15a4:	5f00745f 	svcpl	0x0000745f
    15a8:	5f41485f 	svcpl	0x0041485f
    15ac:	54494249 	strbpl	r4, [r9], #-585	; 0xfffffdb7
    15b0:	38205f5f 	stmdacc	r0!, {r0, r1, r2, r3, r4, r6, r8, r9, sl, fp, ip, lr}
    15b4:	4e5f5f00 	cdpmi	15, 5, cr5, cr15, cr0, {0}
    15b8:	494c5745 	stmdbmi	ip, {r0, r2, r6, r8, r9, sl, ip, lr}^
    15bc:	5f485f42 	svcpl	0x00485f42
    15c0:	0031205f 	eorseq	r2, r1, pc, asr r0
    15c4:	4e495f5f 	mcrmi	15, 2, r5, cr9, cr15, {2}
    15c8:	41465f54 	cmpmi	r6, r4, asr pc
    15cc:	36315453 			; <UNDEFINED> instruction: 0x36315453
    15d0:	4449575f 	strbmi	r5, [r9], #-1887	; 0xfffff8a1
    15d4:	5f5f4854 	svcpl	0x005f4854
    15d8:	00323320 	eorseq	r3, r2, r0, lsr #6
    15dc:	5f434352 	svcpl	0x00434352
    15e0:	52415355 	subpl	r5, r1, #1409286145	; 0x54000001
    15e4:	525f3254 	subspl	r3, pc, #84, 4	; 0x40000005
    15e8:	74657365 	strbtvc	r7, [r5], #-869	; 0xfffffc9b
    15ec:	28202928 	stmdacs	r0!, {r3, r5, r8, fp, sp}
    15f0:	43435220 	movtmi	r5, #12832	; 0x3220
    15f4:	50413e2d 	subpl	r3, r1, sp, lsr #28
    15f8:	53523142 	cmppl	r2, #-2147483632	; 0x80000010
    15fc:	7c205254 	sfmvc	f5, 4, [r0], #-336	; 0xfffffeb0
    1600:	3128203d 			; <UNDEFINED> instruction: 0x3128203d
    1604:	37313c3c 			; <UNDEFINED> instruction: 0x37313c3c
    1608:	00292029 	eoreq	r2, r9, r9, lsr #32
    160c:	4545525f 	strbmi	r5, [r5, #-607]	; 0xfffffda1
    1610:	4d5f544e 	cfldrdmi	mvd5, [pc, #-312]	; 14e0 <_Min_Stack_Size+0x10e0>
    1614:	4f545242 	svcmi	0x00545242
    1618:	535f4357 	cmppl	pc, #1543503873	; 0x5c000001
    161c:	45544154 	ldrbmi	r4, [r4, #-340]	; 0xfffffeac
    1620:	72747028 	rsbsvc	r7, r4, #40	; 0x28
    1624:	28282029 	stmdacs	r8!, {r0, r3, r5, sp}
    1628:	29727470 	ldmdbcs	r2!, {r4, r5, r6, sl, ip, sp, lr}^
    162c:	6d5f3e2d 	ldclvs	14, cr3, [pc, #-180]	; 1580 <_Min_Stack_Size+0x1180>
    1630:	2d637369 	stclcs	3, cr7, [r3, #-420]!	; 0xfffffe5c
    1634:	626d5f3e 	rsbvs	r5, sp, #62, 30	; 0xf8
    1638:	776f7472 			; <UNDEFINED> instruction: 0x776f7472
    163c:	74735f63 	ldrbtvc	r5, [r3], #-3939	; 0xfffff09d
    1640:	29657461 	stmdbcs	r5!, {r0, r5, r6, sl, ip, sp, lr}^
    1644:	4c5f5f00 	mrrcmi	15, 0, r5, pc, cr0	; <UNPREDICTABLE>
    1648:	54534145 	ldrbpl	r4, [r3], #-325	; 0xfffffebb
    164c:	22203233 	eorcs	r3, r0, #805306371	; 0x30000003
    1650:	5f00226c 	svcpl	0x0000226c
    1654:	464c4c5f 			; <UNDEFINED> instruction: 0x464c4c5f
    1658:	54434152 	strbpl	r4, [r3], #-338	; 0xfffffeae
    165c:	4e494d5f 	mcrmi	13, 2, r4, cr9, cr15, {2}
    1660:	28205f5f 	stmdacs	r0!, {r0, r1, r2, r3, r4, r6, r8, r9, sl, fp, ip, lr}
    1664:	352e302d 	strcc	r3, [lr, #-45]!	; 0xffffffd3
    1668:	2d524c4c 	ldclcs	12, cr4, [r2, #-304]	; 0xfffffed0
    166c:	4c352e30 	ldcmi	14, cr2, [r5], #-192	; 0xffffff40
    1670:	0029524c 	eoreq	r5, r9, ip, asr #4
    1674:	4e495f5f 	mcrmi	15, 2, r5, cr9, cr15, {2}
    1678:	52545054 	subspl	r5, r4, #84	; 0x54
    167c:	58414d5f 	stmdapl	r1, {r0, r1, r2, r3, r4, r6, r8, sl, fp, lr}^
    1680:	30205f5f 	eorcc	r5, r0, pc, asr pc
    1684:	66663778 			; <UNDEFINED> instruction: 0x66663778
    1688:	66666666 	strbtvs	r6, [r6], -r6, ror #12
    168c:	5f5f0066 	svcpl	0x005f0066
    1690:	444e4152 	strbmi	r4, [lr], #-338	; 0xfffffeae
    1694:	58414d5f 	stmdapl	r1, {r0, r1, r2, r3, r4, r6, r8, sl, fp, lr}^
    1698:	37783020 	ldrbcc	r3, [r8, -r0, lsr #32]!
    169c:	66666666 	strbtvs	r6, [r6], -r6, ror #12
    16a0:	00666666 	rsbeq	r6, r6, r6, ror #12
    16a4:	5f433249 	svcpl	0x00433249
    16a8:	5f325243 	svcpl	0x00325243
    16ac:	52455449 	subpl	r5, r5, #1224736768	; 0x49000000
    16b0:	204e4552 	subcs	r4, lr, r2, asr r5
    16b4:	5f433249 	svcpl	0x00433249
    16b8:	5f325243 	svcpl	0x00325243
    16bc:	52455449 	subpl	r5, r5, #1224736768	; 0x49000000
    16c0:	5f4e4552 	svcpl	0x004e4552
    16c4:	006b734d 	rsbeq	r7, fp, sp, asr #6
    16c8:	49555f5f 	ldmdbmi	r5, {r0, r1, r2, r3, r4, r6, r8, r9, sl, fp, ip, lr}^
    16cc:	465f544e 	ldrbmi	r5, [pc], -lr, asr #8
    16d0:	31545341 	cmpcc	r4, r1, asr #6
    16d4:	414d5f36 	cmpmi	sp, r6, lsr pc
    16d8:	205f5f58 	subscs	r5, pc, r8, asr pc	; <UNPREDICTABLE>
    16dc:	66667830 			; <UNDEFINED> instruction: 0x66667830
    16e0:	66666666 	strbtvs	r6, [r6], -r6, ror #12
    16e4:	00556666 	subseq	r6, r5, r6, ror #12
    16e8:	5f544e49 	svcpl	0x00544e49
    16ec:	5341454c 	movtpl	r4, #5452	; 0x154c
    16f0:	5f343654 	svcpl	0x00343654
    16f4:	204e494d 	subcs	r4, lr, sp, asr #18
    16f8:	5f5f2d28 	svcpl	0x005f2d28
    16fc:	5f544e49 	svcpl	0x00544e49
    1700:	5341454c 	movtpl	r4, #5452	; 0x154c
    1704:	5f343654 	svcpl	0x00343654
    1708:	5f58414d 	svcpl	0x0058414d
    170c:	202d205f 	eorcs	r2, sp, pc, asr r0
    1710:	5f002931 	svcpl	0x00002931
    1714:	554e475f 	strbpl	r4, [lr, #-1887]	; 0xfffff8a1
    1718:	4b494c43 	blmi	125482c <_Min_Stack_Size+0x125442c>
    171c:	55425f45 	strbpl	r5, [r2, #-3909]	; 0xfffff0bb
    1720:	49544c49 	ldmdbmi	r4, {r0, r3, r6, sl, fp, lr}^
    1724:	4f435f4e 	svcmi	0x00435f4e
    1728:	4154534e 	cmpmi	r4, lr, asr #6
    172c:	505f544e 	subspl	r5, pc, lr, asr #8
    1730:	5f003120 	svcpl	0x00003120
    1734:	4e454552 	mcrmi	5, 2, r4, cr5, cr2, {2}
    1738:	48435f54 	stmdami	r3, {r2, r4, r6, r8, r9, sl, fp, ip, lr}^
    173c:	284b4345 	stmdacs	fp, {r0, r2, r6, r8, r9, lr}^
    1740:	2c726176 	ldfcse	f6, [r2], #-472	; 0xfffffe28
    1744:	74616877 	strbtvc	r6, [r1], #-2167	; 0xfffff789
    1748:	7079742c 	rsbsvc	r7, r9, ip, lsr #8
    174c:	69732c65 	ldmdbvs	r3!, {r0, r2, r5, r6, sl, fp, sp}^
    1750:	692c657a 	stmdbvs	ip!, {r1, r3, r4, r5, r6, r8, sl, sp, lr}
    1754:	2974696e 	ldmdbcs	r4!, {r1, r2, r3, r5, r6, r8, fp, sp, lr}^
    1758:	206f6420 	rsbcs	r6, pc, r0, lsr #8
    175c:	7473207b 	ldrbtvc	r2, [r3], #-123	; 0xffffff85
    1760:	74637572 	strbtvc	r7, [r3], #-1394	; 0xfffffa8e
    1764:	65725f20 	ldrbvs	r5, [r2, #-3872]!	; 0xfffff0e0
    1768:	20746e65 	rsbscs	r6, r4, r5, ror #28
    176c:	20725f2a 	rsbscs	r5, r2, sl, lsr #30
    1770:	7628203d 			; <UNDEFINED> instruction: 0x7628203d
    1774:	3b297261 	blcc	a5e100 <_Min_Stack_Size+0xa5dd00>
    1778:	20666920 	rsbcs	r6, r6, r0, lsr #18
    177c:	2d725f28 	ldclcs	15, cr5, [r2, #-160]!	; 0xffffff60
    1780:	6168773e 	cmnvs	r8, lr, lsr r7
    1784:	3d3d2074 	ldccc	0, cr2, [sp, #-464]!	; 0xfffffe30
    1788:	4c554e20 	mrrcmi	14, 2, r4, r5, cr0
    178c:	7b20294c 	blvc	80bcc4 <_Min_Stack_Size+0x80b8c4>
    1790:	2d725f20 	ldclcs	15, cr5, [r2, #-128]!	; 0xffffff80
    1794:	6168773e 	cmnvs	r8, lr, lsr r7
    1798:	203d2074 	eorscs	r2, sp, r4, ror r0
    179c:	70797428 	rsbsvc	r7, r9, r8, lsr #8
    17a0:	616d2965 	cmnvs	sp, r5, ror #18
    17a4:	636f6c6c 	cmnvs	pc, #108, 24	; 0x6c00
    17a8:	7a697328 	bvc	1a5e450 <_Min_Stack_Size+0x1a5e050>
    17ac:	203b2965 	eorscs	r2, fp, r5, ror #18
    17b0:	65725f5f 	ldrbvs	r5, [r2, #-3935]!	; 0xfffff0a1
    17b4:	5f746e65 	svcpl	0x00746e65
    17b8:	65737361 	ldrbvs	r7, [r3, #-865]!	; 0xfffffc9f
    17bc:	5f287472 	svcpl	0x00287472
    17c0:	773e2d72 			; <UNDEFINED> instruction: 0x773e2d72
    17c4:	29746168 	ldmdbcs	r4!, {r3, r5, r6, r8, sp, lr}^
    17c8:	6e69203b 	mcrvs	0, 3, r2, cr9, cr11, {1}
    17cc:	203b7469 	eorscs	r7, fp, r9, ror #8
    17d0:	207d207d 	rsbscs	r2, sp, sp, ror r0
    17d4:	6c696877 	stclvs	8, cr6, [r9], #-476	; 0xfffffe24
    17d8:	30282065 	eorcc	r2, r8, r5, rrx
    17dc:	4e5f0029 	cdpmi	0, 5, cr0, cr15, cr9, {1}
    17e0:	756e6e6f 	strbvc	r6, [lr, #-3695]!	; 0xfffff191
    17e4:	00206c6c 	eoreq	r6, r0, ip, ror #24
    17e8:	49545845 	ldmdbmi	r4, {r0, r2, r6, fp, ip, lr}^
    17ec:	5152495f 	cmppl	r2, pc, asr r9
    17f0:	7369445f 	cmnvc	r9, #1593835520	; 0x5f000000
    17f4:	656c6261 	strbvs	r6, [ip, #-609]!	; 0xfffffd9f
    17f8:	5f003020 	svcpl	0x00003020
    17fc:	554e475f 	strbpl	r4, [lr, #-1887]	; 0xfffff8a1
    1800:	52505f43 	subspl	r5, r0, #268	; 0x10c
    1804:	51455245 	cmppl	r5, r5, asr #4
    1808:	6a616d28 	bvs	185ccb0 <_Min_Stack_Size+0x185c8b0>
    180c:	6e696d2c 	cdpvs	13, 6, cr6, cr9, cr12, {1}
    1810:	28282029 	stmdacs	r8!, {r0, r3, r5, sp}
    1814:	4e475f5f 	mcrmi	15, 2, r5, cr7, cr15, {2}
    1818:	5f5f4355 	svcpl	0x005f4355
    181c:	203c3c20 	eorscs	r3, ip, r0, lsr #24
    1820:	20293631 	eorcs	r3, r9, r1, lsr r6
    1824:	5f5f202b 	svcpl	0x005f202b
    1828:	43554e47 	cmpmi	r5, #1136	; 0x470
    182c:	4e494d5f 	mcrmi	13, 2, r4, cr9, cr15, {2}
    1830:	5f5f524f 	svcpl	0x005f524f
    1834:	203d3e20 	eorscs	r3, sp, r0, lsr #28
    1838:	616d2828 	cmnvs	sp, r8, lsr #16
    183c:	3c20296a 			; <UNDEFINED> instruction: 0x3c20296a
    1840:	3631203c 			; <UNDEFINED> instruction: 0x3631203c
    1844:	202b2029 	eorcs	r2, fp, r9, lsr #32
    1848:	6e696d28 	cdpvs	13, 6, cr6, cr9, cr8, {1}
    184c:	5f002929 	svcpl	0x00002929
    1850:	5246555f 	subpl	r5, r6, #398458880	; 0x17c00000
    1854:	5f544341 	svcpl	0x00544341
    1858:	5f4e494d 	svcpl	0x004e494d
    185c:	2e30205f 	mrccs	0, 1, r2, cr0, cr15, {2}
    1860:	00525530 	subseq	r5, r2, r0, lsr r5
    1864:	444c5f5f 	strbmi	r5, [ip], #-3935	; 0xfffff0a1
    1868:	485f4c42 	ldmdami	pc, {r1, r6, sl, fp, lr}^	; <UNPREDICTABLE>
    186c:	515f5341 	cmppl	pc, r1, asr #6
    1870:	54454955 	strbpl	r4, [r5], #-2389	; 0xfffff6ab
    1874:	4e414e5f 	mcrmi	14, 2, r4, cr1, cr15, {2}
    1878:	31205f5f 			; <UNDEFINED> instruction: 0x31205f5f
    187c:	54584500 	ldrbpl	r4, [r8], #-1280	; 0xfffffb00
    1880:	50303149 	eorspl	r3, r0, r9, asr #2
    1884:	20303141 	eorscs	r3, r0, r1, asr #2
    1888:	54584528 	ldrbpl	r4, [r8], #-1320	; 0xfffffad8
    188c:	50475f49 	subpl	r5, r7, r9, asr #30
    1890:	4d5f4f49 	ldclmi	15, cr4, [pc, #-292]	; 1774 <_Min_Stack_Size+0x1374>
    1894:	69707061 	ldmdbvs	r0!, {r0, r5, r6, ip, sp, lr}^
    1898:	745f676e 	ldrbvc	r6, [pc], #-1902	; 18a0 <_Min_Stack_Size+0x14a0>
    189c:	58457b29 	stmdapl	r5, {r0, r3, r5, r8, r9, fp, ip, sp, lr}^
    18a0:	30314954 	eorscc	r4, r1, r4, asr r9
    18a4:	5047202c 	subpl	r2, r7, ip, lsr #32
    18a8:	20414f49 	subcs	r4, r1, r9, asr #30
    18ac:	5047202c 	subpl	r2, r7, ip, lsr #32
    18b0:	505f4f49 	subspl	r4, pc, r9, asr #30
    18b4:	315f4e49 	cmpcc	pc, r9, asr #28
    18b8:	202c2030 	eorcs	r2, ip, r0, lsr r0
    18bc:	49545845 	ldmdbmi	r4, {r0, r2, r6, fp, ip, lr}^
    18c0:	495f3031 	ldmdbmi	pc, {r0, r4, r5, ip, sp}^	; <UNPREDICTABLE>
    18c4:	7d205152 	stfvcs	f5, [r0, #-328]!	; 0xfffffeb8
    18c8:	4e495f00 	cdpmi	15, 4, cr5, cr9, cr0, {0}
    18cc:	52545054 	subspl	r5, r4, #84	; 0x54
    18d0:	445f545f 	ldrbmi	r5, [pc], #-1119	; 18d8 <_Min_Stack_Size+0x14d8>
    18d4:	414c4345 	cmpmi	ip, r5, asr #6
    18d8:	20444552 	subcs	r4, r4, r2, asr r5
    18dc:	43324900 	teqmi	r2, #0, 18
    18e0:	3152535f 	cmpcc	r2, pc, asr r3
    18e4:	5245425f 	subpl	r4, r5, #-268435451	; 0xf0000005
    18e8:	6f505f52 	svcvs	0x00505f52
    18ec:	38282073 	stmdacc	r8!, {r0, r1, r4, r5, r6, sp}
    18f0:	5f002955 	svcpl	0x00002955
    18f4:	544c465f 	strbpl	r4, [ip], #-1631	; 0xfffff9a1
    18f8:	5f583233 	svcpl	0x00583233
    18fc:	5f534148 	svcpl	0x00534148
    1900:	49464e49 	stmdbmi	r6, {r0, r3, r6, r9, sl, fp, lr}^
    1904:	5954494e 	ldmdbpl	r4, {r1, r2, r3, r6, r8, fp, lr}^
    1908:	31205f5f 			; <UNDEFINED> instruction: 0x31205f5f
    190c:	544e4900 	strbpl	r4, [lr], #-2304	; 0xfffff700
    1910:	5341465f 	movtpl	r4, #5727	; 0x165f
    1914:	5f323354 	svcpl	0x00323354
    1918:	204e494d 	subcs	r4, lr, sp, asr #18
    191c:	5f5f2d28 	svcpl	0x005f2d28
    1920:	5f544e49 	svcpl	0x00544e49
    1924:	54534146 	ldrbpl	r4, [r3], #-326	; 0xfffffeba
    1928:	4d5f3233 	lfmmi	f3, 2, [pc, #-204]	; 1864 <_Min_Stack_Size+0x1464>
    192c:	5f5f5841 	svcpl	0x005f5841
    1930:	31202d20 			; <UNDEFINED> instruction: 0x31202d20
    1934:	535f0029 	cmppl	pc, #41	; 0x29
    1938:	535f5359 	cmppl	pc, #1677721601	; 0x64000001
    193c:	5f455a49 	svcpl	0x00455a49
    1940:	20485f54 	subcs	r5, r8, r4, asr pc
    1944:	43324900 	teqmi	r2, #0, 18
    1948:	3152435f 	cmpcc	r2, pc, asr r3
    194c:	474e455f 	smlsldmi	r4, lr, pc, r5	; <UNPREDICTABLE>
    1950:	32492043 	subcc	r2, r9, #67	; 0x43
    1954:	52435f43 	subpl	r5, r3, #268	; 0x10c
    1958:	4e455f31 	mcrmi	15, 2, r5, cr5, cr1, {1}
    195c:	4d5f4347 	ldclmi	3, cr4, [pc, #-284]	; 1848 <_Min_Stack_Size+0x1448>
    1960:	49006b73 	stmdbmi	r0, {r0, r1, r4, r5, r6, r8, r9, fp, sp, lr}
    1964:	435f4332 	cmpmi	pc, #-939524096	; 0xc8000000
    1968:	535f3152 	cmppl	pc, #-2147483628	; 0x80000014
    196c:	54535257 	ldrbpl	r5, [r3], #-599	; 0xfffffda9
    1970:	43324920 	teqmi	r2, #32, 18	; 0x80000
    1974:	3152435f 	cmpcc	r2, pc, asr r3
    1978:	5257535f 	subspl	r5, r7, #2080374785	; 0x7c000001
    197c:	4d5f5453 	cfldrdmi	mvd5, [pc, #-332]	; 1838 <_Min_Stack_Size+0x1438>
    1980:	5f006b73 	svcpl	0x00006b73
    1984:	4f4e414e 	svcmi	0x004e414e
    1988:	4c414d5f 	mcrrmi	13, 5, r4, r1, cr15
    198c:	20434f4c 	subcs	r4, r3, ip, asr #30
    1990:	32490031 	subcc	r0, r9, #49	; 0x31
    1994:	52435f43 	subpl	r5, r3, #268	; 0x10c
    1998:	4d535f31 	ldclmi	15, cr5, [r3, #-196]	; 0xffffff3c
    199c:	20535542 	subscs	r5, r3, r2, asr #10
    19a0:	5f433249 	svcpl	0x00433249
    19a4:	5f315243 	svcpl	0x00315243
    19a8:	55424d53 	strbpl	r4, [r2, #-3411]	; 0xfffff2ad
    19ac:	734d5f53 	movtvc	r5, #57171	; 0xdf53
    19b0:	4544006b 	strbmi	r0, [r4, #-107]	; 0xffffff95
    19b4:	20475542 	subcs	r5, r7, r2, asr #10
    19b8:	32490031 	subcc	r0, r9, #49	; 0x31
    19bc:	52435f43 	subpl	r5, r3, #268	; 0x10c
    19c0:	54495f32 	strbpl	r5, [r9], #-3890	; 0xfffff0ce
    19c4:	45465542 	strbmi	r5, [r6, #-1346]	; 0xfffffabe
    19c8:	3249204e 	subcc	r2, r9, #78	; 0x4e
    19cc:	52435f43 	subpl	r5, r3, #268	; 0x10c
    19d0:	54495f32 	strbpl	r5, [r9], #-3890	; 0xfffff0ce
    19d4:	45465542 	strbmi	r5, [r6, #-1346]	; 0xfffffabe
    19d8:	734d5f4e 	movtvc	r5, #57166	; 0xdf4e
    19dc:	5f5f006b 	svcpl	0x005f006b
    19e0:	6b636f6c 	blvs	18dd798 <_Min_Stack_Size+0x18dd398>
    19e4:	78655f73 	stmdavc	r5!, {r0, r1, r4, r5, r6, r8, r9, sl, fp, ip, lr}^
    19e8:	73756c63 	cmnvc	r5, #25344	; 0x6300
    19ec:	28657669 	stmdacs	r5!, {r0, r3, r5, r6, r9, sl, ip, sp, lr}^
    19f0:	292e2e2e 	stmdbcs	lr!, {r1, r2, r3, r5, r9, sl, fp, sp}
    19f4:	6c5f5f20 	mrrcvs	15, 2, r5, pc, cr0	; <UNPREDICTABLE>
    19f8:	5f6b636f 	svcpl	0x006b636f
    19fc:	6f6e6e61 	svcvs	0x006e6e61
    1a00:	65746174 	ldrbvs	r6, [r4, #-372]!	; 0xfffffe8c
    1a04:	63786528 	cmnvs	r8, #40, 10	; 0xa000000
    1a08:	6973756c 	ldmdbvs	r3!, {r2, r3, r5, r6, r8, sl, ip, sp, lr}^
    1a0c:	6c5f6576 	cfldr64vs	mvdx6, [pc], {118}	; 0x76
    1a10:	5f6b636f 	svcpl	0x006b636f
    1a14:	636e7566 	cmnvs	lr, #427819008	; 0x19800000
    1a18:	6e6f6974 			; <UNDEFINED> instruction: 0x6e6f6974
    1a1c:	565f5f28 	ldrbpl	r5, [pc], -r8, lsr #30
    1a20:	52415f41 	subpl	r5, r1, #260	; 0x104
    1a24:	5f5f5347 	svcpl	0x005f5347
    1a28:	5f002929 	svcpl	0x00002929
    1a2c:	4343415f 	movtmi	r4, #12639	; 0x315f
    1a30:	465f4d55 			; <UNDEFINED> instruction: 0x465f4d55
    1a34:	5f544942 	svcpl	0x00544942
    1a38:	3531205f 	ldrcc	r2, [r1, #-95]!	; 0xffffffa1
    1a3c:	6c5f5f00 	mrrcvs	15, 0, r5, pc, cr0	; <UNPREDICTABLE>
    1a40:	5f6b636f 	svcpl	0x006b636f
    1a44:	656c6572 	strbvs	r6, [ip, #-1394]!	; 0xfffffa8e
    1a48:	28657361 	stmdacs	r5!, {r0, r5, r6, r8, r9, ip, sp, lr}^
    1a4c:	6b636f6c 	blvs	18dd804 <_Min_Stack_Size+0x18dd404>
    1a50:	5f5f2029 	svcpl	0x005f2029
    1a54:	61746572 	cmnvs	r4, r2, ror r5
    1a58:	74656772 	strbtvc	r6, [r5], #-1906	; 0xfffff88e
    1a5c:	636f6c5f 	cmnvs	pc, #24320	; 0x5f00
    1a60:	65725f6b 	ldrbvs	r5, [r2, #-3947]!	; 0xfffff095
    1a64:	7361656c 	cmnvc	r1, #108, 10	; 0x1b000000
    1a68:	6f6c2865 	svcvs	0x006c2865
    1a6c:	00296b63 	eoreq	r6, r9, r3, ror #22
    1a70:	41555f5f 	cmpmi	r5, pc, asr pc
    1a74:	4d554343 	ldclmi	3, cr4, [r5, #-268]	; 0xfffffef4
    1a78:	4942495f 	stmdbmi	r2, {r0, r1, r2, r3, r4, r6, r8, fp, lr}^
    1a7c:	205f5f54 	subscs	r5, pc, r4, asr pc	; <UNPREDICTABLE>
    1a80:	5f003631 	svcpl	0x00003631
    1a84:	636f6c5f 	cmnvs	pc, #24320	; 0x5f00
    1a88:	6e695f6b 	cdpvs	15, 6, cr5, cr9, cr11, {3}
    1a8c:	6c287469 	cfstrsvs	mvf7, [r8], #-420	; 0xfffffe5c
    1a90:	296b636f 	stmdbcs	fp!, {r0, r1, r2, r3, r5, r6, r8, r9, sp, lr}^
    1a94:	725f5f20 	subsvc	r5, pc, #32, 30	; 0x80
    1a98:	72617465 	rsbvc	r7, r1, #1694498816	; 0x65000000
    1a9c:	5f746567 	svcpl	0x00746567
    1aa0:	6b636f6c 	blvs	18dd858 <_Min_Stack_Size+0x18dd458>
    1aa4:	696e695f 	stmdbvs	lr!, {r0, r1, r2, r3, r4, r6, r8, fp, sp, lr}^
    1aa8:	6c262874 	stcvs	8, cr2, [r6], #-464	; 0xfffffe30
    1aac:	296b636f 	stmdbcs	fp!, {r0, r1, r2, r3, r5, r6, r8, r9, sp, lr}^
    1ab0:	495f5f00 	ldmdbmi	pc, {r8, r9, sl, fp, ip, lr}^	; <UNPREDICTABLE>
    1ab4:	465f544e 	ldrbmi	r5, [pc], -lr, asr #8
    1ab8:	36545341 	ldrbcc	r5, [r4], -r1, asr #6
    1abc:	414d5f34 	cmpmi	sp, r4, lsr pc
    1ac0:	205f5f58 	subscs	r5, pc, r8, asr pc	; <UNPREDICTABLE>
    1ac4:	66377830 			; <UNDEFINED> instruction: 0x66377830
    1ac8:	66666666 	strbtvs	r6, [r6], -r6, ror #12
    1acc:	66666666 	strbtvs	r6, [r6], -r6, ror #12
    1ad0:	66666666 	strbtvs	r6, [r6], -r6, ror #12
    1ad4:	4c4c6666 	mcrrmi	6, 6, r6, ip, cr6
    1ad8:	465f5f00 	ldrbmi	r5, [pc], -r0, lsl #30
    1adc:	3233544c 	eorscc	r5, r3, #76, 8	; 0x4c000000
    1ae0:	45445f58 	strbmi	r5, [r4, #-3928]	; 0xfffff0a8
    1ae4:	414d4943 	cmpmi	sp, r3, asr #18
    1ae8:	49445f4c 	stmdbmi	r4, {r2, r3, r6, r8, r9, sl, fp, ip, lr}^
    1aec:	205f5f47 	subscs	r5, pc, r7, asr #30
    1af0:	5f003731 	svcpl	0x00003731
    1af4:	4c42445f 	cfstrdmi	mvd4, [r2], {95}	; 0x5f
    1af8:	4e494d5f 	mcrmi	13, 2, r4, cr9, cr15, {2}
    1afc:	28205f5f 	stmdacs	r0!, {r0, r1, r2, r3, r4, r6, r8, r9, sl, fp, ip, lr}
    1b00:	756f6428 	strbvc	r6, [pc, #-1064]!	; 16e0 <_Min_Stack_Size+0x12e0>
    1b04:	29656c62 	stmdbcs	r5!, {r1, r5, r6, sl, fp, sp, lr}^
    1b08:	32322e32 	eorscc	r2, r2, #800	; 0x320
    1b0c:	33373035 	teqcc	r7, #53	; 0x35
    1b10:	35383538 	ldrcc	r3, [r8, #-1336]!	; 0xfffffac8
    1b14:	30323730 	eorscc	r3, r2, r0, lsr r7
    1b18:	2d653431 	cfstrdcs	mvd3, [r5, #-196]!	; 0xffffff3c
    1b1c:	4c383033 	ldcmi	0, cr3, [r8], #-204	; 0xffffff34
    1b20:	4e470029 	cdpmi	0, 4, cr0, cr7, cr9, {1}
    1b24:	31432055 	qdaddcc	r2, r5, r3
    1b28:	31312031 	teqcc	r1, r1, lsr r0
    1b2c:	312e332e 			; <UNDEFINED> instruction: 0x312e332e
    1b30:	32303220 	eorscc	r3, r0, #32, 4
    1b34:	31373032 	teqcc	r7, r2, lsr r0
    1b38:	6d2d2032 	stcvs	0, cr2, [sp, #-200]!	; 0xffffff38
    1b3c:	3d757063 	ldclcc	0, cr7, [r5, #-396]!	; 0xfffffe74
    1b40:	74726f63 	ldrbtvc	r6, [r2], #-3939	; 0xfffff09d
    1b44:	6d2d7865 	stcvs	8, cr7, [sp, #-404]!	; 0xfffffe6c
    1b48:	6d2d2033 	stcvs	0, cr2, [sp, #-204]!	; 0xffffff34
    1b4c:	616f6c66 	cmnvs	pc, r6, ror #24
    1b50:	62612d74 	rsbvs	r2, r1, #116, 26	; 0x1d00
    1b54:	6f733d69 	svcvs	0x00733d69
    1b58:	2d207466 	cfstrscs	mvf7, [r0, #-408]!	; 0xfffffe68
    1b5c:	7568746d 	strbvc	r7, [r8, #-1133]!	; 0xfffffb93
    1b60:	2d20626d 	sfmcs	f6, 4, [r0, #-436]!	; 0xfffffe4c
    1b64:	6372616d 	cmnvs	r2, #1073741851	; 0x4000001b
    1b68:	72613d68 	rsbvc	r3, r1, #104, 26	; 0x1a00
    1b6c:	2d37766d 	ldccs	6, cr7, [r7, #-436]!	; 0xfffffe4c
    1b70:	672d206d 	strvs	r2, [sp, -sp, rrx]!
    1b74:	72617764 	rsbvc	r7, r1, #100, 14	; 0x1900000
    1b78:	20322d66 	eorscs	r2, r2, r6, ror #26
    1b7c:	2033672d 	eorscs	r6, r3, sp, lsr #14
    1b80:	20304f2d 	eorscs	r4, r0, sp, lsr #30
    1b84:	6474732d 	ldrbtvs	r7, [r4], #-813	; 0xfffffcd3
    1b88:	756e673d 	strbvc	r6, [lr, #-1853]!	; 0xfffff8c3
    1b8c:	2d203131 	stfcss	f3, [r0, #-196]!	; 0xffffff3c
    1b90:	6e756666 	cdpvs	6, 7, cr6, cr5, cr6, {3}
    1b94:	6f697463 	svcvs	0x00697463
    1b98:	65732d6e 	ldrbvs	r2, [r3, #-3438]!	; 0xfffff292
    1b9c:	6f697463 	svcvs	0x00697463
    1ba0:	2d20736e 	stccs	3, cr7, [r0, #-440]!	; 0xfffffe48
    1ba4:	74616466 	strbtvc	r6, [r1], #-1126	; 0xfffffb9a
    1ba8:	65732d61 	ldrbvs	r2, [r3, #-3425]!	; 0xfffff29f
    1bac:	6f697463 	svcvs	0x00697463
    1bb0:	2d20736e 	stccs	3, cr7, [r0, #-440]!	; 0xfffffe48
    1bb4:	61747366 	cmnvs	r4, r6, ror #6
    1bb8:	752d6b63 	strvc	r6, [sp, #-2915]!	; 0xfffff49d
    1bbc:	65676173 	strbvs	r6, [r7, #-371]!	; 0xfffffe8d
    1bc0:	63662d20 	cmnvs	r6, #32, 26	; 0x800
    1bc4:	6f6c6379 	svcvs	0x006c6379
    1bc8:	6974616d 	ldmdbvs	r4!, {r0, r2, r3, r5, r6, r8, sp, lr}^
    1bcc:	6f632d63 	svcvs	0x00632d63
    1bd0:	656c706d 	strbvs	r7, [ip, #-109]!	; 0xffffff93
    1bd4:	79746978 	ldmdbvc	r4!, {r3, r4, r5, r6, r8, fp, sp, lr}^
    1bd8:	64705500 	ldrbtvs	r5, [r0], #-1280	; 0xfffffb00
    1bdc:	5f657461 	svcpl	0x00657461
    1be0:	49545845 	ldmdbmi	r4, {r0, r2, r6, fp, ip, lr}^
    1be4:	465f5f00 	ldrbmi	r5, [pc], -r0, lsl #30
    1be8:	3233544c 	eorscc	r5, r3, #76, 8	; 0x4c000000
    1bec:	50455f58 	subpl	r5, r5, r8, asr pc
    1bf0:	4f4c4953 	svcmi	0x004c4953
    1bf4:	205f5f4e 	subscs	r5, pc, lr, asr #30
    1bf8:	32322e32 	eorscc	r2, r2, #800	; 0x320
    1bfc:	36343430 			; <UNDEFINED> instruction: 0x36343430
    1c00:	32393430 	eorscc	r3, r9, #48, 8	; 0x30000000
    1c04:	31333035 	teqcc	r3, r5, lsr r0
    1c08:	2d653133 	stfcse	f3, [r5, #-204]!	; 0xffffff34
    1c0c:	33463631 	movtcc	r3, #26161	; 0x6631
    1c10:	5f007832 	svcpl	0x00007832
    1c14:	6e695f5f 	mcrvs	15, 3, r5, cr9, cr15, {2}
    1c18:	656c5f74 	strbvs	r5, [ip, #-3956]!	; 0xfffff08c
    1c1c:	31747361 	cmncc	r4, r1, ror #6
    1c20:	5f745f36 	svcpl	0x00745f36
    1c24:	69666564 	stmdbvs	r6!, {r2, r5, r6, r8, sl, sp, lr}^
    1c28:	2064656e 	rsbcs	r6, r4, lr, ror #10
    1c2c:	5f5f0031 	svcpl	0x005f0031
    1c30:	5f4d5241 	svcpl	0x004d5241
    1c34:	48435241 	stmdami	r3, {r0, r6, r9, ip, lr}^
    1c38:	5f4d375f 	svcpl	0x004d375f
    1c3c:	0031205f 	eorseq	r2, r1, pc, asr r0
    1c40:	6c754e5f 	ldclvs	14, cr4, [r5], #-380	; 0xfffffe84
    1c44:	6c62616c 	stfvse	f6, [r2], #-432	; 0xfffffe50
    1c48:	5f002065 	svcpl	0x00002065
    1c4c:	544e495f 	strbpl	r4, [lr], #-2399	; 0xfffff6a1
    1c50:	5341465f 	movtpl	r4, #5727	; 0x165f
    1c54:	545f3854 	ldrbpl	r3, [pc], #-2132	; 1c5c <_Min_Stack_Size+0x185c>
    1c58:	5f455059 	svcpl	0x00455059
    1c5c:	6e69205f 	mcrvs	0, 3, r2, cr9, cr15, {2}
    1c60:	4e5f0074 	mrcmi	0, 2, r0, cr15, cr4, {3}
    1c64:	4c4e494f 	mcrrmi	9, 4, r4, lr, cr15	; <UNPREDICTABLE>
    1c68:	20454e49 	subcs	r4, r5, r9, asr #28
    1c6c:	74615f5f 	strbtvc	r5, [r1], #-3935	; 0xfffff0a1
    1c70:	62697274 	rsbvs	r7, r9, #116, 4	; 0x40000007
    1c74:	5f657475 	svcpl	0x00657475
    1c78:	2828205f 	stmdacs	r8!, {r0, r1, r2, r3, r4, r6, sp}
    1c7c:	6f6e5f5f 	svcvs	0x006e5f5f
    1c80:	696c6e69 	stmdbvs	ip!, {r0, r3, r5, r6, r9, sl, fp, sp, lr}^
    1c84:	5f5f656e 	svcpl	0x005f656e
    1c88:	5f002929 	svcpl	0x00002929
    1c8c:	4144555f 	cmpmi	r4, pc, asr r5
    1c90:	4942465f 	stmdbmi	r2, {r0, r1, r2, r3, r4, r6, r9, sl, lr}^
    1c94:	205f5f54 	subscs	r5, pc, r4, asr pc	; <UNPREDICTABLE>
    1c98:	5f003233 	svcpl	0x00003233
    1c9c:	7a69735f 	bvc	1a5ea20 <_Min_Stack_Size+0x1a5e620>
    1ca0:	5f745f65 	svcpl	0x00745f65
    1ca4:	5f00205f 	svcpl	0x0000205f
    1ca8:	4153555f 	cmpmi	r3, pc, asr r5
    1cac:	4d554343 	ldclmi	3, cr4, [r5, #-268]	; 0xfffffef4
    1cb0:	5350455f 	cmppl	r0, #398458880	; 0x17c00000
    1cb4:	4e4f4c49 	cdpmi	12, 4, cr4, cr15, cr9, {2}
    1cb8:	30205f5f 	eorcc	r5, r0, pc, asr pc
    1cbc:	2d503178 	ldfcse	f3, [r0, #-480]	; 0xfffffe20
    1cc0:	4b485538 	blmi	12171a8 <_Min_Stack_Size+0x1216da8>
    1cc4:	555f5f00 	ldrbpl	r5, [pc, #-3840]	; dcc <_Min_Stack_Size+0x9cc>
    1cc8:	4d544e49 	ldclmi	14, cr4, [r4, #-292]	; 0xfffffedc
    1ccc:	435f5841 	cmpmi	pc, #4259840	; 0x410000
    1cd0:	20296328 	eorcs	r6, r9, r8, lsr #6
    1cd4:	23232063 			; <UNDEFINED> instruction: 0x23232063
    1cd8:	4c4c5520 	cfstr64mi	mvdx5, [ip], {32}
    1cdc:	43324900 	teqmi	r2, #0, 18
    1ce0:	3252535f 	subscc	r5, r2, #2080374785	; 0x7c000001
    1ce4:	4c534d5f 	mrrcmi	13, 5, r4, r3, cr15
    1ce8:	736f505f 	cmnvc	pc, #95	; 0x5f
    1cec:	55302820 	ldrpl	r2, [r0, #-2080]!	; 0xfffff7e0
    1cf0:	5f5f0029 	svcpl	0x005f0029
    1cf4:	455a4953 	ldrbmi	r4, [sl, #-2387]	; 0xfffff6ad
    1cf8:	505f464f 	subspl	r4, pc, pc, asr #12
    1cfc:	544e494f 	strbpl	r4, [lr], #-2383	; 0xfffff6b1
    1d00:	5f5f5245 	svcpl	0x005f5245
    1d04:	5f003420 	svcpl	0x00003420
    1d08:	544e495f 	strbpl	r4, [lr], #-2399	; 0xfffff6a1
    1d0c:	41454c5f 	cmpmi	r5, pc, asr ip
    1d10:	5f385453 	svcpl	0x00385453
    1d14:	45505954 	ldrbmi	r5, [r0, #-2388]	; 0xfffff6ac
    1d18:	73205f5f 			; <UNDEFINED> instruction: 0x73205f5f
    1d1c:	656e6769 	strbvs	r6, [lr, #-1897]!	; 0xfffff897
    1d20:	68632064 	stmdavs	r3!, {r2, r5, r6, sp}^
    1d24:	5f007261 	svcpl	0x00007261
    1d28:	4343475f 	movtmi	r4, #14175	; 0x375f
    1d2c:	4f54415f 	svcmi	0x0054415f
    1d30:	5f43494d 	svcpl	0x0043494d
    1d34:	4c4f4f42 	mcrrmi	15, 4, r4, pc, cr2
    1d38:	434f4c5f 	movtmi	r4, #64607	; 0xfc5f
    1d3c:	52465f4b 	subpl	r5, r6, #300	; 0x12c
    1d40:	32204545 	eorcc	r4, r0, #289406976	; 0x11400000
    1d44:	54584500 	ldrbpl	r4, [r8], #-1280	; 0xfffffb00
    1d48:	50475f49 	subpl	r5, r7, r9, asr #30
    1d4c:	4d5f4f49 	ldclmi	15, cr4, [pc, #-292]	; 1c30 <_Min_Stack_Size+0x1830>
    1d50:	69707061 	ldmdbvs	r0!, {r0, r5, r6, ip, sp, lr}^
    1d54:	745f676e 	ldrbvc	r6, [pc], #-1902	; 1d5c <_Min_Stack_Size+0x195c>
    1d58:	49564e00 	ldmdbmi	r6, {r9, sl, fp, lr}^
    1d5c:	52495f43 	subpl	r5, r9, #268	; 0x10c
    1d60:	5f363351 	svcpl	0x00363351
    1d64:	32495053 	subcc	r5, r9, #83	; 0x53
    1d68:	616e455f 	cmnvs	lr, pc, asr r5
    1d6c:	20656c62 	rsbcs	r6, r5, r2, ror #24
    1d70:	49564e28 	ldmdbmi	r6, {r3, r5, r9, sl, fp, lr}^
    1d74:	53495f43 	movtpl	r5, #40771	; 0x9f43
    1d78:	20315245 	eorscs	r5, r1, r5, asr #4
    1d7c:	31203d7c 			; <UNDEFINED> instruction: 0x31203d7c
    1d80:	20283c3c 	eorcs	r3, r8, ip, lsr ip
    1d84:	32495053 	subcc	r5, r9, #83	; 0x53
    1d88:	5152495f 	cmppl	r2, pc, asr r9
    1d8c:	33202d20 			; <UNDEFINED> instruction: 0x33202d20
    1d90:	29292032 	stmdbcs	r9!, {r1, r4, r5, sp}
    1d94:	415f5f00 	cmpmi	pc, r0, lsl #30
    1d98:	4e5f4d52 	mrcmi	13, 2, r4, cr15, cr2, {2}
    1d9c:	5f4e4f45 	svcpl	0x004e4f45
    1da0:	4955005f 	ldmdbmi	r5, {r0, r1, r2, r3, r4, r6}^
    1da4:	5450544e 	ldrbpl	r5, [r0], #-1102	; 0xfffffbb2
    1da8:	414d5f52 	cmpmi	sp, r2, asr pc
    1dac:	5f282058 	svcpl	0x00282058
    1db0:	4e49555f 	mcrmi	5, 2, r5, cr9, cr15, {2}
    1db4:	52545054 	subspl	r5, r4, #84	; 0x54
    1db8:	58414d5f 	stmdapl	r1, {r0, r1, r2, r3, r4, r6, r8, sl, fp, lr}^
    1dbc:	00295f5f 	eoreq	r5, r9, pc, asr pc
    1dc0:	4c465f5f 	mcrrmi	15, 5, r5, r6, cr15
    1dc4:	5f323354 	svcpl	0x00323354
    1dc8:	5f58414d 	svcpl	0x0058414d
    1dcc:	5f505845 	svcpl	0x00505845
    1dd0:	3231205f 	eorscc	r2, r1, #95	; 0x5f
    1dd4:	58450038 	stmdapl	r5, {r3, r4, r5}^
    1dd8:	34314954 	ldrtcc	r4, [r1], #-2388	; 0xfffff6ac
    1ddc:	34314250 	ldrtcc	r4, [r1], #-592	; 0xfffffdb0
    1de0:	58452820 	stmdapl	r5, {r5, fp, sp}^
    1de4:	475f4954 			; <UNDEFINED> instruction: 0x475f4954
    1de8:	5f4f4950 	svcpl	0x004f4950
    1dec:	7070614d 	rsbsvc	r6, r0, sp, asr #2
    1df0:	5f676e69 	svcpl	0x00676e69
    1df4:	457b2974 	ldrbmi	r2, [fp, #-2420]!	; 0xfffff68c
    1df8:	31495458 	cmpcc	r9, r8, asr r4
    1dfc:	47202c34 			; <UNDEFINED> instruction: 0x47202c34
    1e00:	424f4950 	submi	r4, pc, #80, 18	; 0x140000
    1e04:	47202c20 	strmi	r2, [r0, -r0, lsr #24]!
    1e08:	5f4f4950 	svcpl	0x004f4950
    1e0c:	5f4e4950 	svcpl	0x004e4950
    1e10:	2c203431 	cfstrscs	mvf3, [r0], #-196	; 0xffffff3c
    1e14:	49545845 	ldmdbmi	r4, {r0, r2, r6, fp, ip, lr}^
    1e18:	495f3431 	ldmdbmi	pc, {r0, r4, r5, sl, ip, sp}^	; <UNPREDICTABLE>
    1e1c:	7d205152 	stfvcs	f5, [r0, #-328]!	; 0xfffffeb8
    1e20:	545f5f00 	ldrbpl	r5, [pc], #-3840	; 1e28 <_Min_Stack_Size+0x1a28>
    1e24:	424d5548 	submi	r5, sp, #72, 10	; 0x12000000
    1e28:	544e495f 	strbpl	r4, [lr], #-2399	; 0xfffff6a1
    1e2c:	4f575245 	svcmi	0x00575245
    1e30:	5f5f4b52 	svcpl	0x005f4b52
    1e34:	5f003120 	svcpl	0x00003120
    1e38:	4c4c555f 	cfstr64mi	mvdx5, [ip], {95}	; 0x5f
    1e3c:	43415246 	movtmi	r5, #4678	; 0x1246
    1e40:	414d5f54 	cmpmi	sp, r4, asr pc
    1e44:	205f5f58 	subscs	r5, pc, r8, asr pc	; <UNPREDICTABLE>
    1e48:	46465830 			; <UNDEFINED> instruction: 0x46465830
    1e4c:	46464646 	strbmi	r4, [r6], -r6, asr #12
    1e50:	46464646 	strbmi	r4, [r6], -r6, asr #12
    1e54:	46464646 	strbmi	r4, [r6], -r6, asr #12
    1e58:	2d504646 	ldclcs	6, cr4, [r0, #-280]	; 0xfffffee8
    1e5c:	4c553436 	cfldrdmi	mvd3, [r5], {54}	; 0x36
    1e60:	4900524c 	stmdbmi	r0, {r2, r3, r6, r9, ip, lr}
    1e64:	535f4332 	cmppl	pc, #-939524096	; 0xc8000000
    1e68:	475f3252 			; <UNDEFINED> instruction: 0x475f3252
    1e6c:	41434e45 	cmpmi	r3, r5, asr #28
    1e70:	4d5f4c4c 	ldclmi	12, cr4, [pc, #-304]	; 1d48 <_Min_Stack_Size+0x1948>
    1e74:	28206b73 	stmdacs	r0!, {r0, r1, r4, r5, r6, r8, r9, fp, sp, lr}
    1e78:	55317830 	ldrpl	r7, [r1, #-2096]!	; 0xfffff7d0
    1e7c:	3c3c204c 	ldccc	0, cr2, [ip], #-304	; 0xfffffed0
    1e80:	43324920 	teqmi	r2, #32, 18	; 0x80000
    1e84:	3252535f 	subscc	r5, r2, #2080374785	; 0x7c000001
    1e88:	4e45475f 	mcrmi	7, 2, r4, cr5, cr15, {2}
    1e8c:	4c4c4143 	stfmie	f4, [ip], {67}	; 0x43
    1e90:	736f505f 	cmnvc	pc, #95	; 0x5f
    1e94:	54520029 	ldrbpl	r0, [r2], #-41	; 0xffffffd7
    1e98:	5f005253 	svcpl	0x00005253
    1e9c:	554e475f 	strbpl	r4, [lr, #-1887]	; 0xfffff8a1
    1ea0:	49575f43 	ldmdbmi	r7, {r0, r1, r6, r8, r9, sl, fp, ip, lr}^
    1ea4:	455f4544 	ldrbmi	r4, [pc, #-1348]	; 1968 <_Min_Stack_Size+0x1568>
    1ea8:	55434558 	strbpl	r4, [r3, #-1368]	; 0xfffffaa8
    1eac:	4e4f4954 			; <UNDEFINED> instruction: 0x4e4f4954
    1eb0:	4148435f 	cmpmi	r8, pc, asr r3
    1eb4:	54455352 	strbpl	r5, [r5], #-850	; 0xfffffcae
    1eb8:	4d414e5f 	stclmi	14, cr4, [r1, #-380]	; 0xfffffe84
    1ebc:	55222045 	strpl	r2, [r2, #-69]!	; 0xffffffbb
    1ec0:	332d4654 			; <UNDEFINED> instruction: 0x332d4654
    1ec4:	22454c32 	subcs	r4, r5, #12800	; 0x3200
    1ec8:	465f5f00 	ldrbmi	r5, [pc], -r0, lsl #30
    1ecc:	3233544c 	eorscc	r5, r3, #76, 8	; 0x4c000000
    1ed0:	494d5f58 	stmdbmi	sp, {r3, r4, r6, r8, r9, sl, fp, ip, lr}^
    1ed4:	30315f4e 	eorscc	r5, r1, lr, asr #30
    1ed8:	5058455f 	subspl	r4, r8, pc, asr r5
    1edc:	28205f5f 	stmdacs	r0!, {r0, r1, r2, r3, r4, r6, r8, r9, sl, fp, ip, lr}
    1ee0:	3730332d 	ldrcc	r3, [r0, -sp, lsr #6]!
    1ee4:	535f0029 	cmppl	pc, #41	; 0x29
    1ee8:	5f455a49 	svcpl	0x00455a49
    1eec:	45445f54 	strbmi	r5, [r4, #-3924]	; 0xfffff0ac
    1ef0:	52414c43 	subpl	r4, r1, #17152	; 0x4300
    1ef4:	00204445 	eoreq	r4, r0, r5, asr #8
    1ef8:	49545845 	ldmdbmi	r4, {r0, r2, r6, fp, ip, lr}^
    1efc:	00392039 	eorseq	r2, r9, r9, lsr r0
    1f00:	48435f5f 	stmdami	r3, {r0, r1, r2, r3, r4, r6, r8, r9, sl, fp, ip, lr}^
    1f04:	32335241 	eorscc	r5, r3, #268435460	; 0x10000004
    1f08:	5059545f 	subspl	r5, r9, pc, asr r4
    1f0c:	205f5f45 	subscs	r5, pc, r5, asr #30
    1f10:	676e6f6c 	strbvs	r6, [lr, -ip, ror #30]!
    1f14:	736e7520 	cmnvc	lr, #32, 10	; 0x8000000
    1f18:	656e6769 	strbvs	r6, [lr, #-1897]!	; 0xfffff897
    1f1c:	6e692064 	cdpvs	0, 6, cr2, cr9, cr4, {3}
    1f20:	5f5f0074 	svcpl	0x005f0074
    1f24:	5f4d5241 	svcpl	0x004d5241
    1f28:	54414546 	strbpl	r4, [r1], #-1350	; 0xfffffaba
    1f2c:	5f455255 	svcpl	0x00455255
    1f30:	36315046 	ldrtcc	r5, [r1], -r6, asr #32
    1f34:	4345565f 	movtmi	r5, #22111	; 0x565f
    1f38:	5f524f54 	svcpl	0x00524f54
    1f3c:	54495241 	strbpl	r5, [r9], #-577	; 0xfffffdbf
    1f40:	54454d48 	strbpl	r4, [r5], #-3400	; 0xfffff2b8
    1f44:	49004349 	stmdbmi	r0, {r0, r3, r6, r8, r9, lr}
    1f48:	435f4332 	cmpmi	pc, #-939524096	; 0xc8000000
    1f4c:	535f3152 	cmppl	pc, #-2147483628	; 0x80000014
    1f50:	5f504f54 	svcpl	0x00504f54
    1f54:	206b734d 	rsbcs	r7, fp, sp, asr #6
    1f58:	31783028 	cmncc	r8, r8, lsr #32
    1f5c:	3c204c55 	stccc	12, cr4, [r0], #-340	; 0xfffffeac
    1f60:	3249203c 	subcc	r2, r9, #60	; 0x3c
    1f64:	52435f43 	subpl	r5, r3, #268	; 0x10c
    1f68:	54535f31 	ldrbpl	r5, [r3], #-3889	; 0xfffff0cf
    1f6c:	505f504f 	subspl	r5, pc, pc, asr #32
    1f70:	0029736f 	eoreq	r7, r9, pc, ror #6
    1f74:	534f505f 	movtpl	r5, #61535	; 0xf05f
    1f78:	435f5849 	cmpmi	pc, #4784128	; 0x490000
    1f7c:	554f535f 	strbpl	r5, [pc, #-863]	; 1c25 <_Min_Stack_Size+0x1825>
    1f80:	20454352 	subcs	r4, r5, r2, asr r3
    1f84:	38303032 	ldmdacc	r0!, {r1, r4, r5, ip, sp}
    1f88:	004c3930 	subeq	r3, ip, r0, lsr r9
    1f8c:	43435f5f 	movtmi	r5, #16223	; 0x3f5f
    1f90:	5055535f 	subspl	r5, r5, pc, asr r3
    1f94:	54524f50 	ldrbpl	r4, [r2], #-3920	; 0xfffff0b0
    1f98:	59445f53 	stmdbpl	r4, {r0, r1, r4, r6, r8, r9, sl, fp, ip, lr}^
    1f9c:	494d414e 	stmdbmi	sp, {r1, r2, r3, r6, r8, lr}^
    1fa0:	52415f43 	subpl	r5, r1, #268	; 0x10c
    1fa4:	5f594152 	svcpl	0x00594152
    1fa8:	54494e49 	strbpl	r4, [r9], #-3657	; 0xfffff1b7
    1fac:	5f003120 	svcpl	0x00003120
    1fb0:	4c42445f 	cfstrdmi	mvd4, [r2], {95}	; 0x5f
    1fb4:	5f53495f 	svcpl	0x0053495f
    1fb8:	5f434549 	svcpl	0x00434549
    1fbc:	35353036 	ldrcc	r3, [r5, #-54]!	; 0xffffffca
    1fc0:	205f5f39 	subscs	r5, pc, r9, lsr pc	; <UNPREDICTABLE>
    1fc4:	5f5f0032 	svcpl	0x005f0032
    1fc8:	544e4955 	strbpl	r4, [lr], #-2389	; 0xfffff6ab
    1fcc:	5341465f 	movtpl	r4, #5727	; 0x165f
    1fd0:	5f323354 	svcpl	0x00323354
    1fd4:	5f58414d 	svcpl	0x0058414d
    1fd8:	7830205f 	ldmdavc	r0!, {r0, r1, r2, r3, r4, r6, sp}
    1fdc:	66666666 	strbtvs	r6, [r6], -r6, ror #12
    1fe0:	66666666 	strbtvs	r6, [r6], -r6, ror #12
    1fe4:	5f5f0055 	svcpl	0x005f0055
    1fe8:	5f544c46 	svcpl	0x00544c46
    1fec:	5f58414d 	svcpl	0x0058414d
    1ff0:	5f505845 	svcpl	0x00505845
    1ff4:	3231205f 	eorscc	r2, r1, #95	; 0x5f
    1ff8:	5f5f0038 	svcpl	0x005f0038
    1ffc:	455a4953 	ldrbmi	r4, [sl, #-2387]	; 0xfffff6ad
    2000:	4c5f464f 	mrrcmi	6, 4, r4, pc, cr15	; <UNPREDICTABLE>
    2004:	5f474e4f 	svcpl	0x00474e4f
    2008:	0034205f 	eorseq	r2, r4, pc, asr r0
    200c:	6b2f3a44 	blvs	bd0924 <_Min_Stack_Size+0xbd0524>
    2010:	6d652073 	stclvs	0, cr2, [r5, #-460]!	; 0xfffffe34
    2014:	64646562 	strbtvs	r6, [r4], #-1378	; 0xfffffa9e
    2018:	73206465 			; <UNDEFINED> instruction: 0x73206465
    201c:	65747379 	ldrbvs	r7, [r4, #-889]!	; 0xfffffc87
    2020:	7361206d 	cmnvc	r1, #109	; 0x6d
    2024:	72612f73 	rsbvc	r2, r1, #460	; 0x1cc
    2028:	7261206d 	rsbvc	r2, r1, #109	; 0x6d
    202c:	74696863 	strbtvc	r6, [r9], #-2147	; 0xfffff79d
    2030:	75746365 	ldrbvc	r6, [r4, #-869]!	; 0xfffffc9b
    2034:	75206572 	strvc	r6, [r0, #-1394]!	; 0xfffffa8e
    2038:	2074696e 	rsbscs	r6, r4, lr, ror #18
    203c:	6c2f3431 	cfstrsvs	mvf3, [pc], #-196	; 1f80 <_Min_Stack_Size+0x1b80>
    2040:	6f737365 	svcvs	0x00737365
    2044:	6c20336e 	stcvs	3, cr3, [r0], #-440	; 0xfffffe48
    2048:	2f736261 	svccs	0x00736261
    204c:	65646f63 	strbvs	r6, [r4, #-3939]!	; 0xfffff09d
    2050:	6265442f 	rsbvs	r4, r5, #788529152	; 0x2f000000
    2054:	4e006775 	mcrmi	7, 0, r6, cr0, cr5, {3}
    2058:	5f434956 	svcpl	0x00434956
    205c:	33515249 	cmpcc	r1, #-1879048188	; 0x90000004
    2060:	32495f31 	subcc	r5, r9, #49, 30	; 0xc4
    2064:	455f3143 	ldrbmi	r3, [pc, #-323]	; 1f29 <_Min_Stack_Size+0x1b29>
    2068:	6e455f56 	mcrvs	15, 2, r5, cr5, cr6, {2}
    206c:	656c6261 	strbvs	r6, [ip, #-609]!	; 0xfffffd9f
    2070:	564e2820 	strbpl	r2, [lr], -r0, lsr #16
    2074:	495f4349 	ldmdbmi	pc, {r0, r3, r6, r8, r9, lr}^	; <UNPREDICTABLE>
    2078:	30524553 	subscc	r4, r2, r3, asr r5
    207c:	203d7c20 	eorscs	r7, sp, r0, lsr #24
    2080:	283c3c31 	ldmdacs	ip!, {r0, r4, r5, sl, fp, ip, sp}
    2084:	43324920 	teqmi	r2, #32, 18	; 0x80000
    2088:	56455f31 			; <UNDEFINED> instruction: 0x56455f31
    208c:	5152495f 	cmppl	r2, pc, asr r9
    2090:	00292920 	eoreq	r2, r9, r0, lsr #18
    2094:	74735f5f 	ldrbtvc	r5, [r3], #-3935	; 0xfffff0a1
    2098:	6f6d6672 	svcvs	0x006d6672
    209c:	6b696c6e 	blvs	1a5d25c <_Min_Stack_Size+0x1a5ce5c>
    20a0:	6d662865 	stclvs	8, cr2, [r6, #-404]!	; 0xfffffe6c
    20a4:	67726174 			; <UNDEFINED> instruction: 0x67726174
    20a8:	7269662c 	rsbvc	r6, r9, #44, 12	; 0x2c00000
    20ac:	61767473 	cmnvs	r6, r3, ror r4
    20b0:	67726172 			; <UNDEFINED> instruction: 0x67726172
    20b4:	5f5f2029 	svcpl	0x005f2029
    20b8:	72747461 	rsbsvc	r7, r4, #1627389952	; 0x61000000
    20bc:	74756269 	ldrbtvc	r6, [r5], #-617	; 0xfffffd97
    20c0:	285f5f65 	ldmdacs	pc, {r0, r2, r5, r6, r8, r9, sl, fp, ip, lr}^	; <UNPREDICTABLE>
    20c4:	665f5f28 	ldrbvs	r5, [pc], -r8, lsr #30
    20c8:	616d726f 	cmnvs	sp, pc, ror #4
    20cc:	205f5f74 	subscs	r5, pc, r4, ror pc	; <UNPREDICTABLE>
    20d0:	735f5f28 	cmpvc	pc, #40, 30	; 0xa0
    20d4:	6d667274 	sfmvs	f7, 2, [r6, #-464]!	; 0xfffffe30
    20d8:	5f5f6e6f 	svcpl	0x005f6e6f
    20dc:	6d66202c 	stclvs	0, cr2, [r6, #-176]!	; 0xffffff50
    20e0:	67726174 			; <UNDEFINED> instruction: 0x67726174
    20e4:	6966202c 	stmdbvs	r6!, {r2, r3, r5, sp}^
    20e8:	76747372 			; <UNDEFINED> instruction: 0x76747372
    20ec:	72617261 	rsbvc	r7, r1, #268435462	; 0x10000006
    20f0:	29292967 	stmdbcs	r9!, {r0, r1, r2, r5, r6, r8, fp, sp}
    20f4:	49504700 	ldmdbmi	r0, {r8, r9, sl, lr}^
    20f8:	2820434f 	stmdacs	r0!, {r0, r1, r2, r3, r6, r8, r9, lr}
    20fc:	49504728 	ldmdbmi	r0, {r3, r5, r8, r9, sl, lr}^
    2100:	79545f4f 	ldmdbvc	r4, {r0, r1, r2, r3, r6, r8, r9, sl, fp, ip, lr}^
    2104:	65446570 	strbvs	r6, [r4, #-1392]	; 0xfffffa90
    2108:	292a2066 	stmdbcs	sl!, {r1, r2, r5, r6, sp}
    210c:	4f495047 	svcmi	0x00495047
    2110:	41425f43 	cmpmi	r2, r3, asr #30
    2114:	00294553 	eoreq	r4, r9, r3, asr r5
    2118:	4545525f 	strbmi	r5, [r5, #-607]	; 0xfffffda1
    211c:	4d5f544e 	cfldrdmi	mvd5, [pc, #-312]	; 1fec <_Min_Stack_Size+0x1bec>
    2120:	45525f50 	ldrbmi	r5, [r2, #-3920]	; 0xfffff0b0
    2124:	544c5553 	strbpl	r5, [ip], #-1363	; 0xfffffaad
    2128:	70284b5f 	eorvc	r4, r8, pc, asr fp
    212c:	20297274 	eorcs	r7, r9, r4, ror r2
    2130:	74702828 	ldrbtvc	r2, [r0], #-2088	; 0xfffff7d8
    2134:	3e2d2972 			; <UNDEFINED> instruction: 0x3e2d2972
    2138:	2d706d5f 	ldclcs	13, cr6, [r0, #-380]!	; 0xfffffe84
    213c:	65725f3e 	ldrbvs	r5, [r2, #-3902]!	; 0xfffff0c2
    2140:	746c7573 	strbtvc	r7, [ip], #-1395	; 0xfffffa8d
    2144:	00296b5f 	eoreq	r6, r9, pc, asr fp
    2148:	49535f5f 	ldmdbmi	r3, {r0, r1, r2, r3, r4, r6, r8, r9, sl, fp, ip, lr}^
    214c:	464f455a 			; <UNDEFINED> instruction: 0x464f455a
    2150:	554f445f 	strbpl	r4, [pc, #-1119]	; 1cf9 <_Min_Stack_Size+0x18f9>
    2154:	5f454c42 	svcpl	0x00454c42
    2158:	0038205f 	eorseq	r2, r8, pc, asr r0
    215c:	4e495f5f 	mcrmi	15, 2, r5, cr9, cr15, {2}
    2160:	454c5f54 	strbmi	r5, [ip, #-3924]	; 0xfffff0ac
    2164:	33545341 	cmpcc	r4, #67108865	; 0x4000001
    2168:	49575f32 	ldmdbmi	r7, {r1, r4, r5, r8, r9, sl, fp, ip, lr}^
    216c:	5f485444 	svcpl	0x00485444
    2170:	3233205f 	eorscc	r2, r3, #95	; 0x5f
    2174:	4c435f00 	mcrrmi	15, 0, r5, r3, cr0
    2178:	5f4b434f 	svcpl	0x004b434f
    217c:	75205f54 	strvc	r5, [r0, #-3924]!	; 0xfffff0ac
    2180:	6769736e 	strbvs	r7, [r9, -lr, ror #6]!
    2184:	2064656e 	rsbcs	r6, r4, lr, ror #10
    2188:	676e6f6c 	strbvs	r6, [lr, -ip, ror #30]!
    218c:	49545f00 	ldmdbmi	r4, {r8, r9, sl, fp, ip, lr}^
    2190:	545f454d 	ldrbpl	r4, [pc], #-1357	; 2198 <_Min_Stack_Size+0x1d98>
    2194:	5f5f205f 	svcpl	0x005f205f
    2198:	5f746e69 	svcpl	0x00746e69
    219c:	7361656c 	cmnvc	r1, #108, 10	; 0x1b000000
    21a0:	5f343674 	svcpl	0x00343674
    21a4:	535f0074 	cmppl	pc, #116	; 0x74
    21a8:	5f5f5359 	svcpl	0x005f5359
    21ac:	53544e49 	cmppl	r4, #1168	; 0x490
    21b0:	485f5055 	ldmdami	pc, {r0, r2, r4, r6, ip, lr}^	; <UNPREDICTABLE>
    21b4:	5f5f0020 	svcpl	0x005f0020
    21b8:	54534146 	ldrbpl	r4, [r3], #-326	; 0xfffffeba
    21bc:	00203631 	eoreq	r3, r0, r1, lsr r6
    21c0:	5f433249 	svcpl	0x00433249
    21c4:	5f325243 	svcpl	0x00325243
    21c8:	51455246 	cmppl	r5, r6, asr #4
    21cc:	736f505f 	cmnvc	pc, #95	; 0x5f
    21d0:	55302820 	ldrpl	r2, [r0, #-2080]!	; 0xfffff7e0
    21d4:	525f0029 	subspl	r0, pc, #41	; 0x29
    21d8:	544e4545 	strbpl	r4, [lr], #-1349	; 0xfffffabb
    21dc:	4e41525f 	mcrmi	2, 2, r5, cr1, cr15, {2}
    21e0:	5f383444 	svcpl	0x00383444
    21e4:	44454553 	strbmi	r4, [r5], #-1363	; 0xfffffaad
    21e8:	72747028 	rsbsvc	r7, r4, #40	; 0x28
    21ec:	28282029 	stmdacs	r8!, {r0, r3, r5, sp}
    21f0:	29727470 	ldmdbcs	r2!, {r4, r5, r6, sl, ip, sp, lr}^
    21f4:	725f3e2d 	subsvc	r3, pc, #720	; 0x2d0
    21f8:	3e2d3834 	mcrcc	8, 1, r3, cr13, cr4, {1}
    21fc:	6565735f 	strbvs	r7, [r5, #-863]!	; 0xfffffca1
    2200:	5f002964 	svcpl	0x00002964
    2204:	52414c5f 	subpl	r4, r1, #24320	; 0x5f00
    2208:	49464547 	stmdbmi	r6, {r0, r1, r2, r6, r8, sl, lr}^
    220c:	565f454c 	ldrbpl	r4, [pc], -ip, asr #10
    2210:	42495349 	submi	r5, r9, #603979777	; 0x24000001
    2214:	3020454c 	eorcc	r4, r0, ip, asr #10
    2218:	43324900 	teqmi	r2, #0, 18
    221c:	3252435f 	subscc	r4, r2, #2080374785	; 0x7c000001
    2220:	4254495f 	subsmi	r4, r4, #1556480	; 0x17c000
    2224:	4e454655 	mcrmi	6, 2, r4, cr5, cr5, {2}
    2228:	736f505f 	cmnvc	pc, #95	; 0x5f
    222c:	30312820 	eorscc	r2, r1, r0, lsr #16
    2230:	5f002955 	svcpl	0x00002955
    2234:	746e695f 	strbtvc	r6, [lr], #-2399	; 0xfffff6a1
    2238:	7361665f 	cmnvc	r1, #99614720	; 0x5f00000
    223c:	745f3874 	ldrbvc	r3, [pc], #-2164	; 2244 <_Min_Stack_Size+0x1e44>
    2240:	6665645f 			; <UNDEFINED> instruction: 0x6665645f
    2244:	64656e69 	strbtvs	r6, [r5], #-3689	; 0xfffff197
    2248:	5f003120 	svcpl	0x00003120
    224c:	57454e5f 	smlsldpl	r4, r5, pc, lr	; <UNPREDICTABLE>
    2250:	5f42494c 	svcpl	0x0042494c
    2254:	0034205f 	eorseq	r2, r4, pc, asr r0
    2258:	4e475f5f 	mcrmi	15, 2, r5, cr7, cr15, {2}
    225c:	455f4355 	ldrbmi	r4, [pc, #-853]	; 1f0f <_Min_Stack_Size+0x1b0f>
    2260:	55434558 	strbpl	r4, [r3, #-1368]	; 0xfffffaa8
    2264:	4e4f4954 			; <UNDEFINED> instruction: 0x4e4f4954
    2268:	4148435f 	cmpmi	r8, pc, asr r3
    226c:	54455352 	strbpl	r5, [r5], #-850	; 0xfffffcae
    2270:	4d414e5f 	stclmi	14, cr4, [r1, #-380]	; 0xfffffe84
    2274:	55222045 	strpl	r2, [r2, #-69]!	; 0xffffffbb
    2278:	382d4654 	stmdacc	sp!, {r2, r4, r6, r9, sl, lr}
    227c:	58450022 	stmdapl	r5, {r1, r5}^
    2280:	535f5449 	cmppl	pc, #1224736768	; 0x49000000
    2284:	45434355 	strbmi	r4, [r3, #-853]	; 0xfffffcab
    2288:	30205353 	eorcc	r5, r0, r3, asr r3
    228c:	54584500 	ldrbpl	r4, [r8], #-1280	; 0xfffffb00
    2290:	495f3649 	ldmdbmi	pc, {r0, r3, r6, r9, sl, ip, sp}^	; <UNPREDICTABLE>
    2294:	32205152 	eorcc	r5, r0, #-2147483628	; 0x80000014
    2298:	5f5f0033 	svcpl	0x005f0033
    229c:	5f415455 	svcpl	0x00415455
    22a0:	54494246 	strbpl	r4, [r9], #-582	; 0xfffffdba
    22a4:	36205f5f 	qsaxcc	r5, r0, pc	; <UNPREDICTABLE>
    22a8:	58450034 	stmdapl	r5, {r2, r4, r5}^
    22ac:	50354954 	eorspl	r4, r5, r4, asr r9
    22b0:	28203542 	stmdacs	r0!, {r1, r6, r8, sl, ip, sp}
    22b4:	49545845 	ldmdbmi	r4, {r0, r2, r6, fp, ip, lr}^
    22b8:	4950475f 	ldmdbmi	r0, {r0, r1, r2, r3, r4, r6, r8, r9, sl, lr}^
    22bc:	614d5f4f 	cmpvs	sp, pc, asr #30
    22c0:	6e697070 	mcrvs	0, 3, r7, cr9, cr0, {3}
    22c4:	29745f67 	ldmdbcs	r4!, {r0, r1, r2, r5, r6, r8, r9, sl, fp, ip, lr}^
    22c8:	5458457b 	ldrbpl	r4, [r8], #-1403	; 0xfffffa85
    22cc:	202c3549 	eorcs	r3, ip, r9, asr #10
    22d0:	4f495047 	svcmi	0x00495047
    22d4:	202c2042 	eorcs	r2, ip, r2, asr #32
    22d8:	4f495047 	svcmi	0x00495047
    22dc:	4e49505f 	mcrmi	0, 2, r5, cr9, cr15, {2}
    22e0:	2c20355f 	cfstr32cs	mvfx3, [r0], #-380	; 0xfffffe84
    22e4:	49545845 	ldmdbmi	r4, {r0, r2, r6, fp, ip, lr}^
    22e8:	52495f35 	subpl	r5, r9, #53, 30	; 0xd4
    22ec:	007d2051 	rsbseq	r2, sp, r1, asr r0
    22f0:	49545845 	ldmdbmi	r4, {r0, r2, r6, fp, ip, lr}^
    22f4:	495f3331 	ldmdbmi	pc, {r0, r4, r5, r8, r9, ip, sp}^	; <UNPREDICTABLE>
    22f8:	34205152 	strtcc	r5, [r0], #-338	; 0xfffffeae
    22fc:	5f5f0030 	svcpl	0x005f0030
    2300:	5f544c46 	svcpl	0x00544c46
    2304:	49434544 	stmdbmi	r3, {r2, r6, r8, sl, lr}^
    2308:	5f4c414d 	svcpl	0x004c414d
    230c:	5f474944 	svcpl	0x00474944
    2310:	0039205f 	eorseq	r2, r9, pc, asr r0
    2314:	6c615f5f 	stclvs	15, cr5, [r1], #-380	; 0xfffffe84
    2318:	5f6e6769 	svcpl	0x006e6769
    231c:	78287075 	stmdavc	r8!, {r0, r2, r4, r5, r6, ip, sp, lr}
    2320:	2029792c 	eorcs	r7, r9, ip, lsr #18
    2324:	75625f5f 	strbvc	r5, [r2, #-3935]!	; 0xfffff0a1
    2328:	69746c69 	ldmdbvs	r4!, {r0, r3, r5, r6, sl, fp, sp, lr}^
    232c:	6c615f6e 	stclvs	15, cr5, [r1], #-440	; 0xfffffe48
    2330:	5f6e6769 	svcpl	0x006e6769
    2334:	78287075 	stmdavc	r8!, {r0, r2, r4, r5, r6, ip, sp, lr}
    2338:	2979202c 	ldmdbcs	r9!, {r2, r3, r5, sp}^
    233c:	745f5f00 	ldrbvc	r5, [pc], #-3840	; 2344 <_Min_Stack_Size+0x1f44>
    2340:	626d7568 	rsbvs	r7, sp, #104, 10	; 0x1a000000
    2344:	31205f5f 			; <UNDEFINED> instruction: 0x31205f5f
    2348:	49464100 	stmdbmi	r6, {r8, lr}^
    234c:	50475f4f 	subpl	r5, r7, pc, asr #30
    2350:	455f4f49 	ldrbmi	r4, [pc, #-3913]	; 140f <_Min_Stack_Size+0x100f>
    2354:	5f495458 	svcpl	0x00495458
    2358:	7070614d 	rsbsvc	r6, r0, sp, asr #2
    235c:	28676e69 	stmdacs	r7!, {r0, r3, r5, r6, r9, sl, fp, sp, lr}^
    2360:	28202978 	stmdacs	r0!, {r3, r4, r5, r6, r8, fp, sp}
    2364:	3d782820 	ldclcc	8, cr2, [r8, #-128]!	; 0xffffff80
    2368:	4950473d 	ldmdbmi	r0, {r0, r2, r3, r4, r5, r8, r9, sl, lr}^
    236c:	3f29414f 	svccc	0x0029414f
    2370:	28203a30 	stmdacs	r0!, {r4, r5, r9, fp, ip, sp}
    2374:	473d3d78 			; <UNDEFINED> instruction: 0x473d3d78
    2378:	424f4950 	submi	r4, pc, #80, 18	; 0x140000
    237c:	3a313f29 	bcc	c52028 <_Min_Stack_Size+0xc51c28>
    2380:	3d782820 	ldclcc	8, cr2, [r8, #-128]!	; 0xffffff80
    2384:	4950473d 	ldmdbmi	r0, {r0, r2, r3, r4, r5, r8, r9, sl, lr}^
    2388:	3f29434f 	svccc	0x0029434f
    238c:	28203a32 	stmdacs	r0!, {r1, r4, r5, r9, fp, ip, sp}
    2390:	473d3d78 			; <UNDEFINED> instruction: 0x473d3d78
    2394:	444f4950 	strbmi	r4, [pc], #-2384	; 239c <_Min_Stack_Size+0x1f9c>
    2398:	3a333f29 	bcc	cd2044 <_Min_Stack_Size+0xcd1c44>
    239c:	00292030 	eoreq	r2, r9, r0, lsr r0
    23a0:	4e495f5f 	mcrmi	15, 2, r5, cr9, cr15, {2}
    23a4:	454c5f54 	strbmi	r5, [ip, #-3924]	; 0xfffff0ac
    23a8:	33545341 	cmpcc	r4, #67108865	; 0x4000001
    23ac:	414d5f32 	cmpmi	sp, r2, lsr pc
    23b0:	205f5f58 	subscs	r5, pc, r8, asr pc	; <UNPREDICTABLE>
    23b4:	66377830 			; <UNDEFINED> instruction: 0x66377830
    23b8:	66666666 	strbtvs	r6, [r6], -r6, ror #12
    23bc:	004c6666 	subeq	r6, ip, r6, ror #12
    23c0:	4f495047 	svcmi	0x00495047
    23c4:	4e49505f 	mcrmi	0, 2, r5, cr9, cr15, {2}
    23c8:	2032315f 	eorscs	r3, r2, pc, asr r1
    23cc:	69752828 	ldmdbvs	r5!, {r3, r5, fp, sp}^
    23d0:	3631746e 	ldrtcc	r7, [r1], -lr, ror #8
    23d4:	3029745f 	eorcc	r7, r9, pc, asr r4
    23d8:	30303178 	eorscc	r3, r0, r8, ror r1
    23dc:	45002930 	strmi	r2, [r0, #-2352]	; 0xfffff6d0
    23e0:	5f495458 	svcpl	0x00495458
    23e4:	67697254 			; <UNDEFINED> instruction: 0x67697254
    23e8:	5f726567 	svcpl	0x00726567
    23ec:	4c4c4146 	stfmie	f4, [ip], {70}	; 0x46
    23f0:	20474e49 	subcs	r4, r7, r9, asr #28
    23f4:	32490031 	subcc	r0, r9, #49	; 0x31
    23f8:	52535f43 	subspl	r5, r3, #268	; 0x10c
    23fc:	49545f31 	ldmdbmi	r4, {r0, r4, r5, r8, r9, sl, fp, ip, lr}^
    2400:	554f454d 	strbpl	r4, [pc, #-1357]	; 1ebb <_Min_Stack_Size+0x1abb>
    2404:	734d5f54 	movtvc	r5, #57172	; 0xdf54
    2408:	3028206b 	eorcc	r2, r8, fp, rrx
    240c:	4c553178 	ldfmie	f3, [r5], {120}	; 0x78
    2410:	203c3c20 	eorscs	r3, ip, r0, lsr #24
    2414:	5f433249 	svcpl	0x00433249
    2418:	5f315253 	svcpl	0x00315253
    241c:	454d4954 	strbmi	r4, [sp, #-2388]	; 0xfffff6ac
    2420:	5f54554f 	svcpl	0x0054554f
    2424:	29736f50 	ldmdbcs	r3!, {r4, r6, r8, r9, sl, fp, sp, lr}^
    2428:	4f4c5f00 	svcmi	0x004c5f00
    242c:	525f4b43 	subspl	r4, pc, #68608	; 0x10c00
    2430:	52554345 	subspl	r4, r5, #335544321	; 0x14000001
    2434:	45564953 	ldrbmi	r4, [r6, #-2387]	; 0xfffff6ad
    2438:	5f20545f 	svcpl	0x0020545f
    243c:	4b434f4c 	blmi	10d6174 <_Min_Stack_Size+0x10d5d74>
    2440:	4900545f 	stmdbmi	r0, {r0, r1, r2, r3, r4, r6, sl, ip, lr}
    2444:	414d544e 	cmpmi	sp, lr, asr #8
    2448:	494d5f58 	stmdbmi	sp, {r3, r4, r6, r8, r9, sl, fp, ip, lr}^
    244c:	2d28204e 	stccs	0, cr2, [r8, #-312]!	; 0xfffffec8
    2450:	4d544e49 	ldclmi	14, cr4, [r4, #-292]	; 0xfffffedc
    2454:	4d5f5841 	ldclmi	8, cr5, [pc, #-260]	; 2358 <_Min_Stack_Size+0x1f58>
    2458:	2d205841 	stccs	8, cr5, [r0, #-260]!	; 0xfffffefc
    245c:	00293120 	eoreq	r3, r9, r0, lsr #2
    2460:	49545845 	ldmdbmi	r4, {r0, r2, r6, fp, ip, lr}^
    2464:	37445037 	smlaldxcc	r5, r4, r7, r0
    2468:	58452820 	stmdapl	r5, {r5, fp, sp}^
    246c:	475f4954 			; <UNDEFINED> instruction: 0x475f4954
    2470:	5f4f4950 	svcpl	0x004f4950
    2474:	7070614d 	rsbsvc	r6, r0, sp, asr #2
    2478:	5f676e69 	svcpl	0x00676e69
    247c:	457b2974 	ldrbmi	r2, [fp, #-2420]!	; 0xfffff68c
    2480:	37495458 	smlsldcc	r5, r9, r8, r4
    2484:	47202c20 	strmi	r2, [r0, -r0, lsr #24]!
    2488:	444f4950 	strbmi	r4, [pc], #-2384	; 2490 <_Min_Stack_Size+0x2090>
    248c:	47202c20 	strmi	r2, [r0, -r0, lsr #24]!
    2490:	5f4f4950 	svcpl	0x004f4950
    2494:	5f4e4950 	svcpl	0x004e4950
    2498:	202c2037 	eorcs	r2, ip, r7, lsr r0
    249c:	49545845 	ldmdbmi	r4, {r0, r2, r6, fp, ip, lr}^
    24a0:	52495f37 	subpl	r5, r9, #55, 30	; 0xdc
    24a4:	45007d51 	strmi	r7, [r0, #-3409]	; 0xfffff2af
    24a8:	33495458 	movtcc	r5, #37976	; 0x9458
    24ac:	20334150 	eorscs	r4, r3, r0, asr r1
    24b0:	54584528 	ldrbpl	r4, [r8], #-1320	; 0xfffffad8
    24b4:	50475f49 	subpl	r5, r7, r9, asr #30
    24b8:	4d5f4f49 	ldclmi	15, cr4, [pc, #-292]	; 239c <_Min_Stack_Size+0x1f9c>
    24bc:	69707061 	ldmdbvs	r0!, {r0, r5, r6, ip, sp, lr}^
    24c0:	745f676e 	ldrbvc	r6, [pc], #-1902	; 24c8 <_Min_Stack_Size+0x20c8>
    24c4:	58457b29 	stmdapl	r5, {r0, r3, r5, r8, r9, fp, ip, sp, lr}^
    24c8:	2c334954 			; <UNDEFINED> instruction: 0x2c334954
    24cc:	49504720 	ldmdbmi	r0, {r5, r8, r9, sl, lr}^
    24d0:	2c20414f 	stfcss	f4, [r0], #-316	; 0xfffffec4
    24d4:	49504720 	ldmdbmi	r0, {r5, r8, r9, sl, lr}^
    24d8:	49505f4f 	ldmdbmi	r0, {r0, r1, r2, r3, r6, r8, r9, sl, fp, ip, lr}^
    24dc:	20335f4e 	eorscs	r5, r3, lr, asr #30
    24e0:	5845202c 	stmdapl	r5, {r2, r3, r5, sp}^
    24e4:	5f334954 	svcpl	0x00334954
    24e8:	20515249 	subscs	r5, r1, r9, asr #4
    24ec:	6950007d 	ldmdbvs	r0, {r0, r2, r3, r4, r5, r6}^
    24f0:	6766436e 	strbvs	r4, [r6, -lr, ror #6]!
    24f4:	41485f00 	cmpmi	r8, r0, lsl #30
    24f8:	4c5f4556 	cfldr64mi	mvdx4, [pc], {86}	; 0x56
    24fc:	5f474e4f 	svcpl	0x00474e4f
    2500:	42554f44 	subsmi	r4, r5, #68, 30	; 0x110
    2504:	3120454c 			; <UNDEFINED> instruction: 0x3120454c
    2508:	49504700 	ldmdbmi	r0, {r8, r9, sl, lr}^
    250c:	4f4d5f4f 	svcmi	0x004d5f4f
    2510:	5f004544 	svcpl	0x00004544
    2514:	4152465f 	cmpmi	r2, pc, asr r6
    2518:	465f5443 	ldrbmi	r5, [pc], -r3, asr #8
    251c:	5f544942 	svcpl	0x00544942
    2520:	3531205f 	ldrcc	r2, [r1, #-95]!	; 0xffffffa1
    2524:	4c5f5f00 	mrrcmi	15, 0, r5, pc, cr0	; <UNPREDICTABLE>
    2528:	4343414c 	movtmi	r4, #12620	; 0x314c
    252c:	455f4d55 	ldrbmi	r4, [pc, #-3413]	; 17df <_Min_Stack_Size+0x13df>
    2530:	4c495350 	mcrrmi	3, 5, r5, r9, cr0
    2534:	5f5f4e4f 	svcpl	0x005f4e4f
    2538:	31783020 	cmncc	r8, r0, lsr #32
    253c:	31332d50 	teqcc	r3, r0, asr sp
    2540:	004b4c4c 	subeq	r4, fp, ip, asr #24
    2544:	4e475f5f 	mcrmi	15, 2, r5, cr7, cr15, {2}
    2548:	505f4355 	subspl	r4, pc, r5, asr r3	; <UNPREDICTABLE>
    254c:	48435441 	stmdami	r3, {r0, r6, sl, ip, lr}^
    2550:	4556454c 	ldrbmi	r4, [r6, #-1356]	; 0xfffffab4
    2554:	205f5f4c 	subscs	r5, pc, ip, asr #30
    2558:	5f5f0031 	svcpl	0x005f0031
    255c:	5f434347 	svcpl	0x00434347
    2560:	4d4f5441 	cfstrdmi	mvd5, [pc, #-260]	; 2464 <_Min_Stack_Size+0x2064>
    2564:	435f4349 	cmpmi	pc, #603979777	; 0x24000001
    2568:	33524148 	cmpcc	r2, #72, 2
    256c:	5f545f32 	svcpl	0x00545f32
    2570:	4b434f4c 	blmi	10d62a8 <_Min_Stack_Size+0x10d5ea8>
    2574:	4552465f 	ldrbmi	r4, [r2, #-1631]	; 0xfffff9a1
    2578:	00322045 	eorseq	r2, r2, r5, asr #32
    257c:	6c615f5f 	stclvs	15, cr5, [r1], #-380	; 0xfffffe84
    2580:	5f636f6c 	svcpl	0x00636f6c
    2584:	67696c61 	strbvs	r6, [r9, -r1, ror #24]!
    2588:	2978286e 	ldmdbcs	r8!, {r1, r2, r3, r5, r6, fp, sp}^
    258c:	615f5f20 	cmpvs	pc, r0, lsr #30
    2590:	69727474 	ldmdbvs	r2!, {r2, r4, r5, r6, sl, ip, sp, lr}^
    2594:	65747562 	ldrbvs	r7, [r4, #-1378]!	; 0xfffffa9e
    2598:	28285f5f 	stmdacs	r8!, {r0, r1, r2, r3, r4, r6, r8, r9, sl, fp, ip, lr}
    259c:	6c615f5f 	stclvs	15, cr5, [r1], #-380	; 0xfffffe84
    25a0:	5f636f6c 	svcpl	0x00636f6c
    25a4:	67696c61 	strbvs	r6, [r9, -r1, ror #24]!
    25a8:	285f5f6e 	ldmdacs	pc, {r1, r2, r3, r5, r6, r8, r9, sl, fp, ip, lr}^	; <UNPREDICTABLE>
    25ac:	29292978 	stmdbcs	r9!, {r3, r4, r5, r6, r8, fp, sp}
    25b0:	43324900 	teqmi	r2, #0, 18
    25b4:	3252535f 	subscc	r5, r2, #2080374785	; 0x7c000001
    25b8:	4e45475f 	mcrmi	7, 2, r4, cr5, cr15, {2}
    25bc:	4c4c4143 	stfmie	f4, [ip], {67}	; 0x43
    25c0:	736f505f 	cmnvc	pc, #95	; 0x5f
    25c4:	55342820 	ldrpl	r2, [r4, #-2080]!	; 0xfffff7e0
    25c8:	5f5f0029 	svcpl	0x005f0029
    25cc:	544e4955 	strbpl	r4, [lr], #-2389	; 0xfffff6ab
    25d0:	41454c5f 	cmpmi	r5, pc, asr ip
    25d4:	36315453 			; <UNDEFINED> instruction: 0x36315453
    25d8:	58414d5f 	stmdapl	r1, {r0, r1, r2, r3, r4, r6, r8, sl, fp, lr}^
    25dc:	30205f5f 	eorcc	r5, r0, pc, asr pc
    25e0:	66666678 			; <UNDEFINED> instruction: 0x66666678
    25e4:	5f5f0066 	svcpl	0x005f0066
    25e8:	53524556 	cmppl	r2, #360710144	; 0x15800000
    25ec:	5f4e4f49 	svcpl	0x004e4f49
    25f0:	3122205f 	qsubcc	r2, pc, r2	; <UNPREDICTABLE>
    25f4:	2e332e31 	mrccs	14, 1, r2, cr3, cr1, {1}
    25f8:	30322031 	eorscc	r2, r2, r1, lsr r0
    25fc:	37303232 			; <UNDEFINED> instruction: 0x37303232
    2600:	00223231 	eoreq	r3, r2, r1, lsr r2
    2604:	5f433249 	svcpl	0x00433249
    2608:	5f315243 	svcpl	0x00315243
    260c:	52454c41 	subpl	r4, r5, #16640	; 0x4100
    2610:	6f505f54 	svcvs	0x00505f54
    2614:	31282073 			; <UNDEFINED> instruction: 0x31282073
    2618:	00295533 	eoreq	r5, r9, r3, lsr r5
    261c:	52415f5f 	subpl	r5, r1, #380	; 0x17c
    2620:	52415f4d 	subpl	r5, r1, #308	; 0x134
    2624:	505f4843 	subspl	r4, pc, r3, asr #16
    2628:	49464f52 	stmdbmi	r6, {r1, r4, r6, r8, r9, sl, fp, lr}^
    262c:	3720454c 	strcc	r4, [r0, -ip, asr #10]!
    2630:	58450037 	stmdapl	r5, {r0, r1, r2, r4, r5}^
    2634:	545f4954 	ldrbpl	r4, [pc], #-2388	; 263c <_Min_Stack_Size+0x223c>
    2638:	67676972 			; <UNDEFINED> instruction: 0x67676972
    263c:	525f7265 	subspl	r7, pc, #1342177286	; 0x50000006
    2640:	4e495349 	cdpmi	3, 4, cr5, cr9, cr9, {2}
    2644:	00302047 	eorseq	r2, r0, r7, asr #32
    2648:	414c5f5f 	cmpmi	ip, pc, asr pc
    264c:	4d554343 	ldclmi	3, cr4, [r5, #-268]	; 0xfffffef4
    2650:	4942465f 	stmdbmi	r2, {r0, r1, r2, r3, r4, r6, r9, sl, lr}^
    2654:	205f5f54 	subscs	r5, pc, r4, asr pc	; <UNPREDICTABLE>
    2658:	5f003133 	svcpl	0x00003133
    265c:	6572705f 	ldrbvs	r7, [r2, #-95]!	; 0xffffffa1
    2660:	74636964 	strbtvc	r6, [r3], #-2404	; 0xfffff69c
    2664:	7572745f 	ldrbvc	r7, [r2, #-1119]!	; 0xfffffba1
    2668:	78652865 	stmdavc	r5!, {r0, r2, r5, r6, fp, sp}^
    266c:	5f202970 	svcpl	0x00202970
    2670:	6975625f 	ldmdbvs	r5!, {r0, r1, r2, r3, r4, r6, r9, sp, lr}^
    2674:	6e69746c 	cdpvs	4, 6, cr7, cr9, cr12, {3}
    2678:	7078655f 	rsbsvc	r6, r8, pc, asr r5
    267c:	28746365 	ldmdacs	r4!, {r0, r2, r5, r6, r8, r9, sp, lr}^
    2680:	70786528 	rsbsvc	r6, r8, r8, lsr #10
    2684:	31202c29 			; <UNDEFINED> instruction: 0x31202c29
    2688:	58450029 	stmdapl	r5, {r0, r3, r5}^
    268c:	495f4954 	ldmdbmi	pc, {r2, r4, r6, r8, fp, lr}^	; <UNPREDICTABLE>
    2690:	455f5152 	ldrbmi	r5, [pc, #-338]	; 2546 <_Min_Stack_Size+0x2146>
    2694:	6c62616e 	stfvse	f6, [r2], #-440	; 0xfffffe48
    2698:	00312065 	eorseq	r2, r1, r5, rrx
    269c:	41535f5f 	cmpmi	r3, pc, asr pc
    26a0:	4d554343 	ldclmi	3, cr4, [r5, #-268]	; 0xfffffef4
    26a4:	58414d5f 	stmdapl	r1, {r0, r1, r2, r3, r4, r6, r8, sl, fp, lr}^
    26a8:	30205f5f 	eorcc	r5, r0, pc, asr pc
    26ac:	46463758 			; <UNDEFINED> instruction: 0x46463758
    26b0:	372d5046 	strcc	r5, [sp, -r6, asr #32]!
    26b4:	5f004b48 	svcpl	0x00004b48
    26b8:	636f6c5f 	cmnvs	pc, #24320	; 0x5f00
    26bc:	65725f6b 	ldrbvs	r5, [r2, #-3947]!	; 0xfffff095
    26c0:	7361656c 	cmnvc	r1, #108, 10	; 0x1b000000
    26c4:	65725f65 	ldrbvs	r5, [r2, #-3941]!	; 0xfffff09b
    26c8:	73727563 	cmnvc	r2, #415236096	; 0x18c00000
    26cc:	28657669 	stmdacs	r5!, {r0, r3, r5, r6, r9, sl, ip, sp, lr}^
    26d0:	6b636f6c 	blvs	18de488 <_Min_Stack_Size+0x18de088>
    26d4:	5f5f2029 	svcpl	0x005f2029
    26d8:	61746572 	cmnvs	r4, r2, ror r5
    26dc:	74656772 	strbtvc	r6, [r5], #-1906	; 0xfffff88e
    26e0:	636f6c5f 	cmnvs	pc, #24320	; 0x5f00
    26e4:	65725f6b 	ldrbvs	r5, [r2, #-3947]!	; 0xfffff095
    26e8:	7361656c 	cmnvc	r1, #108, 10	; 0x1b000000
    26ec:	65725f65 	ldrbvs	r5, [r2, #-3941]!	; 0xfffff09b
    26f0:	73727563 	cmnvc	r2, #415236096	; 0x18c00000
    26f4:	28657669 	stmdacs	r5!, {r0, r3, r5, r6, r9, sl, ip, sp, lr}^
    26f8:	6b636f6c 	blvs	18de4b0 <_Min_Stack_Size+0x18de0b0>
    26fc:	5f5f0029 	svcpl	0x005f0029
    2700:	36544c46 	ldrbcc	r4, [r4], -r6, asr #24
    2704:	414d5f34 	cmpmi	sp, r4, lsr pc
    2708:	30315f58 	eorscc	r5, r1, r8, asr pc
    270c:	5058455f 	subspl	r4, r8, pc, asr r5
    2710:	33205f5f 			; <UNDEFINED> instruction: 0x33205f5f
    2714:	49003830 	stmdbmi	r0, {r4, r5, fp, ip, sp}
    2718:	4f5f4332 	svcmi	0x005f4332
    271c:	5f325241 	svcpl	0x00325241
    2720:	55444e45 	strbpl	r4, [r4, #-3653]	; 0xfffff1bb
    2724:	4d5f4c41 	ldclmi	12, cr4, [pc, #-260]	; 2628 <_Min_Stack_Size+0x2228>
    2728:	28206b73 	stmdacs	r0!, {r0, r1, r4, r5, r6, r8, r9, fp, sp, lr}
    272c:	55317830 	ldrpl	r7, [r1, #-2096]!	; 0xfffff7d0
    2730:	3c3c204c 	ldccc	0, cr2, [ip], #-304	; 0xfffffed0
    2734:	43324920 	teqmi	r2, #32, 18	; 0x80000
    2738:	52414f5f 	subpl	r4, r1, #380	; 0x17c
    273c:	4e455f32 	mcrmi	15, 2, r5, cr5, cr2, {1}
    2740:	4c415544 	cfstr64mi	mvdx5, [r1], {68}	; 0x44
    2744:	736f505f 	cmnvc	pc, #95	; 0x5f
    2748:	58450029 	stmdapl	r5, {r0, r3, r5}^
    274c:	35314954 	ldrcc	r4, [r1, #-2388]!	; 0xfffff6ac
    2750:	35314150 	ldrcc	r4, [r1, #-336]!	; 0xfffffeb0
    2754:	58452820 	stmdapl	r5, {r5, fp, sp}^
    2758:	475f4954 			; <UNDEFINED> instruction: 0x475f4954
    275c:	5f4f4950 	svcpl	0x004f4950
    2760:	7070614d 	rsbsvc	r6, r0, sp, asr #2
    2764:	5f676e69 	svcpl	0x00676e69
    2768:	457b2974 	ldrbmi	r2, [fp, #-2420]!	; 0xfffff68c
    276c:	31495458 	cmpcc	r9, r8, asr r4
    2770:	47202c35 			; <UNDEFINED> instruction: 0x47202c35
    2774:	414f4950 	cmpmi	pc, r0, asr r9	; <UNPREDICTABLE>
    2778:	47202c20 	strmi	r2, [r0, -r0, lsr #24]!
    277c:	5f4f4950 	svcpl	0x004f4950
    2780:	5f4e4950 	svcpl	0x004e4950
    2784:	2c203531 	cfstr32cs	mvfx3, [r0], #-196	; 0xffffff3c
    2788:	54584520 	ldrbpl	r4, [r8], #-1312	; 0xfffffae0
    278c:	5f353149 	svcpl	0x00353149
    2790:	20515249 	subscs	r5, r1, r9, asr #4
    2794:	5f5f007d 	svcpl	0x005f007d
    2798:	5f544e49 	svcpl	0x00544e49
    279c:	54534146 	ldrbpl	r4, [r3], #-326	; 0xfffffeba
    27a0:	575f3233 	smmlarpl	pc, r3, r2, r3	; <UNPREDICTABLE>
    27a4:	48544449 	ldmdami	r4, {r0, r3, r6, sl, lr}^
    27a8:	33205f5f 			; <UNDEFINED> instruction: 0x33205f5f
    27ac:	5f5f0032 	svcpl	0x005f0032
    27b0:	72747461 	rsbsvc	r7, r4, #1627389952	; 0x61000000
    27b4:	74756269 	ldrbtvc	r6, [r5], #-617	; 0xfffffd97
    27b8:	6f665f65 	svcvs	0x00665f65
    27bc:	74616d72 	strbtvc	r6, [r1], #-3442	; 0xfffff28e
    27c0:	7274735f 	rsbsvc	r7, r4, #2080374785	; 0x7c000001
    27c4:	6e6f6d66 	cdpvs	13, 6, cr6, cr15, cr6, {3}
    27c8:	61285f5f 			; <UNDEFINED> instruction: 0x61285f5f
    27cc:	2029622c 	eorcs	r6, r9, ip, lsr #4
    27d0:	53425f00 	movtpl	r5, #12032	; 0x2f00
    27d4:	49535f44 	ldmdbmi	r3, {r2, r6, r8, r9, sl, fp, ip, lr}^
    27d8:	545f455a 	ldrbpl	r4, [pc], #-1370	; 27e0 <_Min_Stack_Size+0x23e0>
    27dc:	4645445f 			; <UNDEFINED> instruction: 0x4645445f
    27e0:	44454e49 	strbmi	r4, [r5], #-3657	; 0xfffff1b7
    27e4:	5200205f 	andpl	r2, r0, #95	; 0x5f
    27e8:	52455345 	subpl	r5, r5, #335544321	; 0x14000001
    27ec:	30444556 	subcc	r4, r4, r6, asr r5
    27f0:	555f5f00 	ldrbpl	r5, [pc, #-3840]	; 18f8 <_Min_Stack_Size+0x14f8>
    27f4:	5f544e49 	svcpl	0x00544e49
    27f8:	54534146 	ldrbpl	r4, [r3], #-326	; 0xfffffeba
    27fc:	545f3233 	ldrbpl	r3, [pc], #-563	; 2804 <_Min_Stack_Size+0x2404>
    2800:	5f455059 	svcpl	0x00455059
    2804:	6e75205f 	mrcvs	0, 3, r2, cr5, cr15, {2}
    2808:	6e676973 			; <UNDEFINED> instruction: 0x6e676973
    280c:	69206465 	stmdbvs	r0!, {r0, r2, r5, r6, sl, sp, lr}
    2810:	5f00746e 	svcpl	0x0000746e
    2814:	6e695f5f 	mcrvs	15, 3, r5, cr9, cr15, {2}
    2818:	69735f74 	ldmdbvs	r3!, {r2, r4, r5, r6, r8, r9, sl, fp, ip, lr}^
    281c:	745f657a 	ldrbvc	r6, [pc], #-1402	; 2824 <_Min_Stack_Size+0x2424>
    2820:	0020685f 	eoreq	r6, r0, pc, asr r8
    2824:	54535f5f 	ldrbpl	r5, [r3], #-3935	; 0xfffff0a1
    2828:	555f4344 	ldrbpl	r4, [pc, #-836]	; 24ec <_Min_Stack_Size+0x20ec>
    282c:	335f4654 	cmpcc	pc, #84, 12	; 0x5400000
    2830:	205f5f32 	subscs	r5, pc, r2, lsr pc	; <UNPREDICTABLE>
    2834:	5f5f0031 	svcpl	0x005f0031
    2838:	455a4953 	ldrbmi	r4, [sl, #-2387]	; 0xfffff6ad
    283c:	465f464f 	ldrbmi	r4, [pc], -pc, asr #12
    2840:	54414f4c 	strbpl	r4, [r1], #-3916	; 0xfffff0b4
    2844:	34205f5f 	strtcc	r5, [r0], #-3935	; 0xfffff0a1
    2848:	465f5f00 	ldrbmi	r5, [pc], -r0, lsl #30
    284c:	3233544c 	eorscc	r5, r3, #76, 8	; 0x4c000000
    2850:	45445f58 	strbmi	r5, [r4, #-3928]	; 0xfffff0a8
    2854:	4d524f4e 	ldclmi	15, cr4, [r2, #-312]	; 0xfffffec8
    2858:	4e494d5f 	mcrmi	13, 2, r4, cr9, cr15, {2}
    285c:	34205f5f 	strtcc	r5, [r0], #-3935	; 0xfffff0a1
    2860:	3034392e 	eorscc	r3, r4, lr, lsr #18
    2864:	34363536 	ldrtcc	r3, [r6], #-1334	; 0xfffffaca
    2868:	31343835 	teqcc	r4, r5, lsr r8
    286c:	35363432 	ldrcc	r3, [r6, #-1074]!	; 0xfffffbce
    2870:	332d6534 			; <UNDEFINED> instruction: 0x332d6534
    2874:	33463432 	movtcc	r3, #25650	; 0x6432
    2878:	5f007832 	svcpl	0x00007832
    287c:	554e475f 	strbpl	r4, [lr, #-1887]	; 0xfffff8a1
    2880:	4b494c43 	blmi	1255994 <_Min_Stack_Size+0x1255594>
    2884:	414d5f45 	cmpmi	sp, r5, asr #30
    2888:	425f4854 	subsmi	r4, pc, #84, 16	; 0x540000
    288c:	544c4955 	strbpl	r4, [ip], #-2389	; 0xfffff6ab
    2890:	525f4e49 	subspl	r4, pc, #1168	; 0x490
    2894:	504f4c45 	subpl	r4, pc, r5, asr #24
    2898:	5f002053 	svcpl	0x00002053
    289c:	544c465f 	strbpl	r4, [ip], #-1631	; 0xfffff9a1
    28a0:	58414d5f 	stmdapl	r1, {r0, r1, r2, r3, r4, r6, r8, sl, fp, lr}^
    28a4:	5f30315f 	svcpl	0x0030315f
    28a8:	5f505845 	svcpl	0x00505845
    28ac:	3833205f 	ldmdacc	r3!, {r0, r1, r2, r3, r4, r6, sp}
    28b0:	535f5f00 	cmppl	pc, #0, 30
    28b4:	415f4749 	cmpmi	pc, r9, asr #14
    28b8:	494d4f54 	stmdbmi	sp, {r2, r4, r6, r8, r9, sl, fp, lr}^
    28bc:	59545f43 	ldmdbpl	r4, {r0, r1, r6, r8, r9, sl, fp, ip, lr}^
    28c0:	5f5f4550 	svcpl	0x005f4550
    28c4:	746e6920 	strbtvc	r6, [lr], #-2336	; 0xfffff6e0
    28c8:	54584500 	ldrbpl	r4, [r8], #-1280	; 0xfffffb00
    28cc:	72545f49 	subsvc	r5, r4, #292	; 0x124
    28d0:	65676769 	strbvs	r6, [r7, #-1897]!	; 0xfffff897
    28d4:	69525f72 	ldmdbvs	r2, {r1, r4, r5, r6, r8, r9, sl, fp, ip, lr}^
    28d8:	676e6973 			; <UNDEFINED> instruction: 0x676e6973
    28dc:	46646e41 	strbtmi	r6, [r4], -r1, asr #28
    28e0:	696c6c61 	stmdbvs	ip!, {r0, r5, r6, sl, fp, sp, lr}^
    28e4:	3220676e 	eorcc	r6, r0, #28835840	; 0x1b80000
    28e8:	465f5f00 	ldrbmi	r5, [pc], -r0, lsl #30
    28ec:	54434152 	strbpl	r4, [r3], #-338	; 0xfffffeae
    28f0:	58414d5f 	stmdapl	r1, {r0, r1, r2, r3, r4, r6, r8, sl, fp, lr}^
    28f4:	30205f5f 	eorcc	r5, r0, pc, asr pc
    28f8:	46463758 			; <UNDEFINED> instruction: 0x46463758
    28fc:	312d5046 			; <UNDEFINED> instruction: 0x312d5046
    2900:	4e005235 	mcrmi	2, 0, r5, cr0, cr5, {1}
    2904:	5f434956 	svcpl	0x00434956
    2908:	33515249 	cmpcc	r1, #-1879048188	; 0x90000004
    290c:	32495f33 	subcc	r5, r9, #51, 30	; 0xcc
    2910:	455f3243 	ldrbmi	r3, [pc, #-579]	; 26d5 <_Min_Stack_Size+0x22d5>
    2914:	6e455f56 	mcrvs	15, 2, r5, cr5, cr6, {2}
    2918:	656c6261 	strbvs	r6, [ip, #-609]!	; 0xfffffd9f
    291c:	564e2820 	strbpl	r2, [lr], -r0, lsr #16
    2920:	495f4349 	ldmdbmi	pc, {r0, r3, r6, r8, r9, lr}^	; <UNPREDICTABLE>
    2924:	31524553 	cmpcc	r2, r3, asr r5
    2928:	203d7c20 	eorscs	r7, sp, r0, lsr #24
    292c:	283c3c31 	ldmdacs	ip!, {r0, r4, r5, sl, fp, ip, sp}
    2930:	43324920 	teqmi	r2, #32, 18	; 0x80000
    2934:	56455f32 			; <UNDEFINED> instruction: 0x56455f32
    2938:	5152495f 	cmppl	r2, pc, asr r9
    293c:	33202d20 			; <UNDEFINED> instruction: 0x33202d20
    2940:	29292032 	stmdbcs	r9!, {r1, r4, r5, sp}
    2944:	54584500 	ldrbpl	r4, [r8], #-1280	; 0xfffffb00
    2948:	44503049 	ldrbmi	r3, [r0], #-73	; 0xffffffb7
    294c:	45282030 	strmi	r2, [r8, #-48]!	; 0xffffffd0
    2950:	5f495458 	svcpl	0x00495458
    2954:	4f495047 	svcmi	0x00495047
    2958:	70614d5f 	rsbvc	r4, r1, pc, asr sp
    295c:	676e6970 			; <UNDEFINED> instruction: 0x676e6970
    2960:	7b29745f 	blvc	a5fae4 <_Min_Stack_Size+0xa5f6e4>
    2964:	49545845 	ldmdbmi	r4, {r0, r2, r6, fp, ip, lr}^
    2968:	202c2030 	eorcs	r2, ip, r0, lsr r0
    296c:	4f495047 	svcmi	0x00495047
    2970:	202c2044 	eorcs	r2, ip, r4, asr #32
    2974:	4f495047 	svcmi	0x00495047
    2978:	4e49505f 	mcrmi	0, 2, r5, cr9, cr15, {2}
    297c:	2c20305f 	stccs	0, cr3, [r0], #-380	; 0xfffffe84
    2980:	54584520 	ldrbpl	r4, [r8], #-1312	; 0xfffffae0
    2984:	495f3049 	ldmdbmi	pc, {r0, r3, r6, ip, sp}^	; <UNPREDICTABLE>
    2988:	007d5152 	rsbseq	r5, sp, r2, asr r1
    298c:	4545525f 	strbmi	r5, [r5, #-607]	; 0xfffffda1
    2990:	535f544e 	cmppl	pc, #1308622848	; 0x4e000000
    2994:	4c4c414d 	stfmie	f4, [ip], {77}	; 0x4d
    2998:	4548435f 	strbmi	r4, [r8, #-863]	; 0xfffffca1
    299c:	495f4b43 	ldmdbmi	pc, {r0, r1, r6, r8, r9, fp, lr}^	; <UNPREDICTABLE>
    29a0:	2854494e 	ldmdacs	r4, {r1, r2, r3, r6, r8, fp, lr}^
    29a4:	29727470 	ldmdbcs	r2!, {r4, r5, r6, sl, ip, sp, lr}^
    29a8:	58450020 	stmdapl	r5, {r5}^
    29ac:	20374954 	eorscs	r4, r7, r4, asr r9
    29b0:	5f5f0037 	svcpl	0x005f0037
    29b4:	5f544e49 	svcpl	0x00544e49
    29b8:	54534146 	ldrbpl	r4, [r3], #-326	; 0xfffffeba
    29bc:	4d5f3233 	lfmmi	f3, 2, [pc, #-204]	; 28f8 <_Min_Stack_Size+0x24f8>
    29c0:	5f5f5841 	svcpl	0x005f5841
    29c4:	37783020 	ldrbcc	r3, [r8, -r0, lsr #32]!
    29c8:	66666666 	strbtvs	r6, [r6], -r6, ror #12
    29cc:	00666666 	rsbeq	r6, r6, r6, ror #12
    29d0:	54415f5f 	strbpl	r5, [r1], #-3935	; 0xfffff0a1
    29d4:	43494d4f 	movtmi	r4, #40271	; 0x9d4f
    29d8:	5145535f 	cmppl	r5, pc, asr r3
    29dc:	5453435f 	ldrbpl	r4, [r3], #-863	; 0xfffffca1
    29e0:	5f003520 	svcpl	0x00003520
    29e4:	44414552 	strbmi	r4, [r1], #-1362	; 0xfffffaae
    29e8:	4952575f 	ldmdbmi	r2, {r0, r1, r2, r3, r4, r6, r8, r9, sl, ip, lr}^
    29ec:	525f4554 	subspl	r4, pc, #84, 10	; 0x15000000
    29f0:	52555445 	subspl	r5, r5, #1157627904	; 0x45000000
    29f4:	59545f4e 	ldmdbpl	r4, {r1, r2, r3, r6, r8, r9, sl, fp, ip, lr}^
    29f8:	69204550 	stmdbvs	r0!, {r4, r6, r8, sl, lr}
    29fc:	4500746e 	strmi	r7, [r0, #-1134]	; 0xfffffb92
    2a00:	39495458 	stmdbcc	r9, {r3, r4, r6, sl, ip, lr}^
    2a04:	20394250 	eorscs	r4, r9, r0, asr r2
    2a08:	54584528 	ldrbpl	r4, [r8], #-1320	; 0xfffffad8
    2a0c:	50475f49 	subpl	r5, r7, r9, asr #30
    2a10:	4d5f4f49 	ldclmi	15, cr4, [pc, #-292]	; 28f4 <_Min_Stack_Size+0x24f4>
    2a14:	69707061 	ldmdbvs	r0!, {r0, r5, r6, ip, sp, lr}^
    2a18:	745f676e 	ldrbvc	r6, [pc], #-1902	; 2a20 <_Min_Stack_Size+0x2620>
    2a1c:	58457b29 	stmdapl	r5, {r0, r3, r5, r8, r9, fp, ip, sp, lr}^
    2a20:	2c394954 			; <UNDEFINED> instruction: 0x2c394954
    2a24:	49504720 	ldmdbmi	r0, {r5, r8, r9, sl, lr}^
    2a28:	2c20424f 	sfmcs	f4, 4, [r0], #-316	; 0xfffffec4
    2a2c:	49504720 	ldmdbmi	r0, {r5, r8, r9, sl, lr}^
    2a30:	49505f4f 	ldmdbmi	r0, {r0, r1, r2, r3, r6, r8, r9, sl, fp, ip, lr}^
    2a34:	20395f4e 	eorscs	r5, r9, lr, asr #30
    2a38:	5458452c 	ldrbpl	r4, [r8], #-1324	; 0xfffffad4
    2a3c:	495f3949 	ldmdbmi	pc, {r0, r3, r6, r8, fp, ip, sp}^	; <UNPREDICTABLE>
    2a40:	7d205152 	stfvcs	f5, [r0, #-328]!	; 0xfffffeb8
    2a44:	54584500 	ldrbpl	r4, [r8], #-1280	; 0xfffffb00
    2a48:	44503649 	ldrbmi	r3, [r0], #-1609	; 0xfffff9b7
    2a4c:	45282036 	strmi	r2, [r8, #-54]!	; 0xffffffca
    2a50:	5f495458 	svcpl	0x00495458
    2a54:	4f495047 	svcmi	0x00495047
    2a58:	70614d5f 	rsbvc	r4, r1, pc, asr sp
    2a5c:	676e6970 			; <UNDEFINED> instruction: 0x676e6970
    2a60:	7b29745f 	blvc	a5fbe4 <_Min_Stack_Size+0xa5f7e4>
    2a64:	49545845 	ldmdbmi	r4, {r0, r2, r6, fp, ip, lr}^
    2a68:	202c2036 	eorcs	r2, ip, r6, lsr r0
    2a6c:	4f495047 	svcmi	0x00495047
    2a70:	202c2044 	eorcs	r2, ip, r4, asr #32
    2a74:	4f495047 	svcmi	0x00495047
    2a78:	4e49505f 	mcrmi	0, 2, r5, cr9, cr15, {2}
    2a7c:	2c20365f 	stccs	6, cr3, [r0], #-380	; 0xfffffe84
    2a80:	54584520 	ldrbpl	r4, [r8], #-1312	; 0xfffffae0
    2a84:	495f3649 	ldmdbmi	pc, {r0, r3, r6, r9, sl, ip, sp}^	; <UNPREDICTABLE>
    2a88:	007d5152 	rsbseq	r5, sp, r2, asr r1
    2a8c:	656e5f5f 	strbvs	r5, [lr, #-3935]!	; 0xfffff0a1
    2a90:	775f6465 	ldrbvc	r6, [pc, -r5, ror #8]
    2a94:	5f746e69 	svcpl	0x00746e69
    2a98:	5f5f0074 	svcpl	0x005f0074
    2a9c:	5f6d7973 	svcpl	0x006d7973
    2aa0:	61666564 	cmnvs	r6, r4, ror #10
    2aa4:	28746c75 	ldmdacs	r4!, {r0, r2, r4, r5, r6, sl, fp, sp, lr}^
    2aa8:	2c6d7973 			; <UNDEFINED> instruction: 0x2c6d7973
    2aac:	6c706d69 	ldclvs	13, cr6, [r0], #-420	; 0xfffffe5c
    2ab0:	7265762c 	rsbvc	r7, r5, #44, 12	; 0x2c00000
    2ab4:	20296469 	eorcs	r6, r9, r9, ror #8
    2ab8:	73615f5f 	cmnvc	r1, #380	; 0x17c
    2abc:	285f5f6d 	ldmdacs	pc, {r0, r2, r3, r5, r6, r8, r9, sl, fp, ip, lr}^	; <UNPREDICTABLE>
    2ac0:	79732e22 	ldmdbvc	r3!, {r1, r5, r9, sl, fp, sp}^
    2ac4:	7265766d 	rsbvc	r7, r5, #114294784	; 0x6d00000
    2ac8:	23202220 			; <UNDEFINED> instruction: 0x23202220
    2acc:	6c706d69 	ldclvs	13, cr6, [r0], #-420	; 0xfffffe5c
    2ad0:	202c2220 	eorcs	r2, ip, r0, lsr #4
    2ad4:	73232022 			; <UNDEFINED> instruction: 0x73232022
    2ad8:	22206d79 	eorcs	r6, r0, #7744	; 0x1e40
    2adc:	20224040 	eorcs	r4, r2, r0, asr #32
    2ae0:	72657623 	rsbvc	r7, r5, #36700160	; 0x2300000
    2ae4:	00296469 	eoreq	r6, r9, r9, ror #8
    2ae8:	5f544e49 	svcpl	0x00544e49
    2aec:	54534146 	ldrbpl	r4, [r3], #-326	; 0xfffffeba
    2af0:	414d5f38 	cmpmi	sp, r8, lsr pc
    2af4:	5f282058 	svcpl	0x00282058
    2af8:	544e495f 	strbpl	r4, [lr], #-2399	; 0xfffff6a1
    2afc:	5341465f 	movtpl	r4, #5727	; 0x165f
    2b00:	4d5f3854 	ldclmi	8, cr3, [pc, #-336]	; 29b8 <_Min_Stack_Size+0x25b8>
    2b04:	5f5f5841 	svcpl	0x005f5841
    2b08:	50470029 	subpl	r0, r7, r9, lsr #32
    2b0c:	505f4f49 	subspl	r4, pc, r9, asr #30
    2b10:	535f4e49 	cmppl	pc, #1168	; 0x490
    2b14:	31205445 			; <UNDEFINED> instruction: 0x31205445
    2b18:	615f5f00 	cmpvs	pc, r0, lsl #30
    2b1c:	636f6c6c 	cmnvs	pc, #108, 24	; 0x6c00
    2b20:	7a69735f 	bvc	1a5f8a4 <_Min_Stack_Size+0x1a5f4a4>
    2b24:	6e283265 	cdpvs	2, 2, cr3, cr8, cr5, {3}
    2b28:	2029782c 	eorcs	r7, r9, ip, lsr #16
    2b2c:	74615f5f 	strbtvc	r5, [r1], #-3935	; 0xfffff0a1
    2b30:	62697274 	rsbvs	r7, r9, #116, 4	; 0x40000007
    2b34:	5f657475 	svcpl	0x00657475
    2b38:	5f28285f 	svcpl	0x0028285f
    2b3c:	6c6c615f 	stfvse	f6, [ip], #-380	; 0xfffffe84
    2b40:	735f636f 	cmpvc	pc, #-1140850687	; 0xbc000001
    2b44:	5f657a69 	svcpl	0x00657a69
    2b48:	2c6e285f 	stclcs	8, cr2, [lr], #-380	; 0xfffffe84
    2b4c:	29297820 	stmdbcs	r9!, {r5, fp, ip, sp, lr}
    2b50:	5f5f0029 	svcpl	0x005f0029
    2b54:	544e4955 	strbpl	r4, [lr], #-2389	; 0xfffff6ab
    2b58:	4d5f3631 	ldclmi	6, cr3, [pc, #-196]	; 2a9c <_Min_Stack_Size+0x269c>
    2b5c:	5f5f5841 	svcpl	0x005f5841
    2b60:	66783020 	ldrbtvs	r3, [r8], -r0, lsr #32
    2b64:	00666666 	rsbeq	r6, r6, r6, ror #12
    2b68:	49545845 	ldmdbmi	r4, {r0, r2, r6, fp, ip, lr}^
    2b6c:	38435038 	stmdacc	r3, {r3, r4, r5, ip, lr}^
    2b70:	58452820 	stmdapl	r5, {r5, fp, sp}^
    2b74:	475f4954 			; <UNDEFINED> instruction: 0x475f4954
    2b78:	5f4f4950 	svcpl	0x004f4950
    2b7c:	7070614d 	rsbsvc	r6, r0, sp, asr #2
    2b80:	5f676e69 	svcpl	0x00676e69
    2b84:	457b2974 	ldrbmi	r2, [fp, #-2420]!	; 0xfffff68c
    2b88:	38495458 	stmdacc	r9, {r3, r4, r6, sl, ip, lr}^
    2b8c:	47202c20 	strmi	r2, [r0, -r0, lsr #24]!
    2b90:	434f4950 	movtmi	r4, #63824	; 0xf950
    2b94:	47202c20 	strmi	r2, [r0, -r0, lsr #24]!
    2b98:	5f4f4950 	svcpl	0x004f4950
    2b9c:	5f4e4950 	svcpl	0x004e4950
    2ba0:	452c2038 	strmi	r2, [ip, #-56]!	; 0xffffffc8
    2ba4:	38495458 	stmdacc	r9, {r3, r4, r6, sl, ip, lr}^
    2ba8:	5152495f 	cmppl	r2, pc, asr r9
    2bac:	5f007d20 	svcpl	0x00007d20
    2bb0:	5f51545f 	svcpl	0x0051545f
    2bb4:	54494246 	strbpl	r4, [r9], #-582	; 0xfffffdba
    2bb8:	31205f5f 			; <UNDEFINED> instruction: 0x31205f5f
    2bbc:	49003732 	stmdbmi	r0, {r1, r4, r5, r8, r9, sl, ip, sp}
    2bc0:	435f4332 	cmpmi	pc, #-939524096	; 0xc8000000
    2bc4:	535f3152 	cmppl	pc, #-2147483628	; 0x80000014
    2bc8:	20504f54 	subscs	r4, r0, r4, asr pc
    2bcc:	5f433249 	svcpl	0x00433249
    2bd0:	5f315243 	svcpl	0x00315243
    2bd4:	504f5453 	subpl	r5, pc, r3, asr r4	; <UNPREDICTABLE>
    2bd8:	6b734d5f 	blvs	1cd615c <_Min_Stack_Size+0x1cd5d5c>
    2bdc:	43324900 	teqmi	r2, #0, 18
    2be0:	3152535f 	cmpcc	r2, pc, asr r3
    2be4:	4345505f 	movtmi	r5, #20575	; 0x505f
    2be8:	5f525245 	svcpl	0x00525245
    2bec:	20736f50 	rsbscs	r6, r3, r0, asr pc
    2bf0:	55323128 	ldrpl	r3, [r2, #-296]!	; 0xfffffed8
    2bf4:	43520029 	cmpmi	r2, #41	; 0x29
    2bf8:	50475f43 	subpl	r5, r7, r3, asr #30
    2bfc:	5f434f49 	svcpl	0x00434f49
    2c00:	5f4b4c43 	svcpl	0x004b4c43
    2c04:	29284e45 	stmdbcs	r8!, {r0, r2, r6, r9, sl, fp, lr}
    2c08:	52202820 	eorpl	r2, r0, #32, 16	; 0x200000
    2c0c:	3e2d4343 	cdpcc	3, 2, cr4, cr13, cr3, {2}
    2c10:	32425041 	subcc	r5, r2, #65	; 0x41
    2c14:	20524e45 	subscs	r4, r2, r5, asr #28
    2c18:	28203d7c 	stmdacs	r0!, {r2, r3, r4, r5, r6, r8, sl, fp, ip, sp}
    2c1c:	343c3c31 	ldrtcc	r3, [ip], #-3121	; 0xfffff3cf
    2c20:	00292029 	eoreq	r2, r9, r9, lsr #32
    2c24:	334d5453 	movtcc	r5, #54355	; 0xd453
    2c28:	30314632 	eorscc	r4, r1, r2, lsr r6
    2c2c:	54384333 	ldrtpl	r4, [r8], #-819	; 0xfffffccd
    2c30:	00312078 	eorseq	r2, r1, r8, ror r0
    2c34:	5f433249 	svcpl	0x00433249
    2c38:	5f325253 	svcpl	0x00325253
    2c3c:	4c415544 	cfstr64mi	mvdx5, [r1], {68}	; 0x44
    2c40:	32492046 	subcc	r2, r9, #70	; 0x46
    2c44:	52535f43 	subspl	r5, r3, #268	; 0x10c
    2c48:	55445f32 	strbpl	r5, [r4, #-3890]	; 0xfffff0ce
    2c4c:	5f464c41 	svcpl	0x00464c41
    2c50:	006b734d 	rsbeq	r7, fp, sp, asr #6
    2c54:	6e695f5f 	mcrvs	15, 3, r5, cr9, cr15, {2}
    2c58:	61665f74 	smcvs	26100	; 0x65f4
    2c5c:	34367473 	ldrtcc	r7, [r6], #-1139	; 0xfffffb8d
    2c60:	645f745f 	ldrbvs	r7, [pc], #-1119	; 2c68 <_Min_Stack_Size+0x2868>
    2c64:	6e696665 	cdpvs	6, 6, cr6, cr9, cr5, {3}
    2c68:	31206465 			; <UNDEFINED> instruction: 0x31206465
    2c6c:	54584500 	ldrbpl	r4, [r8], #-1280	; 0xfffffb00
    2c70:	41503049 	cmpmi	r0, r9, asr #32
    2c74:	45282030 	strmi	r2, [r8, #-48]!	; 0xffffffd0
    2c78:	5f495458 	svcpl	0x00495458
    2c7c:	4f495047 	svcmi	0x00495047
    2c80:	70614d5f 	rsbvc	r4, r1, pc, asr sp
    2c84:	676e6970 			; <UNDEFINED> instruction: 0x676e6970
    2c88:	7b29745f 	blvc	a5fe0c <_Min_Stack_Size+0xa5fa0c>
    2c8c:	49545845 	ldmdbmi	r4, {r0, r2, r6, fp, ip, lr}^
    2c90:	47202c30 			; <UNDEFINED> instruction: 0x47202c30
    2c94:	414f4950 	cmpmi	pc, r0, asr r9	; <UNPREDICTABLE>
    2c98:	47202c20 	strmi	r2, [r0, -r0, lsr #24]!
    2c9c:	5f4f4950 	svcpl	0x004f4950
    2ca0:	5f4e4950 	svcpl	0x004e4950
    2ca4:	202c2030 	eorcs	r2, ip, r0, lsr r0
    2ca8:	49545845 	ldmdbmi	r4, {r0, r2, r6, fp, ip, lr}^
    2cac:	52495f30 	subpl	r5, r9, #48, 30	; 0xc0
    2cb0:	007d2051 	rsbseq	r2, sp, r1, asr r0
    2cb4:	4349564e 	movtmi	r5, #38478	; 0x964e
    2cb8:	5152495f 	cmppl	r2, pc, asr r9
    2cbc:	555f3733 	ldrbpl	r3, [pc, #-1843]	; 2591 <_Min_Stack_Size+0x2191>
    2cc0:	54524153 	ldrbpl	r4, [r2], #-339	; 0xfffffead
    2cc4:	6e455f31 	mcrvs	15, 2, r5, cr5, cr1, {1}
    2cc8:	656c6261 	strbvs	r6, [ip, #-609]!	; 0xfffffd9f
    2ccc:	564e2820 	strbpl	r2, [lr], -r0, lsr #16
    2cd0:	495f4349 	ldmdbmi	pc, {r0, r3, r6, r8, r9, lr}^	; <UNPREDICTABLE>
    2cd4:	31524553 	cmpcc	r2, r3, asr r5
    2cd8:	203d7c20 	eorscs	r7, sp, r0, lsr #24
    2cdc:	283c3c31 	ldmdacs	ip!, {r0, r4, r5, sl, fp, ip, sp}
    2ce0:	41535520 	cmpmi	r3, r0, lsr #10
    2ce4:	5f315452 	svcpl	0x00315452
    2ce8:	20515249 	subscs	r5, r1, r9, asr #4
    2cec:	3233202d 	eorscc	r2, r3, #45	; 0x2d
    2cf0:	00292920 	eoreq	r2, r9, r0, lsr #18
    2cf4:	49535f5f 	ldmdbmi	r3, {r0, r1, r2, r3, r4, r6, r8, r9, sl, fp, ip, lr}^
    2cf8:	464f455a 			; <UNDEFINED> instruction: 0x464f455a
    2cfc:	4f48535f 	svcmi	0x0048535f
    2d00:	5f5f5452 	svcpl	0x005f5452
    2d04:	5f003220 	svcpl	0x00003220
    2d08:	4c4c555f 	cfstr64mi	mvdx5, [ip], {95}	; 0x5f
    2d0c:	55434341 	strbpl	r4, [r3, #-833]	; 0xfffffcbf
    2d10:	42465f4d 	submi	r5, r6, #308	; 0x134
    2d14:	5f5f5449 	svcpl	0x005f5449
    2d18:	00323320 	eorseq	r3, r2, r0, lsr #6
    2d1c:	4545525f 	strbmi	r5, [r5, #-607]	; 0xfffffda1
    2d20:	495f544e 	ldmdbmi	pc, {r1, r2, r3, r6, sl, ip, lr}^	; <UNPREDICTABLE>
    2d24:	5f54494e 	svcpl	0x0054494e
    2d28:	45534552 	ldrbmi	r4, [r3, #-1362]	; 0xfffffaae
    2d2c:	44455652 	strbmi	r5, [r5], #-1618	; 0xfffff9ae
    2d30:	0020305f 	eoreq	r3, r0, pc, asr r0
    2d34:	5f433249 	svcpl	0x00433249
    2d38:	5f315253 	svcpl	0x00315253
    2d3c:	49204253 	stmdbmi	r0!, {r0, r1, r4, r6, r9, lr}
    2d40:	535f4332 	cmppl	pc, #-939524096	; 0xc8000000
    2d44:	535f3152 	cmppl	pc, #-2147483628	; 0x80000014
    2d48:	734d5f42 	movtvc	r5, #57154	; 0xdf42
    2d4c:	564e006b 	strbpl	r0, [lr], -fp, rrx
    2d50:	495f4349 	ldmdbmi	pc, {r0, r3, r6, r8, r9, lr}^	; <UNPREDICTABLE>
    2d54:	32524553 	subscc	r4, r2, #348127232	; 0x14c00000
    2d58:	76282a20 	strtvc	r2, [r8], -r0, lsr #20
    2d5c:	74616c6f 	strbtvc	r6, [r1], #-3183	; 0xfffff391
    2d60:	20656c69 	rsbcs	r6, r5, r9, ror #24
    2d64:	746e6975 	strbtvc	r6, [lr], #-2421	; 0xfffff68b
    2d68:	745f3233 	ldrbvc	r3, [pc], #-563	; 2d70 <_Min_Stack_Size+0x2970>
    2d6c:	28292a20 	stmdacs	r9!, {r5, r9, fp, sp}
    2d70:	4349564e 	movtmi	r5, #38478	; 0x964e
    2d74:	7361425f 	cmnvc	r1, #-268435451	; 0xf0000005
    2d78:	202b2065 	eorcs	r2, fp, r5, rrx
    2d7c:	29387830 	ldmdbcs	r8!, {r4, r5, fp, ip, sp, lr}
    2d80:	445f5f00 	ldrbmi	r5, [pc], #-3840	; 2d88 <_Min_Stack_Size+0x2988>
    2d84:	4e4f4345 	cdpmi	3, 4, cr4, cr15, cr5, {2}
    2d88:	74285453 	strtvc	r5, [r8], #-1107	; 0xfffffbad
    2d8c:	2c657079 	stclcs	0, cr7, [r5], #-484	; 0xfffffe1c
    2d90:	29726176 	ldmdbcs	r2!, {r1, r2, r4, r5, r6, r8, sp, lr}^
    2d94:	74282820 	strtvc	r2, [r8], #-2080	; 0xfffff7e0
    2d98:	29657079 	stmdbcs	r5!, {r0, r3, r4, r5, r6, ip, sp, lr}^
    2d9c:	755f5f28 	ldrbvc	r5, [pc, #-3880]	; 1e7c <_Min_Stack_Size+0x1a7c>
    2da0:	70746e69 	rsbsvc	r6, r4, r9, ror #28
    2da4:	745f7274 	ldrbvc	r7, [pc], #-628	; 2dac <_Min_Stack_Size+0x29ac>
    2da8:	6f632829 	svcvs	0x00632829
    2dac:	2074736e 	rsbscs	r7, r4, lr, ror #6
    2db0:	64696f76 	strbtvs	r6, [r9], #-3958	; 0xfffff08a
    2db4:	28292a20 	stmdacs	r9!, {r5, r9, fp, sp}
    2db8:	29726176 	ldmdbcs	r2!, {r1, r2, r4, r5, r6, r8, sp, lr}^
    2dbc:	53550029 	cmppl	r5, #41	; 0x29
    2dc0:	32545241 	subscc	r5, r4, #268435460	; 0x10000004
    2dc4:	55282820 	strpl	r2, [r8, #-2080]!	; 0xfffff7e0
    2dc8:	54524153 	ldrbpl	r4, [r2], #-339	; 0xfffffead
    2dcc:	7079545f 	rsbsvc	r5, r9, pc, asr r4
    2dd0:	66654465 	strbtvs	r4, [r5], -r5, ror #8
    2dd4:	55292a20 	strpl	r2, [r9, #-2592]!	; 0xfffff5e0
    2dd8:	54524153 	ldrbpl	r4, [r2], #-339	; 0xfffffead
    2ddc:	41425f32 	cmpmi	r2, r2, lsr pc
    2de0:	00294553 	eoreq	r4, r9, r3, asr r5
    2de4:	31433249 	cmpcc	r3, r9, asr #4
    2de8:	5341425f 	movtpl	r4, #4703	; 0x125f
    2dec:	30282045 	eorcc	r2, r8, r5, asr #32
    2df0:	30303478 	eorscc	r3, r0, r8, ror r4
    2df4:	30343530 	eorscc	r3, r4, r0, lsr r5
    2df8:	294c5530 	stmdbcs	ip, {r4, r5, r8, sl, ip, lr}^
    2dfc:	59535f00 	ldmdbpl	r3, {r8, r9, sl, fp, ip, lr}^
    2e00:	45465f53 	strbmi	r5, [r6, #-3923]	; 0xfffff0ad
    2e04:	52555441 	subspl	r5, r5, #1090519040	; 0x41000000
    2e08:	485f5345 	ldmdami	pc, {r0, r2, r6, r8, r9, ip, lr}^	; <UNPREDICTABLE>
    2e0c:	50470020 	subpl	r0, r7, r0, lsr #32
    2e10:	5f414f49 	svcpl	0x00414f49
    2e14:	45534142 	ldrbmi	r4, [r3, #-322]	; 0xfffffebe
    2e18:	65502820 	ldrbvs	r2, [r0, #-2080]	; 0xfffff7e0
    2e1c:	68706972 	ldmdavs	r0!, {r1, r4, r5, r6, r8, fp, sp, lr}^
    2e20:	6c617265 	sfmvs	f7, 2, [r1], #-404	; 0xfffffe6c
    2e24:	41425f73 	hvcmi	9715	; 0x25f3
    2e28:	2b204553 	blcs	81437c <_Min_Stack_Size+0x813f7c>
    2e2c:	30783020 	rsbscc	r3, r8, r0, lsr #32
    2e30:	30313030 	eorscc	r3, r1, r0, lsr r0
    2e34:	55303038 	ldrpl	r3, [r0, #-56]!	; 0xffffffc8
    2e38:	5f00294c 	svcpl	0x0000294c
    2e3c:	696f6e5f 	stmdbvs	pc!, {r0, r1, r2, r3, r4, r6, r9, sl, fp, sp, lr}^	; <UNPREDICTABLE>
    2e40:	6e696c6e 	cdpvs	12, 6, cr6, cr9, cr14, {3}
    2e44:	5f5f2065 	svcpl	0x005f2065
    2e48:	72747461 	rsbsvc	r7, r4, #1627389952	; 0x61000000
    2e4c:	74756269 	ldrbtvc	r6, [r5], #-617	; 0xfffffd97
    2e50:	205f5f65 	subscs	r5, pc, r5, ror #30
    2e54:	5f5f2828 	svcpl	0x005f2828
    2e58:	6e696f6e 	cdpvs	15, 6, cr6, cr9, cr14, {3}
    2e5c:	656e696c 	strbvs	r6, [lr, #-2412]!	; 0xfffff694
    2e60:	29295f5f 	stmdbcs	r9!, {r0, r1, r2, r3, r4, r6, r8, r9, sl, fp, ip, lr}
    2e64:	414d5f00 	cmpmi	sp, r0, lsl #30
    2e68:	54534843 	ldrbpl	r4, [r3], #-2115	; 0xfffff7bd
    2e6c:	42494c44 	submi	r4, r9, #68, 24	; 0x4400
    2e70:	205f485f 	subscs	r4, pc, pc, asr r8	; <UNPREDICTABLE>
    2e74:	49504700 	ldmdbmi	r0, {r8, r9, sl, lr}^
    2e78:	49505f4f 	ldmdbmi	r0, {r0, r1, r2, r3, r6, r8, r9, sl, fp, ip, lr}^
    2e7c:	20335f4e 	eorscs	r5, r3, lr, asr #30
    2e80:	69752828 	ldmdbvs	r5!, {r3, r5, fp, sp}^
    2e84:	3631746e 	ldrtcc	r7, [r1], -lr, ror #8
    2e88:	3029745f 	eorcc	r7, r9, pc, asr r4
    2e8c:	30303078 	eorscc	r3, r0, r8, ror r0
    2e90:	5f002938 	svcpl	0x00002938
    2e94:	5a49535f 	bpl	1257c18 <_Min_Stack_Size+0x1257818>
    2e98:	5f464f45 	svcpl	0x00464f45
    2e9c:	474e4f4c 	strbmi	r4, [lr, -ip, asr #30]
    2ea0:	554f445f 	strbpl	r4, [pc, #-1119]	; 2a49 <_Min_Stack_Size+0x2649>
    2ea4:	5f454c42 	svcpl	0x00454c42
    2ea8:	0038205f 	eorseq	r2, r8, pc, asr r0
    2eac:	52505f5f 	subspl	r5, r0, #380	; 0x17c
    2eb0:	414d4741 	cmpmi	sp, r1, asr #14
    2eb4:	4445525f 	strbmi	r5, [r5], #-607	; 0xfffffda1
    2eb8:	4e494645 	cdpmi	6, 4, cr4, cr9, cr5, {2}
    2ebc:	58455f45 	stmdapl	r5, {r0, r2, r6, r8, r9, sl, fp, ip, lr}^
    2ec0:	4d414e54 	stclmi	14, cr4, [r1, #-336]	; 0xfffffeb0
    2ec4:	00312045 	eorseq	r2, r1, r5, asr #32
    2ec8:	43575f5f 	cmpmi	r7, #380	; 0x17c
    2ecc:	5f524148 	svcpl	0x00524148
    2ed0:	45505954 	ldrbmi	r5, [r0, #-2388]	; 0xfffff6ac
    2ed4:	75205f5f 	strvc	r5, [r0, #-3935]!	; 0xfffff0a1
    2ed8:	6769736e 	strbvs	r7, [r9, -lr, ror #6]!
    2edc:	2064656e 	rsbcs	r6, r4, lr, ror #10
    2ee0:	00746e69 	rsbseq	r6, r4, r9, ror #28
    2ee4:	4545525f 	strbmi	r5, [r5, #-607]	; 0xfffffda1
    2ee8:	535f544e 	cmppl	pc, #1308622848	; 0x4e000000
    2eec:	474e4749 	strbmi	r4, [lr, -r9, asr #14]
    2ef0:	70284d41 	eorvc	r4, r8, r1, asr #26
    2ef4:	20297274 	eorcs	r7, r9, r4, ror r2
    2ef8:	74702828 	ldrbtvc	r2, [r0], #-2088	; 0xfffff7d8
    2efc:	3e2d2972 			; <UNDEFINED> instruction: 0x3e2d2972
    2f00:	6d61675f 	stclvs	7, cr6, [r1, #-380]!	; 0xfffffe84
    2f04:	735f616d 	cmpvc	pc, #1073741851	; 0x4000001b
    2f08:	676e6769 	strbvs	r6, [lr, -r9, ror #14]!
    2f0c:	00296d61 	eoreq	r6, r9, r1, ror #26
    2f10:	49545845 	ldmdbmi	r4, {r0, r2, r6, fp, ip, lr}^
    2f14:	52495f34 	subpl	r5, r9, #52, 30	; 0xd0
    2f18:	6e614851 	mcrvs	8, 3, r4, cr1, cr1, {2}
    2f1c:	72656c64 	rsbvc	r6, r5, #100, 24	; 0x6400
    2f20:	555f5f00 	ldrbpl	r5, [pc, #-3840]	; 2028 <_Min_Stack_Size+0x1c28>
    2f24:	495f4153 	ldmdbmi	pc, {r0, r1, r4, r6, r8, lr}^	; <UNPREDICTABLE>
    2f28:	5f544942 	svcpl	0x00544942
    2f2c:	3631205f 			; <UNDEFINED> instruction: 0x3631205f
    2f30:	445f5f00 	ldrbmi	r5, [pc], #-3840	; 2f38 <_Min_Stack_Size+0x2b38>
    2f34:	4c42554f 	cfstr64mi	mvdx5, [r2], {79}	; 0x4f
    2f38:	59545f45 	ldmdbpl	r4, {r0, r2, r6, r8, r9, sl, fp, ip, lr}^
    2f3c:	64204550 	strtvs	r4, [r0], #-1360	; 0xfffffab0
    2f40:	6c62756f 	cfstr64vs	mvdx7, [r2], #-444	; 0xfffffe44
    2f44:	58450065 	stmdapl	r5, {r0, r2, r5, r6}^
    2f48:	435f4954 	cmpmi	pc, #84, 18	; 0x150000
    2f4c:	69666e6f 	stmdbvs	r6!, {r0, r1, r2, r3, r5, r6, r9, sl, fp, sp, lr}^
    2f50:	4e490067 	cdpmi	0, 4, cr0, cr9, cr7, {3}
    2f54:	58414d54 	stmdapl	r1, {r2, r4, r6, r8, sl, fp, lr}^
    2f58:	7828435f 	stmdavc	r8!, {r0, r1, r2, r3, r4, r6, r8, r9, lr}
    2f5c:	5f5f2029 	svcpl	0x005f2029
    2f60:	4d544e49 	ldclmi	14, cr4, [r4, #-292]	; 0xfffffedc
    2f64:	435f5841 	cmpmi	pc, #4259840	; 0x410000
    2f68:	00297828 	eoreq	r7, r9, r8, lsr #16
    2f6c:	656e5f5f 	strbvs	r5, [lr, #-3935]!	; 0xfffff0a1
    2f70:	775f6465 	ldrbvc	r6, [pc, -r5, ror #8]
    2f74:	72616863 	rsbvc	r6, r1, #6488064	; 0x630000
    2f78:	0020745f 	eoreq	r7, r0, pc, asr r4
    2f7c:	69685f5f 	stmdbvs	r8!, {r0, r1, r2, r3, r4, r6, r8, r9, sl, fp, ip, lr}^
    2f80:	6e656464 	cdpvs	4, 6, cr6, cr5, cr4, {3}
    2f84:	615f5f20 	cmpvs	pc, r0, lsr #30
    2f88:	69727474 	ldmdbvs	r2!, {r2, r4, r5, r6, sl, ip, sp, lr}^
    2f8c:	65747562 	ldrbvs	r7, [r4, #-1378]!	; 0xfffffa9e
    2f90:	28285f5f 	stmdacs	r8!, {r0, r1, r2, r3, r4, r6, r8, r9, sl, fp, ip, lr}
    2f94:	69765f5f 	ldmdbvs	r6!, {r0, r1, r2, r3, r4, r6, r8, r9, sl, fp, ip, lr}^
    2f98:	69626973 	stmdbvs	r2!, {r0, r1, r4, r5, r6, r8, fp, sp, lr}^
    2f9c:	7974696c 	ldmdbvc	r4!, {r2, r3, r5, r6, r8, fp, sp, lr}^
    2fa0:	22285f5f 	eorcs	r5, r8, #380	; 0x17c
    2fa4:	64646968 	strbtvs	r6, [r4], #-2408	; 0xfffff698
    2fa8:	29226e65 	stmdbcs	r2!, {r0, r2, r5, r6, r9, sl, fp, sp, lr}
    2fac:	49002929 	stmdbmi	r0, {r0, r3, r5, r8, fp, sp}
    2fb0:	4c5f544e 	cfldrdmi	mvd5, [pc], {78}	; 0x4e
    2fb4:	54534145 	ldrbpl	r4, [r3], #-325	; 0xfffffebb
    2fb8:	4d5f3233 	lfmmi	f3, 2, [pc, #-204]	; 2ef4 <_Min_Stack_Size+0x2af4>
    2fbc:	28205841 	stmdacs	r0!, {r0, r6, fp, ip, lr}
    2fc0:	4e495f5f 	mcrmi	15, 2, r5, cr9, cr15, {2}
    2fc4:	454c5f54 	strbmi	r5, [ip, #-3924]	; 0xfffff0ac
    2fc8:	33545341 	cmpcc	r4, #67108865	; 0x4000001
    2fcc:	414d5f32 	cmpmi	sp, r2, lsr pc
    2fd0:	295f5f58 	ldmdbcs	pc, {r3, r4, r6, r8, r9, sl, fp, ip, lr}^	; <UNPREDICTABLE>
    2fd4:	535f5f00 	cmppl	pc, #0, 30
    2fd8:	43415246 	movtmi	r5, #4678	; 0x1246
    2fdc:	414d5f54 	cmpmi	sp, r4, asr pc
    2fe0:	205f5f58 	subscs	r5, pc, r8, asr pc	; <UNPREDICTABLE>
    2fe4:	46375830 			; <UNDEFINED> instruction: 0x46375830
    2fe8:	48372d50 	ldmdami	r7!, {r4, r6, r8, sl, fp, sp}
    2fec:	5f5f0052 	svcpl	0x005f0052
    2ff0:	544e4955 	strbpl	r4, [lr], #-2389	; 0xfffff6ab
    2ff4:	5341465f 	movtpl	r4, #5727	; 0x165f
    2ff8:	5f343654 	svcpl	0x00343654
    2ffc:	45505954 	ldrbmi	r5, [r0, #-2388]	; 0xfffff6ac
    3000:	6c205f5f 	stcvs	15, cr5, [r0], #-380	; 0xfffffe84
    3004:	20676e6f 	rsbcs	r6, r7, pc, ror #28
    3008:	676e6f6c 	strbvs	r6, [lr, -ip, ror #30]!
    300c:	736e7520 	cmnvc	lr, #32, 10	; 0x8000000
    3010:	656e6769 	strbvs	r6, [lr, #-1897]!	; 0xfffff897
    3014:	6e692064 	cdpvs	0, 6, cr2, cr9, cr4, {3}
    3018:	575f0074 			; <UNDEFINED> instruction: 0x575f0074
    301c:	5f544e49 	svcpl	0x00544e49
    3020:	49002054 	stmdbmi	r0, {r2, r4, r6, sp}
    3024:	4c5f544e 	cfldrdmi	mvd5, [pc], {78}	; 0x4e
    3028:	54534145 	ldrbpl	r4, [r3], #-325	; 0xfffffebb
    302c:	414d5f38 	cmpmi	sp, r8, lsr pc
    3030:	5f282058 	svcpl	0x00282058
    3034:	544e495f 	strbpl	r4, [lr], #-2399	; 0xfffff6a1
    3038:	41454c5f 	cmpmi	r5, pc, asr ip
    303c:	5f385453 	svcpl	0x00385453
    3040:	5f58414d 	svcpl	0x0058414d
    3044:	5f00295f 	svcpl	0x0000295f
    3048:	544c465f 	strbpl	r4, [ip], #-1631	; 0xfffff9a1
    304c:	4e494d5f 	mcrmi	13, 2, r4, cr9, cr15, {2}
    3050:	31205f5f 			; <UNDEFINED> instruction: 0x31205f5f
    3054:	3537312e 	ldrcc	r3, [r7, #-302]!	; 0xfffffed2
    3058:	33343934 	teqcc	r4, #52, 18	; 0xd0000
    305c:	32383035 	eorscc	r3, r8, #53	; 0x35
    3060:	37383232 			; <UNDEFINED> instruction: 0x37383232
    3064:	332d6535 			; <UNDEFINED> instruction: 0x332d6535
    3068:	5f004638 	svcpl	0x00004638
    306c:	65656e5f 	strbvs	r6, [r5, #-3679]!	; 0xfffff1a1
    3070:	69735f64 	ldmdbvs	r3!, {r2, r5, r6, r8, r9, sl, fp, ip, lr}^
    3074:	745f657a 	ldrbvc	r6, [pc], #-1402	; 307c <_Min_Stack_Size+0x2c7c>
    3078:	5f5f0020 	svcpl	0x005f0020
    307c:	465f4148 	ldrbmi	r4, [pc], -r8, asr #2
    3080:	5f544942 	svcpl	0x00544942
    3084:	0037205f 	eorseq	r2, r7, pc, asr r0
    3088:	44465f5f 	strbmi	r5, [r6], #-3935	; 0xfffff0a1
    308c:	5f434950 	svcpl	0x00434950
    3090:	3249005f 	subcc	r0, r9, #95	; 0x5f
    3094:	414f5f43 	cmpmi	pc, r3, asr #30
    3098:	415f3252 	cmpmi	pc, r2, asr r2	; <UNPREDICTABLE>
    309c:	5f324444 	svcpl	0x00324444
    30a0:	20736f50 	rsbscs	r6, r3, r0, asr pc
    30a4:	29553128 	ldmdbcs	r5, {r3, r5, r8, ip, sp}^
    30a8:	465f5f00 	ldrbmi	r5, [pc], -r0, lsl #30
    30ac:	4d5f544c 	cfldrdmi	mvd5, [pc, #-304]	; 2f84 <_Min_Stack_Size+0x2b84>
    30b0:	5f5f5841 	svcpl	0x005f5841
    30b4:	342e3320 	strtcc	r3, [lr], #-800	; 0xfffffce0
    30b8:	32383230 	eorscc	r3, r8, #48, 4
    30bc:	36363433 			; <UNDEFINED> instruction: 0x36363433
    30c0:	32353833 	eorscc	r3, r5, #3342336	; 0x330000
    30c4:	65363838 	ldrvs	r3, [r6, #-2104]!	; 0xfffff7c8
    30c8:	4638332b 	ldrtmi	r3, [r8], -fp, lsr #6
    30cc:	465f5f00 	ldrbmi	r5, [pc], -r0, lsl #30
    30d0:	3233544c 	eorscc	r5, r3, #76, 8	; 0x4c000000
    30d4:	5f53495f 	svcpl	0x0053495f
    30d8:	5f434549 	svcpl	0x00434549
    30dc:	35353036 	ldrcc	r3, [r5, #-54]!	; 0xffffffca
    30e0:	205f5f39 	subscs	r5, pc, r9, lsr pc	; <UNPREDICTABLE>
    30e4:	49530032 	ldmdbmi	r3, {r1, r4, r5}^
    30e8:	54415f47 	strbpl	r5, [r1], #-3911	; 0xfffff0b9
    30ec:	43494d4f 	movtmi	r4, #40271	; 0x9d4f
    30f0:	58414d5f 	stmdapl	r1, {r0, r1, r2, r3, r4, r6, r8, sl, fp, lr}^
    30f4:	5f5f2820 	svcpl	0x005f2820
    30f8:	49445453 	stmdbmi	r4, {r0, r1, r4, r6, sl, ip, lr}^
    30fc:	455f544e 	ldrbmi	r5, [pc, #-1102]	; 2cb6 <_Min_Stack_Size+0x28b6>
    3100:	49285058 	stmdbmi	r8!, {r3, r4, r6, ip, lr}
    3104:	4d5f544e 	cfldrdmi	mvd5, [pc, #-312]	; 2fd4 <_Min_Stack_Size+0x2bd4>
    3108:	29295841 	stmdbcs	r9!, {r0, r6, fp, ip, lr}
    310c:	43324900 	teqmi	r2, #0, 18
    3110:	3252435f 	subscc	r4, r2, #2080374785	; 0x7c000001
    3114:	4554495f 	ldrbmi	r4, [r4, #-2399]	; 0xfffff6a1
    3118:	4e455252 	mcrmi	2, 2, r5, cr5, cr2, {2}
    311c:	6b734d5f 	blvs	1cd66a0 <_Min_Stack_Size+0x1cd62a0>
    3120:	78302820 	ldmdavc	r0!, {r5, fp, sp}
    3124:	204c5531 	subcs	r5, ip, r1, lsr r5
    3128:	49203c3c 	stmdbmi	r0!, {r2, r3, r4, r5, sl, fp, ip, sp}
    312c:	435f4332 	cmpmi	pc, #-939524096	; 0xc8000000
    3130:	495f3252 	ldmdbmi	pc, {r1, r4, r6, r9, ip, sp}^	; <UNPREDICTABLE>
    3134:	52524554 	subspl	r4, r2, #84, 10	; 0x15000000
    3138:	505f4e45 	subspl	r4, pc, r5, asr #28
    313c:	0029736f 	eoreq	r7, r9, pc, ror #6
    3140:	4f495047 	svcmi	0x00495047
    3144:	4e49505f 	mcrmi	0, 2, r5, cr9, cr15, {2}
    3148:	53414d5f 	movtpl	r4, #7519	; 0x1d5f
    314c:	7830204b 	ldmdavc	r0!, {r0, r1, r3, r6, sp}
    3150:	30303030 	eorscc	r3, r0, r0, lsr r0
    3154:	46464646 	strbmi	r4, [r6], -r6, asr #12
    3158:	49550075 	ldmdbmi	r5, {r0, r2, r4, r5, r6}^
    315c:	465f544e 	ldrbmi	r5, [pc], -lr, asr #8
    3160:	33545341 	cmpcc	r4, #67108865	; 0x4000001
    3164:	414d5f32 	cmpmi	sp, r2, lsr pc
    3168:	5f282058 	svcpl	0x00282058
    316c:	4e49555f 	mcrmi	5, 2, r5, cr9, cr15, {2}
    3170:	41465f54 	cmpmi	r6, r4, asr pc
    3174:	32335453 	eorscc	r5, r3, #1392508928	; 0x53000000
    3178:	58414d5f 	stmdapl	r1, {r0, r1, r2, r3, r4, r6, r8, sl, fp, lr}^
    317c:	00295f5f 	eoreq	r5, r9, pc, asr pc
    3180:	32495053 	subcc	r5, r9, #83	; 0x53
    3184:	5152495f 	cmppl	r2, pc, asr r9
    3188:	00363320 	eorseq	r3, r6, r0, lsr #6
    318c:	5f433249 	svcpl	0x00433249
    3190:	5f315253 	svcpl	0x00315253
    3194:	31444441 	cmpcc	r4, r1, asr #8
    3198:	734d5f30 	movtvc	r5, #57136	; 0xdf30
    319c:	3028206b 	eorcc	r2, r8, fp, rrx
    31a0:	4c553178 	ldfmie	f3, [r5], {120}	; 0x78
    31a4:	203c3c20 	eorscs	r3, ip, r0, lsr #24
    31a8:	5f433249 	svcpl	0x00433249
    31ac:	5f315253 	svcpl	0x00315253
    31b0:	31444441 	cmpcc	r4, r1, asr #8
    31b4:	6f505f30 	svcvs	0x00505f30
    31b8:	52002973 	andpl	r2, r0, #1884160	; 0x1cc000
    31bc:	475f4343 	ldrbmi	r4, [pc, -r3, asr #6]
    31c0:	424f4950 	submi	r4, pc, #80, 18	; 0x140000
    31c4:	4b4c435f 	blmi	1313f48 <_Min_Stack_Size+0x1313b48>
    31c8:	284e455f 	stmdacs	lr, {r0, r1, r2, r3, r4, r6, r8, sl, lr}^
    31cc:	20282029 	eorcs	r2, r8, r9, lsr #32
    31d0:	2d434352 	stclcs	3, cr4, [r3, #-328]	; 0xfffffeb8
    31d4:	4250413e 	subsmi	r4, r0, #-2147483633	; 0x8000000f
    31d8:	524e4532 	subpl	r4, lr, #209715200	; 0xc800000
    31dc:	203d7c20 	eorscs	r7, sp, r0, lsr #24
    31e0:	3c3c3128 	ldfccs	f3, [ip], #-160	; 0xffffff60
    31e4:	29202933 	stmdbcs	r0!, {r0, r1, r4, r5, r8, fp, sp}
    31e8:	49564e00 	ldmdbmi	r6, {r9, sl, fp, lr}^
    31ec:	43495f43 	movtmi	r5, #40771	; 0x9f43
    31f0:	20305245 	eorscs	r5, r0, r5, asr #4
    31f4:	6f76282a 	svcvs	0x0076282a
    31f8:	6974616c 	ldmdbvs	r4!, {r2, r3, r5, r6, r8, sp, lr}^
    31fc:	7520656c 	strvc	r6, [r0, #-1388]!	; 0xfffffa94
    3200:	33746e69 	cmncc	r4, #1680	; 0x690
    3204:	20745f32 	rsbscs	r5, r4, r2, lsr pc
    3208:	4e28292a 	vmulmi.f16	s4, s16, s21	; <UNPREDICTABLE>
    320c:	5f434956 	svcpl	0x00434956
    3210:	65736142 	ldrbvs	r6, [r3, #-322]!	; 0xfffffebe
    3214:	30202b20 	eorcc	r2, r0, r0, lsr #22
    3218:	29303878 	ldmdbcs	r0!, {r3, r4, r5, r6, fp, ip, sp}
    321c:	555f5f00 	ldrbpl	r5, [pc, #-3840]	; 2324 <_Min_Stack_Size+0x1f24>
    3220:	41524653 	cmpmi	r2, r3, asr r6
    3224:	495f5443 	ldmdbmi	pc, {r0, r1, r6, sl, ip, lr}^	; <UNPREDICTABLE>
    3228:	5f544942 	svcpl	0x00544942
    322c:	0030205f 	eorseq	r2, r0, pc, asr r0
    3230:	4e495f5f 	mcrmi	15, 2, r5, cr9, cr15, {2}
    3234:	5f323354 	svcpl	0x00323354
    3238:	29632843 	stmdbcs	r3!, {r0, r1, r6, fp, sp}^
    323c:	23206320 			; <UNDEFINED> instruction: 0x23206320
    3240:	004c2023 	subeq	r2, ip, r3, lsr #32
    3244:	69755f5f 	ldmdbvs	r5!, {r0, r1, r2, r3, r4, r6, r8, r9, sl, fp, ip, lr}^
    3248:	3631746e 	ldrtcc	r7, [r1], -lr, ror #8
    324c:	5f00745f 	svcpl	0x0000745f
    3250:	4e454552 	mcrmi	5, 2, r4, cr5, cr2, {2}
    3254:	4e495f54 	mcrmi	15, 2, r5, cr9, cr4, {2}
    3258:	525f5449 	subspl	r5, pc, #1224736768	; 0x49000000
    325c:	52455345 	subpl	r5, r5, #335544321	; 0x14000001
    3260:	5f444556 	svcpl	0x00444556
    3264:	5f002031 	svcpl	0x00002031
    3268:	4e454552 	mcrmi	5, 2, r4, cr5, cr2, {2}
    326c:	49535f54 	ldmdbmi	r3, {r2, r4, r6, r8, r9, sl, fp, ip, lr}^
    3270:	4c414e47 	mcrrmi	14, 4, r4, r1, cr7
    3274:	4655425f 			; <UNDEFINED> instruction: 0x4655425f
    3278:	72747028 	rsbsvc	r7, r4, #40	; 0x28
    327c:	28282029 	stmdacs	r8!, {r0, r3, r5, sp}
    3280:	29727470 	ldmdbcs	r2!, {r4, r5, r6, sl, ip, sp, lr}^
    3284:	735f3e2d 	cmpvc	pc, #720	; 0x2d0
    3288:	616e6769 	cmnvs	lr, r9, ror #14
    328c:	75625f6c 	strbvc	r5, [r2, #-3948]!	; 0xfffff094
    3290:	47002966 	strmi	r2, [r0, -r6, ror #18]
    3294:	5f4f4950 	svcpl	0x004f4950
    3298:	436e6950 	cmnmi	lr, #80, 18	; 0x140000
    329c:	69666e6f 	stmdbvs	r6!, {r0, r1, r2, r3, r5, r6, r9, sl, fp, sp, lr}^
    32a0:	00745f67 	rsbseq	r5, r4, r7, ror #30
    32a4:	53555f5f 	cmppl	r5, #380	; 0x17c
    32a8:	43415246 	movtmi	r5, #4678	; 0x1246
    32ac:	494d5f54 	stmdbmi	sp, {r2, r4, r6, r8, r9, sl, fp, ip, lr}^
    32b0:	205f5f4e 	subscs	r5, pc, lr, asr #30
    32b4:	55302e30 	ldrpl	r2, [r0, #-3632]!	; 0xfffff1d0
    32b8:	5f005248 	svcpl	0x00005248
    32bc:	6573755f 	ldrbvs	r7, [r3, #-1375]!	; 0xfffffaa1
    32c0:	5f5f2064 	svcpl	0x005f2064
    32c4:	72747461 	rsbsvc	r7, r4, #1627389952	; 0x61000000
    32c8:	74756269 	ldrbtvc	r6, [r5], #-617	; 0xfffffd97
    32cc:	285f5f65 	ldmdacs	pc, {r0, r2, r5, r6, r8, r9, sl, fp, ip, lr}^	; <UNPREDICTABLE>
    32d0:	755f5f28 	ldrbvc	r5, [pc, #-3880]	; 23b0 <_Min_Stack_Size+0x1fb0>
    32d4:	5f646573 	svcpl	0x00646573
    32d8:	0029295f 	eoreq	r2, r9, pc, asr r9
    32dc:	65675f5f 	strbvs	r5, [r7, #-3935]!	; 0xfffff0a1
    32e0:	6972656e 	ldmdbvs	r2!, {r1, r2, r3, r5, r6, r8, sl, sp, lr}^
    32e4:	78652863 	stmdavc	r5!, {r0, r1, r5, r6, fp, sp}^
    32e8:	742c7270 	strtvc	r7, [ip], #-624	; 0xfffffd90
    32ec:	7365792c 	cmnvc	r5, #44, 18	; 0xb0000
    32f0:	296f6e2c 	stmdbcs	pc!, {r2, r3, r5, r9, sl, fp, sp, lr}^	; <UNPREDICTABLE>
    32f4:	65475f20 	strbvs	r5, [r7, #-3872]	; 0xfffff0e0
    32f8:	6972656e 	ldmdbvs	r2!, {r1, r2, r3, r5, r6, r8, sl, sp, lr}^
    32fc:	78652863 	stmdavc	r5!, {r0, r1, r5, r6, fp, sp}^
    3300:	202c7270 	eorcs	r7, ip, r0, ror r2
    3304:	79203a74 	stmdbvc	r0!, {r2, r4, r5, r6, r9, fp, ip, sp}
    3308:	202c7365 	eorcs	r7, ip, r5, ror #6
    330c:	61666564 	cmnvs	r6, r4, ror #10
    3310:	3a746c75 	bcc	1d1e4ec <_Min_Stack_Size+0x1d1e0ec>
    3314:	296f6e20 	stmdbcs	pc!, {r5, r9, sl, fp, sp, lr}^	; <UNPREDICTABLE>
    3318:	415f5f00 	cmpmi	pc, r0, lsl #30
    331c:	4e5f4d52 	mrcmi	13, 2, r4, cr15, cr2, {2}
    3320:	004e4f45 	subeq	r4, lr, r5, asr #30
    3324:	73615f5f 	cmnvc	r1, #380	; 0x17c
    3328:	74726573 	ldrbtvc	r6, [r2], #-1395	; 0xfffffa8d
    332c:	78655f73 	stmdavc	r5!, {r0, r1, r4, r5, r6, r8, r9, sl, fp, ip, lr}^
    3330:	73756c63 	cmnvc	r5, #25344	; 0x6300
    3334:	28657669 	stmdacs	r5!, {r0, r3, r5, r6, r9, sl, ip, sp, lr}^
    3338:	292e2e2e 	stmdbcs	lr!, {r1, r2, r3, r5, r9, sl, fp, sp}
    333c:	6c5f5f20 	mrrcvs	15, 2, r5, pc, cr0	; <UNPREDICTABLE>
    3340:	5f6b636f 	svcpl	0x006b636f
    3344:	6f6e6e61 	svcvs	0x006e6e61
    3348:	65746174 	ldrbvs	r6, [r4, #-372]!	; 0xfffffe8c
    334c:	73736128 	cmnvc	r3, #40, 2
    3350:	5f747265 	svcpl	0x00747265
    3354:	6c637865 	stclvs	8, cr7, [r3], #-404	; 0xfffffe6c
    3358:	76697375 			; <UNDEFINED> instruction: 0x76697375
    335c:	6f6c5f65 	svcvs	0x006c5f65
    3360:	5f286b63 	svcpl	0x00286b63
    3364:	5f41565f 	svcpl	0x0041565f
    3368:	53475241 	movtpl	r5, #29249	; 0x7241
    336c:	29295f5f 	stmdbcs	r9!, {r0, r1, r2, r3, r4, r6, r8, r9, sl, fp, ip, lr}
    3370:	555f5f00 	ldrbpl	r5, [pc, #-3840]	; 2478 <_Min_Stack_Size+0x2078>
    3374:	38544e49 	ldmdacc	r4, {r0, r3, r6, r9, sl, fp, lr}^
    3378:	58414d5f 	stmdapl	r1, {r0, r1, r2, r3, r4, r6, r8, sl, fp, lr}^
    337c:	30205f5f 	eorcc	r5, r0, pc, asr pc
    3380:	00666678 	rsbeq	r6, r6, r8, ror r6
    3384:	695f5f5f 	ldmdbvs	pc, {r0, r1, r2, r3, r4, r6, r8, r9, sl, fp, ip, lr}^	; <UNPREDICTABLE>
    3388:	3631746e 	ldrtcc	r7, [r1], -lr, ror #8
    338c:	645f745f 	ldrbvs	r7, [pc], #-1119	; 3394 <_Min_Stack_Size+0x2f94>
    3390:	6e696665 	cdpvs	6, 6, cr6, cr9, cr5, {3}
    3394:	31206465 			; <UNDEFINED> instruction: 0x31206465
    3398:	45525f00 	ldrbmi	r5, [r2, #-3840]	; 0xfffff100
    339c:	20544e45 	subscs	r4, r4, r5, asr #28
    33a0:	706d695f 	rsbvc	r6, sp, pc, asr r9
    33a4:	5f657275 	svcpl	0x00657275
    33a8:	00727470 	rsbseq	r7, r2, r0, ror r4
    33ac:	444c5f5f 	strbmi	r5, [ip], #-3935	; 0xfffff0a1
    33b0:	4d5f4c42 	ldclmi	12, cr4, [pc, #-264]	; 32b0 <_Min_Stack_Size+0x2eb0>
    33b4:	455f5841 	ldrbmi	r5, [pc, #-2113]	; 2b7b <_Min_Stack_Size+0x277b>
    33b8:	5f5f5058 	svcpl	0x005f5058
    33bc:	32303120 	eorscc	r3, r0, #32, 2
    33c0:	32490034 	subcc	r0, r9, #52	; 0x34
    33c4:	52535f43 	subspl	r5, r3, #268	; 0x10c
    33c8:	46415f31 			; <UNDEFINED> instruction: 0x46415f31
    33cc:	6b734d5f 	blvs	1cd6950 <_Min_Stack_Size+0x1cd6550>
    33d0:	78302820 	ldmdavc	r0!, {r5, fp, sp}
    33d4:	204c5531 	subcs	r5, ip, r1, lsr r5
    33d8:	49203c3c 	stmdbmi	r0!, {r2, r3, r4, r5, sl, fp, ip, sp}
    33dc:	535f4332 	cmppl	pc, #-939524096	; 0xc8000000
    33e0:	415f3152 	cmpmi	pc, r2, asr r1	; <UNPREDICTABLE>
    33e4:	6f505f46 	svcvs	0x00505f46
    33e8:	45002973 	strmi	r2, [r0, #-2419]	; 0xfffff68d
    33ec:	5f495458 	svcpl	0x00495458
    33f0:	436e6950 	cmnmi	lr, #80, 18	; 0x140000
    33f4:	69666e6f 	stmdbvs	r6!, {r0, r1, r2, r3, r5, r6, r9, sl, fp, sp, lr}^
    33f8:	00745f67 	rsbseq	r5, r4, r7, ror #30
    33fc:	49545845 	ldmdbmi	r4, {r0, r2, r6, fp, ip, lr}^
    3400:	52495f32 	subpl	r5, r9, #50, 30	; 0xc8
    3404:	00382051 	eorseq	r2, r8, r1, asr r0
    3408:	78655f5f 	stmdavc	r5!, {r0, r1, r2, r3, r4, r6, r8, r9, sl, fp, ip, lr}^
    340c:	74726f70 	ldrbtvc	r6, [r2], #-3952	; 0xfffff090
    3410:	5f206465 	svcpl	0x00206465
    3414:	7474615f 	ldrbtvc	r6, [r4], #-351	; 0xfffffea1
    3418:	75626972 	strbvc	r6, [r2, #-2418]!	; 0xfffff68e
    341c:	5f5f6574 	svcpl	0x005f6574
    3420:	5f5f2828 	svcpl	0x005f2828
    3424:	69736976 	ldmdbvs	r3!, {r1, r2, r4, r5, r6, r8, fp, sp, lr}^
    3428:	696c6962 	stmdbvs	ip!, {r1, r5, r6, r8, fp, sp, lr}^
    342c:	5f5f7974 	svcpl	0x005f7974
    3430:	65642228 	strbvs	r2, [r4, #-552]!	; 0xfffffdd8
    3434:	6c756166 	ldfvse	f6, [r5], #-408	; 0xfffffe68
    3438:	29292274 	stmdbcs	r9!, {r2, r4, r5, r6, r9, sp}
    343c:	5f5f0029 	svcpl	0x005f0029
    3440:	53434353 	movtpl	r4, #13139	; 0x3353
    3444:	73284449 			; <UNDEFINED> instruction: 0x73284449
    3448:	74732029 	ldrbtvc	r2, [r3], #-41	; 0xffffffd7
    344c:	74637572 	strbtvc	r7, [r3], #-1394	; 0xfffffa8e
    3450:	685f5f20 	ldmdavs	pc, {r5, r8, r9, sl, fp, ip, lr}^	; <UNPREDICTABLE>
    3454:	006b6361 	rsbeq	r6, fp, r1, ror #6
    3458:	42445f5f 	submi	r5, r4, #380	; 0x17c
    345c:	41485f4c 	cmpmi	r8, ip, asr #30
    3460:	45445f53 	strbmi	r5, [r4, #-3923]	; 0xfffff0ad
    3464:	4d524f4e 	ldclmi	15, cr4, [r2, #-312]	; 0xfffffec8
    3468:	31205f5f 			; <UNDEFINED> instruction: 0x31205f5f
    346c:	6c5f5f00 	mrrcvs	15, 0, r5, pc, cr0	; <UNPREDICTABLE>
    3470:	5f6b636f 	svcpl	0x006b636f
    3474:	5f797274 	svcpl	0x00797274
    3478:	75716361 	ldrbvc	r6, [r1, #-865]!	; 0xfffffc9f
    347c:	5f657269 	svcpl	0x00657269
    3480:	75636572 	strbvc	r6, [r3, #-1394]!	; 0xfffffa8e
    3484:	76697372 			; <UNDEFINED> instruction: 0x76697372
    3488:	6f6c2865 	svcvs	0x006c2865
    348c:	20296b63 	eorcs	r6, r9, r3, ror #22
    3490:	65725f5f 	ldrbvs	r5, [r2, #-3935]!	; 0xfffff0a1
    3494:	67726174 			; <UNDEFINED> instruction: 0x67726174
    3498:	6c5f7465 	cfldrdvs	mvd7, [pc], {101}	; 0x65
    349c:	5f6b636f 	svcpl	0x006b636f
    34a0:	5f797274 	svcpl	0x00797274
    34a4:	75716361 	ldrbvc	r6, [r1, #-865]!	; 0xfffffc9f
    34a8:	5f657269 	svcpl	0x00657269
    34ac:	75636572 	strbvc	r6, [r3, #-1394]!	; 0xfffffa8e
    34b0:	76697372 			; <UNDEFINED> instruction: 0x76697372
    34b4:	6f6c2865 	svcvs	0x006c2865
    34b8:	00296b63 	eoreq	r6, r9, r3, ror #22
    34bc:	4545525f 	strbmi	r5, [r5, #-607]	; 0xfffffda1
    34c0:	455f544e 	ldrbmi	r5, [pc, #-1102]	; 307a <_Min_Stack_Size+0x2c7a>
    34c4:	4f4e5252 	svcmi	0x004e5252
    34c8:	74705f28 	ldrbtvc	r5, [r0], #-3880	; 0xfffff0d8
    34cc:	28202972 	stmdacs	r0!, {r1, r4, r5, r6, r8, fp, sp}
    34d0:	74705f28 	ldrbtvc	r5, [r0], #-3880	; 0xfffff0d8
    34d4:	3e2d2972 			; <UNDEFINED> instruction: 0x3e2d2972
    34d8:	7272655f 	rsbsvc	r6, r2, #398458880	; 0x17c00000
    34dc:	00296f6e 	eoreq	r6, r9, lr, ror #30
    34e0:	43435f5f 	movtmi	r5, #16223	; 0x3f5f
    34e4:	5055535f 	subspl	r5, r5, pc, asr r3
    34e8:	54524f50 	ldrbpl	r4, [r2], #-3920	; 0xfffff0b0
    34ec:	5f5f5f53 	svcpl	0x005f5f53
    34f0:	494c4e49 	stmdbmi	ip, {r0, r3, r6, r9, sl, fp, lr}^
    34f4:	3120454e 			; <UNDEFINED> instruction: 0x3120454e
    34f8:	424d5f00 	submi	r5, sp, #0, 30
    34fc:	4e454c5f 	mcrmi	12, 2, r4, cr5, cr15, {2}
    3500:	58414d5f 	stmdapl	r1, {r0, r1, r2, r3, r4, r6, r8, sl, fp, lr}^
    3504:	49003120 	stmdbmi	r0, {r5, r8, ip, sp}
    3508:	414d544e 	cmpmi	sp, lr, asr #8
    350c:	414d5f58 	cmpmi	sp, r8, asr pc
    3510:	5f282058 	svcpl	0x00282058
    3514:	544e495f 	strbpl	r4, [lr], #-2399	; 0xfffff6a1
    3518:	5f58414d 	svcpl	0x0058414d
    351c:	5f58414d 	svcpl	0x0058414d
    3520:	4900295f 	stmdbmi	r0, {r0, r1, r2, r3, r4, r6, r8, fp, sp}
    3524:	3233544e 	eorscc	r5, r3, #1308622848	; 0x4e000000
    3528:	58414d5f 	stmdapl	r1, {r0, r1, r2, r3, r4, r6, r8, sl, fp, lr}^
    352c:	5f5f2820 	svcpl	0x005f2820
    3530:	33544e49 	cmpcc	r4, #1168	; 0x490
    3534:	414d5f32 	cmpmi	sp, r2, lsr pc
    3538:	295f5f58 	ldmdbcs	pc, {r3, r4, r6, r8, r9, sl, fp, ip, lr}^	; <UNPREDICTABLE>
    353c:	49504700 	ldmdbmi	r0, {r8, r9, sl, lr}^
    3540:	425f454f 	subsmi	r4, pc, #331350016	; 0x13c00000
    3544:	20455341 	subcs	r5, r5, r1, asr #6
    3548:	72655028 	rsbvc	r5, r5, #40	; 0x28
    354c:	65687069 	strbvs	r7, [r8, #-105]!	; 0xffffff97
    3550:	736c6172 	cmnvc	ip, #-2147483620	; 0x8000001c
    3554:	5341425f 	movtpl	r4, #4703	; 0x125f
    3558:	202b2045 	eorcs	r2, fp, r5, asr #32
    355c:	30307830 	eorscc	r7, r0, r0, lsr r8
    3560:	38313130 	ldmdacc	r1!, {r4, r5, r8, ip, sp}
    3564:	4c553030 	mrrcmi	0, 3, r3, r5, cr0
    3568:	53550029 	cmppl	r5, #41	; 0x29
    356c:	31545241 	cmpcc	r4, r1, asr #4
    3570:	5341425f 	movtpl	r4, #4703	; 0x125f
    3574:	50282045 	eorpl	r2, r8, r5, asr #32
    3578:	70697265 	rsbvc	r7, r9, r5, ror #4
    357c:	61726568 	cmnvs	r2, r8, ror #10
    3580:	425f736c 	subsmi	r7, pc, #108, 6	; 0xb0000001
    3584:	20455341 	subcs	r5, r5, r1, asr #6
    3588:	7830202b 	ldmdavc	r0!, {r0, r1, r3, r5, sp}
    358c:	31303030 	teqcc	r0, r0, lsr r0
    3590:	30303833 	eorscc	r3, r0, r3, lsr r8
    3594:	00294c55 	eoreq	r4, r9, r5, asr ip
    3598:	4545525f 	strbmi	r5, [r5, #-607]	; 0xfffffda1
    359c:	495f544e 	ldmdbmi	pc, {r1, r2, r3, r6, sl, ip, lr}^	; <UNPREDICTABLE>
    35a0:	5f28434e 	svcpl	0x0028434e
    35a4:	29727470 	ldmdbcs	r2!, {r4, r5, r6, sl, ip, sp, lr}^
    35a8:	5f282820 	svcpl	0x00282820
    35ac:	29727470 	ldmdbcs	r2!, {r4, r5, r6, sl, ip, sp, lr}^
    35b0:	695f3e2d 	ldmdbvs	pc, {r0, r2, r3, r5, r9, sl, fp, ip, sp}^	; <UNPREDICTABLE>
    35b4:	0029636e 	eoreq	r6, r9, lr, ror #6
    35b8:	41445f5f 	cmpmi	r4, pc, asr pc
    35bc:	4942465f 	stmdbmi	r2, {r0, r1, r2, r3, r4, r6, r9, sl, lr}^
    35c0:	205f5f54 	subscs	r5, pc, r4, asr pc	; <UNPREDICTABLE>
    35c4:	5f003133 	svcpl	0x00003133
    35c8:	4e454552 	mcrmi	5, 2, r4, cr5, cr2, {2}
    35cc:	54535f54 	ldrbpl	r5, [r3], #-3924	; 0xfffff0ac
    35d0:	284e4944 	stmdacs	lr, {r2, r6, r8, fp, lr}^
    35d4:	7274705f 	rsbsvc	r7, r4, #95	; 0x5f
    35d8:	28282029 	stmdacs	r8!, {r0, r3, r5, sp}
    35dc:	7274705f 	rsbsvc	r7, r4, #95	; 0x5f
    35e0:	5f3e2d29 	svcpl	0x003e2d29
    35e4:	69647473 	stmdbvs	r4!, {r0, r1, r4, r5, r6, sl, ip, sp, lr}^
    35e8:	4900296e 	stmdbmi	r0, {r1, r2, r3, r5, r6, r8, fp, sp}
    35ec:	435f4332 	cmpmi	pc, #-939524096	; 0xc8000000
    35f0:	505f3152 	subspl	r3, pc, r2, asr r1	; <UNPREDICTABLE>
    35f4:	32492045 	subcc	r2, r9, #69	; 0x45
    35f8:	52435f43 	subpl	r5, r3, #268	; 0x10c
    35fc:	45505f31 	ldrbmi	r5, [r0, #-3889]	; 0xfffff0cf
    3600:	6b734d5f 	blvs	1cd6b84 <_Min_Stack_Size+0x1cd6784>
    3604:	475f5f00 	ldrbmi	r5, [pc, -r0, lsl #30]
    3608:	415f5858 	cmpmi	pc, r8, asr r8	; <UNPREDICTABLE>
    360c:	565f4942 	ldrbpl	r4, [pc], -r2, asr #18
    3610:	49535245 	ldmdbmi	r3, {r0, r2, r6, r9, ip, lr}^
    3614:	31204e4f 			; <UNDEFINED> instruction: 0x31204e4f
    3618:	00363130 	eorseq	r3, r6, r0, lsr r1
    361c:	4349564e 	movtmi	r5, #38478	; 0x964e
    3620:	5152495f 	cmppl	r2, pc, asr r9
    3624:	495f3433 	ldmdbmi	pc, {r0, r1, r4, r5, sl, ip, sp}^	; <UNPREDICTABLE>
    3628:	5f324332 	svcpl	0x00324332
    362c:	455f5245 	ldrbmi	r5, [pc, #-581]	; 33ef <_Min_Stack_Size+0x2fef>
    3630:	6c62616e 	stfvse	f6, [r2], #-440	; 0xfffffe48
    3634:	4e282065 	cdpmi	0, 2, cr2, cr8, cr5, {3}
    3638:	5f434956 	svcpl	0x00434956
    363c:	52455349 	subpl	r5, r5, #603979777	; 0x24000001
    3640:	3d7c2031 	ldclcc	0, cr2, [ip, #-196]!	; 0xffffff3c
    3644:	3c3c3120 	ldfccs	f3, [ip], #-128	; 0xffffff80
    3648:	32492028 	subcc	r2, r9, #40	; 0x28
    364c:	455f3243 	ldrbmi	r3, [pc, #-579]	; 3411 <_Min_Stack_Size+0x3011>
    3650:	52495f52 	subpl	r5, r9, #328	; 0x148
    3654:	202d2051 	eorcs	r2, sp, r1, asr r0
    3658:	29203233 	stmdbcs	r0!, {r0, r1, r4, r5, r9, ip, sp}
    365c:	5f5f0029 	svcpl	0x005f0029
    3660:	5f544e49 	svcpl	0x00544e49
    3664:	5341454c 	movtpl	r4, #5452	; 0x154c
    3668:	5f363154 	svcpl	0x00363154
    366c:	5f58414d 	svcpl	0x0058414d
    3670:	7830205f 	ldmdavc	r0!, {r0, r1, r2, r3, r4, r6, sp}
    3674:	66666637 			; <UNDEFINED> instruction: 0x66666637
    3678:	43324900 	teqmi	r2, #0, 18
    367c:	3152535f 	cmpcc	r2, pc, asr r3
    3680:	4558545f 	ldrbmi	r5, [r8, #-1119]	; 0xfffffba1
    3684:	736f505f 	cmnvc	pc, #95	; 0x5f
    3688:	55372820 	ldrpl	r2, [r7, #-2080]!	; 0xfffff7e0
    368c:	5f5f0029 	svcpl	0x005f0029
    3690:	5f544c46 	svcpl	0x00544c46
    3694:	4f4e4544 	svcmi	0x004e4544
    3698:	4d5f4d52 	ldclmi	13, cr4, [pc, #-328]	; 3558 <_Min_Stack_Size+0x3158>
    369c:	5f5f4e49 	svcpl	0x005f4e49
    36a0:	342e3120 	strtcc	r3, [lr], #-288	; 0xfffffee0
    36a4:	39323130 	ldmdbcc	r2!, {r4, r5, r8, ip, sp}
    36a8:	34363438 	ldrtcc	r3, [r6], #-1080	; 0xfffffbc8
    36ac:	38343233 	ldmdacc	r4!, {r0, r1, r4, r5, r9, ip, sp}
    36b0:	65313731 	ldrvs	r3, [r1, #-1841]!	; 0xfffff8cf
    36b4:	4635342d 	ldrtmi	r3, [r5], -sp, lsr #8
    36b8:	50414d00 	subpl	r4, r1, r0, lsl #26
    36bc:	55003252 	strpl	r3, [r0, #-594]	; 0xfffffdae
    36c0:	5f544e49 	svcpl	0x00544e49
    36c4:	54534146 	ldrbpl	r4, [r3], #-326	; 0xfffffeba
    36c8:	4d5f3631 	ldclmi	6, cr3, [pc, #-196]	; 360c <_Min_Stack_Size+0x320c>
    36cc:	28205841 	stmdacs	r0!, {r0, r6, fp, ip, lr}
    36d0:	49555f5f 	ldmdbmi	r5, {r0, r1, r2, r3, r4, r6, r8, r9, sl, fp, ip, lr}^
    36d4:	465f544e 	ldrbmi	r5, [pc], -lr, asr #8
    36d8:	31545341 	cmpcc	r4, r1, asr #6
    36dc:	414d5f36 	cmpmi	sp, r6, lsr pc
    36e0:	295f5f58 	ldmdbcs	pc, {r3, r4, r6, r8, r9, sl, fp, ip, lr}^	; <UNPREDICTABLE>
    36e4:	725f5f00 	subsvc	r5, pc, #0, 30
    36e8:	72757465 	rsbsvc	r7, r5, #1694498816	; 0x65000000
    36ec:	745f736e 	ldrbvc	r7, [pc], #-878	; 36f4 <_Min_Stack_Size+0x32f4>
    36f0:	65636977 	strbvs	r6, [r3, #-2423]!	; 0xfffff689
    36f4:	615f5f20 	cmpvs	pc, r0, lsr #30
    36f8:	69727474 	ldmdbvs	r2!, {r2, r4, r5, r6, sl, ip, sp, lr}^
    36fc:	65747562 	ldrbvs	r7, [r4, #-1378]!	; 0xfffffa9e
    3700:	28285f5f 	stmdacs	r8!, {r0, r1, r2, r3, r4, r6, r8, r9, sl, fp, ip, lr}
    3704:	65725f5f 	ldrbvs	r5, [r2, #-3935]!	; 0xfffff0a1
    3708:	6e727574 	mrcvs	5, 3, r7, cr2, cr4, {3}
    370c:	77745f73 			; <UNDEFINED> instruction: 0x77745f73
    3710:	5f656369 	svcpl	0x00656369
    3714:	0029295f 	eoreq	r2, r9, pc, asr r9
    3718:	65725f5f 	ldrbvs	r5, [r2, #-3935]!	; 0xfffff0a1
    371c:	72697571 	rsbvc	r7, r9, #473956352	; 0x1c400000
    3720:	735f7365 	cmpvc	pc, #-1811939327	; 0x94000001
    3724:	65726168 	ldrbvs	r6, [r2, #-360]!	; 0xfffffe98
    3728:	2e2e2864 	cdpcs	8, 2, cr2, cr14, cr4, {3}
    372c:	5f20292e 	svcpl	0x0020292e
    3730:	636f6c5f 	cmnvs	pc, #24320	; 0x5f00
    3734:	6e615f6b 	cdpvs	15, 6, cr5, cr1, cr11, {3}
    3738:	61746f6e 	cmnvs	r4, lr, ror #30
    373c:	73286574 			; <UNDEFINED> instruction: 0x73286574
    3740:	65726168 	ldrbvs	r6, [r2, #-360]!	; 0xfffffe98
    3744:	6f6c5f64 	svcvs	0x006c5f64
    3748:	5f736b63 	svcpl	0x00736b63
    374c:	75716572 	ldrbvc	r6, [r1, #-1394]!	; 0xfffffa8e
    3750:	64657269 	strbtvs	r7, [r5], #-617	; 0xfffffd97
    3754:	565f5f28 	ldrbpl	r5, [pc], -r8, lsr #30
    3758:	52415f41 	subpl	r5, r1, #260	; 0x104
    375c:	5f5f5347 	svcpl	0x005f5347
    3760:	5f002929 	svcpl	0x00002929
    3764:	5f444e45 	svcpl	0x00444e45
    3768:	5f445453 	svcpl	0x00445453
    376c:	45002043 	strmi	r2, [r0, #-67]	; 0xffffffbd
    3770:	37495458 	smlsldcc	r5, r9, r8, r4
    3774:	20374150 	eorscs	r4, r7, r0, asr r1
    3778:	54584528 	ldrbpl	r4, [r8], #-1320	; 0xfffffad8
    377c:	50475f49 	subpl	r5, r7, r9, asr #30
    3780:	4d5f4f49 	ldclmi	15, cr4, [pc, #-292]	; 3664 <_Min_Stack_Size+0x3264>
    3784:	69707061 	ldmdbvs	r0!, {r0, r5, r6, ip, sp, lr}^
    3788:	745f676e 	ldrbvc	r6, [pc], #-1902	; 3790 <_Min_Stack_Size+0x3390>
    378c:	58457b29 	stmdapl	r5, {r0, r3, r5, r8, r9, fp, ip, sp, lr}^
    3790:	2c374954 			; <UNDEFINED> instruction: 0x2c374954
    3794:	49504720 	ldmdbmi	r0, {r5, r8, r9, sl, lr}^
    3798:	2c20414f 	stfcss	f4, [r0], #-316	; 0xfffffec4
    379c:	49504720 	ldmdbmi	r0, {r5, r8, r9, sl, lr}^
    37a0:	49505f4f 	ldmdbmi	r0, {r0, r1, r2, r3, r6, r8, r9, sl, fp, ip, lr}^
    37a4:	20375f4e 	eorscs	r5, r7, lr, asr #30
    37a8:	5845202c 	stmdapl	r5, {r2, r3, r5, sp}^
    37ac:	5f374954 	svcpl	0x00374954
    37b0:	20515249 	subscs	r5, r1, r9, asr #4
    37b4:	4955007d 	ldmdbmi	r5, {r0, r2, r3, r4, r5, r6}^
    37b8:	4c5f544e 	cfldrdmi	mvd5, [pc], {78}	; 0x4e
    37bc:	54534145 	ldrbpl	r4, [r3], #-325	; 0xfffffebb
    37c0:	4d5f3631 	ldclmi	6, cr3, [pc, #-196]	; 3704 <_Min_Stack_Size+0x3304>
    37c4:	28205841 	stmdacs	r0!, {r0, r6, fp, ip, lr}
    37c8:	49555f5f 	ldmdbmi	r5, {r0, r1, r2, r3, r4, r6, r8, r9, sl, fp, ip, lr}^
    37cc:	4c5f544e 	cfldrdmi	mvd5, [pc], {78}	; 0x4e
    37d0:	54534145 	ldrbpl	r4, [r3], #-325	; 0xfffffebb
    37d4:	4d5f3631 	ldclmi	6, cr3, [pc, #-196]	; 3718 <_Min_Stack_Size+0x3318>
    37d8:	5f5f5841 	svcpl	0x005f5841
    37dc:	5f5f0029 	svcpl	0x005f0029
    37e0:	544e4955 	strbpl	r4, [lr], #-2389	; 0xfffff6ab
    37e4:	435f3233 	cmpmi	pc, #805306371	; 0x30000003
    37e8:	20296328 	eorcs	r6, r9, r8, lsr #6
    37ec:	23232063 			; <UNDEFINED> instruction: 0x23232063
    37f0:	004c5520 	subeq	r5, ip, r0, lsr #10
    37f4:	5f433249 	svcpl	0x00433249
    37f8:	5f325253 	svcpl	0x00325253
    37fc:	5f434550 	svcpl	0x00434550
    3800:	20736f50 	rsbscs	r6, r3, r0, asr pc
    3804:	29553828 	ldmdbcs	r5, {r3, r5, fp, ip, sp}^
    3808:	54584500 	ldrbpl	r4, [r8], #-1280	; 0xfffffb00
    380c:	41503249 	cmpmi	r0, r9, asr #4
    3810:	45282032 	strmi	r2, [r8, #-50]!	; 0xffffffce
    3814:	5f495458 	svcpl	0x00495458
    3818:	4f495047 	svcmi	0x00495047
    381c:	70614d5f 	rsbvc	r4, r1, pc, asr sp
    3820:	676e6970 			; <UNDEFINED> instruction: 0x676e6970
    3824:	7b29745f 	blvc	a609a8 <_Min_Stack_Size+0xa605a8>
    3828:	49545845 	ldmdbmi	r4, {r0, r2, r6, fp, ip, lr}^
    382c:	47202c32 			; <UNDEFINED> instruction: 0x47202c32
    3830:	414f4950 	cmpmi	pc, r0, asr r9	; <UNPREDICTABLE>
    3834:	47202c20 	strmi	r2, [r0, -r0, lsr #24]!
    3838:	5f4f4950 	svcpl	0x004f4950
    383c:	5f4e4950 	svcpl	0x004e4950
    3840:	202c2032 	eorcs	r2, ip, r2, lsr r0
    3844:	49545845 	ldmdbmi	r4, {r0, r2, r6, fp, ip, lr}^
    3848:	52495f32 	subpl	r5, r9, #50, 30	; 0xc8
    384c:	007d2051 	rsbseq	r2, sp, r1, asr r0
    3850:	41555f5f 	cmpmi	r5, pc, asr pc
    3854:	4d554343 	ldclmi	3, cr4, [r5, #-268]	; 0xfffffef4
    3858:	4e494d5f 	mcrmi	13, 2, r4, cr9, cr15, {2}
    385c:	30205f5f 	eorcc	r5, r0, pc, asr pc
    3860:	4b55302e 	blmi	154f920 <_Min_Stack_Size+0x154f520>
    3864:	45525f00 	ldrbmi	r5, [r2, #-3840]	; 0xfffff100
    3868:	5f544e45 	svcpl	0x00544e45
    386c:	4f54424d 	svcmi	0x0054424d
    3870:	535f4357 	cmppl	pc, #1543503873	; 0x5c000001
    3874:	45544154 	ldrbmi	r4, [r4, #-340]	; 0xfffffeac
    3878:	72747028 	rsbsvc	r7, r4, #40	; 0x28
    387c:	28282029 	stmdacs	r8!, {r0, r3, r5, sp}
    3880:	29727470 	ldmdbcs	r2!, {r4, r5, r6, sl, ip, sp, lr}^
    3884:	6d5f3e2d 	ldclvs	14, cr3, [pc, #-180]	; 37d8 <_Min_Stack_Size+0x33d8>
    3888:	2d637369 	stclcs	3, cr7, [r3, #-420]!	; 0xfffffe5c
    388c:	626d5f3e 	rsbvs	r5, sp, #62, 30	; 0xf8
    3890:	63776f74 	cmnvs	r7, #116, 30	; 0x1d0
    3894:	6174735f 	cmnvs	r4, pc, asr r3
    3898:	00296574 	eoreq	r6, r9, r4, ror r5
    389c:	6c754e5f 	ldclvs	14, cr4, [r5], #-380	; 0xfffffe84
    38a0:	6e755f6c 	cdpvs	15, 7, cr5, cr5, cr12, {3}
    38a4:	63657073 	cmnvs	r5, #115	; 0x73
    38a8:	65696669 	strbvs	r6, [r9, #-1641]!	; 0xfffff997
    38ac:	5f002064 	svcpl	0x00002064
    38b0:	544c465f 	strbpl	r4, [ip], #-1631	; 0xfffff9a1
    38b4:	5350455f 	cmppl	r0, #398458880	; 0x17c00000
    38b8:	4e4f4c49 	cdpmi	12, 4, cr4, cr15, cr9, {2}
    38bc:	31205f5f 			; <UNDEFINED> instruction: 0x31205f5f
    38c0:	3239312e 	eorscc	r3, r9, #-2147483637	; 0x8000000b
    38c4:	38323930 	ldmdacc	r2!, {r4, r5, r8, fp, ip, sp}
    38c8:	30353539 	eorscc	r3, r5, r9, lsr r5
    38cc:	32313837 	eorscc	r3, r1, #3604480	; 0x370000
    38d0:	372d6535 			; <UNDEFINED> instruction: 0x372d6535
    38d4:	5f5f0046 	svcpl	0x005f0046
    38d8:	52545358 	subspl	r5, r4, #88, 6	; 0x60000001
    38dc:	28474e49 	stmdacs	r7, {r0, r3, r6, r9, sl, fp, lr}^
    38e0:	5f202978 	svcpl	0x00202978
    38e4:	5254535f 	subspl	r5, r4, #2080374785	; 0x7c000001
    38e8:	28474e49 	stmdacs	r7, {r0, r3, r6, r9, sl, fp, lr}^
    38ec:	5f002978 	svcpl	0x00002978
    38f0:	7474615f 	ldrbtvc	r6, [r4], #-351	; 0xfffffea1
    38f4:	75626972 	strbvc	r6, [r2, #-2418]!	; 0xfffff68e
    38f8:	705f6574 	subsvc	r6, pc, r4, ror r5	; <UNPREDICTABLE>
    38fc:	5f657275 	svcpl	0x00657275
    3900:	5f00205f 	svcpl	0x0000205f
    3904:	4343475f 	movtmi	r4, #14175	; 0x375f
    3908:	4f54415f 	svcmi	0x0054415f
    390c:	5f43494d 	svcpl	0x0043494d
    3910:	524f4853 	subpl	r4, pc, #5439488	; 0x530000
    3914:	4f4c5f54 	svcmi	0x004c5f54
    3918:	465f4b43 	ldrbmi	r4, [pc], -r3, asr #22
    391c:	20454552 	subcs	r4, r5, r2, asr r5
    3920:	58450032 	stmdapl	r5, {r1, r4, r5}^
    3924:	425f4954 	subsmi	r4, pc, #84, 18	; 0x150000
    3928:	20455341 	subcs	r5, r5, r1, asr #6
    392c:	72655028 	rsbvc	r5, r5, #40	; 0x28
    3930:	65687069 	strbvs	r7, [r8, #-105]!	; 0xffffff97
    3934:	736c6172 	cmnvc	ip, #-2147483620	; 0x8000001c
    3938:	5341425f 	movtpl	r4, #4703	; 0x125f
    393c:	202b2045 	eorcs	r2, fp, r5, asr #32
    3940:	30307830 	eorscc	r7, r0, r0, lsr r8
    3944:	34303130 	ldrtcc	r3, [r0], #-304	; 0xfffffed0
    3948:	4c553030 	mrrcmi	0, 3, r3, r5, cr0
    394c:	564e0029 	strbpl	r0, [lr], -r9, lsr #32
    3950:	495f4349 	ldmdbmi	pc, {r0, r3, r6, r8, r9, lr}^	; <UNPREDICTABLE>
    3954:	30345152 	eorscc	r5, r4, r2, asr r1
    3958:	5458455f 	ldrbpl	r4, [r8], #-1375	; 0xfffffaa1
    395c:	5f303149 	svcpl	0x00303149
    3960:	455f3531 	ldrbmi	r3, [pc, #-1329]	; 3437 <_Min_Stack_Size+0x3037>
    3964:	6c62616e 	stfvse	f6, [r2], #-440	; 0xfffffe48
    3968:	4e282065 	cdpmi	0, 2, cr2, cr8, cr5, {3}
    396c:	5f434956 	svcpl	0x00434956
    3970:	52455349 	subpl	r5, r5, #603979777	; 0x24000001
    3974:	3d7c2031 	ldclcc	0, cr2, [ip, #-196]!	; 0xffffff3c
    3978:	3c3c3120 	ldfccs	f3, [ip], #-128	; 0xffffff80
    397c:	45002938 	strmi	r2, [r0, #-2360]	; 0xfffff6c8
    3980:	35495458 	strbcc	r5, [r9, #-1112]	; 0xfffffba8
    3984:	20354450 	eorscs	r4, r5, r0, asr r4
    3988:	54584528 	ldrbpl	r4, [r8], #-1320	; 0xfffffad8
    398c:	50475f49 	subpl	r5, r7, r9, asr #30
    3990:	4d5f4f49 	ldclmi	15, cr4, [pc, #-292]	; 3874 <_Min_Stack_Size+0x3474>
    3994:	69707061 	ldmdbvs	r0!, {r0, r5, r6, ip, sp, lr}^
    3998:	745f676e 	ldrbvc	r6, [pc], #-1902	; 39a0 <_Min_Stack_Size+0x35a0>
    399c:	58457b29 	stmdapl	r5, {r0, r3, r5, r8, r9, fp, ip, sp, lr}^
    39a0:	20354954 	eorscs	r4, r5, r4, asr r9
    39a4:	5047202c 	subpl	r2, r7, ip, lsr #32
    39a8:	20444f49 	subcs	r4, r4, r9, asr #30
    39ac:	5047202c 	subpl	r2, r7, ip, lsr #32
    39b0:	505f4f49 	subspl	r4, pc, r9, asr #30
    39b4:	355f4e49 	ldrbcc	r4, [pc, #-3657]	; 2b73 <_Min_Stack_Size+0x2773>
    39b8:	45202c20 	strmi	r2, [r0, #-3104]!	; 0xfffff3e0
    39bc:	35495458 	strbcc	r5, [r9, #-1112]	; 0xfffffba8
    39c0:	5152495f 	cmppl	r2, pc, asr r9
    39c4:	5f5f007d 	svcpl	0x005f007d
    39c8:	44525450 	ldrbmi	r5, [r2], #-1104	; 0xfffffbb0
    39cc:	5f464649 	svcpl	0x00464649
    39d0:	45505954 	ldrbmi	r5, [r0, #-2388]	; 0xfffff6ac
    39d4:	69205f5f 	stmdbvs	r0!, {r0, r1, r2, r3, r4, r6, r8, r9, sl, fp, ip, lr}
    39d8:	4e00746e 	cdpmi	4, 0, cr7, cr0, cr14, {3}
    39dc:	5f434956 	svcpl	0x00434956
    39e0:	31515249 	cmpcc	r1, r9, asr #4
    39e4:	58455f30 	stmdapl	r5, {r4, r5, r8, r9, sl, fp, ip, lr}^
    39e8:	5f344954 	svcpl	0x00344954
    39ec:	62616e45 	rsbvs	r6, r1, #1104	; 0x450
    39f0:	2820656c 	stmdacs	r0!, {r2, r3, r5, r6, r8, sl, sp, lr}
    39f4:	4349564e 	movtmi	r5, #38478	; 0x964e
    39f8:	4553495f 	ldrbmi	r4, [r3, #-2399]	; 0xfffff6a1
    39fc:	7c203052 	stcvc	0, cr3, [r0], #-328	; 0xfffffeb8
    3a00:	3c31203d 	ldccc	0, cr2, [r1], #-244	; 0xffffff0c
    3a04:	2930313c 	ldmdbcs	r0!, {r2, r3, r4, r5, r8, ip, sp}
    3a08:	415f5f00 	cmpmi	pc, r0, lsl #30
    3a0c:	415f4d52 	cmpmi	pc, r2, asr sp	; <UNPREDICTABLE>
    3a10:	5f484352 	svcpl	0x00484352
    3a14:	5f415349 	svcpl	0x00415349
    3a18:	4d554854 	ldclmi	8, cr4, [r5, #-336]	; 0xfffffeb0
    3a1c:	32490042 	subcc	r0, r9, #66	; 0x42
    3a20:	52535f43 	subspl	r5, r3, #268	; 0x10c
    3a24:	42535f31 	subsmi	r5, r3, #49, 30	; 0xc4
    3a28:	6b734d5f 	blvs	1cd6fac <_Min_Stack_Size+0x1cd6bac>
    3a2c:	78302820 	ldmdavc	r0!, {r5, fp, sp}
    3a30:	204c5531 	subcs	r5, ip, r1, lsr r5
    3a34:	49203c3c 	stmdbmi	r0!, {r2, r3, r4, r5, sl, fp, ip, sp}
    3a38:	535f4332 	cmppl	pc, #-939524096	; 0xc8000000
    3a3c:	535f3152 	cmppl	pc, #-2147483628	; 0x80000014
    3a40:	6f505f42 	svcvs	0x00505f42
    3a44:	49002973 	stmdbmi	r0, {r0, r1, r4, r5, r6, r8, fp, sp}
    3a48:	435f4332 	cmpmi	pc, #-939524096	; 0xc8000000
    3a4c:	455f3152 	ldrbmi	r3, [pc, #-338]	; 3902 <_Min_Stack_Size+0x3502>
    3a50:	5f43474e 	svcpl	0x0043474e
    3a54:	206b734d 	rsbcs	r7, fp, sp, asr #6
    3a58:	31783028 	cmncc	r8, r8, lsr #32
    3a5c:	3c204c55 	stccc	12, cr4, [r0], #-340	; 0xfffffeac
    3a60:	3249203c 	subcc	r2, r9, #60	; 0x3c
    3a64:	52435f43 	subpl	r5, r3, #268	; 0x10c
    3a68:	4e455f31 	mcrmi	15, 2, r5, cr5, cr1, {1}
    3a6c:	505f4347 	subspl	r4, pc, r7, asr #6
    3a70:	0029736f 	eoreq	r7, r9, pc, ror #6
    3a74:	4349564e 	movtmi	r5, #38478	; 0x964e
    3a78:	5152495f 	cmppl	r2, pc, asr r9
    3a7c:	495f3233 	ldmdbmi	pc, {r0, r1, r4, r5, r9, ip, sp}^	; <UNPREDICTABLE>
    3a80:	5f314332 	svcpl	0x00314332
    3a84:	455f5245 	ldrbmi	r5, [pc, #-581]	; 3847 <_Min_Stack_Size+0x3447>
    3a88:	6c62616e 	stfvse	f6, [r2], #-440	; 0xfffffe48
    3a8c:	4e282065 	cdpmi	0, 2, cr2, cr8, cr5, {3}
    3a90:	5f434956 	svcpl	0x00434956
    3a94:	52455349 	subpl	r5, r5, #603979777	; 0x24000001
    3a98:	3d7c2031 	ldclcc	0, cr2, [ip, #-196]!	; 0xffffff3c
    3a9c:	3c3c3120 	ldfccs	f3, [ip], #-128	; 0xffffff80
    3aa0:	32492028 	subcc	r2, r9, #40	; 0x28
    3aa4:	455f3143 	ldrbmi	r3, [pc, #-323]	; 3969 <_Min_Stack_Size+0x3569>
    3aa8:	52495f52 	subpl	r5, r9, #328	; 0x148
    3aac:	202d2051 	eorcs	r2, sp, r1, asr r0
    3ab0:	29203233 	stmdbcs	r0!, {r0, r1, r4, r5, r9, ip, sp}
    3ab4:	5f5f0029 	svcpl	0x005f0029
    3ab8:	43554e47 	cmpmi	r5, #1136	; 0x470
    3abc:	454b494c 	strbmi	r4, [fp, #-2380]	; 0xfffff6b4
    3ac0:	4955425f 	ldmdbmi	r5, {r0, r1, r2, r3, r4, r6, r9, lr}^
    3ac4:	4e49544c 	cdpmi	4, 4, cr5, cr9, cr12, {2}
    3ac8:	5241565f 	subpl	r5, r1, #99614720	; 0x5f00000
    3acc:	53475241 	movtpl	r5, #29249	; 0x7241
    3ad0:	55003120 	strpl	r3, [r0, #-288]	; 0xfffffee0
    3ad4:	54524153 	ldrbpl	r4, [r2], #-339	; 0xfffffead
    3ad8:	28282031 	stmdacs	r8!, {r0, r4, r5, sp}
    3adc:	52415355 	subpl	r5, r1, #1409286145	; 0x54000001
    3ae0:	79545f54 	ldmdbvc	r4, {r2, r4, r6, r8, r9, sl, fp, ip, lr}^
    3ae4:	65446570 	strbvs	r6, [r4, #-1392]	; 0xfffffa90
    3ae8:	292a2066 	stmdbcs	sl!, {r1, r2, r5, r6, sp}
    3aec:	52415355 	subpl	r5, r1, #1409286145	; 0x54000001
    3af0:	425f3154 	subsmi	r3, pc, #84, 2
    3af4:	29455341 	stmdbcs	r5, {r0, r6, r8, r9, ip, lr}^
    3af8:	565f5f00 	ldrbpl	r5, [pc], -r0, lsl #30
    3afc:	465f5046 	ldrbmi	r5, [pc], -r6, asr #32
    3b00:	205f5f50 	subscs	r5, pc, r0, asr pc	; <UNPREDICTABLE>
    3b04:	5f5f0031 	svcpl	0x005f0031
    3b08:	544e4955 	strbpl	r4, [lr], #-2389	; 0xfffff6ab
    3b0c:	59545f38 	ldmdbpl	r4, {r3, r4, r5, r8, r9, sl, fp, ip, lr}^
    3b10:	5f5f4550 	svcpl	0x005f4550
    3b14:	736e7520 	cmnvc	lr, #32, 10	; 0x8000000
    3b18:	656e6769 	strbvs	r6, [lr, #-1897]!	; 0xfffff897
    3b1c:	68632064 	stmdavs	r3!, {r2, r5, r6, sp}^
    3b20:	49007261 	stmdbmi	r0, {r0, r5, r6, r9, ip, sp, lr}
    3b24:	4c5f544e 	cfldrdmi	mvd5, [pc], {78}	; 0x4e
    3b28:	54534145 	ldrbpl	r4, [r3], #-325	; 0xfffffebb
    3b2c:	4d5f3233 	lfmmi	f3, 2, [pc, #-204]	; 3a68 <_Min_Stack_Size+0x3668>
    3b30:	28204e49 	stmdacs	r0!, {r0, r3, r6, r9, sl, fp, lr}
    3b34:	495f5f2d 	ldmdbmi	pc, {r0, r2, r3, r5, r8, r9, sl, fp, ip, lr}^	; <UNPREDICTABLE>
    3b38:	4c5f544e 	cfldrdmi	mvd5, [pc], {78}	; 0x4e
    3b3c:	54534145 	ldrbpl	r4, [r3], #-325	; 0xfffffebb
    3b40:	4d5f3233 	lfmmi	f3, 2, [pc, #-204]	; 3a7c <_Min_Stack_Size+0x367c>
    3b44:	5f5f5841 	svcpl	0x005f5841
    3b48:	31202d20 			; <UNDEFINED> instruction: 0x31202d20
    3b4c:	58450029 	stmdapl	r5, {r0, r3, r5}^
    3b50:	50364954 	eorspl	r4, r6, r4, asr r9
    3b54:	28203643 	stmdacs	r0!, {r0, r1, r6, r9, sl, ip, sp}
    3b58:	49545845 	ldmdbmi	r4, {r0, r2, r6, fp, ip, lr}^
    3b5c:	4950475f 	ldmdbmi	r0, {r0, r1, r2, r3, r4, r6, r8, r9, sl, lr}^
    3b60:	614d5f4f 	cmpvs	sp, pc, asr #30
    3b64:	6e697070 	mcrvs	0, 3, r7, cr9, cr0, {3}
    3b68:	29745f67 	ldmdbcs	r4!, {r0, r1, r2, r5, r6, r8, r9, sl, fp, ip, lr}^
    3b6c:	5458457b 	ldrbpl	r4, [r8], #-1403	; 0xfffffa85
    3b70:	2c203649 	stccs	6, cr3, [r0], #-292	; 0xfffffedc
    3b74:	49504720 	ldmdbmi	r0, {r5, r8, r9, sl, lr}^
    3b78:	2c20434f 	stccs	3, cr4, [r0], #-316	; 0xfffffec4
    3b7c:	49504720 	ldmdbmi	r0, {r5, r8, r9, sl, lr}^
    3b80:	49505f4f 	ldmdbmi	r0, {r0, r1, r2, r3, r6, r8, r9, sl, fp, ip, lr}^
    3b84:	20365f4e 	eorscs	r5, r6, lr, asr #30
    3b88:	5458452c 	ldrbpl	r4, [r8], #-1324	; 0xfffffad4
    3b8c:	495f3649 	ldmdbmi	pc, {r0, r3, r6, r9, sl, ip, sp}^	; <UNPREDICTABLE>
    3b90:	7d205152 	stfvcs	f5, [r0, #-328]!	; 0xfffffeb8
    3b94:	43324900 	teqmi	r2, #0, 18
    3b98:	3252435f 	subscc	r4, r2, #2080374785	; 0x7c000001
    3b9c:	414d445f 	cmpmi	sp, pc, asr r4
    3ba0:	505f4e45 	subspl	r4, pc, r5, asr #28
    3ba4:	2820736f 	stmdacs	r0!, {r0, r1, r2, r3, r5, r6, r8, r9, ip, sp, lr}
    3ba8:	29553131 	ldmdbcs	r5, {r0, r4, r5, r8, ip, sp}^
    3bac:	43324900 	teqmi	r2, #0, 18
    3bb0:	3152435f 	cmpcc	r2, pc, asr r3
    3bb4:	454c415f 	strbmi	r4, [ip, #-351]	; 0xfffffea1
    3bb8:	49205452 	stmdbmi	r0!, {r1, r4, r6, sl, ip, lr}
    3bbc:	435f4332 	cmpmi	pc, #-939524096	; 0xc8000000
    3bc0:	415f3152 	cmpmi	pc, r2, asr r1	; <UNPREDICTABLE>
    3bc4:	5452454c 	ldrbpl	r4, [r2], #-1356	; 0xfffffab4
    3bc8:	6b734d5f 	blvs	1cd714c <_Min_Stack_Size+0x1cd6d4c>
    3bcc:	41434d00 	cmpmi	r3, r0, lsl #26
    3bd0:	58455f4c 	stmdapl	r5, {r2, r3, r6, r8, r9, sl, fp, ip, lr}^
    3bd4:	475f4954 			; <UNDEFINED> instruction: 0x475f4954
    3bd8:	5f4f4950 	svcpl	0x004f4950
    3bdc:	6e496544 	cdpvs	5, 4, cr6, cr9, cr4, {2}
    3be0:	55007469 	strpl	r7, [r0, #-1129]	; 0xfffffb97
    3be4:	33544e49 	cmpcc	r4, #1168	; 0x490
    3be8:	414d5f32 	cmpmi	sp, r2, lsr pc
    3bec:	5f282058 	svcpl	0x00282058
    3bf0:	4e49555f 	mcrmi	5, 2, r5, cr9, cr15, {2}
    3bf4:	5f323354 	svcpl	0x00323354
    3bf8:	5f58414d 	svcpl	0x0058414d
    3bfc:	5000295f 	andpl	r2, r0, pc, asr r9
    3c00:	70697265 	rsbvc	r7, r9, r5, ror #4
    3c04:	61726568 	cmnvs	r2, r8, ror #10
    3c08:	425f736c 	subsmi	r7, pc, #108, 6	; 0xb0000001
    3c0c:	20455341 	subcs	r5, r5, r1, asr #6
    3c10:	30347830 	eorscc	r7, r4, r0, lsr r8
    3c14:	30303030 	eorscc	r3, r0, r0, lsr r0
    3c18:	4c553030 	mrrcmi	0, 3, r3, r5, cr0
    3c1c:	555f5f00 	ldrbpl	r5, [pc, #-3840]	; 2d24 <_Min_Stack_Size+0x2924>
    3c20:	43434153 	movtmi	r4, #12627	; 0x3153
    3c24:	465f4d55 			; <UNDEFINED> instruction: 0x465f4d55
    3c28:	5f544942 	svcpl	0x00544942
    3c2c:	0038205f 	eorseq	r2, r8, pc, asr r0
    3c30:	49545845 	ldmdbmi	r4, {r0, r2, r6, fp, ip, lr}^
    3c34:	32435032 	subcc	r5, r3, #50	; 0x32
    3c38:	58452820 	stmdapl	r5, {r5, fp, sp}^
    3c3c:	475f4954 			; <UNDEFINED> instruction: 0x475f4954
    3c40:	5f4f4950 	svcpl	0x004f4950
    3c44:	7070614d 	rsbsvc	r6, r0, sp, asr #2
    3c48:	5f676e69 	svcpl	0x00676e69
    3c4c:	457b2974 	ldrbmi	r2, [fp, #-2420]!	; 0xfffff68c
    3c50:	32495458 	subcc	r5, r9, #88, 8	; 0x58000000
    3c54:	47202c20 	strmi	r2, [r0, -r0, lsr #24]!
    3c58:	434f4950 	movtmi	r4, #63824	; 0xf950
    3c5c:	47202c20 	strmi	r2, [r0, -r0, lsr #24]!
    3c60:	5f4f4950 	svcpl	0x004f4950
    3c64:	5f4e4950 	svcpl	0x004e4950
    3c68:	452c2032 	strmi	r2, [ip, #-50]!	; 0xffffffce
    3c6c:	32495458 	subcc	r5, r9, #88, 8	; 0x58000000
    3c70:	5152495f 	cmppl	r2, pc, asr r9
    3c74:	5f007d20 	svcpl	0x00007d20
    3c78:	4343475f 	movtmi	r4, #14175	; 0x375f
    3c7c:	4f54415f 	svcmi	0x0054415f
    3c80:	5f43494d 	svcpl	0x0043494d
    3c84:	54534554 	ldrbpl	r4, [r3], #-1364	; 0xfffffaac
    3c88:	444e415f 	strbmi	r4, [lr], #-351	; 0xfffffea1
    3c8c:	5445535f 	strbpl	r5, [r5], #-863	; 0xfffffca1
    3c90:	5552545f 	ldrbpl	r5, [r2, #-1119]	; 0xfffffba1
    3c94:	4c415645 	mcrrmi	6, 4, r5, r1, cr5
    3c98:	5f003120 	svcpl	0x00003120
    3c9c:	464c455f 			; <UNDEFINED> instruction: 0x464c455f
    3ca0:	31205f5f 			; <UNDEFINED> instruction: 0x31205f5f
    3ca4:	49564e00 	ldmdbmi	r6, {r9, sl, fp, lr}^
    3ca8:	43495f43 	movtmi	r5, #40771	; 0x9f43
    3cac:	20315245 	eorscs	r5, r1, r5, asr #4
    3cb0:	6f76282a 	svcvs	0x0076282a
    3cb4:	6974616c 	ldmdbvs	r4!, {r2, r3, r5, r6, r8, sp, lr}^
    3cb8:	7520656c 	strvc	r6, [r0, #-1388]!	; 0xfffffa94
    3cbc:	33746e69 	cmncc	r4, #1680	; 0x690
    3cc0:	20745f32 	rsbscs	r5, r4, r2, lsr pc
    3cc4:	4e28292a 	vmulmi.f16	s4, s16, s21	; <UNPREDICTABLE>
    3cc8:	5f434956 	svcpl	0x00434956
    3ccc:	65736142 	ldrbvs	r6, [r3, #-322]!	; 0xfffffebe
    3cd0:	30202b20 	eorcc	r2, r0, r0, lsr #22
    3cd4:	29343878 	ldmdbcs	r4!, {r3, r4, r5, r6, fp, ip, sp}
    3cd8:	69725400 	ldmdbvs	r2!, {sl, ip, lr}^
    3cdc:	72656767 	rsbvc	r6, r5, #27000832	; 0x19c0000
    3ce0:	7361435f 	cmnvc	r1, #2080374785	; 0x7c000001
    3ce4:	4c460065 	mcrrmi	0, 6, r0, r6, cr5
    3ce8:	5f485341 	svcpl	0x00485341
    3cec:	6f6d654d 	svcvs	0x006d654d
    3cf0:	425f7972 	subsmi	r7, pc, #1867776	; 0x1c8000
    3cf4:	20455341 	subcs	r5, r5, r1, asr #6
    3cf8:	38307830 	ldmdacc	r0!, {r4, r5, fp, ip, sp, lr}
    3cfc:	30303030 	eorscc	r3, r0, r0, lsr r0
    3d00:	4c553030 	mrrcmi	0, 3, r3, r5, cr0
    3d04:	43324900 	teqmi	r2, #0, 18
    3d08:	3152435f 	cmpcc	r2, pc, asr r3
    3d0c:	5f45505f 	svcpl	0x0045505f
    3d10:	206b734d 	rsbcs	r7, fp, sp, asr #6
    3d14:	31783028 	cmncc	r8, r8, lsr #32
    3d18:	3c204c55 	stccc	12, cr4, [r0], #-340	; 0xfffffeac
    3d1c:	3249203c 	subcc	r2, r9, #60	; 0x3c
    3d20:	52435f43 	subpl	r5, r3, #268	; 0x10c
    3d24:	45505f31 	ldrbmi	r5, [r0, #-3889]	; 0xfffff0cf
    3d28:	736f505f 	cmnvc	pc, #95	; 0x5f
    3d2c:	5f5f0029 	svcpl	0x005f0029
    3d30:	33544c46 	cmpcc	r4, #17920	; 0x4600
    3d34:	41485f32 	cmpmi	r8, r2, lsr pc
    3d38:	55515f53 	ldrbpl	r5, [r1, #-3923]	; 0xfffff0ad
    3d3c:	5f544549 	svcpl	0x00544549
    3d40:	5f4e414e 	svcpl	0x004e414e
    3d44:	0031205f 	eorseq	r2, r1, pc, asr r0
    3d48:	52415f5f 	subpl	r5, r1, #380	; 0x17c
    3d4c:	45465f4d 	strbmi	r5, [r6, #-3917]	; 0xfffff0b3
    3d50:	52555441 	subspl	r5, r5, #1090519040	; 0x41000000
    3d54:	414d5f45 	cmpmi	sp, r5, asr #30
    3d58:	4c554d54 	mrrcmi	13, 5, r4, r5, cr4
    3d5c:	544e495f 	strbpl	r4, [lr], #-2399	; 0xfffff6a1
    3d60:	5f5f0038 	svcpl	0x005f0038
    3d64:	4f53424f 	svcmi	0x0053424f
    3d68:	4554454c 	ldrbmi	r4, [r4, #-1356]	; 0xfffffab4
    3d6c:	54414d5f 	strbpl	r4, [r1], #-3423	; 0xfffff2a1
    3d70:	5f5f2048 	svcpl	0x005f2048
    3d74:	4f53424f 	svcmi	0x0053424f
    3d78:	4554454c 	ldrbmi	r4, [r4, #-1356]	; 0xfffffab4
    3d7c:	54414d5f 	strbpl	r4, [r1], #-3423	; 0xfffff2a1
    3d80:	45445f48 	strbmi	r5, [r4, #-3912]	; 0xfffff0b8
    3d84:	4c554146 	ldfmie	f4, [r5], {70}	; 0x46
    3d88:	535f0054 	cmppl	pc, #84	; 0x54
    3d8c:	54455a49 	strbpl	r5, [r5], #-2633	; 0xfffff5b7
    3d90:	5f00205f 	svcpl	0x0000205f
    3d94:	42444c5f 	submi	r4, r4, #24320	; 0x5f00
    3d98:	41485f4c 	cmpmi	r8, ip, asr #30
    3d9c:	4e495f53 	mcrmi	15, 2, r5, cr9, cr3, {2}
    3da0:	494e4946 	stmdbmi	lr, {r1, r2, r6, r8, fp, lr}^
    3da4:	5f5f5954 	svcpl	0x005f5954
    3da8:	55003120 	strpl	r3, [r0, #-288]	; 0xfffffee0
    3dac:	5f544e49 	svcpl	0x00544e49
    3db0:	54534146 	ldrbpl	r4, [r3], #-326	; 0xfffffeba
    3db4:	4d5f3436 	cfldrdmi	mvd3, [pc, #-216]	; 3ce4 <_Min_Stack_Size+0x38e4>
    3db8:	28205841 	stmdacs	r0!, {r0, r6, fp, ip, lr}
    3dbc:	49555f5f 	ldmdbmi	r5, {r0, r1, r2, r3, r4, r6, r8, r9, sl, fp, ip, lr}^
    3dc0:	465f544e 	ldrbmi	r5, [pc], -lr, asr #8
    3dc4:	36545341 	ldrbcc	r5, [r4], -r1, asr #6
    3dc8:	414d5f34 	cmpmi	sp, r4, lsr pc
    3dcc:	295f5f58 	ldmdbcs	pc, {r3, r4, r6, r8, r9, sl, fp, ip, lr}^	; <UNPREDICTABLE>
    3dd0:	545f5f00 	ldrbpl	r5, [pc], #-3840	; 3dd8 <_Min_Stack_Size+0x39d8>
    3dd4:	42465f41 	submi	r5, r6, #260	; 0x104
    3dd8:	5f5f5449 	svcpl	0x005f5449
    3ddc:	00333620 	eorseq	r3, r3, r0, lsr #12
    3de0:	4349564e 	movtmi	r5, #38478	; 0x964e
    3de4:	5152495f 	cmppl	r2, pc, asr r9
    3de8:	535f3633 	cmppl	pc, #53477376	; 0x3300000
    3dec:	5f324950 	svcpl	0x00324950
    3df0:	61736944 	cmnvs	r3, r4, asr #18
    3df4:	20656c62 	rsbcs	r6, r5, r2, ror #24
    3df8:	49564e28 	ldmdbmi	r6, {r3, r5, r9, sl, fp, lr}^
    3dfc:	43495f43 	movtmi	r5, #40771	; 0x9f43
    3e00:	20315245 	eorscs	r5, r1, r5, asr #4
    3e04:	31203d7c 			; <UNDEFINED> instruction: 0x31203d7c
    3e08:	20283c3c 	eorcs	r3, r8, ip, lsr ip
    3e0c:	32495053 	subcc	r5, r9, #83	; 0x53
    3e10:	5152495f 	cmppl	r2, pc, asr r9
    3e14:	3233202d 	eorscc	r2, r3, #45	; 0x2d
    3e18:	00292920 	eoreq	r2, r9, r0, lsr #18
    3e1c:	4349564e 	movtmi	r5, #38478	; 0x964e
    3e20:	7361425f 	cmnvc	r1, #-268435451	; 0xf0000005
    3e24:	30282065 	eorcc	r2, r8, r5, rrx
    3e28:	30304578 	eorscc	r4, r0, r8, ror r5
    3e2c:	30314530 	eorscc	r4, r1, r0, lsr r5
    3e30:	294c5530 	stmdbcs	ip, {r4, r5, r8, sl, ip, lr}^
    3e34:	54584500 	ldrbpl	r4, [r8], #-1280	; 0xfffffb00
    3e38:	495f3349 	ldmdbmi	pc, {r0, r3, r6, r8, r9, ip, sp}^	; <UNPREDICTABLE>
    3e3c:	39205152 	stmdbcc	r0!, {r1, r4, r6, r8, ip, lr}
    3e40:	43324900 	teqmi	r2, #0, 18
    3e44:	3152435f 	cmpcc	r2, pc, asr r3
    3e48:	424d535f 	submi	r5, sp, #2080374785	; 0x7c000001
    3e4c:	505f5355 	subspl	r5, pc, r5, asr r3	; <UNPREDICTABLE>
    3e50:	2820736f 	stmdacs	r0!, {r0, r1, r2, r3, r5, r6, r8, r9, ip, sp, lr}
    3e54:	00295531 	eoreq	r5, r9, r1, lsr r5
    3e58:	4c465f5f 	mcrrmi	15, 5, r5, r6, cr15
    3e5c:	58323354 	ldmdapl	r2!, {r2, r4, r6, r8, r9, ip, sp}
    3e60:	58414d5f 	stmdapl	r1, {r0, r1, r2, r3, r4, r6, r8, sl, fp, lr}^
    3e64:	5f30315f 	svcpl	0x0030315f
    3e68:	5f505845 	svcpl	0x00505845
    3e6c:	3033205f 	eorscc	r2, r3, pc, asr r0
    3e70:	5f5f0038 	svcpl	0x005f0038
    3e74:	5f4d5241 	svcpl	0x004d5241
    3e78:	48435241 	stmdami	r3, {r0, r6, r9, ip, lr}^
    3e7c:	5458455f 	ldrbpl	r4, [r8], #-1375	; 0xfffffaa1
    3e80:	4944495f 	stmdbmi	r4, {r0, r1, r2, r3, r4, r6, r8, fp, lr}^
    3e84:	205f5f56 	subscs	r5, pc, r6, asr pc	; <UNPREDICTABLE>
    3e88:	5f5f0031 	svcpl	0x005f0031
    3e8c:	5f4d5241 	svcpl	0x004d5241
    3e90:	20534350 	subscs	r4, r3, r0, asr r3
    3e94:	564e0031 			; <UNDEFINED> instruction: 0x564e0031
    3e98:	495f4349 	ldmdbmi	pc, {r0, r3, r6, r8, r9, lr}^	; <UNPREDICTABLE>
    3e9c:	5f375152 	svcpl	0x00375152
    3ea0:	49545845 	ldmdbmi	r4, {r0, r2, r6, fp, ip, lr}^
    3ea4:	69445f31 	stmdbvs	r4, {r0, r4, r5, r8, r9, sl, fp, ip, lr}^
    3ea8:	6c626173 	stfvse	f6, [r2], #-460	; 0xfffffe34
    3eac:	4e282065 	cdpmi	0, 2, cr2, cr8, cr5, {3}
    3eb0:	5f434956 	svcpl	0x00434956
    3eb4:	52454349 	subpl	r4, r5, #603979777	; 0x24000001
    3eb8:	3d7c2030 	ldclcc	0, cr2, [ip, #-192]!	; 0xffffff40
    3ebc:	3c3c3120 	ldfccs	f3, [ip], #-128	; 0xffffff80
    3ec0:	5f002937 	svcpl	0x00002937
    3ec4:	7275705f 	rsbsvc	r7, r5, #95	; 0x5f
    3ec8:	5f5f2065 	svcpl	0x005f2065
    3ecc:	72747461 	rsbsvc	r7, r4, #1627389952	; 0x61000000
    3ed0:	74756269 	ldrbtvc	r6, [r5], #-617	; 0xfffffd97
    3ed4:	285f5f65 	ldmdacs	pc, {r0, r2, r5, r6, r8, r9, sl, fp, ip, lr}^	; <UNPREDICTABLE>
    3ed8:	705f5f28 	subsvc	r5, pc, r8, lsr #30
    3edc:	5f657275 	svcpl	0x00657275
    3ee0:	0029295f 	eoreq	r2, r9, pc, asr r9
    3ee4:	49545845 	ldmdbmi	r4, {r0, r2, r6, fp, ip, lr}^
    3ee8:	495f3131 	ldmdbmi	pc, {r0, r4, r5, r8, ip, sp}^	; <UNPREDICTABLE>
    3eec:	34205152 	strtcc	r5, [r0], #-338	; 0xfffffeae
    3ef0:	5f5f0030 	svcpl	0x005f0030
    3ef4:	5f474953 	svcpl	0x00474953
    3ef8:	4d4f5441 	cfstrdmi	mvd5, [pc, #-260]	; 3dfc <_Min_Stack_Size+0x39fc>
    3efc:	4d5f4349 	ldclmi	3, cr4, [pc, #-292]	; 3de0 <_Min_Stack_Size+0x39e0>
    3f00:	5f5f4e49 	svcpl	0x005f4e49
    3f04:	5f2d2820 	svcpl	0x002d2820
    3f08:	4749535f 	smlsldmi	r5, r9, pc, r3	; <UNPREDICTABLE>
    3f0c:	4f54415f 	svcmi	0x0054415f
    3f10:	5f43494d 	svcpl	0x0043494d
    3f14:	5f58414d 	svcpl	0x0058414d
    3f18:	202d205f 	eorcs	r2, sp, pc, asr r0
    3f1c:	45002931 	strmi	r2, [r0, #-2353]	; 0xfffff6cf
    3f20:	35495458 	strbcc	r5, [r9, #-1112]	; 0xfffffba8
    3f24:	20354350 	eorscs	r4, r5, r0, asr r3
    3f28:	54584528 	ldrbpl	r4, [r8], #-1320	; 0xfffffad8
    3f2c:	50475f49 	subpl	r5, r7, r9, asr #30
    3f30:	4d5f4f49 	ldclmi	15, cr4, [pc, #-292]	; 3e14 <_Min_Stack_Size+0x3a14>
    3f34:	69707061 	ldmdbvs	r0!, {r0, r5, r6, ip, sp, lr}^
    3f38:	745f676e 	ldrbvc	r6, [pc], #-1902	; 3f40 <_Min_Stack_Size+0x3b40>
    3f3c:	58457b29 	stmdapl	r5, {r0, r3, r5, r8, r9, fp, ip, sp, lr}^
    3f40:	20354954 	eorscs	r4, r5, r4, asr r9
    3f44:	5047202c 	subpl	r2, r7, ip, lsr #32
    3f48:	20434f49 	subcs	r4, r3, r9, asr #30
    3f4c:	5047202c 	subpl	r2, r7, ip, lsr #32
    3f50:	505f4f49 	subspl	r4, pc, r9, asr #30
    3f54:	355f4e49 	ldrbcc	r4, [pc, #-3657]	; 3113 <_Min_Stack_Size+0x2d13>
    3f58:	58452c20 	stmdapl	r5, {r5, sl, fp, sp}^
    3f5c:	5f354954 	svcpl	0x00354954
    3f60:	20515249 	subscs	r5, r1, r9, asr #4
    3f64:	5845007d 	stmdapl	r5, {r0, r2, r3, r4, r5, r6}^
    3f68:	20354954 	eorscs	r4, r5, r4, asr r9
    3f6c:	525f0035 	subspl	r0, pc, #53	; 0x35
    3f70:	544e4545 	strbpl	r4, [lr], #-1349	; 0xfffffabb
    3f74:	4548435f 	strbmi	r4, [r8, #-863]	; 0xfffffca1
    3f78:	415f4b43 	cmpmi	pc, r3, asr #22
    3f7c:	49544353 	ldmdbmi	r4, {r0, r1, r4, r6, r8, r9, lr}^
    3f80:	425f454d 	subsmi	r4, pc, #322961408	; 0x13400000
    3f84:	76284655 			; <UNDEFINED> instruction: 0x76284655
    3f88:	20297261 	eorcs	r7, r9, r1, ror #4
    3f8c:	4545525f 	strbmi	r5, [r5, #-607]	; 0xfffffda1
    3f90:	435f544e 	cmpmi	pc, #1308622848	; 0x4e000000
    3f94:	4b434548 	blmi	10d54bc <_Min_Stack_Size+0x10d50bc>
    3f98:	72617628 	rsbvc	r7, r1, #40, 12	; 0x2800000
    3f9c:	615f202c 	cmpvs	pc, ip, lsr #32
    3fa0:	69746373 	ldmdbvs	r4!, {r0, r1, r4, r5, r6, r8, r9, sp, lr}^
    3fa4:	625f656d 	subsvs	r6, pc, #457179136	; 0x1b400000
    3fa8:	202c6675 	eorcs	r6, ip, r5, ror r6
    3fac:	72616863 	rsbvc	r6, r1, #6488064	; 0x630000
    3fb0:	202c2a20 	eorcs	r2, ip, r0, lsr #20
    3fb4:	4545525f 	strbmi	r5, [r5, #-607]	; 0xfffffda1
    3fb8:	415f544e 	cmpmi	pc, lr, asr #8
    3fbc:	49544353 	ldmdbmi	r4, {r0, r1, r4, r6, r8, r9, lr}^
    3fc0:	535f454d 	cmppl	pc, #322961408	; 0x13400000
    3fc4:	2c455a49 	mcrrcs	10, 4, r5, r5, cr9
    3fc8:	6d656d20 	stclvs	13, cr6, [r5, #-128]!	; 0xffffff80
    3fcc:	28746573 	ldmdacs	r4!, {r0, r1, r4, r5, r6, r8, sl, sp, lr}^
    3fd0:	72617628 	rsbvc	r7, r1, #40, 12	; 0x2800000
    3fd4:	5f3e2d29 	svcpl	0x003e2d29
    3fd8:	74637361 	strbtvc	r7, [r3], #-865	; 0xfffffc9f
    3fdc:	5f656d69 	svcpl	0x00656d69
    3fe0:	2c667562 	cfstr64cs	mvdx7, [r6], #-392	; 0xfffffe78
    3fe4:	202c3020 	eorcs	r3, ip, r0, lsr #32
    3fe8:	4545525f 	strbmi	r5, [r5, #-607]	; 0xfffffda1
    3fec:	415f544e 	cmpmi	pc, lr, asr #8
    3ff0:	49544353 	ldmdbmi	r4, {r0, r1, r4, r6, r8, r9, lr}^
    3ff4:	535f454d 	cmppl	pc, #322961408	; 0x13400000
    3ff8:	29455a49 	stmdbcs	r5, {r0, r3, r6, r9, fp, ip, lr}^
    3ffc:	425f0029 	subsmi	r0, pc, #41	; 0x29
    4000:	575f4453 			; <UNDEFINED> instruction: 0x575f4453
    4004:	52414843 	subpl	r4, r1, #4390912	; 0x430000
    4008:	205f545f 	subscs	r5, pc, pc, asr r4	; <UNPREDICTABLE>
    400c:	6e5f5f00 	cdpvs	15, 5, cr5, cr15, cr0, {0}
    4010:	6e61736f 	cdpvs	3, 6, cr7, cr1, cr15, {3}
    4014:	7a697469 	bvc	1a611c0 <_Min_Stack_Size+0x1a60dc0>
    4018:	6d656d65 	stclvs	13, cr6, [r5, #-404]!	; 0xfffffe6c
    401c:	2079726f 	rsbscs	r7, r9, pc, ror #4
    4020:	6e5f5f00 	cdpvs	15, 5, cr5, cr15, cr0, {0}
    4024:	6e61736f 	cdpvs	3, 6, cr7, cr1, cr15, {3}
    4028:	7a697469 	bvc	1a611d4 <_Min_Stack_Size+0x1a60dd4>
    402c:	64646165 	strbtvs	r6, [r4], #-357	; 0xfffffe9b
    4030:	73736572 	cmnvc	r3, #478150656	; 0x1c800000
    4034:	525f0020 	subspl	r0, pc, #32
    4038:	544e4545 	strbpl	r4, [lr], #-1349	; 0xfffffabb
    403c:	5f504d5f 	svcpl	0x00504d5f
    4040:	28533550 	ldmdacs	r3, {r4, r6, r8, sl, ip, sp}^
    4044:	29727470 	ldmdbcs	r2!, {r4, r5, r6, sl, ip, sp, lr}^
    4048:	70282820 	eorvc	r2, r8, r0, lsr #16
    404c:	2d297274 	sfmcs	f7, 4, [r9, #-464]!	; 0xfffffe30
    4050:	706d5f3e 	rsbvc	r5, sp, lr, lsr pc
    4054:	705f3e2d 	subsvc	r3, pc, sp, lsr #28
    4058:	00297335 	eoreq	r7, r9, r5, lsr r3
    405c:	5f474953 	svcpl	0x00474953
    4060:	4d4f5441 	cfstrdmi	mvd5, [pc, #-260]	; 3f64 <_Min_Stack_Size+0x3b64>
    4064:	4d5f4349 	ldclmi	3, cr4, [pc, #-292]	; 3f48 <_Min_Stack_Size+0x3b48>
    4068:	28204e49 	stmdacs	r0!, {r0, r3, r6, r9, sl, fp, lr}
    406c:	535f5f2d 	cmppl	pc, #45, 30	; 0xb4
    4070:	4e494454 	mcrmi	4, 2, r4, cr9, cr4, {2}
    4074:	58455f54 	stmdapl	r5, {r2, r4, r6, r8, r9, sl, fp, ip, lr}^
    4078:	4e492850 	mcrmi	8, 2, r2, cr9, cr0, {2}
    407c:	414d5f54 	cmpmi	sp, r4, asr pc
    4080:	2d202958 			; <UNDEFINED> instruction: 0x2d202958
    4084:	00293120 	eoreq	r3, r9, r0, lsr #2
    4088:	544e4955 	strbpl	r4, [lr], #-2389	; 0xfffff6ab
    408c:	435f3631 	cmpmi	pc, #51380224	; 0x3100000
    4090:	20297828 	eorcs	r7, r9, r8, lsr #16
    4094:	49555f5f 	ldmdbmi	r5, {r0, r1, r2, r3, r4, r6, r8, r9, sl, fp, ip, lr}^
    4098:	3631544e 	ldrtcc	r5, [r1], -lr, asr #8
    409c:	7828435f 	stmdavc	r8!, {r0, r1, r2, r3, r4, r6, r8, r9, lr}
    40a0:	495f0029 	ldmdbmi	pc, {r0, r3, r5}^	; <UNPREDICTABLE>
    40a4:	3631544e 	ldrtcc	r5, [r1], -lr, asr #8
    40a8:	445f545f 	ldrbmi	r5, [pc], #-1119	; 40b0 <_Min_Stack_Size+0x3cb0>
    40ac:	414c4345 	cmpmi	ip, r5, asr #6
    40b0:	20444552 	subcs	r4, r4, r2, asr r5
    40b4:	465f5f00 	ldrbmi	r5, [pc], -r0, lsl #30
    40b8:	3233544c 	eorscc	r5, r3, #76, 8	; 0x4c000000
    40bc:	53495f58 	movtpl	r5, #40792	; 0x9f58
    40c0:	4345495f 	movtmi	r4, #22879	; 0x595f
    40c4:	3530365f 	ldrcc	r3, [r0, #-1631]!	; 0xfffff9a1
    40c8:	5f5f3935 	svcpl	0x005f3935
    40cc:	5f003220 	svcpl	0x00003220
    40d0:	544d505f 	strbpl	r5, [sp], #-95	; 0xffffffa1
    40d4:	67726128 	ldrbvs	r6, [r2, -r8, lsr #2]!
    40d8:	61202973 			; <UNDEFINED> instruction: 0x61202973
    40dc:	00736772 	rsbseq	r6, r3, r2, ror r7
    40e0:	5f433249 	svcpl	0x00433249
    40e4:	5f315253 	svcpl	0x00315253
    40e8:	41424d53 	cmpmi	r2, r3, asr sp
    40ec:	5452454c 	ldrbpl	r4, [r2], #-1356	; 0xfffffab4
    40f0:	736f505f 	cmnvc	pc, #95	; 0x5f
    40f4:	35312820 	ldrcc	r2, [r1, #-2080]!	; 0xfffff7e0
    40f8:	49002955 	stmdbmi	r0, {r0, r2, r4, r6, r8, fp, sp}
    40fc:	535f4332 	cmppl	pc, #-939524096	; 0xc8000000
    4100:	425f3252 	subsmi	r3, pc, #536870917	; 0x20000005
    4104:	20595355 	subscs	r5, r9, r5, asr r3
    4108:	5f433249 	svcpl	0x00433249
    410c:	5f325253 	svcpl	0x00325253
    4110:	59535542 	ldmdbpl	r3, {r1, r6, r8, sl, ip, lr}^
    4114:	6b734d5f 	blvs	1cd7698 <_Min_Stack_Size+0x1cd7298>
    4118:	495f5f00 	ldmdbmi	pc, {r8, r9, sl, fp, ip, lr}^	; <UNPREDICTABLE>
    411c:	4c5f544e 	cfldrdmi	mvd5, [pc], {78}	; 0x4e
    4120:	54534145 	ldrbpl	r4, [r3], #-325	; 0xfffffebb
    4124:	575f3631 	smmlarpl	pc, r1, r6, r3	; <UNPREDICTABLE>
    4128:	48544449 	ldmdami	r4, {r0, r3, r6, sl, lr}^
    412c:	31205f5f 			; <UNDEFINED> instruction: 0x31205f5f
    4130:	32490036 	subcc	r0, r9, #54	; 0x36
    4134:	52535f43 	subspl	r5, r3, #268	; 0x10c
    4138:	564f5f31 			; <UNDEFINED> instruction: 0x564f5f31
    413c:	32492052 	subcc	r2, r9, #82	; 0x52
    4140:	52535f43 	subspl	r5, r3, #268	; 0x10c
    4144:	564f5f31 			; <UNDEFINED> instruction: 0x564f5f31
    4148:	734d5f52 	movtvc	r5, #57170	; 0xdf52
    414c:	5f5f006b 	svcpl	0x005f006b
    4150:	5f434544 	svcpl	0x00434544
    4154:	4c415645 	mcrrmi	6, 4, r5, r1, cr5
    4158:	54454d5f 	strbpl	r4, [r5], #-3423	; 0xfffff2a1
    415c:	5f444f48 	svcpl	0x00444f48
    4160:	0032205f 	eorseq	r2, r2, pc, asr r0
    4164:	5f433249 	svcpl	0x00433249
    4168:	5f315243 	svcpl	0x00315243
    416c:	54424d53 	strbpl	r4, [r2], #-3411	; 0xfffff2ad
    4170:	20455059 	subcs	r5, r5, r9, asr r0
    4174:	5f433249 	svcpl	0x00433249
    4178:	5f315243 	svcpl	0x00315243
    417c:	54424d53 	strbpl	r4, [r2], #-3411	; 0xfffff2ad
    4180:	5f455059 	svcpl	0x00455059
    4184:	006b734d 	rsbeq	r7, fp, sp, asr #6
    4188:	52415f5f 	subpl	r5, r1, #380	; 0x17c
    418c:	45465f4d 	strbmi	r5, [r6, #-3917]	; 0xfffff0b3
    4190:	52555441 	subspl	r5, r5, #1090519040	; 0x41000000
    4194:	50465f45 	subpl	r5, r6, r5, asr #30
    4198:	465f3631 			; <UNDEFINED> instruction: 0x465f3631
    419c:	52004c4d 	andpl	r4, r0, #19712	; 0x4d00
    41a0:	415f4343 	cmpmi	pc, r3, asr #6
    41a4:	5f4f4946 	svcpl	0x004f4946
    41a8:	5f4b4c43 	svcpl	0x004b4c43
    41ac:	29284e45 	stmdbcs	r8!, {r0, r2, r6, r9, sl, fp, lr}
    41b0:	52202820 	eorpl	r2, r0, #32, 16	; 0x200000
    41b4:	3e2d4343 	cdpcc	3, 2, cr4, cr13, cr3, {2}
    41b8:	32425041 	subcc	r5, r2, #65	; 0x41
    41bc:	20524e45 	subscs	r4, r2, r5, asr #28
    41c0:	28203d7c 	stmdacs	r0!, {r2, r3, r4, r5, r6, r8, sl, fp, ip, sp}
    41c4:	303c3c31 	eorscc	r3, ip, r1, lsr ip
    41c8:	00292029 	eoreq	r2, r9, r9, lsr #32
    41cc:	48555f5f 	ldmdami	r5, {r0, r1, r2, r3, r4, r6, r8, r9, sl, fp, ip, lr}^
    41d0:	42495f41 	submi	r5, r9, #260	; 0x104
    41d4:	5f5f5449 	svcpl	0x005f5449
    41d8:	5f003820 	svcpl	0x00003820
    41dc:	7365725f 	cmnvc	r5, #-268435451	; 0xf0000005
    41e0:	63697274 	cmnvs	r9, #116, 4	; 0x40000007
    41e4:	65722074 	ldrbvs	r2, [r2, #-116]!	; 0xffffff8c
    41e8:	69727473 	ldmdbvs	r2!, {r0, r1, r4, r5, r6, sl, ip, sp, lr}^
    41ec:	5f007463 	svcpl	0x00007463
    41f0:	4653555f 			; <UNDEFINED> instruction: 0x4653555f
    41f4:	54434152 	strbpl	r4, [r3], #-338	; 0xfffffeae
    41f8:	5350455f 	cmppl	r0, #398458880	; 0x17c00000
    41fc:	4e4f4c49 	cdpmi	12, 4, cr4, cr15, cr9, {2}
    4200:	30205f5f 	eorcc	r5, r0, pc, asr pc
    4204:	2d503178 	ldfcse	f3, [r0, #-480]	; 0xfffffe20
    4208:	52485538 	subpl	r5, r8, #56, 10	; 0xe000000
    420c:	4c554e00 	mrrcmi	14, 0, r4, r5, cr0
    4210:	2828204c 	stmdacs	r8!, {r2, r3, r6, sp}
    4214:	64696f76 	strbtvs	r6, [r9], #-3958	; 0xfffff08a
    4218:	30292a20 	eorcc	r2, r9, r0, lsr #20
    421c:	58450029 	stmdapl	r5, {r0, r3, r5}^
    4220:	50394954 	eorspl	r4, r9, r4, asr r9
    4224:	28203944 	stmdacs	r0!, {r2, r6, r8, fp, ip, sp}
    4228:	49545845 	ldmdbmi	r4, {r0, r2, r6, fp, ip, lr}^
    422c:	4950475f 	ldmdbmi	r0, {r0, r1, r2, r3, r4, r6, r8, r9, sl, lr}^
    4230:	614d5f4f 	cmpvs	sp, pc, asr #30
    4234:	6e697070 	mcrvs	0, 3, r7, cr9, cr0, {3}
    4238:	29745f67 	ldmdbcs	r4!, {r0, r1, r2, r5, r6, r8, r9, sl, fp, ip, lr}^
    423c:	5458457b 	ldrbpl	r4, [r8], #-1403	; 0xfffffa85
    4240:	2c203949 			; <UNDEFINED> instruction: 0x2c203949
    4244:	49504720 	ldmdbmi	r0, {r5, r8, r9, sl, lr}^
    4248:	2c20444f 	cfstrscs	mvf4, [r0], #-316	; 0xfffffec4
    424c:	49504720 	ldmdbmi	r0, {r5, r8, r9, sl, lr}^
    4250:	49505f4f 	ldmdbmi	r0, {r0, r1, r2, r3, r6, r8, r9, sl, fp, ip, lr}^
    4254:	20395f4e 	eorscs	r5, r9, lr, asr #30
    4258:	5845202c 	stmdapl	r5, {r2, r3, r5, sp}^
    425c:	5f394954 	svcpl	0x00394954
    4260:	7d515249 	lfmvc	f5, 2, [r1, #-292]	; 0xfffffedc
    4264:	45525f00 	ldrbmi	r5, [r2, #-3840]	; 0xfffff100
    4268:	5f544e45 	svcpl	0x00544e45
    426c:	5f474953 	svcpl	0x00474953
    4270:	434e5546 	movtmi	r5, #58694	; 0xe546
    4274:	74705f28 	ldrbtvc	r5, [r0], #-3880	; 0xfffff0d8
    4278:	28202972 	stmdacs	r0!, {r1, r4, r5, r6, r8, fp, sp}
    427c:	74705f28 	ldrbtvc	r5, [r0], #-3880	; 0xfffff0d8
    4280:	3e2d2972 			; <UNDEFINED> instruction: 0x3e2d2972
    4284:	6769735f 			; <UNDEFINED> instruction: 0x6769735f
    4288:	6e75665f 	mrcvs	6, 3, r6, cr5, cr15, {2}
    428c:	5f002963 	svcpl	0x00002963
    4290:	6e695f5f 	mcrvs	15, 3, r5, cr9, cr15, {2}
    4294:	656c5f74 	strbvs	r5, [ip, #-3956]!	; 0xfffff08c
    4298:	33747361 	cmncc	r4, #-2080374783	; 0x84000001
    429c:	5f745f32 	svcpl	0x00745f32
    42a0:	69666564 	stmdbvs	r6!, {r2, r5, r6, r8, sl, sp, lr}^
    42a4:	2064656e 	rsbcs	r6, r4, lr, ror #10
    42a8:	5f5f0031 	svcpl	0x005f0031
    42ac:	43414c4c 	movtmi	r4, #7244	; 0x1c4c
    42b0:	5f4d5543 	svcpl	0x004d5543
    42b4:	5f58414d 	svcpl	0x0058414d
    42b8:	5830205f 	ldmdapl	r0!, {r0, r1, r2, r3, r4, r6, sp}
    42bc:	46464637 			; <UNDEFINED> instruction: 0x46464637
    42c0:	46464646 	strbmi	r4, [r6], -r6, asr #12
    42c4:	46464646 	strbmi	r4, [r6], -r6, asr #12
    42c8:	46464646 	strbmi	r4, [r6], -r6, asr #12
    42cc:	31332d50 	teqcc	r3, r0, asr sp
    42d0:	004b4c4c 	subeq	r4, fp, ip, asr #24
    42d4:	5f433249 	svcpl	0x00433249
    42d8:	5f315243 	svcpl	0x00315243
    42dc:	52414e45 	subpl	r4, r1, #1104	; 0x450
    42e0:	6f505f50 	svcvs	0x00505f50
    42e4:	34282073 	strtcc	r2, [r8], #-115	; 0xffffff8d
    42e8:	5f002955 	svcpl	0x00002955
    42ec:	65656e5f 	strbvs	r6, [r5, #-3679]!	; 0xfffff1a1
    42f0:	554e5f64 	strbpl	r5, [lr, #-3940]	; 0xfffff09c
    42f4:	45004c4c 	strmi	r4, [r0, #-3148]	; 0xfffff3b4
    42f8:	39495458 	stmdbcc	r9, {r3, r4, r6, sl, ip, lr}^
    42fc:	20394150 	eorscs	r4, r9, r0, asr r1
    4300:	54584528 	ldrbpl	r4, [r8], #-1320	; 0xfffffad8
    4304:	50475f49 	subpl	r5, r7, r9, asr #30
    4308:	4d5f4f49 	ldclmi	15, cr4, [pc, #-292]	; 41ec <_Min_Stack_Size+0x3dec>
    430c:	69707061 	ldmdbvs	r0!, {r0, r5, r6, ip, sp, lr}^
    4310:	745f676e 	ldrbvc	r6, [pc], #-1902	; 4318 <_Min_Stack_Size+0x3f18>
    4314:	58457b29 	stmdapl	r5, {r0, r3, r5, r8, r9, fp, ip, sp, lr}^
    4318:	2c394954 			; <UNDEFINED> instruction: 0x2c394954
    431c:	49504720 	ldmdbmi	r0, {r5, r8, r9, sl, lr}^
    4320:	2c20414f 	stfcss	f4, [r0], #-316	; 0xfffffec4
    4324:	49504720 	ldmdbmi	r0, {r5, r8, r9, sl, lr}^
    4328:	49505f4f 	ldmdbmi	r0, {r0, r1, r2, r3, r6, r8, r9, sl, fp, ip, lr}^
    432c:	20395f4e 	eorscs	r5, r9, lr, asr #30
    4330:	5845202c 	stmdapl	r5, {r2, r3, r5, sp}^
    4334:	5f394954 	svcpl	0x00394954
    4338:	20515249 	subscs	r5, r1, r9, asr #4
    433c:	5f5f007d 	svcpl	0x005f007d
    4340:	52455355 	subpl	r5, r5, #1409286145	; 0x54000001
    4344:	42414c5f 	submi	r4, r1, #24320	; 0x5f00
    4348:	505f4c45 	subspl	r4, pc, r5, asr #24
    434c:	49464552 	stmdbmi	r6, {r1, r4, r6, r8, sl, lr}^
    4350:	205f5f58 	subscs	r5, pc, r8, asr pc	; <UNPREDICTABLE>
    4354:	555f5f00 	ldrbpl	r5, [pc, #-3840]	; 345c <_Min_Stack_Size+0x305c>
    4358:	36544e49 	ldrbcc	r4, [r4], -r9, asr #28
    435c:	414d5f34 	cmpmi	sp, r4, lsr pc
    4360:	205f5f58 	subscs	r5, pc, r8, asr pc	; <UNPREDICTABLE>
    4364:	66667830 			; <UNDEFINED> instruction: 0x66667830
    4368:	66666666 	strbtvs	r6, [r6], -r6, ror #12
    436c:	66666666 	strbtvs	r6, [r6], -r6, ror #12
    4370:	66666666 	strbtvs	r6, [r6], -r6, ror #12
    4374:	4c556666 	mrrcmi	6, 6, r6, r5, cr6
    4378:	525f004c 	subspl	r0, pc, #76	; 0x4c
    437c:	544e4545 	strbpl	r4, [lr], #-1349	; 0xfffffabb
    4380:	5254535f 	subspl	r5, r4, #2080374785	; 0x7c000001
    4384:	5f4b4f54 	svcpl	0x004b4f54
    4388:	5453414c 	ldrbpl	r4, [r3], #-332	; 0xfffffeb4
    438c:	72747028 	rsbsvc	r7, r4, #40	; 0x28
    4390:	28282029 	stmdacs	r8!, {r0, r3, r5, sp}
    4394:	29727470 	ldmdbcs	r2!, {r4, r5, r6, sl, ip, sp, lr}^
    4398:	6d5f3e2d 	ldclvs	14, cr3, [pc, #-180]	; 42ec <_Min_Stack_Size+0x3eec>
    439c:	2d637369 	stclcs	3, cr7, [r3, #-420]!	; 0xfffffe5c
    43a0:	74735f3e 	ldrbtvc	r5, [r3], #-3902	; 0xfffff0c2
    43a4:	6b6f7472 	blvs	1be1574 <_Min_Stack_Size+0x1be1174>
    43a8:	73616c5f 	cmnvc	r1, #24320	; 0x5f00
    43ac:	5f002974 	svcpl	0x00002974
    43b0:	4e49555f 	mcrmi	5, 2, r5, cr9, cr15, {2}
    43b4:	5f323354 	svcpl	0x00323354
    43b8:	5f58414d 	svcpl	0x0058414d
    43bc:	7830205f 	ldmdavc	r0!, {r0, r1, r2, r3, r4, r6, sp}
    43c0:	66666666 	strbtvs	r6, [r6], -r6, ror #12
    43c4:	66666666 	strbtvs	r6, [r6], -r6, ror #12
    43c8:	49004c55 	stmdbmi	r0, {r0, r2, r4, r6, sl, fp, lr}
    43cc:	3436544e 	ldrtcc	r5, [r6], #-1102	; 0xfffffbb2
    43d0:	7828435f 	stmdavc	r8!, {r0, r1, r2, r3, r4, r6, r8, r9, lr}
    43d4:	5f5f2029 	svcpl	0x005f2029
    43d8:	36544e49 	ldrbcc	r4, [r4], -r9, asr #28
    43dc:	28435f34 	stmdacs	r3, {r2, r4, r5, r8, r9, sl, fp, ip, lr}^
    43e0:	5f002978 	svcpl	0x00002978
    43e4:	49465441 	stmdbmi	r6, {r0, r6, sl, ip, lr}^
    43e8:	535f454c 	cmppl	pc, #76, 10	; 0x13000000
    43ec:	4352554f 	cmpmi	r2, #331350016	; 0x13c00000
    43f0:	4e490045 	cdpmi	0, 4, cr0, cr9, cr5, {2}
    43f4:	4d5f3854 	ldclmi	8, cr3, [pc, #-336]	; 42ac <_Min_Stack_Size+0x3eac>
    43f8:	28204e49 	stmdacs	r0!, {r0, r3, r6, r9, sl, fp, lr}
    43fc:	495f5f2d 	ldmdbmi	pc, {r0, r2, r3, r5, r8, r9, sl, fp, ip, lr}^	; <UNPREDICTABLE>
    4400:	5f38544e 	svcpl	0x0038544e
    4404:	5f58414d 	svcpl	0x0058414d
    4408:	202d205f 	eorcs	r2, sp, pc, asr r0
    440c:	5f002931 	svcpl	0x00002931
    4410:	4454535f 	ldrbmi	r5, [r4], #-863	; 0xfffffca1
    4414:	45565f43 	ldrbmi	r5, [r6, #-3907]	; 0xfffff0bd
    4418:	4f495352 	svcmi	0x00495352
    441c:	205f5f4e 	subscs	r5, pc, lr, asr #30
    4420:	31313032 	teqcc	r1, r2, lsr r0
    4424:	004c3231 	subeq	r3, ip, r1, lsr r2
    4428:	72745f5f 	rsbsvc	r5, r4, #380	; 0x17c
    442c:	636f6c79 	cmnvs	pc, #30976	; 0x7900
    4430:	735f736b 	cmpvc	pc, #-1409286143	; 0xac000001
    4434:	65726168 	ldrbvs	r6, [r2, #-360]!	; 0xfffffe98
    4438:	2e2e2864 	cdpcs	8, 2, cr2, cr14, cr4, {3}
    443c:	5f20292e 	svcpl	0x0020292e
    4440:	636f6c5f 	cmnvs	pc, #24320	; 0x5f00
    4444:	6e615f6b 	cdpvs	15, 6, cr5, cr1, cr11, {3}
    4448:	61746f6e 	cmnvs	r4, lr, ror #30
    444c:	73286574 			; <UNDEFINED> instruction: 0x73286574
    4450:	65726168 	ldrbvs	r6, [r2, #-360]!	; 0xfffffe98
    4454:	72745f64 	rsbsvc	r5, r4, #100, 30	; 0x190
    4458:	636f6c79 	cmnvs	pc, #30976	; 0x7900
    445c:	75665f6b 	strbvc	r5, [r6, #-3947]!	; 0xfffff095
    4460:	6974636e 	ldmdbvs	r4!, {r1, r2, r3, r5, r6, r8, r9, sp, lr}^
    4464:	5f286e6f 	svcpl	0x00286e6f
    4468:	5f41565f 	svcpl	0x0041565f
    446c:	53475241 	movtpl	r5, #29249	; 0x7241
    4470:	29295f5f 	stmdbcs	r9!, {r0, r1, r2, r3, r4, r6, r8, r9, sl, fp, ip, lr}
    4474:	495f5f00 	ldmdbmi	pc, {r8, r9, sl, fp, ip, lr}^	; <UNPREDICTABLE>
    4478:	4c5f544e 	cfldrdmi	mvd5, [pc], {78}	; 0x4e
    447c:	54534145 	ldrbpl	r4, [r3], #-325	; 0xfffffebb
    4480:	414d5f38 	cmpmi	sp, r8, lsr pc
    4484:	205f5f58 	subscs	r5, pc, r8, asr pc	; <UNPREDICTABLE>
    4488:	66377830 			; <UNDEFINED> instruction: 0x66377830
    448c:	475f5f00 	ldrbmi	r5, [pc, -r0, lsl #30]
    4490:	415f4343 	cmpmi	pc, r3, asr #6
    4494:	494d4f54 	stmdbmi	sp, {r2, r4, r6, r8, r9, sl, fp, lr}^
    4498:	4f505f43 	svcmi	0x00505f43
    449c:	45544e49 	ldrbmi	r4, [r4, #-3657]	; 0xfffff1b7
    44a0:	4f4c5f52 	svcmi	0x004c5f52
    44a4:	465f4b43 	ldrbmi	r4, [pc], -r3, asr #22
    44a8:	20454552 	subcs	r4, r5, r2, asr r5
    44ac:	5f5f0032 	svcpl	0x005f0032
    44b0:	5f4d5241 	svcpl	0x004d5241
    44b4:	54414546 	strbpl	r4, [r1], #-1350	; 0xfffffaba
    44b8:	5f455255 	svcpl	0x00455255
    44bc:	54494251 	strbpl	r4, [r9], #-593	; 0xfffffdaf
    44c0:	5f003120 	svcpl	0x00003120
    44c4:	4d52415f 	ldfmie	f4, [r2, #-380]	; 0xfffffe84
    44c8:	4145465f 	cmpmi	r5, pc, asr r6
    44cc:	45525554 	ldrbmi	r5, [r2, #-1364]	; 0xfffffaac
    44d0:	5a4c435f 	bpl	1315254 <_Min_Stack_Size+0x1314e54>
    44d4:	5f003120 	svcpl	0x00003120
    44d8:	636f6c5f 	cmnvs	pc, #24320	; 0x5f00
    44dc:	63615f6b 	cmnvs	r1, #428	; 0x1ac
    44e0:	72697571 	rsbvc	r7, r9, #473956352	; 0x1c400000
    44e4:	6f6c2865 	svcvs	0x006c2865
    44e8:	20296b63 	eorcs	r6, r9, r3, ror #22
    44ec:	65725f5f 	ldrbvs	r5, [r2, #-3935]!	; 0xfffff0a1
    44f0:	67726174 			; <UNDEFINED> instruction: 0x67726174
    44f4:	6c5f7465 	cfldrdvs	mvd7, [pc], {101}	; 0x65
    44f8:	5f6b636f 	svcpl	0x006b636f
    44fc:	75716361 	ldrbvc	r6, [r1, #-865]!	; 0xfffffc9f
    4500:	28657269 	stmdacs	r5!, {r0, r3, r5, r6, r9, ip, sp, lr}^
    4504:	6b636f6c 	blvs	18e02bc <_Min_Stack_Size+0x18dfebc>
    4508:	5f5f0029 	svcpl	0x005f0029
    450c:	4d4f5441 	cfstrdmi	mvd5, [pc, #-260]	; 4410 <_Min_Stack_Size+0x4010>
    4510:	415f4349 	cmpmi	pc, r9, asr #6
    4514:	49555143 	ldmdbmi	r5, {r0, r1, r6, r8, ip, lr}^
    4518:	32204552 	eorcc	r4, r0, #343932928	; 0x14800000
    451c:	415f5f00 	cmpmi	pc, r0, lsl #30
    4520:	465f4d52 			; <UNDEFINED> instruction: 0x465f4d52
    4524:	55544145 	ldrbpl	r4, [r4, #-325]	; 0xfffffebb
    4528:	435f4552 	cmpmi	pc, #343932928	; 0x14800000
    452c:	4c504d4f 	mrrcmi	13, 4, r4, r0, cr15
    4530:	5f005845 	svcpl	0x00005845
    4534:	636f6c5f 	cmnvs	pc, #24320	; 0x5f00
    4538:	735f736b 	cmpvc	pc, #-1409286143	; 0xac000001
    453c:	65726168 	ldrbvs	r6, [r2, #-360]!	; 0xfffffe98
    4540:	2e2e2864 	cdpcs	8, 2, cr2, cr14, cr4, {3}
    4544:	5f20292e 	svcpl	0x0020292e
    4548:	636f6c5f 	cmnvs	pc, #24320	; 0x5f00
    454c:	6e615f6b 	cdpvs	15, 6, cr5, cr1, cr11, {3}
    4550:	61746f6e 	cmnvs	r4, lr, ror #30
    4554:	73286574 			; <UNDEFINED> instruction: 0x73286574
    4558:	65726168 	ldrbvs	r6, [r2, #-360]!	; 0xfffffe98
    455c:	6f6c5f64 	svcvs	0x006c5f64
    4560:	665f6b63 	ldrbvs	r6, [pc], -r3, ror #22
    4564:	74636e75 	strbtvc	r6, [r3], #-3701	; 0xfffff18b
    4568:	286e6f69 	stmdacs	lr!, {r0, r3, r5, r6, r8, r9, sl, fp, sp, lr}^
    456c:	41565f5f 	cmpmi	r6, pc, asr pc
    4570:	4752415f 			; <UNDEFINED> instruction: 0x4752415f
    4574:	295f5f53 	ldmdbcs	pc, {r0, r1, r4, r6, r8, r9, sl, fp, ip, lr}^	; <UNPREDICTABLE>
    4578:	5f5f0029 	svcpl	0x005f0029
    457c:	31544e49 	cmpcc	r4, r9, asr #28
    4580:	68222036 	stmdavs	r2!, {r1, r2, r4, r5, sp}
    4584:	6e750022 	cdpvs	0, 7, cr0, cr5, cr2, {1}
    4588:	6e676973 			; <UNDEFINED> instruction: 0x6e676973
    458c:	73206465 			; <UNDEFINED> instruction: 0x73206465
    4590:	656e6769 	strbvs	r6, [lr, #-1897]!	; 0xfffff897
    4594:	58450064 	stmdapl	r5, {r2, r5, r6}^
    4598:	32314954 	eorscc	r4, r1, #84, 18	; 0x150000
    459c:	32314250 	eorscc	r4, r1, #80, 4
    45a0:	58452820 	stmdapl	r5, {r5, fp, sp}^
    45a4:	475f4954 			; <UNDEFINED> instruction: 0x475f4954
    45a8:	5f4f4950 	svcpl	0x004f4950
    45ac:	7070614d 	rsbsvc	r6, r0, sp, asr #2
    45b0:	5f676e69 	svcpl	0x00676e69
    45b4:	457b2974 	ldrbmi	r2, [fp, #-2420]!	; 0xfffff68c
    45b8:	31495458 	cmpcc	r9, r8, asr r4
    45bc:	47202c32 			; <UNDEFINED> instruction: 0x47202c32
    45c0:	424f4950 	submi	r4, pc, #80, 18	; 0x140000
    45c4:	47202c20 	strmi	r2, [r0, -r0, lsr #24]!
    45c8:	5f4f4950 	svcpl	0x004f4950
    45cc:	5f4e4950 	svcpl	0x004e4950
    45d0:	2c203231 	sfmcs	f3, 4, [r0], #-196	; 0xffffff3c
    45d4:	49545845 	ldmdbmi	r4, {r0, r2, r6, fp, ip, lr}^
    45d8:	495f3231 	ldmdbmi	pc, {r0, r4, r5, r9, ip, sp}^	; <UNPREDICTABLE>
    45dc:	7d205152 	stfvcs	f5, [r0, #-328]!	; 0xfffffeb8
    45e0:	4e495f00 	cdpmi	15, 4, cr5, cr9, cr0, {0}
    45e4:	52545054 	subspl	r5, r4, #84	; 0x54
    45e8:	5f51455f 	svcpl	0x0051455f
    45ec:	20544e49 	subscs	r4, r4, r9, asr #28
    45f0:	415f5f00 	cmpmi	pc, r0, lsl #30
    45f4:	535f4d52 	cmppl	pc, #5248	; 0x1480
    45f8:	4f455a49 	svcmi	0x00455a49
    45fc:	43575f46 	cmpmi	r7, #280	; 0x118
    4600:	5f524148 	svcpl	0x00524148
    4604:	00342054 	eorseq	r2, r4, r4, asr r0
    4608:	4c465f5f 	mcrrmi	15, 5, r5, r6, cr15
    460c:	58323354 	ldmdapl	r2!, {r2, r4, r6, r8, r9, ip, sp}
    4610:	58414d5f 	stmdapl	r1, {r0, r1, r2, r3, r4, r6, r8, sl, fp, lr}^
    4614:	5058455f 	subspl	r4, r8, pc, asr r5
    4618:	31205f5f 			; <UNDEFINED> instruction: 0x31205f5f
    461c:	00343230 	eorseq	r3, r4, r0, lsr r2
    4620:	4f495047 	svcmi	0x00495047
    4624:	28282042 	stmdacs	r8!, {r1, r6, sp}
    4628:	4f495047 	svcmi	0x00495047
    462c:	7079545f 	rsbsvc	r5, r9, pc, asr r4
    4630:	66654465 	strbtvs	r4, [r5], -r5, ror #8
    4634:	47292a20 	strmi	r2, [r9, -r0, lsr #20]!
    4638:	424f4950 	submi	r4, pc, #80, 18	; 0x140000
    463c:	5341425f 	movtpl	r4, #4703	; 0x125f
    4640:	5f002945 	svcpl	0x00002945
    4644:	4e49555f 	mcrmi	5, 2, r5, cr9, cr15, {2}
    4648:	454c5f54 	strbmi	r5, [ip, #-3924]	; 0xfffff0ac
    464c:	33545341 	cmpcc	r4, #67108865	; 0x4000001
    4650:	414d5f32 	cmpmi	sp, r2, lsr pc
    4654:	205f5f58 	subscs	r5, pc, r8, asr pc	; <UNPREDICTABLE>
    4658:	66667830 			; <UNDEFINED> instruction: 0x66667830
    465c:	66666666 	strbtvs	r6, [r6], -r6, ror #12
    4660:	4c556666 	mrrcmi	6, 6, r6, r5, cr6
    4664:	445f5f00 	ldrbmi	r5, [pc], #-3840	; 466c <_Min_Stack_Size+0x426c>
    4668:	455f4c42 	ldrbmi	r4, [pc, #-3138]	; 3a2e <_Min_Stack_Size+0x362e>
    466c:	4c495350 	mcrrmi	3, 5, r5, r9, cr0
    4670:	5f5f4e4f 	svcpl	0x005f4e4f
    4674:	64282820 	strtvs	r2, [r8], #-2080	; 0xfffff7e0
    4678:	6c62756f 	cfstr64vs	mvdx7, [r2], #-444	; 0xfffffe44
    467c:	2e322965 	vsubcs.f16	s4, s4, s11	; <UNPREDICTABLE>
    4680:	34303232 	ldrtcc	r3, [r0], #-562	; 0xfffffdce
    4684:	34303634 	ldrtcc	r3, [r0], #-1588	; 0xfffff9cc
    4688:	30353239 	eorscc	r3, r5, r9, lsr r2
    468c:	31333133 	teqcc	r3, r3, lsr r1
    4690:	36312d65 	ldrtcc	r2, [r1], -r5, ror #26
    4694:	5f00294c 	svcpl	0x0000294c
    4698:	6365735f 	cmnvs	r5, #2080374785	; 0x7c000001
    469c:	6e6f6974 			; <UNDEFINED> instruction: 0x6e6f6974
    46a0:	20297828 	eorcs	r7, r9, r8, lsr #16
    46a4:	74615f5f 	strbtvc	r5, [r1], #-3935	; 0xfffff0a1
    46a8:	62697274 	rsbvs	r7, r9, #116, 4	; 0x40000007
    46ac:	5f657475 	svcpl	0x00657475
    46b0:	5f28285f 	svcpl	0x0028285f
    46b4:	6365735f 	cmnvs	r5, #2080374785	; 0x7c000001
    46b8:	6e6f6974 			; <UNDEFINED> instruction: 0x6e6f6974
    46bc:	78285f5f 	stmdavc	r8!, {r0, r1, r2, r3, r4, r6, r8, r9, sl, fp, ip, lr}
    46c0:	00292929 	eoreq	r2, r9, r9, lsr #18
    46c4:	4f495047 	svcmi	0x00495047
    46c8:	4550535f 	ldrbmi	r5, [r0, #-863]	; 0xfffffca1
    46cc:	355f4445 	ldrbcc	r4, [pc, #-1093]	; 428f <_Min_Stack_Size+0x3e8f>
    46d0:	30204d30 	eorcc	r4, r0, r0, lsr sp
    46d4:	30303078 	eorscc	r3, r0, r8, ror r0
    46d8:	30303030 	eorscc	r3, r0, r0, lsr r0
    46dc:	5f007533 	svcpl	0x00007533
    46e0:	4f54415f 	svcmi	0x0054415f
    46e4:	5f43494d 	svcpl	0x0043494d
    46e8:	534e4f43 	movtpl	r4, #61251	; 0xef43
    46ec:	20454d55 	subcs	r4, r5, r5, asr sp
    46f0:	5f5f0031 	svcpl	0x005f0031
    46f4:	5f544e49 	svcpl	0x00544e49
    46f8:	5341454c 	movtpl	r4, #5452	; 0x154c
    46fc:	5f343654 	svcpl	0x00343654
    4700:	54444957 	strbpl	r4, [r4], #-2391	; 0xfffff6a9
    4704:	205f5f48 	subscs	r5, pc, r8, asr #30
    4708:	5f003436 	svcpl	0x00003436
    470c:	544c465f 	strbpl	r4, [ip], #-1631	; 0xfffff9a1
    4710:	5341485f 	movtpl	r4, #6239	; 0x185f
    4714:	464e495f 			; <UNDEFINED> instruction: 0x464e495f
    4718:	54494e49 	strbpl	r4, [r9], #-3657	; 0xfffff1b7
    471c:	205f5f59 	subscs	r5, pc, r9, asr pc	; <UNPREDICTABLE>
    4720:	5f5f0031 	svcpl	0x005f0031
    4724:	55434341 	strbpl	r4, [r3, #-833]	; 0xfffffcbf
    4728:	414d5f4d 	cmpmi	sp, sp, asr #30
    472c:	205f5f58 	subscs	r5, pc, r8, asr pc	; <UNPREDICTABLE>
    4730:	46375830 			; <UNDEFINED> instruction: 0x46375830
    4734:	46464646 	strbmi	r4, [r6], -r6, asr #12
    4738:	2d504646 	ldclcs	6, cr4, [r0, #-280]	; 0xfffffee8
    473c:	004b3531 	subeq	r3, fp, r1, lsr r5
    4740:	4f495047 	svcmi	0x00495047
    4744:	28282041 	stmdacs	r8!, {r0, r6, sp}
    4748:	4f495047 	svcmi	0x00495047
    474c:	7079545f 	rsbsvc	r5, r9, pc, asr r4
    4750:	66654465 	strbtvs	r4, [r5], -r5, ror #8
    4754:	47292a20 	strmi	r2, [r9, -r0, lsr #20]!
    4758:	414f4950 	cmpmi	pc, r0, asr r9	; <UNPREDICTABLE>
    475c:	5341425f 	movtpl	r4, #4703	; 0x125f
    4760:	5f002945 	svcpl	0x00002945
    4764:	544e495f 	strbpl	r4, [lr], #-2399	; 0xfffff6a1
    4768:	414d5f38 	cmpmi	sp, r8, lsr pc
    476c:	205f5f58 	subscs	r5, pc, r8, asr pc	; <UNPREDICTABLE>
    4770:	66377830 			; <UNDEFINED> instruction: 0x66377830
    4774:	43324900 	teqmi	r2, #0, 18
    4778:	52414f5f 	subpl	r4, r1, #380	; 0x17c
    477c:	4e455f32 	mcrmi	15, 2, r5, cr5, cr2, {1}
    4780:	4c415544 	cfstr64mi	mvdx5, [r1], {68}	; 0x44
    4784:	736f505f 	cmnvc	pc, #95	; 0x5f
    4788:	55302820 	ldrpl	r2, [r0, #-2080]!	; 0xfffff7e0
    478c:	564e0029 	strbpl	r0, [lr], -r9, lsr #32
    4790:	495f4349 	ldmdbmi	pc, {r0, r3, r6, r8, r9, lr}^	; <UNPREDICTABLE>
    4794:	5f375152 	svcpl	0x00375152
    4798:	49545845 	ldmdbmi	r4, {r0, r2, r6, fp, ip, lr}^
    479c:	6e455f31 	mcrvs	15, 2, r5, cr5, cr1, {1}
    47a0:	656c6261 	strbvs	r6, [ip, #-609]!	; 0xfffffd9f
    47a4:	564e2820 	strbpl	r2, [lr], -r0, lsr #16
    47a8:	495f4349 	ldmdbmi	pc, {r0, r3, r6, r8, r9, lr}^	; <UNPREDICTABLE>
    47ac:	30524553 	subscc	r4, r2, r3, asr r5
    47b0:	203d7c20 	eorscs	r7, sp, r0, lsr #24
    47b4:	373c3c31 			; <UNDEFINED> instruction: 0x373c3c31
    47b8:	50470029 	subpl	r0, r7, r9, lsr #32
    47bc:	20444f49 	subcs	r4, r4, r9, asr #30
    47c0:	50472828 	subpl	r2, r7, r8, lsr #16
    47c4:	545f4f49 	ldrbpl	r4, [pc], #-3913	; 47cc <_Min_Stack_Size+0x43cc>
    47c8:	44657079 	strbtmi	r7, [r5], #-121	; 0xffffff87
    47cc:	2a206665 	bcs	81e168 <_Min_Stack_Size+0x81dd68>
    47d0:	49504729 	ldmdbmi	r0, {r0, r3, r5, r8, r9, sl, lr}^
    47d4:	425f444f 	subsmi	r4, pc, #1325400064	; 0x4f000000
    47d8:	29455341 	stmdbcs	r5, {r0, r6, r8, r9, ip, lr}^
    47dc:	475f5f00 	ldrbmi	r5, [pc, -r0, lsl #30]
    47e0:	485f4343 	ldmdami	pc, {r0, r1, r6, r8, r9, lr}^	; <UNPREDICTABLE>
    47e4:	5f455641 	svcpl	0x00455641
    47e8:	52415744 	subpl	r5, r1, #68, 14	; 0x1100000
    47ec:	435f3246 	cmpmi	pc, #1610612740	; 0x60000004
    47f0:	415f4946 	cmpmi	pc, r6, asr #18
    47f4:	31204d53 			; <UNDEFINED> instruction: 0x31204d53
    47f8:	5f5f5f00 	svcpl	0x005f5f00
    47fc:	38746e69 	ldmdacc	r4!, {r0, r3, r5, r6, r9, sl, fp, sp, lr}^
    4800:	645f745f 	ldrbvs	r7, [pc], #-1119	; 4808 <_Min_Stack_Size+0x4408>
    4804:	6e696665 	cdpvs	6, 6, cr6, cr9, cr5, {3}
    4808:	31206465 			; <UNDEFINED> instruction: 0x31206465
    480c:	535f5f00 	cmppl	pc, #0, 30
    4810:	43415246 	movtmi	r5, #4678	; 0x1246
    4814:	494d5f54 	stmdbmi	sp, {r2, r4, r6, r8, r9, sl, fp, ip, lr}^
    4818:	205f5f4e 	subscs	r5, pc, lr, asr #30
    481c:	2e302d28 	cdpcs	13, 3, cr2, cr0, cr8, {1}
    4820:	2d524835 	ldclcs	8, cr4, [r2, #-212]	; 0xffffff2c
    4824:	48352e30 	ldmdami	r5!, {r4, r5, r9, sl, fp, sp}
    4828:	5f002952 	svcpl	0x00002952
    482c:	5f41535f 	svcpl	0x0041535f
    4830:	54494249 	strbpl	r4, [r9], #-585	; 0xfffffdb7
    4834:	31205f5f 			; <UNDEFINED> instruction: 0x31205f5f
    4838:	5f5f0036 	svcpl	0x005f0036
    483c:	7366666f 	cmnvc	r6, #116391936	; 0x6f00000
    4840:	666f7465 	strbtvs	r7, [pc], -r5, ror #8
    4844:	70797428 	rsbsvc	r7, r9, r8, lsr #8
    4848:	69662c65 	stmdbvs	r6!, {r0, r2, r5, r6, sl, fp, sp}^
    484c:	29646c65 	stmdbcs	r4!, {r0, r2, r5, r6, sl, fp, sp, lr}^
    4850:	66666f20 	strbtvs	r6, [r6], -r0, lsr #30
    4854:	6f746573 	svcvs	0x00746573
    4858:	79742866 	ldmdbvc	r4!, {r1, r2, r5, r6, fp, sp}^
    485c:	202c6570 	eorcs	r6, ip, r0, ror r5
    4860:	6c656966 			; <UNDEFINED> instruction: 0x6c656966
    4864:	5f002964 	svcpl	0x00002964
    4868:	4343475f 	movtmi	r4, #14175	; 0x375f
    486c:	4345495f 	movtmi	r4, #22879	; 0x595f
    4870:	3935355f 	ldmdbcc	r5!, {r0, r1, r2, r3, r4, r6, r8, sl, ip, sp}
    4874:	4d4f435f 	stclmi	3, cr4, [pc, #-380]	; 4700 <_Min_Stack_Size+0x4300>
    4878:	58454c50 	stmdapl	r5, {r4, r6, sl, fp, lr}^
    487c:	5f003020 	svcpl	0x00003020
    4880:	4d52415f 	ldfmie	f4, [r2, #-380]	; 0xfffffe84
    4884:	4145465f 	cmpmi	r5, pc, asr r6
    4888:	45525554 	ldrbmi	r5, [r2, #-1364]	; 0xfffffaac
    488c:	45564d5f 	ldrbmi	r4, [r6, #-3423]	; 0xfffff2a1
    4890:	6e5f5f00 	cdpvs	15, 5, cr5, cr15, cr0, {0}
    4894:	756e6e6f 	strbvc	r6, [lr, #-3695]!	; 0xfffff191
    4898:	615f6c6c 	cmpvs	pc, ip, ror #24
    489c:	5f206c6c 	svcpl	0x00206c6c
    48a0:	7474615f 	ldrbtvc	r6, [r4], #-351	; 0xfffffea1
    48a4:	75626972 	strbvc	r6, [r2, #-2418]!	; 0xfffff68e
    48a8:	5f5f6574 	svcpl	0x005f6574
    48ac:	5f5f2828 	svcpl	0x005f2828
    48b0:	6e6e6f6e 	cdpvs	15, 6, cr6, cr14, cr14, {3}
    48b4:	5f6c6c75 	svcpl	0x006c6c75
    48b8:	0029295f 	eoreq	r2, r9, pc, asr r9
    48bc:	52415f5f 	subpl	r5, r1, #380	; 0x17c
    48c0:	50465f4d 	subpl	r5, r6, sp, asr #30
    48c4:	465f3631 			; <UNDEFINED> instruction: 0x465f3631
    48c8:	414d524f 	cmpmi	sp, pc, asr #4
    48cc:	45495f54 	strbmi	r5, [r9, #-3924]	; 0xfffff0ac
    48d0:	5f004545 	svcpl	0x00004545
    48d4:	4e49555f 	mcrmi	5, 2, r5, cr9, cr15, {2}
    48d8:	5f363154 	svcpl	0x00363154
    48dc:	45505954 	ldrbmi	r5, [r0, #-2388]	; 0xfffff6ac
    48e0:	73205f5f 			; <UNDEFINED> instruction: 0x73205f5f
    48e4:	74726f68 	ldrbtvc	r6, [r2], #-3944	; 0xfffff098
    48e8:	736e7520 	cmnvc	lr, #32, 10	; 0x8000000
    48ec:	656e6769 	strbvs	r6, [lr, #-1897]!	; 0xfffff897
    48f0:	6e692064 	cdpvs	0, 6, cr2, cr9, cr4, {3}
    48f4:	505f0074 	subspl	r0, pc, r4, ror r0	; <UNPREDICTABLE>
    48f8:	5849534f 	stmdapl	r9, {r0, r1, r2, r3, r6, r8, r9, ip, lr}^
    48fc:	554f535f 	strbpl	r5, [pc, #-863]	; 45a5 <_Min_Stack_Size+0x41a5>
    4900:	00454352 	subeq	r4, r5, r2, asr r3
    4904:	444e4152 	strbmi	r4, [lr], #-338	; 0xfffffeae
    4908:	58414d5f 	stmdapl	r1, {r0, r1, r2, r3, r4, r6, r8, sl, fp, lr}^
    490c:	525f5f20 	subspl	r5, pc, #32, 30	; 0x80
    4910:	5f444e41 	svcpl	0x00444e41
    4914:	0058414d 	subseq	r4, r8, sp, asr #2
    4918:	5f433249 	svcpl	0x00433249
    491c:	3252414f 	subscc	r4, r2, #-1073741805	; 0xc0000013
    4920:	444e455f 	strbmi	r4, [lr], #-1375	; 0xfffffaa1
    4924:	204c4155 	subcs	r4, ip, r5, asr r1
    4928:	5f433249 	svcpl	0x00433249
    492c:	3252414f 	subscc	r4, r2, #-1073741805	; 0xc0000013
    4930:	444e455f 	strbmi	r4, [lr], #-1375	; 0xfffffaa1
    4934:	5f4c4155 	svcpl	0x004c4155
    4938:	006b734d 	rsbeq	r7, fp, sp, asr #6
    493c:	69755f5f 	ldmdbvs	r5!, {r0, r1, r2, r3, r4, r6, r8, r9, sl, fp, ip, lr}^
    4940:	3233746e 	eorscc	r7, r3, #1845493760	; 0x6e000000
    4944:	4e00745f 	cfmvsrmi	mvf0, r7
    4948:	5f434956 	svcpl	0x00434956
    494c:	33515249 	cmpcc	r1, #-1879048188	; 0x90000004
    4950:	53555f39 	cmppl	r5, #57, 30	; 0xe4
    4954:	33545241 	cmpcc	r4, #268435460	; 0x10000004
    4958:	616e455f 	cmnvs	lr, pc, asr r5
    495c:	20656c62 	rsbcs	r6, r5, r2, ror #24
    4960:	49564e28 	ldmdbmi	r6, {r3, r5, r9, sl, fp, lr}^
    4964:	53495f43 	movtpl	r5, #40771	; 0x9f43
    4968:	20315245 	eorscs	r5, r1, r5, asr #4
    496c:	31203d7c 			; <UNDEFINED> instruction: 0x31203d7c
    4970:	20283c3c 	eorcs	r3, r8, ip, lsr ip
    4974:	52415355 	subpl	r5, r1, #1409286145	; 0x54000001
    4978:	495f3354 	ldmdbmi	pc, {r2, r4, r6, r8, r9, ip, sp}^	; <UNPREDICTABLE>
    497c:	2d205152 	stfcss	f5, [r0, #-328]!	; 0xfffffeb8
    4980:	20323320 	eorscs	r3, r2, r0, lsr #6
    4984:	5f002929 	svcpl	0x00002929
    4988:	464f535f 			; <UNDEFINED> instruction: 0x464f535f
    498c:	5f504654 	svcpl	0x00504654
    4990:	0031205f 	eorseq	r2, r1, pc, asr r0
    4994:	4545525f 	strbmi	r5, [r5, #-607]	; 0xfffffda1
    4998:	545f544e 	ldrbpl	r5, [pc], #-1102	; 49a0 <_Min_Stack_Size+0x45a0>
    499c:	7470284d 	ldrbtvc	r2, [r0], #-2125	; 0xfffff7b3
    49a0:	28202972 	stmdacs	r0!, {r1, r4, r5, r6, r8, fp, sp}
    49a4:	72747028 	rsbsvc	r7, r4, #40	; 0x28
    49a8:	5f3e2d29 	svcpl	0x003e2d29
    49ac:	61636f6c 	cmnvs	r3, ip, ror #30
    49b0:	6d69746c 	cfstrdvs	mvd7, [r9, #-432]!	; 0xfffffe50
    49b4:	75625f65 	strbvc	r5, [r2, #-3941]!	; 0xfffff09b
    49b8:	5f002966 	svcpl	0x00002966
    49bc:	49535f54 	ldmdbmi	r3, {r2, r4, r6, r8, r9, sl, fp, ip, lr}^
    49c0:	205f455a 	subscs	r4, pc, sl, asr r5	; <UNPREDICTABLE>
    49c4:	465f5f00 	ldrbmi	r5, [pc], -r0, lsl #30
    49c8:	455f544c 	ldrbmi	r5, [pc, #-1100]	; 4584 <_Min_Stack_Size+0x4184>
    49cc:	5f4c4156 	svcpl	0x004c4156
    49d0:	4854454d 	ldmdami	r4, {r0, r2, r3, r6, r8, sl, lr}^
    49d4:	545f444f 	ldrbpl	r4, [pc], #-1103	; 49dc <_Min_Stack_Size+0x45dc>
    49d8:	38315f53 	ldmdacc	r1!, {r0, r1, r4, r6, r8, r9, sl, fp, ip, lr}
    49dc:	5f313636 	svcpl	0x00313636
    49e0:	205f5f33 	subscs	r5, pc, r3, lsr pc	; <UNPREDICTABLE>
    49e4:	5f5f0030 	svcpl	0x005f0030
    49e8:	72747461 	rsbsvc	r7, r4, #1627389952	; 0x61000000
    49ec:	74756269 	ldrbtvc	r6, [r5], #-617	; 0xfffffd97
    49f0:	616d5f65 	cmnvs	sp, r5, ror #30
    49f4:	636f6c6c 	cmnvs	pc, #108, 24	; 0x6c00
    49f8:	00205f5f 	eoreq	r5, r0, pc, asr pc
    49fc:	43535f5f 	cmpmi	r3, #380	; 0x17c
    4a00:	5f524148 	svcpl	0x00524148
    4a04:	54444957 	strbpl	r4, [r4], #-2391	; 0xfffff6a9
    4a08:	205f5f48 	subscs	r5, pc, r8, asr #30
    4a0c:	32490038 	subcc	r0, r9, #56	; 0x38
    4a10:	52435f43 	subpl	r5, r3, #268	; 0x10c
    4a14:	4f4e5f31 	svcmi	0x004e5f31
    4a18:	45525453 	ldrbmi	r5, [r2, #-1107]	; 0xfffffbad
    4a1c:	20484354 	subcs	r4, r8, r4, asr r3
    4a20:	5f433249 	svcpl	0x00433249
    4a24:	5f315243 	svcpl	0x00315243
    4a28:	54534f4e 	ldrbpl	r4, [r3], #-3918	; 0xfffff0b2
    4a2c:	43544552 	cmpmi	r4, #343932928	; 0x14800000
    4a30:	734d5f48 	movtvc	r5, #57160	; 0xdf48
    4a34:	4e49006b 	cdpmi	0, 4, cr0, cr9, cr11, {3}
    4a38:	435f3854 	cmpmi	pc, #84, 16	; 0x540000
    4a3c:	20297828 	eorcs	r7, r9, r8, lsr #16
    4a40:	4e495f5f 	mcrmi	15, 2, r5, cr9, cr15, {2}
    4a44:	435f3854 	cmpmi	pc, #84, 16	; 0x540000
    4a48:	00297828 	eoreq	r7, r9, r8, lsr #16
    4a4c:	49555f5f 	ldmdbmi	r5, {r0, r1, r2, r3, r4, r6, r8, r9, sl, fp, ip, lr}^
    4a50:	465f544e 	ldrbmi	r5, [pc], -lr, asr #8
    4a54:	38545341 	ldmdacc	r4, {r0, r6, r8, r9, ip, lr}^
    4a58:	5059545f 	subspl	r5, r9, pc, asr r4
    4a5c:	205f5f45 	subscs	r5, pc, r5, asr #30
    4a60:	69736e75 	ldmdbvs	r3!, {r0, r2, r4, r5, r6, r9, sl, fp, sp, lr}^
    4a64:	64656e67 	strbtvs	r6, [r5], #-3687	; 0xfffff199
    4a68:	746e6920 	strbtvc	r6, [lr], #-2336	; 0xfffff6e0
    4a6c:	4c5f5f00 	mrrcmi	15, 0, r5, pc, cr0	; <UNPREDICTABLE>
    4a70:	4343414c 	movtmi	r4, #12620	; 0x314c
    4a74:	495f4d55 	ldmdbmi	pc, {r0, r2, r4, r6, r8, sl, fp, lr}^	; <UNPREDICTABLE>
    4a78:	5f544942 	svcpl	0x00544942
    4a7c:	3233205f 	eorscc	r2, r3, #95	; 0x5f
    4a80:	45525f00 	ldrbmi	r5, [r2, #-3840]	; 0xfffff100
    4a84:	5f544e45 	svcpl	0x00544e45
    4a88:	4e5f5349 	cdpmi	3, 5, cr5, cr15, cr9, {2}
    4a8c:	284c4c55 	stmdacs	ip, {r0, r2, r4, r6, sl, fp, lr}^
    4a90:	7274705f 	rsbsvc	r7, r4, #95	; 0x5f
    4a94:	28282029 	stmdacs	r8!, {r0, r3, r5, sp}
    4a98:	7274705f 	rsbsvc	r7, r4, #95	; 0x5f
    4a9c:	3d3d2029 	ldccc	0, cr2, [sp, #-164]!	; 0xffffff5c
    4aa0:	4c554e20 	mrrcmi	14, 2, r4, r5, cr0
    4aa4:	5f00294c 	svcpl	0x0000294c
    4aa8:	636f6c5f 	cmnvs	pc, #24320	; 0x5f00
    4aac:	6c635f6b 	stclvs	15, cr5, [r3], #-428	; 0xfffffe54
    4ab0:	5f65736f 	svcpl	0x0065736f
    4ab4:	75636572 	strbvc	r6, [r3, #-1394]!	; 0xfffffa8e
    4ab8:	76697372 			; <UNDEFINED> instruction: 0x76697372
    4abc:	6f6c2865 	svcvs	0x006c2865
    4ac0:	20296b63 	eorcs	r6, r9, r3, ror #22
    4ac4:	65725f5f 	ldrbvs	r5, [r2, #-3935]!	; 0xfffff0a1
    4ac8:	67726174 			; <UNDEFINED> instruction: 0x67726174
    4acc:	6c5f7465 	cfldrdvs	mvd7, [pc], {101}	; 0x65
    4ad0:	5f6b636f 	svcpl	0x006b636f
    4ad4:	736f6c63 	cmnvc	pc, #25344	; 0x6300
    4ad8:	65725f65 	ldrbvs	r5, [r2, #-3941]!	; 0xfffff09b
    4adc:	73727563 	cmnvc	r2, #415236096	; 0x18c00000
    4ae0:	28657669 	stmdacs	r5!, {r0, r3, r5, r6, r9, sl, ip, sp, lr}^
    4ae4:	6b636f6c 	blvs	18e089c <_Min_Stack_Size+0x18e049c>
    4ae8:	46410029 	strbmi	r0, [r1], -r9, lsr #32
    4aec:	455f4f49 	ldrbmi	r4, [pc, #-3913]	; 3bab <_Min_Stack_Size+0x37ab>
    4af0:	43495458 	movtmi	r5, #37976	; 0x9458
    4af4:	6f505f52 	svcvs	0x00505f52
    4af8:	6f697473 	svcvs	0x00697473
    4afc:	3249006e 	subcc	r0, r9, #110	; 0x6e
    4b00:	52535f43 	subspl	r5, r3, #268	; 0x10c
    4b04:	54425f31 	strbpl	r5, [r2], #-3889	; 0xfffff0cf
    4b08:	32492046 	subcc	r2, r9, #70	; 0x46
    4b0c:	52535f43 	subspl	r5, r3, #268	; 0x10c
    4b10:	54425f31 	strbpl	r5, [r2], #-3889	; 0xfffff0cf
    4b14:	734d5f46 	movtvc	r5, #57158	; 0xdf46
    4b18:	3249006b 	subcc	r0, r9, #107	; 0x6b
    4b1c:	52535f43 	subspl	r5, r3, #268	; 0x10c
    4b20:	49545f31 	ldmdbmi	r4, {r0, r4, r5, r8, r9, sl, fp, ip, lr}^
    4b24:	554f454d 	strbpl	r4, [pc, #-1357]	; 45df <_Min_Stack_Size+0x41df>
    4b28:	6f505f54 	svcvs	0x00505f54
    4b2c:	31282073 			; <UNDEFINED> instruction: 0x31282073
    4b30:	00295534 	eoreq	r5, r9, r4, lsr r5
    4b34:	4e495f5f 	mcrmi	15, 2, r5, cr9, cr15, {2}
    4b38:	5f323354 	svcpl	0x00323354
    4b3c:	5f58414d 	svcpl	0x0058414d
    4b40:	7830205f 	ldmdavc	r0!, {r0, r1, r2, r3, r4, r6, sp}
    4b44:	66666637 			; <UNDEFINED> instruction: 0x66666637
    4b48:	66666666 	strbtvs	r6, [r6], -r6, ror #12
    4b4c:	555f004c 	ldrbpl	r0, [pc, #-76]	; 4b08 <_Min_Stack_Size+0x4708>
    4b50:	475f4553 			; <UNDEFINED> instruction: 0x475f4553
    4b54:	414f5444 	cmpmi	pc, r4, asr #8
    4b58:	5f5f0020 	svcpl	0x005f0020
    4b5c:	5f6e696d 	svcpl	0x006e696d
    4b60:	657a6973 	ldrbvs	r6, [sl, #-2419]!	; 0xfffff68d
    4b64:	20297828 	eorcs	r7, r9, r8, lsr #16
    4b68:	74617473 	strbtvc	r7, [r1], #-1139	; 0xfffffb8d
    4b6c:	28206369 	stmdacs	r0!, {r0, r3, r5, r6, r8, r9, sp, lr}
    4b70:	5f002978 	svcpl	0x00002978
    4b74:	454d4954 	strbmi	r4, [sp, #-2388]	; 0xfffff6ac
    4b78:	5f545f52 	svcpl	0x00545f52
    4b7c:	736e7520 	cmnvc	lr, #32, 10	; 0x8000000
    4b80:	656e6769 	strbvs	r6, [lr, #-1897]!	; 0xfffff897
    4b84:	6f6c2064 	svcvs	0x006c2064
    4b88:	5f00676e 	svcpl	0x0000676e
    4b8c:	544e495f 	strbpl	r4, [lr], #-2399	; 0xfffff6a1
    4b90:	41454c5f 	cmpmi	r5, pc, asr ip
    4b94:	34365453 	ldrtcc	r5, [r6], #-1107	; 0xfffffbad
    4b98:	58414d5f 	stmdapl	r1, {r0, r1, r2, r3, r4, r6, r8, sl, fp, lr}^
    4b9c:	30205f5f 	eorcc	r5, r0, pc, asr pc
    4ba0:	66663778 			; <UNDEFINED> instruction: 0x66663778
    4ba4:	66666666 	strbtvs	r6, [r6], -r6, ror #12
    4ba8:	66666666 	strbtvs	r6, [r6], -r6, ror #12
    4bac:	66666666 	strbtvs	r6, [r6], -r6, ror #12
    4bb0:	004c4c66 	subeq	r4, ip, r6, ror #24
    4bb4:	50415f5f 	subpl	r5, r1, pc, asr pc
    4bb8:	335f5343 	cmpcc	pc, #201326593	; 0xc000001
    4bbc:	205f5f32 	subscs	r5, pc, r2, lsr pc	; <UNPREDICTABLE>
    4bc0:	5f5f0031 	svcpl	0x005f0031
    4bc4:	5f4d5241 	svcpl	0x004d5241
    4bc8:	54414546 	strbpl	r4, [r1], #-1350	; 0xfffffaba
    4bcc:	5f455255 	svcpl	0x00455255
    4bd0:	36314642 	ldrtcc	r4, [r1], -r2, asr #12
    4bd4:	4345565f 	movtmi	r5, #22111	; 0x565f
    4bd8:	5f524f54 	svcpl	0x00524f54
    4bdc:	54495241 	strbpl	r5, [r9], #-577	; 0xfffffdbf
    4be0:	54454d48 	strbpl	r4, [r5], #-3400	; 0xfffff2b8
    4be4:	5f004349 	svcpl	0x00004349
    4be8:	5f535953 	svcpl	0x00535953
    4bec:	4454535f 	ldrbmi	r5, [r4], #-863	; 0xfffffca1
    4bf0:	5f544e49 	svcpl	0x00544e49
    4bf4:	5f002048 	svcpl	0x00002048
    4bf8:	65656e5f 	strbvs	r6, [r5, #-3679]!	; 0xfffff1a1
    4bfc:	554e5f64 	strbpl	r5, [lr, #-3940]	; 0xfffff09c
    4c00:	00204c4c 	eoreq	r4, r0, ip, asr #24
    4c04:	4645445f 			; <UNDEFINED> instruction: 0x4645445f
    4c08:	544c5541 	strbpl	r5, [ip], #-1345	; 0xfffffabf
    4c0c:	554f535f 	strbpl	r5, [pc, #-863]	; 48b5 <_Min_Stack_Size+0x44b5>
    4c10:	20454352 	subcs	r4, r5, r2, asr r3
    4c14:	4b4f0031 	blmi	13c4ce0 <_Min_Stack_Size+0x13c48e0>
    4c18:	49003120 	stmdbmi	r0, {r5, r8, ip, sp}
    4c1c:	535f4332 	cmppl	pc, #-939524096	; 0xc8000000
    4c20:	535f3252 	cmppl	pc, #536870917	; 0x20000005
    4c24:	4544424d 	strbmi	r4, [r4, #-589]	; 0xfffffdb3
    4c28:	4c554146 	ldfmie	f4, [r5], {70}	; 0x46
    4c2c:	6f505f54 	svcvs	0x00505f54
    4c30:	35282073 	strcc	r2, [r8, #-115]!	; 0xffffff8d
    4c34:	5f002955 	svcpl	0x00002955
    4c38:	544c465f 	strbpl	r4, [ip], #-1631	; 0xfffff9a1
    4c3c:	4d5f3233 	lfmmi	f3, 2, [pc, #-204]	; 4b78 <_Min_Stack_Size+0x4778>
    4c40:	5f544e41 	svcpl	0x00544e41
    4c44:	5f474944 	svcpl	0x00474944
    4c48:	3432205f 	ldrtcc	r2, [r2], #-95	; 0xffffffa1
    4c4c:	43324900 	teqmi	r2, #0, 18
    4c50:	56455f32 			; <UNDEFINED> instruction: 0x56455f32
    4c54:	5152495f 	cmppl	r2, pc, asr r9
    4c58:	00333320 	eorseq	r3, r3, r0, lsr #6
    4c5c:	4c465f5f 	mcrrmi	15, 5, r5, r6, cr15
    4c60:	5f323354 	svcpl	0x00323354
    4c64:	4f4e4544 	svcmi	0x004e4544
    4c68:	4d5f4d52 	ldclmi	13, cr4, [pc, #-328]	; 4b28 <_Min_Stack_Size+0x4728>
    4c6c:	5f5f4e49 	svcpl	0x005f4e49
    4c70:	342e3120 	strtcc	r3, [lr], #-288	; 0xfffffee0
    4c74:	39323130 	ldmdbcc	r2!, {r4, r5, r8, ip, sp}
    4c78:	34363438 	ldrtcc	r3, [r6], #-1080	; 0xfffffbc8
    4c7c:	38343233 	ldmdacc	r4!, {r0, r1, r4, r5, r9, ip, sp}
    4c80:	65313731 	ldrvs	r3, [r1, #-1841]!	; 0xfffff8cf
    4c84:	4635342d 	ldrtmi	r3, [r5], -sp, lsr #8
    4c88:	6f003233 	svcvs	0x00003233
    4c8c:	65736666 	ldrbvs	r6, [r3, #-1638]!	; 0xfffff99a
    4c90:	28666f74 	stmdacs	r6!, {r2, r4, r5, r6, r8, r9, sl, fp, sp, lr}^
    4c94:	45505954 	ldrbmi	r5, [r0, #-2388]	; 0xfffff6ac
    4c98:	4d454d2c 	stclmi	13, cr4, [r5, #-176]	; 0xffffff50
    4c9c:	29524542 	ldmdbcs	r2, {r1, r6, r8, sl, lr}^
    4ca0:	625f5f20 	subsvs	r5, pc, #32, 30	; 0x80
    4ca4:	746c6975 	strbtvc	r6, [ip], #-2421	; 0xfffff68b
    4ca8:	6f5f6e69 	svcvs	0x005f6e69
    4cac:	65736666 	ldrbvs	r6, [r3, #-1638]!	; 0xfffff99a
    4cb0:	20666f74 	rsbcs	r6, r6, r4, ror pc
    4cb4:	50595428 	subspl	r5, r9, r8, lsr #8
    4cb8:	4d202c45 	stcmi	12, cr2, [r0, #-276]!	; 0xfffffeec
    4cbc:	45424d45 	strbmi	r4, [r2, #-3397]	; 0xfffff2bb
    4cc0:	5f002952 	svcpl	0x00002952
    4cc4:	4e49555f 	mcrmi	5, 2, r5, cr9, cr15, {2}
    4cc8:	5f343654 	svcpl	0x00343654
    4ccc:	29632843 	stmdbcs	r3!, {r0, r1, r6, fp, sp}^
    4cd0:	23206320 			; <UNDEFINED> instruction: 0x23206320
    4cd4:	4c552023 	mrrcmi	0, 2, r2, r5, cr3
    4cd8:	5f5f004c 	svcpl	0x005f004c
    4cdc:	544e4955 	strbpl	r4, [lr], #-2389	; 0xfffff6ab
    4ce0:	41454c5f 	cmpmi	r5, pc, asr ip
    4ce4:	34365453 	ldrtcc	r5, [r6], #-1107	; 0xfffffbad
    4ce8:	5059545f 	subspl	r5, r9, pc, asr r4
    4cec:	205f5f45 	subscs	r5, pc, r5, asr #30
    4cf0:	676e6f6c 	strbvs	r6, [lr, -ip, ror #30]!
    4cf4:	6e6f6c20 	cdpvs	12, 6, cr6, cr15, cr0, {1}
    4cf8:	6e752067 	cdpvs	0, 7, cr2, cr5, cr7, {3}
    4cfc:	6e676973 			; <UNDEFINED> instruction: 0x6e676973
    4d00:	69206465 	stmdbvs	r0!, {r0, r2, r5, r6, sl, sp, lr}
    4d04:	5f00746e 	svcpl	0x0000746e
    4d08:	4653555f 			; <UNDEFINED> instruction: 0x4653555f
    4d0c:	54434152 	strbpl	r4, [r3], #-338	; 0xfffffeae
    4d10:	4942465f 	stmdbmi	r2, {r0, r1, r2, r3, r4, r6, r9, sl, lr}^
    4d14:	205f5f54 	subscs	r5, pc, r4, asr pc	; <UNPREDICTABLE>
    4d18:	5f5f0038 	svcpl	0x005f0038
    4d1c:	4c42444c 	cfstrdmi	mvd4, [r2], {76}	; 0x4c
    4d20:	5350455f 	cmppl	r0, #398458880	; 0x17c00000
    4d24:	4e4f4c49 	cdpmi	12, 4, cr4, cr15, cr9, {2}
    4d28:	32205f5f 	eorcc	r5, r0, #380	; 0x17c
    4d2c:	3032322e 	eorscc	r3, r2, lr, lsr #4
    4d30:	30363434 	eorscc	r3, r6, r4, lsr r4
    4d34:	35323934 	ldrcc	r3, [r2, #-2356]!	; 0xfffff6cc
    4d38:	33313330 	teqcc	r1, #48, 6	; 0xc0000000
    4d3c:	312d6531 			; <UNDEFINED> instruction: 0x312d6531
    4d40:	49004c36 	stmdbmi	r0, {r1, r2, r4, r5, sl, fp, lr}
    4d44:	465f544e 	ldrbmi	r5, [pc], -lr, asr #8
    4d48:	36545341 	ldrbcc	r5, [r4], -r1, asr #6
    4d4c:	414d5f34 	cmpmi	sp, r4, lsr pc
    4d50:	5f282058 	svcpl	0x00282058
    4d54:	544e495f 	strbpl	r4, [lr], #-2399	; 0xfffff6a1
    4d58:	5341465f 	movtpl	r4, #5727	; 0x165f
    4d5c:	5f343654 	svcpl	0x00343654
    4d60:	5f58414d 	svcpl	0x0058414d
    4d64:	5f00295f 	svcpl	0x0000295f
    4d68:	7275705f 	rsbsvc	r7, r5, #95	; 0x5f
    4d6c:	5f203265 	svcpl	0x00203265
    4d70:	7474615f 	ldrbtvc	r6, [r4], #-351	; 0xfffffea1
    4d74:	75626972 	strbvc	r6, [r2, #-2418]!	; 0xfffff68e
    4d78:	5f5f6574 	svcpl	0x005f6574
    4d7c:	5f5f2828 	svcpl	0x005f2828
    4d80:	736e6f63 	cmnvc	lr, #396	; 0x18c
    4d84:	295f5f74 	ldmdbcs	pc, {r2, r4, r5, r6, r8, r9, sl, fp, ip, lr}^	; <UNPREDICTABLE>
    4d88:	5f5f0029 	svcpl	0x005f0029
    4d8c:	5f434347 	svcpl	0x00434347
    4d90:	4d4f5441 	cfstrdmi	mvd5, [pc, #-260]	; 4c94 <_Min_Stack_Size+0x4894>
    4d94:	435f4349 	cmpmi	pc, #603979777	; 0x24000001
    4d98:	31524148 	cmpcc	r2, r8, asr #2
    4d9c:	5f545f36 	svcpl	0x00545f36
    4da0:	4b434f4c 	blmi	10d8ad8 <_Min_Stack_Size+0x10d86d8>
    4da4:	4552465f 	ldrbmi	r4, [r2, #-1631]	; 0xfffff9a1
    4da8:	00322045 	eorseq	r2, r2, r5, asr #32
    4dac:	554e5f5f 	strbpl	r5, [lr, #-3935]	; 0xfffff0a1
    4db0:	42414c4c 	submi	r4, r1, #76, 24	; 0x4c00
    4db4:	54494c49 	strbpl	r4, [r9], #-3145	; 0xfffff3b7
    4db8:	52505f59 	subspl	r5, r0, #356	; 0x164
    4dbc:	414d4741 	cmpmi	sp, r1, asr #14
    4dc0:	5355505f 	cmppl	r5, #95	; 0x5f
    4dc4:	57002048 	strpl	r2, [r0, -r8, asr #32]
    4dc8:	52414843 	subpl	r4, r1, #4390912	; 0x430000
    4dcc:	4e494d5f 	mcrmi	13, 2, r4, cr9, cr15, {2}
    4dd0:	5f5f2820 	svcpl	0x005f2820
    4dd4:	41484357 	cmpmi	r8, r7, asr r3
    4dd8:	494d5f52 	stmdbmi	sp, {r1, r4, r6, r8, r9, sl, fp, ip, lr}^
    4ddc:	295f5f4e 	ldmdbcs	pc, {r1, r2, r3, r6, r8, r9, sl, fp, ip, lr}^	; <UNPREDICTABLE>
    4de0:	4b434c00 	blmi	10d7de8 <_Min_Stack_Size+0x10d79e8>
    4de4:	5f5f0052 	svcpl	0x005f0052
    4de8:	5f4c4244 	svcpl	0x004c4244
    4dec:	5f58414d 	svcpl	0x0058414d
    4df0:	5f505845 	svcpl	0x00505845
    4df4:	3031205f 	eorscc	r2, r1, pc, asr r0
    4df8:	5f003432 	svcpl	0x00003432
    4dfc:	5341465f 	movtpl	r4, #5727	; 0x165f
    4e00:	20343654 	eorscs	r3, r4, r4, asr r6
    4e04:	226c6c22 	rsbcs	r6, ip, #8704	; 0x2200
    4e08:	415f5f00 	cmpmi	pc, r0, lsl #30
    4e0c:	494d4f54 	stmdbmi	sp, {r2, r4, r6, r8, r9, sl, fp, lr}^
    4e10:	45525f43 	ldrbmi	r5, [r2, #-3907]	; 0xfffff0bd
    4e14:	5341454c 	movtpl	r4, #5452	; 0x154c
    4e18:	00332045 	eorseq	r2, r3, r5, asr #32
    4e1c:	69736e75 	ldmdbvs	r3!, {r0, r2, r4, r5, r6, r9, sl, fp, sp, lr}^
    4e20:	64656e67 	strbtvs	r6, [r5], #-3687	; 0xfffff199
    4e24:	00302b20 	eorseq	r2, r0, r0, lsr #22
    4e28:	5f433249 	svcpl	0x00433249
    4e2c:	5f315243 	svcpl	0x00315243
    4e30:	52415453 	subpl	r5, r1, #1392508928	; 0x53000000
    4e34:	32492054 	subcc	r2, r9, #84	; 0x54
    4e38:	52435f43 	subpl	r5, r3, #268	; 0x10c
    4e3c:	54535f31 	ldrbpl	r5, [r3], #-3889	; 0xfffff0cf
    4e40:	5f545241 	svcpl	0x00545241
    4e44:	006b734d 	rsbeq	r7, fp, sp, asr #6
    4e48:	4c465f5f 	mcrrmi	15, 5, r5, r6, cr15
    4e4c:	58323354 	ldmdapl	r2!, {r2, r4, r6, r8, r9, ip, sp}
    4e50:	5341485f 	movtpl	r4, #6239	; 0x185f
    4e54:	4e45445f 	mcrmi	4, 2, r4, cr5, cr15, {2}
    4e58:	5f4d524f 	svcpl	0x004d524f
    4e5c:	0031205f 	eorseq	r2, r1, pc, asr r0
    4e60:	4c465f5f 	mcrrmi	15, 5, r5, r6, cr15
    4e64:	414d5f54 	cmpmi	sp, r4, asr pc
    4e68:	445f544e 	ldrbmi	r5, [pc], #-1102	; 4e70 <_Min_Stack_Size+0x4a70>
    4e6c:	5f5f4749 	svcpl	0x005f4749
    4e70:	00343220 	eorseq	r3, r4, r0, lsr #4
    4e74:	52415355 	subpl	r5, r1, #1409286145	; 0x54000001
    4e78:	495f3154 	ldmdbmi	pc, {r2, r4, r6, r8, ip, sp}^	; <UNPREDICTABLE>
    4e7c:	33205152 			; <UNDEFINED> instruction: 0x33205152
    4e80:	32490037 	subcc	r0, r9, #55	; 0x37
    4e84:	52535f43 	subspl	r5, r3, #268	; 0x10c
    4e88:	564f5f31 			; <UNDEFINED> instruction: 0x564f5f31
    4e8c:	734d5f52 	movtvc	r5, #57170	; 0xdf52
    4e90:	3028206b 	eorcc	r2, r8, fp, rrx
    4e94:	4c553178 	ldfmie	f3, [r5], {120}	; 0x78
    4e98:	203c3c20 	eorscs	r3, ip, r0, lsr #24
    4e9c:	5f433249 	svcpl	0x00433249
    4ea0:	5f315253 	svcpl	0x00315253
    4ea4:	5f52564f 	svcpl	0x0052564f
    4ea8:	29736f50 	ldmdbcs	r3!, {r4, r6, r8, r9, sl, fp, sp, lr}^
    4eac:	41525f00 	cmpmi	r2, r0, lsl #30
    4eb0:	3834444e 	ldmdacc	r4!, {r1, r2, r3, r6, sl, lr}
    4eb4:	4545535f 	strbmi	r5, [r5, #-863]	; 0xfffffca1
    4eb8:	20315f44 	eorscs	r5, r1, r4, asr #30
    4ebc:	61783028 	cmnvs	r8, r8, lsr #32
    4ec0:	29646362 	stmdbcs	r4!, {r1, r5, r6, r8, r9, sp, lr}^
    4ec4:	555f5f00 	ldrbpl	r5, [pc, #-3840]	; 3fcc <_Min_Stack_Size+0x3bcc>
    4ec8:	495f5144 	ldmdbmi	pc, {r2, r6, r8, ip, lr}^	; <UNPREDICTABLE>
    4ecc:	5f544942 	svcpl	0x00544942
    4ed0:	0030205f 	eorseq	r2, r0, pc, asr r0
    4ed4:	20746e69 	rsbscs	r6, r4, r9, ror #28
    4ed8:	4900322b 	stmdbmi	r0, {r0, r1, r3, r5, r9, ip, sp}
    4edc:	435f4332 	cmpmi	pc, #-939524096	; 0xc8000000
    4ee0:	535f3152 	cmppl	pc, #-2147483628	; 0x80000014
    4ee4:	54524154 	ldrbpl	r4, [r2], #-340	; 0xfffffeac
    4ee8:	736f505f 	cmnvc	pc, #95	; 0x5f
    4eec:	55382820 	ldrpl	r2, [r8, #-2080]!	; 0xfffff7e0
    4ef0:	49550029 	ldmdbmi	r5, {r0, r3, r5}^
    4ef4:	414d544e 	cmpmi	sp, lr, asr #8
    4ef8:	414d5f58 	cmpmi	sp, r8, asr pc
    4efc:	5f282058 	svcpl	0x00282058
    4f00:	4e49555f 	mcrmi	5, 2, r5, cr9, cr15, {2}
    4f04:	58414d54 	stmdapl	r1, {r2, r4, r6, r8, sl, fp, lr}^
    4f08:	58414d5f 	stmdapl	r1, {r0, r1, r2, r3, r4, r6, r8, sl, fp, lr}^
    4f0c:	00295f5f 	eoreq	r5, r9, pc, asr pc
    4f10:	5f433249 	svcpl	0x00433249
    4f14:	5f325253 	svcpl	0x00325253
    4f18:	5f4c534d 	svcpl	0x004c534d
    4f1c:	206b734d 	rsbcs	r7, fp, sp, asr #6
    4f20:	31783028 	cmncc	r8, r8, lsr #32
    4f24:	3c204c55 	stccc	12, cr4, [r0], #-340	; 0xfffffeac
    4f28:	3249203c 	subcc	r2, r9, #60	; 0x3c
    4f2c:	52535f43 	subspl	r5, r3, #268	; 0x10c
    4f30:	534d5f32 	movtpl	r5, #57138	; 0xdf32
    4f34:	6f505f4c 	svcvs	0x00505f4c
    4f38:	5f002973 	svcpl	0x00002973
    4f3c:	6e695f5f 	mcrvs	15, 3, r5, cr9, cr15, {2}
    4f40:	74705f74 	ldrbtvc	r5, [r0], #-3956	; 0xfffff08c
    4f44:	66696472 			; <UNDEFINED> instruction: 0x66696472
    4f48:	5f745f66 	svcpl	0x00745f66
    4f4c:	5f002068 	svcpl	0x00002068
    4f50:	4341555f 	movtmi	r5, #5471	; 0x155f
    4f54:	5f4d5543 	svcpl	0x004d5543
    4f58:	5f58414d 	svcpl	0x0058414d
    4f5c:	5830205f 	ldmdapl	r0!, {r0, r1, r2, r3, r4, r6, sp}
    4f60:	46464646 	strbmi	r4, [r6], -r6, asr #12
    4f64:	46464646 	strbmi	r4, [r6], -r6, asr #12
    4f68:	36312d50 			; <UNDEFINED> instruction: 0x36312d50
    4f6c:	5f004b55 	svcpl	0x00004b55
    4f70:	5f43435f 	svcpl	0x0043435f
    4f74:	50505553 	subspl	r5, r0, r3, asr r5
    4f78:	5354524f 	cmppl	r4, #-268435452	; 0xf0000004
    4f7c:	465f5f5f 	usaxmi	r5, pc, pc	; <UNPREDICTABLE>
    4f80:	5f434e55 	svcpl	0x00434e55
    4f84:	0031205f 	eorseq	r2, r1, pc, asr r0
    4f88:	4c465f5f 	mcrrmi	15, 5, r5, r6, cr15
    4f8c:	5f343654 	svcpl	0x00343654
    4f90:	4d524f4e 	ldclmi	15, cr4, [r2, #-312]	; 0xfffffec8
    4f94:	58414d5f 	stmdapl	r1, {r0, r1, r2, r3, r4, r6, r8, sl, fp, lr}^
    4f98:	31205f5f 			; <UNDEFINED> instruction: 0x31205f5f
    4f9c:	3739372e 	ldrcc	r3, [r9, -lr, lsr #14]!
    4fa0:	31333936 	teqcc	r3, r6, lsr r9
    4fa4:	36383433 			; <UNDEFINED> instruction: 0x36383433
    4fa8:	35313332 	ldrcc	r3, [r1, #-818]!	; 0xfffffcce
    4fac:	332b6537 			; <UNDEFINED> instruction: 0x332b6537
    4fb0:	36463830 			; <UNDEFINED> instruction: 0x36463830
    4fb4:	4e490034 	mcrmi	0, 2, r0, cr9, cr4, {1}
    4fb8:	50475f43 	subpl	r5, r7, r3, asr #30
    4fbc:	485f4f49 	ldmdami	pc, {r0, r3, r6, r8, r9, sl, fp, lr}^	; <UNPREDICTABLE>
    4fc0:	5f00205f 	svcpl	0x0000205f
    4fc4:	554e475f 	strbpl	r4, [lr, #-1887]	; 0xfffff8a1
    4fc8:	4b494c43 	blmi	12580dc <_Min_Stack_Size+0x1257cdc>
    4fcc:	414d5f45 	cmpmi	sp, r5, asr #30
    4fd0:	425f4854 	subsmi	r4, pc, #84, 16	; 0x540000
    4fd4:	544c4955 	strbpl	r4, [ip], #-2389	; 0xfffff6ab
    4fd8:	435f4e49 	cmpmi	pc, #1168	; 0x490
    4fdc:	54534e4f 	ldrbpl	r4, [r3], #-3663	; 0xfffff1b1
    4fe0:	53544e41 	cmppl	r4, #1040	; 0x410
    4fe4:	525f0020 	subspl	r0, pc, #32
    4fe8:	544e4545 	strbpl	r4, [lr], #-1349	; 0xfffffabb
    4fec:	4353415f 	cmpmi	r3, #-1073741801	; 0xc0000017
    4ff0:	454d4954 	strbmi	r4, [sp, #-2388]	; 0xfffff6ac
    4ff4:	4655425f 			; <UNDEFINED> instruction: 0x4655425f
    4ff8:	72747028 	rsbsvc	r7, r4, #40	; 0x28
    4ffc:	28282029 	stmdacs	r8!, {r0, r3, r5, sp}
    5000:	29727470 	ldmdbcs	r2!, {r4, r5, r6, sl, ip, sp, lr}^
    5004:	615f3e2d 	cmpvs	pc, sp, lsr #28
    5008:	69746373 	ldmdbvs	r4!, {r0, r1, r4, r5, r6, r8, r9, sp, lr}^
    500c:	625f656d 	subsvs	r6, pc, #457179136	; 0x1b400000
    5010:	00296675 	eoreq	r6, r9, r5, ror r6
    5014:	5f433249 	svcpl	0x00433249
    5018:	5f315253 	svcpl	0x00315253
    501c:	4f4c5241 	svcmi	0x004c5241
    5020:	6b734d5f 	blvs	1cd85a4 <_Min_Stack_Size+0x1cd81a4>
    5024:	78302820 	ldmdavc	r0!, {r5, fp, sp}
    5028:	204c5531 	subcs	r5, ip, r1, lsr r5
    502c:	49203c3c 	stmdbmi	r0!, {r2, r3, r4, r5, sl, fp, ip, sp}
    5030:	535f4332 	cmppl	pc, #-939524096	; 0xc8000000
    5034:	415f3152 	cmpmi	pc, r2, asr r1	; <UNPREDICTABLE>
    5038:	5f4f4c52 	svcpl	0x004f4c52
    503c:	29736f50 	ldmdbcs	r3!, {r4, r6, r8, r9, sl, fp, sp, lr}^
    5040:	5f545f00 	svcpl	0x00545f00
    5044:	44525450 	ldrbmi	r5, [r2], #-1104	; 0xfffffbb0
    5048:	5f464649 	svcpl	0x00464649
    504c:	32490020 	subcc	r0, r9, #32
    5050:	52435f43 	subpl	r5, r3, #268	; 0x10c
    5054:	4e455f31 	mcrmi	15, 2, r5, cr5, cr1, {1}
    5058:	20505241 	subscs	r5, r0, r1, asr #4
    505c:	5f433249 	svcpl	0x00433249
    5060:	5f315243 	svcpl	0x00315243
    5064:	52414e45 	subpl	r4, r1, #1104	; 0x450
    5068:	734d5f50 	movtvc	r5, #57168	; 0xdf50
    506c:	5845006b 	stmdapl	r5, {r0, r1, r3, r5, r6}^
    5070:	50334954 	eorspl	r4, r3, r4, asr r9
    5074:	28203342 	stmdacs	r0!, {r1, r6, r8, r9, ip, sp}
    5078:	49545845 	ldmdbmi	r4, {r0, r2, r6, fp, ip, lr}^
    507c:	4950475f 	ldmdbmi	r0, {r0, r1, r2, r3, r4, r6, r8, r9, sl, lr}^
    5080:	614d5f4f 	cmpvs	sp, pc, asr #30
    5084:	6e697070 	mcrvs	0, 3, r7, cr9, cr0, {3}
    5088:	29745f67 	ldmdbcs	r4!, {r0, r1, r2, r5, r6, r8, r9, sl, fp, ip, lr}^
    508c:	5458457b 	ldrbpl	r4, [r8], #-1403	; 0xfffffa85
    5090:	202c3349 	eorcs	r3, ip, r9, asr #6
    5094:	4f495047 	svcmi	0x00495047
    5098:	202c2042 	eorcs	r2, ip, r2, asr #32
    509c:	4f495047 	svcmi	0x00495047
    50a0:	4e49505f 	mcrmi	0, 2, r5, cr9, cr15, {2}
    50a4:	2c20335f 	stccs	3, cr3, [r0], #-380	; 0xfffffe84
    50a8:	49545845 	ldmdbmi	r4, {r0, r2, r6, fp, ip, lr}^
    50ac:	52495f33 	subpl	r5, r9, #51, 30	; 0xcc
    50b0:	007d2051 	rsbseq	r2, sp, r1, asr r0
    50b4:	444c5f5f 	strbmi	r5, [ip], #-3935	; 0xfffff0a1
    50b8:	445f4c42 	ldrbmi	r4, [pc], #-3138	; 50c0 <_Min_Stack_Size+0x4cc0>
    50bc:	524f4e45 	subpl	r4, pc, #1104	; 0x450
    50c0:	494d5f4d 	stmdbmi	sp, {r0, r2, r3, r6, r8, r9, sl, fp, ip, lr}^
    50c4:	205f5f4e 	subscs	r5, pc, lr, asr #30
    50c8:	34392e34 	ldrtcc	r2, [r9], #-3636	; 0xfffff1cc
    50cc:	36353630 			; <UNDEFINED> instruction: 0x36353630
    50d0:	34383534 	ldrtcc	r3, [r8], #-1332	; 0xfffffacc
    50d4:	36343231 			; <UNDEFINED> instruction: 0x36343231
    50d8:	2d653435 	cfstrdcs	mvd3, [r5, #-212]!	; 0xffffff2c
    50dc:	4c343233 	lfmmi	f3, 4, [r4], #-204	; 0xffffff34
    50e0:	495f5f00 	ldmdbmi	pc, {r8, r9, sl, fp, ip, lr}^	; <UNPREDICTABLE>
    50e4:	3436544e 	ldrtcc	r5, [r6], #-1102	; 0xfffffbb2
    50e8:	58414d5f 	stmdapl	r1, {r0, r1, r2, r3, r4, r6, r8, sl, fp, lr}^
    50ec:	30205f5f 	eorcc	r5, r0, pc, asr pc
    50f0:	66663778 			; <UNDEFINED> instruction: 0x66663778
    50f4:	66666666 	strbtvs	r6, [r6], -r6, ror #12
    50f8:	66666666 	strbtvs	r6, [r6], -r6, ror #12
    50fc:	66666666 	strbtvs	r6, [r6], -r6, ror #12
    5100:	004c4c66 	subeq	r4, ip, r6, ror #24
    5104:	65737361 	ldrbvs	r7, [r3, #-865]!	; 0xfffffc9f
    5108:	5f287472 	svcpl	0x00287472
    510c:	2029655f 	eorcs	r6, r9, pc, asr r5
    5110:	5f5f2828 	svcpl	0x005f2828
    5114:	3f202965 	svccc	0x00202965
    5118:	6f762820 	svcvs	0x00762820
    511c:	30296469 	eorcc	r6, r9, r9, ror #8
    5120:	5f203a20 	svcpl	0x00203a20
    5124:	7373615f 	cmnvc	r3, #-1073741801	; 0xc0000017
    5128:	5f747265 	svcpl	0x00747265
    512c:	636e7566 	cmnvs	lr, #427819008	; 0x19800000
    5130:	5f5f2820 	svcpl	0x005f2820
    5134:	454c4946 	strbmi	r4, [ip, #-2374]	; 0xfffff6ba
    5138:	202c5f5f 	eorcs	r5, ip, pc, asr pc
    513c:	494c5f5f 	stmdbmi	ip, {r0, r1, r2, r3, r4, r6, r8, r9, sl, fp, ip, lr}^
    5140:	5f5f454e 	svcpl	0x005f454e
    5144:	5f5f202c 	svcpl	0x005f202c
    5148:	45535341 	ldrbmi	r5, [r3, #-833]	; 0xfffffcbf
    514c:	465f5452 			; <UNDEFINED> instruction: 0x465f5452
    5150:	2c434e55 	mcrrcs	14, 5, r4, r3, cr5
    5154:	5f5f2320 	svcpl	0x005f2320
    5158:	00292965 	eoreq	r2, r9, r5, ror #18
    515c:	4c555f5f 	mrrcmi	15, 5, r5, r5, cr15	; <UNPREDICTABLE>
    5160:	4152464c 	cmpmi	r2, ip, asr #12
    5164:	495f5443 	ldmdbmi	pc, {r0, r1, r6, sl, ip, lr}^	; <UNPREDICTABLE>
    5168:	5f544942 	svcpl	0x00544942
    516c:	0030205f 	eorseq	r2, r0, pc, asr r0
    5170:	534e415f 	movtpl	r4, #57695	; 0xe15f
    5174:	54535f49 	ldrbpl	r5, [r3], #-3913	; 0xfffff0b7
    5178:	46454444 	strbmi	r4, [r5], -r4, asr #8
    517c:	0020485f 	eoreq	r4, r0, pc, asr r8
    5180:	5f433249 	svcpl	0x00433249
    5184:	5f315243 	svcpl	0x00315243
    5188:	505f4550 	subspl	r4, pc, r0, asr r5	; <UNPREDICTABLE>
    518c:	2820736f 	stmdacs	r0!, {r0, r1, r2, r3, r5, r6, r8, r9, ip, sp, lr}
    5190:	00295530 	eoreq	r5, r9, r0, lsr r5
    5194:	49545845 	ldmdbmi	r4, {r0, r2, r6, fp, ip, lr}^
    5198:	36425036 			; <UNDEFINED> instruction: 0x36425036
    519c:	58452820 	stmdapl	r5, {r5, fp, sp}^
    51a0:	475f4954 			; <UNDEFINED> instruction: 0x475f4954
    51a4:	5f4f4950 	svcpl	0x004f4950
    51a8:	7070614d 	rsbsvc	r6, r0, sp, asr #2
    51ac:	5f676e69 	svcpl	0x00676e69
    51b0:	457b2974 	ldrbmi	r2, [fp, #-2420]!	; 0xfffff68c
    51b4:	36495458 			; <UNDEFINED> instruction: 0x36495458
    51b8:	5047202c 	subpl	r2, r7, ip, lsr #32
    51bc:	20424f49 	subcs	r4, r2, r9, asr #30
    51c0:	5047202c 	subpl	r2, r7, ip, lsr #32
    51c4:	505f4f49 	subspl	r4, pc, r9, asr #30
    51c8:	365f4e49 	ldrbcc	r4, [pc], -r9, asr #28
    51cc:	58452c20 	stmdapl	r5, {r5, sl, fp, sp}^
    51d0:	5f364954 	svcpl	0x00364954
    51d4:	20515249 	subscs	r5, r1, r9, asr #4
    51d8:	5845007d 	stmdapl	r5, {r0, r2, r3, r4, r5, r6}^
    51dc:	33314954 	teqcc	r1, #84, 18	; 0x150000
    51e0:	33314350 	teqcc	r1, #80, 6	; 0x40000001
    51e4:	58452820 	stmdapl	r5, {r5, fp, sp}^
    51e8:	475f4954 			; <UNDEFINED> instruction: 0x475f4954
    51ec:	5f4f4950 	svcpl	0x004f4950
    51f0:	7070614d 	rsbsvc	r6, r0, sp, asr #2
    51f4:	5f676e69 	svcpl	0x00676e69
    51f8:	457b2974 	ldrbmi	r2, [fp, #-2420]!	; 0xfffff68c
    51fc:	31495458 	cmpcc	r9, r8, asr r4
    5200:	202c2033 	eorcs	r2, ip, r3, lsr r0
    5204:	4f495047 	svcmi	0x00495047
    5208:	202c2043 	eorcs	r2, ip, r3, asr #32
    520c:	4f495047 	svcmi	0x00495047
    5210:	4e49505f 	mcrmi	0, 2, r5, cr9, cr15, {2}
    5214:	2033315f 	eorscs	r3, r3, pc, asr r1
    5218:	5458452c 	ldrbpl	r4, [r8], #-1324	; 0xfffffad4
    521c:	5f333149 	svcpl	0x00333149
    5220:	20515249 	subscs	r5, r1, r9, asr #4
    5224:	564e007d 			; <UNDEFINED> instruction: 0x564e007d
    5228:	495f4349 	ldmdbmi	pc, {r0, r3, r6, r8, r9, lr}^	; <UNPREDICTABLE>
    522c:	31335152 	teqcc	r3, r2, asr r1
    5230:	4332495f 	teqmi	r2, #1556480	; 0x17c000
    5234:	56455f31 			; <UNDEFINED> instruction: 0x56455f31
    5238:	7369445f 	cmnvc	r9, #1593835520	; 0x5f000000
    523c:	656c6261 	strbvs	r6, [ip, #-609]!	; 0xfffffd9f
    5240:	564e2820 	strbpl	r2, [lr], -r0, lsr #16
    5244:	495f4349 	ldmdbmi	pc, {r0, r3, r6, r8, r9, lr}^	; <UNPREDICTABLE>
    5248:	30524543 	subscc	r4, r2, r3, asr #10
    524c:	203d7c20 	eorscs	r7, sp, r0, lsr #24
    5250:	283c3c31 	ldmdacs	ip!, {r0, r4, r5, sl, fp, ip, sp}
    5254:	43324920 	teqmi	r2, #32, 18	; 0x80000
    5258:	56455f31 			; <UNDEFINED> instruction: 0x56455f31
    525c:	5152495f 	cmppl	r2, pc, asr r9
    5260:	00292920 	eoreq	r2, r9, r0, lsr #18
    5264:	75625f5f 	strbvc	r5, [r2, #-3935]!	; 0xfffff0a1
    5268:	69746c69 	ldmdbvs	r4!, {r0, r3, r5, r6, sl, fp, sp, lr}^
    526c:	6c615f6e 	stclvs	15, cr5, [r1], #-440	; 0xfffffe48
    5270:	5f6e6769 	svcpl	0x006e6769
    5274:	78287075 	stmdavc	r8!, {r0, r2, r4, r5, r6, ip, sp, lr}
    5278:	696c612c 	stmdbvs	ip!, {r2, r3, r5, r8, sp, lr}^
    527c:	20296e67 	eorcs	r6, r9, r7, ror #28
    5280:	5f5f2828 	svcpl	0x005f2828
    5284:	65707974 	ldrbvs	r7, [r0, #-2420]!	; 0xfffff68c
    5288:	5f5f666f 	svcpl	0x005f666f
    528c:	29297828 	stmdbcs	r9!, {r3, r5, fp, ip, sp, lr}
    5290:	5f282828 	svcpl	0x00282828
    5294:	6e69755f 	mcrvs	5, 3, r7, cr9, cr15, {2}
    5298:	72747074 	rsbsvc	r7, r4, #116	; 0x74
    529c:	2829745f 	stmdacs	r9!, {r0, r1, r2, r3, r4, r6, sl, ip, sp, lr}
    52a0:	282b2978 	stmdacs	fp!, {r3, r4, r5, r6, r8, fp, sp}
    52a4:	696c6128 	stmdbvs	ip!, {r3, r5, r8, sp, lr}^
    52a8:	2d296e67 	stccs	14, cr6, [r9, #-412]!	; 0xfffffe64
    52ac:	26292931 			; <UNDEFINED> instruction: 0x26292931
    52b0:	28287e28 	stmdacs	r8!, {r3, r5, r9, sl, fp, ip, sp, lr}
    52b4:	67696c61 	strbvs	r6, [r9, -r1, ror #24]!
    52b8:	312d296e 			; <UNDEFINED> instruction: 0x312d296e
    52bc:	29292929 	stmdbcs	r9!, {r0, r3, r5, r8, fp, sp}
    52c0:	475f5f00 	ldrbmi	r5, [pc, -r0, lsl #30]
    52c4:	5f43554e 	svcpl	0x0043554e
    52c8:	3131205f 	teqcc	r1, pc, asr r0
    52cc:	54584500 	ldrbpl	r4, [r8], #-1280	; 0xfffffb00
    52d0:	44503849 	ldrbmi	r3, [r0], #-2121	; 0xfffff7b7
    52d4:	45282038 	strmi	r2, [r8, #-56]!	; 0xffffffc8
    52d8:	5f495458 	svcpl	0x00495458
    52dc:	4f495047 	svcmi	0x00495047
    52e0:	70614d5f 	rsbvc	r4, r1, pc, asr sp
    52e4:	676e6970 			; <UNDEFINED> instruction: 0x676e6970
    52e8:	7b29745f 	blvc	a6246c <_Min_Stack_Size+0xa6206c>
    52ec:	49545845 	ldmdbmi	r4, {r0, r2, r6, fp, ip, lr}^
    52f0:	202c2038 	eorcs	r2, ip, r8, lsr r0
    52f4:	4f495047 	svcmi	0x00495047
    52f8:	202c2044 	eorcs	r2, ip, r4, asr #32
    52fc:	4f495047 	svcmi	0x00495047
    5300:	4e49505f 	mcrmi	0, 2, r5, cr9, cr15, {2}
    5304:	2c20385f 	stccs	8, cr3, [r0], #-380	; 0xfffffe84
    5308:	54584520 	ldrbpl	r4, [r8], #-1312	; 0xfffffae0
    530c:	495f3849 	ldmdbmi	pc, {r0, r3, r6, fp, ip, sp}^	; <UNPREDICTABLE>
    5310:	007d5152 	rsbseq	r5, sp, r2, asr r1
    5314:	5f433249 	svcpl	0x00433249
    5318:	5f325253 	svcpl	0x00325253
    531c:	48424d53 	stmdami	r2, {r0, r1, r4, r6, r8, sl, fp, lr}^
    5320:	5f54534f 	svcpl	0x0054534f
    5324:	206b734d 	rsbcs	r7, fp, sp, asr #6
    5328:	31783028 	cmncc	r8, r8, lsr #32
    532c:	3c204c55 	stccc	12, cr4, [r0], #-340	; 0xfffffeac
    5330:	3249203c 	subcc	r2, r9, #60	; 0x3c
    5334:	52535f43 	subspl	r5, r3, #268	; 0x10c
    5338:	4d535f32 	ldclmi	15, cr5, [r3, #-200]	; 0xffffff38
    533c:	534f4842 	movtpl	r4, #63554	; 0xf842
    5340:	6f505f54 	svcvs	0x00505f54
    5344:	45002973 	strmi	r2, [r0, #-2419]	; 0xfffff68d
    5348:	31495458 	cmpcc	r9, r8, asr r4
    534c:	31415034 	cmpcc	r1, r4, lsr r0
    5350:	45282034 	strmi	r2, [r8, #-52]!	; 0xffffffcc
    5354:	5f495458 	svcpl	0x00495458
    5358:	4f495047 	svcmi	0x00495047
    535c:	70614d5f 	rsbvc	r4, r1, pc, asr sp
    5360:	676e6970 			; <UNDEFINED> instruction: 0x676e6970
    5364:	7b29745f 	blvc	a624e8 <_Min_Stack_Size+0xa620e8>
    5368:	49545845 	ldmdbmi	r4, {r0, r2, r6, fp, ip, lr}^
    536c:	202c3431 	eorcs	r3, ip, r1, lsr r4
    5370:	4f495047 	svcmi	0x00495047
    5374:	202c2041 	eorcs	r2, ip, r1, asr #32
    5378:	4f495047 	svcmi	0x00495047
    537c:	4e49505f 	mcrmi	0, 2, r5, cr9, cr15, {2}
    5380:	2034315f 	eorscs	r3, r4, pc, asr r1
    5384:	5845202c 	stmdapl	r5, {r2, r3, r5, sp}^
    5388:	34314954 	ldrtcc	r4, [r1], #-2388	; 0xfffff6ac
    538c:	5152495f 	cmppl	r2, pc, asr r9
    5390:	49007d20 	stmdbmi	r0, {r5, r8, sl, fp, ip, sp, lr}
    5394:	435f4332 	cmpmi	pc, #-939524096	; 0xc8000000
    5398:	495f3252 	ldmdbmi	pc, {r1, r4, r6, r9, ip, sp}^	; <UNPREDICTABLE>
    539c:	54564554 	ldrbpl	r4, [r6], #-1364	; 0xfffffaac
    53a0:	505f4e45 	subspl	r4, pc, r5, asr #28
    53a4:	2820736f 	stmdacs	r0!, {r0, r1, r2, r3, r5, r6, r8, r9, ip, sp, lr}
    53a8:	00295539 	eoreq	r5, r9, r9, lsr r5
    53ac:	4545525f 	strbmi	r5, [r5, #-607]	; 0xfffffda1
    53b0:	575f544e 	ldrbpl	r5, [pc, -lr, asr #8]
    53b4:	4f545243 	svcmi	0x00545243
    53b8:	535f424d 	cmppl	pc, #-805306364	; 0xd0000004
    53bc:	45544154 	ldrbmi	r4, [r4, #-340]	; 0xfffffeac
    53c0:	72747028 	rsbsvc	r7, r4, #40	; 0x28
    53c4:	28282029 	stmdacs	r8!, {r0, r3, r5, sp}
    53c8:	29727470 	ldmdbcs	r2!, {r4, r5, r6, sl, ip, sp, lr}^
    53cc:	6d5f3e2d 	ldclvs	14, cr3, [pc, #-180]	; 5320 <_Min_Stack_Size+0x4f20>
    53d0:	2d637369 	stclcs	3, cr7, [r3, #-420]!	; 0xfffffe5c
    53d4:	63775f3e 	cmnvs	r7, #62, 30	; 0xf8
    53d8:	6d6f7472 	cfstrdvs	mvd7, [pc, #-456]!	; 5218 <_Min_Stack_Size+0x4e18>
    53dc:	74735f62 	ldrbtvc	r5, [r3], #-3938	; 0xfffff09e
    53e0:	29657461 	stmdbcs	r5!, {r0, r5, r6, sl, ip, sp, lr}^
    53e4:	615f5f00 	cmpvs	pc, r0, lsl #30
    53e8:	636f6c6c 	cmnvs	pc, #108, 24	; 0x6c00
    53ec:	7a69735f 	bvc	1a62170 <_Min_Stack_Size+0x1a61d70>
    53f0:	29782865 	ldmdbcs	r8!, {r0, r2, r5, r6, fp, sp}^
    53f4:	615f5f20 	cmpvs	pc, r0, lsr #30
    53f8:	69727474 	ldmdbvs	r2!, {r2, r4, r5, r6, sl, ip, sp, lr}^
    53fc:	65747562 	ldrbvs	r7, [r4, #-1378]!	; 0xfffffa9e
    5400:	28285f5f 	stmdacs	r8!, {r0, r1, r2, r3, r4, r6, r8, r9, sl, fp, ip, lr}
    5404:	6c615f5f 	stclvs	15, cr5, [r1], #-380	; 0xfffffe84
    5408:	5f636f6c 	svcpl	0x00636f6c
    540c:	657a6973 	ldrbvs	r6, [sl, #-2419]!	; 0xfffff68d
    5410:	78285f5f 	stmdavc	r8!, {r0, r1, r2, r3, r4, r6, r8, r9, sl, fp, ip, lr}
    5414:	00292929 	eoreq	r2, r9, r9, lsr #18
    5418:	4f4c5f5f 	svcmi	0x004c5f5f
    541c:	575f474e 	ldrbpl	r4, [pc, -lr, asr #14]
    5420:	48544449 	ldmdami	r4, {r0, r3, r6, sl, lr}^
    5424:	33205f5f 			; <UNDEFINED> instruction: 0x33205f5f
    5428:	545f0032 	ldrbpl	r0, [pc], #-50	; 5430 <_Min_Stack_Size+0x5030>
    542c:	4843575f 	stmdami	r3, {r0, r1, r2, r3, r4, r6, r8, r9, sl, ip, lr}^
    5430:	205f5241 	subscs	r5, pc, r1, asr #4
    5434:	555f5f00 	ldrbpl	r5, [pc, #-3840]	; 453c <_Min_Stack_Size+0x413c>
    5438:	55434341 	strbpl	r4, [r3, #-833]	; 0xfffffcbf
    543c:	42465f4d 	submi	r5, r6, #308	; 0x134
    5440:	5f5f5449 	svcpl	0x005f5449
    5444:	00363120 	eorseq	r3, r6, r0, lsr #2
    5448:	61775f5f 	cmnvs	r7, pc, asr pc
    544c:	725f6e72 	subsvc	r6, pc, #1824	; 0x720
    5450:	72656665 	rsbvc	r6, r5, #105906176	; 0x6500000
    5454:	65636e65 	strbvs	r6, [r3, #-3685]!	; 0xfffff19b
    5458:	79732873 	ldmdbvc	r3!, {r0, r1, r4, r5, r6, fp, sp}^
    545c:	736d2c6d 	cmnvc	sp, #27904	; 0x6d00
    5460:	5f202967 	svcpl	0x00202967
    5464:	6d73615f 	ldfvse	f6, [r3, #-380]!	; 0xfffffe84
    5468:	22285f5f 	eorcs	r5, r8, #380	; 0x17c
    546c:	6365732e 	cmnvs	r5, #-1207959552	; 0xb8000000
    5470:	6e6f6974 			; <UNDEFINED> instruction: 0x6e6f6974
    5474:	6e672e20 	cdpvs	14, 6, cr2, cr7, cr0, {1}
    5478:	61772e75 	cmnvs	r7, r5, ror lr
    547c:	6e696e72 	mcrvs	14, 3, r6, cr9, cr2, {3}
    5480:	20222e67 	eorcs	r2, r2, r7, ror #28
    5484:	6d797323 	ldclvs	3, cr7, [r9, #-140]!	; 0xffffff74
    5488:	5f203b29 	svcpl	0x00203b29
    548c:	6d73615f 	ldfvse	f6, [r3, #-380]!	; 0xfffffe84
    5490:	22285f5f 	eorcs	r5, r8, #380	; 0x17c
    5494:	6373612e 	cmnvs	r3, #-2147483637	; 0x8000000b
    5498:	5c207a69 			; <UNDEFINED> instruction: 0x5c207a69
    549c:	6d202222 	sfmvs	f2, 4, [r0, #-136]!	; 0xffffff78
    54a0:	22206773 	eorcs	r6, r0, #30146560	; 0x1cc0000
    54a4:	2922225c 	stmdbcs	r2!, {r2, r3, r4, r6, r9, sp}
    54a8:	5f5f203b 	svcpl	0x005f203b
    54ac:	5f6d7361 	svcpl	0x006d7361
    54b0:	2e22285f 	mcrcs	8, 1, r2, cr2, cr15, {2}
    54b4:	76657270 			; <UNDEFINED> instruction: 0x76657270
    54b8:	73756f69 	cmnvc	r5, #420	; 0x1a4
    54bc:	47002922 	strmi	r2, [r0, -r2, lsr #18]
    54c0:	5f4f4950 	svcpl	0x004f4950
    54c4:	5f4e4950 	svcpl	0x004e4950
    54c8:	28203331 	stmdacs	r0!, {r0, r4, r5, r8, r9, ip, sp}
    54cc:	6e697528 	cdpvs	5, 6, cr7, cr9, cr8, {1}
    54d0:	5f363174 	svcpl	0x00363174
    54d4:	78302974 	ldmdavc	r0!, {r2, r4, r5, r6, r8, fp, sp}
    54d8:	30303032 	eorscc	r3, r0, r2, lsr r0
    54dc:	5f5f0029 	svcpl	0x005f0029
    54e0:	41524655 	cmpmi	r2, r5, asr r6
    54e4:	455f5443 	ldrbmi	r5, [pc, #-1091]	; 50a9 <_Min_Stack_Size+0x4ca9>
    54e8:	4c495350 	mcrrmi	3, 5, r5, r9, cr0
    54ec:	5f5f4e4f 	svcpl	0x005f4e4f
    54f0:	31783020 	cmncc	r8, r0, lsr #32
    54f4:	36312d50 			; <UNDEFINED> instruction: 0x36312d50
    54f8:	5f005255 	svcpl	0x00005255
    54fc:	4843575f 	stmdami	r3, {r0, r1, r2, r3, r4, r6, r8, r9, sl, ip, lr}^
    5500:	4d5f5241 	lfmmi	f5, 2, [pc, #-260]	; 5404 <_Min_Stack_Size+0x5004>
    5504:	5f5f4e49 	svcpl	0x005f4e49
    5508:	00553020 	subseq	r3, r5, r0, lsr #32
    550c:	5f433249 	svcpl	0x00433249
    5510:	5f315253 	svcpl	0x00315253
    5514:	504f5453 	subpl	r5, pc, r3, asr r4	; <UNPREDICTABLE>
    5518:	6f505f46 	svcvs	0x00505f46
    551c:	34282073 	strtcc	r2, [r8], #-115	; 0xffffff8d
    5520:	5f002955 	svcpl	0x00002955
    5524:	5151555f 	cmppl	r1, pc, asr r5
    5528:	4942495f 	stmdbmi	r2, {r0, r1, r2, r3, r4, r6, r8, fp, lr}^
    552c:	205f5f54 	subscs	r5, pc, r4, asr pc	; <UNPREDICTABLE>
    5530:	4e5f0030 	mrcmi	0, 2, r0, cr15, cr0, {1}
    5534:	494c5745 	stmdbmi	ip, {r0, r2, r6, r8, r9, sl, ip, lr}^
    5538:	45565f42 	ldrbmi	r5, [r6, #-3906]	; 0xfffff0be
    553c:	4f495352 	svcmi	0x00495352
    5540:	5f485f4e 	svcpl	0x00485f4e
    5544:	0031205f 	eorseq	r2, r1, pc, asr r0
    5548:	43475f5f 	movtmi	r5, #32607	; 0x7f5f
    554c:	54415f43 	strbpl	r5, [r1], #-3907	; 0xfffff0bd
    5550:	43494d4f 	movtmi	r4, #40271	; 0x9d4f
    5554:	4e4f4c5f 	mcrmi	12, 2, r4, cr15, cr15, {2}
    5558:	4f4c5f47 	svcmi	0x004c5f47
    555c:	465f4b43 	ldrbmi	r4, [pc], -r3, asr #22
    5560:	20454552 	subcs	r4, r5, r2, asr r5
    5564:	5f5f0032 	svcpl	0x005f0032
    5568:	43414c55 	movtmi	r4, #7253	; 0x1c55
    556c:	5f4d5543 	svcpl	0x004d5543
    5570:	5f4e494d 	svcpl	0x004e494d
    5574:	2e30205f 	mrccs	0, 1, r2, cr0, cr15, {2}
    5578:	4b4c5530 	blmi	131aa40 <_Min_Stack_Size+0x131a640>
    557c:	54415f00 	strbpl	r5, [r1], #-3840	; 0xfffff100
    5580:	54495845 	strbpl	r5, [r9], #-2117	; 0xfffff7bb
    5584:	4e59445f 	mrcmi	4, 2, r4, cr9, cr15, {2}
    5588:	43494d41 	movtmi	r4, #40257	; 0x9d41
    558c:	4c4c415f 	stfmie	f4, [ip], {95}	; 0x5f
    5590:	3120434f 			; <UNDEFINED> instruction: 0x3120434f
    5594:	6e5f5f00 	cdpvs	15, 5, cr5, cr15, cr0, {0}
    5598:	5f646565 	svcpl	0x00646565
    559c:	657a6973 	ldrbvs	r6, [sl, #-2419]!	; 0xfffff68d
    55a0:	5f00745f 	svcpl	0x0000745f
    55a4:	42444c5f 	submi	r4, r4, #24320	; 0x5f00
    55a8:	414d5f4c 	cmpmi	sp, ip, asr #30
    55ac:	205f5f58 	subscs	r5, pc, r8, asr pc	; <UNPREDICTABLE>
    55b0:	39372e31 	ldmdbcc	r7!, {r0, r4, r5, r9, sl, fp, sp}
    55b4:	33393637 	teqcc	r9, #57671680	; 0x3700000
    55b8:	38343331 	ldmdacc	r4!, {r0, r4, r5, r8, r9, ip, sp}
    55bc:	31333236 	teqcc	r3, r6, lsr r2
    55c0:	2b653735 	blcs	195329c <_Min_Stack_Size+0x1952e9c>
    55c4:	4c383033 	ldcmi	0, cr3, [r8], #-204	; 0xffffff34
    55c8:	415f5f00 	cmpmi	pc, r0, lsl #30
    55cc:	415f4d52 	cmpmi	pc, r2, asr sp	; <UNPREDICTABLE>
    55d0:	20484352 	subcs	r4, r8, r2, asr r3
    55d4:	32490037 	subcc	r0, r9, #55	; 0x37
    55d8:	52435f43 	subpl	r5, r3, #268	; 0x10c
    55dc:	54495f32 	strbpl	r5, [r9], #-3890	; 0xfffff0ce
    55e0:	45545645 	ldrbmi	r5, [r4, #-1605]	; 0xfffff9bb
    55e4:	734d5f4e 	movtvc	r5, #57166	; 0xdf4e
    55e8:	3028206b 	eorcc	r2, r8, fp, rrx
    55ec:	4c553178 	ldfmie	f3, [r5], {120}	; 0x78
    55f0:	203c3c20 	eorscs	r3, ip, r0, lsr #24
    55f4:	5f433249 	svcpl	0x00433249
    55f8:	5f325243 	svcpl	0x00325243
    55fc:	56455449 	strbpl	r5, [r5], -r9, asr #8
    5600:	5f4e4554 	svcpl	0x004e4554
    5604:	29736f50 	ldmdbcs	r3!, {r4, r6, r8, r9, sl, fp, sp, lr}^
    5608:	49504700 	ldmdbmi	r0, {r8, r9, sl, lr}^
    560c:	49505f4f 	ldmdbmi	r0, {r0, r1, r2, r3, r6, r8, r9, sl, fp, ip, lr}^
    5610:	20325f4e 	eorscs	r5, r2, lr, asr #30
    5614:	69752828 	ldmdbvs	r5!, {r3, r5, fp, sp}^
    5618:	3631746e 	ldrtcc	r7, [r1], -lr, ror #8
    561c:	3029745f 	eorcc	r7, r9, pc, asr r4
    5620:	30303078 	eorscc	r3, r0, r8, ror r0
    5624:	5f002934 	svcpl	0x00002934
    5628:	544c465f 	strbpl	r4, [ip], #-1631	; 0xfffff9a1
    562c:	4441525f 	strbmi	r5, [r1], #-607	; 0xfffffda1
    5630:	5f5f5849 	svcpl	0x005f5849
    5634:	5f003220 	svcpl	0x00003220
    5638:	4e454552 	mcrmi	5, 2, r4, cr5, cr2, {2}
    563c:	54535f54 	ldrbpl	r5, [r3], #-3924	; 0xfffff0ac
    5640:	52524544 	subspl	r4, r2, #68, 10	; 0x11000000
    5644:	74705f28 	ldrbtvc	r5, [r0], #-3880	; 0xfffff0d8
    5648:	28202972 	stmdacs	r0!, {r1, r4, r5, r6, r8, fp, sp}
    564c:	74705f28 	ldrbtvc	r5, [r0], #-3880	; 0xfffff0d8
    5650:	3e2d2972 			; <UNDEFINED> instruction: 0x3e2d2972
    5654:	6474735f 	ldrbtvs	r7, [r4], #-863	; 0xfffffca1
    5658:	29727265 	ldmdbcs	r2!, {r0, r2, r5, r6, r9, ip, sp, lr}^
    565c:	544e4900 	strbpl	r4, [lr], #-2304	; 0xfffff700
    5660:	4d5f3436 	cfldrdmi	mvd3, [pc, #-216]	; 5590 <_Min_Stack_Size+0x5190>
    5664:	28205841 	stmdacs	r0!, {r0, r6, fp, ip, lr}
    5668:	4e495f5f 	mcrmi	15, 2, r5, cr9, cr15, {2}
    566c:	5f343654 	svcpl	0x00343654
    5670:	5f58414d 	svcpl	0x0058414d
    5674:	5f00295f 	svcpl	0x0000295f
    5678:	4d52415f 	ldfmie	f4, [r2, #-380]	; 0xfffffe84
    567c:	4145465f 	cmpmi	r5, pc, asr r6
    5680:	45525554 	ldrbmi	r5, [r2, #-1364]	; 0xfffffaac
    5684:	534d435f 	movtpl	r4, #54111	; 0xd35f
    5688:	5f5f0045 	svcpl	0x005f0045
    568c:	4343414c 	movtmi	r4, #12620	; 0x314c
    5690:	455f4d55 	ldrbmi	r4, [pc, #-3413]	; 4943 <_Min_Stack_Size+0x4543>
    5694:	4c495350 	mcrrmi	3, 5, r5, r9, cr0
    5698:	5f5f4e4f 	svcpl	0x005f4e4f
    569c:	31783020 	cmncc	r8, r0, lsr #32
    56a0:	31332d50 	teqcc	r3, r0, asr sp
    56a4:	49004b4c 	stmdbmi	r0, {r2, r3, r6, r8, r9, fp, lr}
    56a8:	435f4332 	cmpmi	pc, #-939524096	; 0xc8000000
    56ac:	505f3152 	subspl	r3, pc, r2, asr r1	; <UNPREDICTABLE>
    56b0:	4920534f 	stmdbmi	r0!, {r0, r1, r2, r3, r6, r8, r9, ip, lr}
    56b4:	435f4332 	cmpmi	pc, #-939524096	; 0xc8000000
    56b8:	505f3152 	subspl	r3, pc, r2, asr r1	; <UNPREDICTABLE>
    56bc:	4d5f534f 	ldclmi	3, cr5, [pc, #-316]	; 5588 <_Min_Stack_Size+0x5188>
    56c0:	5f006b73 	svcpl	0x00006b73
    56c4:	6863775f 	stmdavs	r3!, {r0, r1, r2, r3, r4, r6, r8, r9, sl, ip, sp, lr}^
    56c8:	745f7261 	ldrbvc	r7, [pc], #-609	; 56d0 <_Min_Stack_Size+0x52d0>
    56cc:	00205f5f 	eoreq	r5, r0, pc, asr pc
    56d0:	4349564e 	movtmi	r5, #38478	; 0x964e
    56d4:	5152495f 	cmppl	r2, pc, asr r9
    56d8:	455f3332 	ldrbmi	r3, [pc, #-818]	; 53ae <_Min_Stack_Size+0x4fae>
    56dc:	35495458 	strbcc	r5, [r9, #-1112]	; 0xfffffba8
    56e0:	455f395f 	ldrbmi	r3, [pc, #-2399]	; 4d89 <_Min_Stack_Size+0x4989>
    56e4:	6c62616e 	stfvse	f6, [r2], #-440	; 0xfffffe48
    56e8:	4e282065 	cdpmi	0, 2, cr2, cr8, cr5, {3}
    56ec:	5f434956 	svcpl	0x00434956
    56f0:	52455349 	subpl	r5, r5, #603979777	; 0x24000001
    56f4:	3d7c2030 	ldclcc	0, cr2, [ip, #-192]!	; 0xffffff40
    56f8:	3c3c3120 	ldfccs	f3, [ip], #-128	; 0xffffff80
    56fc:	00293332 	eoreq	r3, r9, r2, lsr r3
    5700:	4545525f 	strbmi	r5, [r5, #-607]	; 0xfffffda1
    5704:	495f544e 	ldmdbmi	pc, {r1, r2, r3, r6, sl, ip, lr}^	; <UNPREDICTABLE>
    5708:	5f54494e 	svcpl	0x0054494e
    570c:	4353494d 	cmpmi	r3, #1261568	; 0x134000
    5710:	72617628 	rsbvc	r7, r1, #40, 12	; 0x2800000
    5714:	6f642029 	svcvs	0x00642029
    5718:	73207b20 			; <UNDEFINED> instruction: 0x73207b20
    571c:	63757274 	cmnvs	r5, #116, 4	; 0x40000007
    5720:	725f2074 	subsvc	r2, pc, #116	; 0x74
    5724:	746e6565 	strbtvc	r6, [lr], #-1381	; 0xfffffa9b
    5728:	725f2a20 	subsvc	r2, pc, #32, 20	; 0x20000
    572c:	28203d20 	stmdacs	r0!, {r5, r8, sl, fp, ip, sp}
    5730:	29726176 	ldmdbcs	r2!, {r1, r2, r4, r5, r6, r8, sp, lr}^
    5734:	725f203b 	subsvc	r2, pc, #59	; 0x3b
    5738:	6d5f3e2d 	ldclvs	14, cr3, [pc, #-180]	; 568c <_Min_Stack_Size+0x528c>
    573c:	2d637369 	stclcs	3, cr7, [r3, #-420]!	; 0xfffffe5c
    5740:	74735f3e 	ldrbtvc	r5, [r3], #-3902	; 0xfffff0c2
    5744:	6b6f7472 	blvs	1be2914 <_Min_Stack_Size+0x1be2514>
    5748:	73616c5f 	cmnvc	r1, #24320	; 0x5f00
    574c:	203d2074 	eorscs	r2, sp, r4, ror r0
    5750:	4c554e5f 	mrrcmi	14, 5, r4, r5, cr15
    5754:	5f203b4c 	svcpl	0x00203b4c
    5758:	5f3e2d72 	svcpl	0x003e2d72
    575c:	6373696d 	cmnvs	r3, #1785856	; 0x1b4000
    5760:	6d5f3e2d 	ldclvs	14, cr3, [pc, #-180]	; 56b4 <_Min_Stack_Size+0x52b4>
    5764:	6e656c62 	cdpvs	12, 6, cr6, cr5, cr2, {3}
    5768:	6174735f 	cmnvs	r4, pc, asr r3
    576c:	5f2e6574 	svcpl	0x002e6574
    5770:	756f635f 	strbvc	r6, [pc, #-863]!	; 5419 <_Min_Stack_Size+0x5019>
    5774:	3d20746e 	cfstrscc	mvf7, [r0, #-440]!	; 0xfffffe48
    5778:	203b3020 	eorscs	r3, fp, r0, lsr #32
    577c:	3e2d725f 	mcrcc	2, 1, r7, cr13, cr15, {2}
    5780:	73696d5f 	cmnvc	r9, #6080	; 0x17c0
    5784:	5f3e2d63 	svcpl	0x003e2d63
    5788:	656c626d 	strbvs	r6, [ip, #-621]!	; 0xfffffd93
    578c:	74735f6e 	ldrbtvc	r5, [r3], #-3950	; 0xfffff092
    5790:	2e657461 	cdpcs	4, 6, cr7, cr5, cr1, {3}
    5794:	61765f5f 	cmnvs	r6, pc, asr pc
    5798:	2e65756c 	cdpcs	5, 6, cr7, cr5, cr12, {3}
    579c:	63775f5f 	cmnvs	r7, #380	; 0x17c
    57a0:	203d2068 	eorscs	r2, sp, r8, rrx
    57a4:	5f203b30 	svcpl	0x00203b30
    57a8:	5f3e2d72 	svcpl	0x003e2d72
    57ac:	6373696d 	cmnvs	r3, #1785856	; 0x1b4000
    57b0:	775f3e2d 	ldrbvc	r3, [pc, -sp, lsr #28]
    57b4:	6d6f7463 	cfstrdvs	mvd7, [pc, #-396]!	; 5630 <_Min_Stack_Size+0x5230>
    57b8:	74735f62 	ldrbtvc	r5, [r3], #-3938	; 0xfffff09e
    57bc:	2e657461 	cdpcs	4, 6, cr7, cr5, cr1, {3}
    57c0:	6f635f5f 	svcvs	0x00635f5f
    57c4:	20746e75 	rsbscs	r6, r4, r5, ror lr
    57c8:	3b30203d 	blcc	c0d8c4 <_Min_Stack_Size+0xc0d4c4>
    57cc:	2d725f20 	ldclcs	15, cr5, [r2, #-128]!	; 0xffffff80
    57d0:	696d5f3e 	stmdbvs	sp!, {r1, r2, r3, r4, r5, r8, r9, sl, fp, ip, lr}^
    57d4:	3e2d6373 	mcrcc	3, 1, r6, cr13, cr3, {3}
    57d8:	7463775f 	strbtvc	r7, [r3], #-1887	; 0xfffff8a1
    57dc:	5f626d6f 	svcpl	0x00626d6f
    57e0:	74617473 	strbtvc	r7, [r1], #-1139	; 0xfffffb8d
    57e4:	5f5f2e65 	svcpl	0x005f2e65
    57e8:	756c6176 	strbvc	r6, [ip, #-374]!	; 0xfffffe8a
    57ec:	5f5f2e65 	svcpl	0x005f2e65
    57f0:	20686377 	rsbcs	r6, r8, r7, ror r3
    57f4:	3b30203d 	blcc	c0d8f0 <_Min_Stack_Size+0xc0d4f0>
    57f8:	2d725f20 	ldclcs	15, cr5, [r2, #-128]!	; 0xffffff80
    57fc:	696d5f3e 	stmdbvs	sp!, {r1, r2, r3, r4, r5, r8, r9, sl, fp, ip, lr}^
    5800:	3e2d6373 	mcrcc	3, 1, r6, cr13, cr3, {3}
    5804:	74626d5f 	strbtvc	r6, [r2], #-3423	; 0xfffff2a1
    5808:	5f63776f 	svcpl	0x0063776f
    580c:	74617473 	strbtvc	r7, [r1], #-1139	; 0xfffffb8d
    5810:	5f5f2e65 	svcpl	0x005f2e65
    5814:	6e756f63 	cdpvs	15, 7, cr6, cr5, cr3, {3}
    5818:	203d2074 	eorscs	r2, sp, r4, ror r0
    581c:	5f203b30 	svcpl	0x00203b30
    5820:	5f3e2d72 	svcpl	0x003e2d72
    5824:	6373696d 	cmnvs	r3, #1785856	; 0x1b4000
    5828:	6d5f3e2d 	ldclvs	14, cr3, [pc, #-180]	; 577c <_Min_Stack_Size+0x537c>
    582c:	776f7462 	strbvc	r7, [pc, -r2, ror #8]!
    5830:	74735f63 	ldrbtvc	r5, [r3], #-3939	; 0xfffff09d
    5834:	2e657461 	cdpcs	4, 6, cr7, cr5, cr1, {3}
    5838:	61765f5f 	cmnvs	r6, pc, asr pc
    583c:	2e65756c 	cdpcs	5, 6, cr7, cr5, cr12, {3}
    5840:	63775f5f 	cmnvs	r7, #380	; 0x17c
    5844:	203d2068 	eorscs	r2, sp, r8, rrx
    5848:	5f203b30 	svcpl	0x00203b30
    584c:	5f3e2d72 	svcpl	0x003e2d72
    5850:	6373696d 	cmnvs	r3, #1785856	; 0x1b4000
    5854:	6d5f3e2d 	ldclvs	14, cr3, [pc, #-180]	; 57a8 <_Min_Stack_Size+0x53a8>
    5858:	656c7262 	strbvs	r7, [ip, #-610]!	; 0xfffffd9e
    585c:	74735f6e 	ldrbtvc	r5, [r3], #-3950	; 0xfffff092
    5860:	2e657461 	cdpcs	4, 6, cr7, cr5, cr1, {3}
    5864:	6f635f5f 	svcvs	0x00635f5f
    5868:	20746e75 	rsbscs	r6, r4, r5, ror lr
    586c:	3b30203d 	blcc	c0d968 <_Min_Stack_Size+0xc0d568>
    5870:	2d725f20 	ldclcs	15, cr5, [r2, #-128]!	; 0xffffff80
    5874:	696d5f3e 	stmdbvs	sp!, {r1, r2, r3, r4, r5, r8, r9, sl, fp, ip, lr}^
    5878:	3e2d6373 	mcrcc	3, 1, r6, cr13, cr3, {3}
    587c:	72626d5f 	rsbvc	r6, r2, #6080	; 0x17c0
    5880:	5f6e656c 	svcpl	0x006e656c
    5884:	74617473 	strbtvc	r7, [r1], #-1139	; 0xfffffb8d
    5888:	5f5f2e65 	svcpl	0x005f2e65
    588c:	756c6176 	strbvc	r6, [ip, #-374]!	; 0xfffffe8a
    5890:	5f5f2e65 	svcpl	0x005f2e65
    5894:	20686377 	rsbcs	r6, r8, r7, ror r3
    5898:	3b30203d 	blcc	c0d994 <_Min_Stack_Size+0xc0d594>
    589c:	2d725f20 	ldclcs	15, cr5, [r2, #-128]!	; 0xffffff80
    58a0:	696d5f3e 	stmdbvs	sp!, {r1, r2, r3, r4, r5, r8, r9, sl, fp, ip, lr}^
    58a4:	3e2d6373 	mcrcc	3, 1, r6, cr13, cr3, {3}
    58a8:	72626d5f 	rsbvc	r6, r2, #6080	; 0x17c0
    58ac:	63776f74 	cmnvs	r7, #116, 30	; 0x1d0
    58b0:	6174735f 	cmnvs	r4, pc, asr r3
    58b4:	5f2e6574 	svcpl	0x002e6574
    58b8:	756f635f 	strbvc	r6, [pc, #-863]!	; 5561 <_Min_Stack_Size+0x5161>
    58bc:	3d20746e 	cfstrscc	mvf7, [r0, #-440]!	; 0xfffffe48
    58c0:	203b3020 	eorscs	r3, fp, r0, lsr #32
    58c4:	3e2d725f 	mcrcc	2, 1, r7, cr13, cr15, {2}
    58c8:	73696d5f 	cmnvc	r9, #6080	; 0x17c0
    58cc:	5f3e2d63 	svcpl	0x003e2d63
    58d0:	7472626d 	ldrbtvc	r6, [r2], #-621	; 0xfffffd93
    58d4:	5f63776f 	svcpl	0x0063776f
    58d8:	74617473 	strbtvc	r7, [r1], #-1139	; 0xfffffb8d
    58dc:	5f5f2e65 	svcpl	0x005f2e65
    58e0:	756c6176 	strbvc	r6, [ip, #-374]!	; 0xfffffe8a
    58e4:	5f5f2e65 	svcpl	0x005f2e65
    58e8:	20686377 	rsbcs	r6, r8, r7, ror r3
    58ec:	3b30203d 	blcc	c0d9e8 <_Min_Stack_Size+0xc0d5e8>
    58f0:	2d725f20 	ldclcs	15, cr5, [r2, #-128]!	; 0xffffff80
    58f4:	696d5f3e 	stmdbvs	sp!, {r1, r2, r3, r4, r5, r8, r9, sl, fp, ip, lr}^
    58f8:	3e2d6373 	mcrcc	3, 1, r6, cr13, cr3, {3}
    58fc:	73626d5f 	cmnvc	r2, #6080	; 0x17c0
    5900:	776f7472 			; <UNDEFINED> instruction: 0x776f7472
    5904:	735f7363 	cmpvc	pc, #-1946157055	; 0x8c000001
    5908:	65746174 	ldrbvs	r6, [r4, #-372]!	; 0xfffffe8c
    590c:	635f5f2e 	cmpvs	pc, #46, 30	; 0xb8
    5910:	746e756f 	strbtvc	r7, [lr], #-1391	; 0xfffffa91
    5914:	30203d20 	eorcc	r3, r0, r0, lsr #26
    5918:	725f203b 	subsvc	r2, pc, #59	; 0x3b
    591c:	6d5f3e2d 	ldclvs	14, cr3, [pc, #-180]	; 5870 <_Min_Stack_Size+0x5470>
    5920:	2d637369 	stclcs	3, cr7, [r3, #-420]!	; 0xfffffe5c
    5924:	626d5f3e 	rsbvs	r5, sp, #62, 30	; 0xf8
    5928:	6f747273 	svcvs	0x00747273
    592c:	5f736377 	svcpl	0x00736377
    5930:	74617473 	strbtvc	r7, [r1], #-1139	; 0xfffffb8d
    5934:	5f5f2e65 	svcpl	0x005f2e65
    5938:	756c6176 	strbvc	r6, [ip, #-374]!	; 0xfffffe8a
    593c:	5f5f2e65 	svcpl	0x005f2e65
    5940:	20686377 	rsbcs	r6, r8, r7, ror r3
    5944:	3b30203d 	blcc	c0da40 <_Min_Stack_Size+0xc0d640>
    5948:	2d725f20 	ldclcs	15, cr5, [r2, #-128]!	; 0xffffff80
    594c:	696d5f3e 	stmdbvs	sp!, {r1, r2, r3, r4, r5, r8, r9, sl, fp, ip, lr}^
    5950:	3e2d6373 	mcrcc	3, 1, r6, cr13, cr3, {3}
    5954:	7263775f 	rsbvc	r7, r3, #24903680	; 0x17c0000
    5958:	626d6f74 	rsbvs	r6, sp, #116, 30	; 0x1d0
    595c:	6174735f 	cmnvs	r4, pc, asr r3
    5960:	5f2e6574 	svcpl	0x002e6574
    5964:	756f635f 	strbvc	r6, [pc, #-863]!	; 560d <_Min_Stack_Size+0x520d>
    5968:	3d20746e 	cfstrscc	mvf7, [r0, #-440]!	; 0xfffffe48
    596c:	203b3020 	eorscs	r3, fp, r0, lsr #32
    5970:	3e2d725f 	mcrcc	2, 1, r7, cr13, cr15, {2}
    5974:	73696d5f 	cmnvc	r9, #6080	; 0x17c0
    5978:	5f3e2d63 	svcpl	0x003e2d63
    597c:	74726377 	ldrbtvc	r6, [r2], #-887	; 0xfffffc89
    5980:	5f626d6f 	svcpl	0x00626d6f
    5984:	74617473 	strbtvc	r7, [r1], #-1139	; 0xfffffb8d
    5988:	5f5f2e65 	svcpl	0x005f2e65
    598c:	756c6176 	strbvc	r6, [ip, #-374]!	; 0xfffffe8a
    5990:	5f5f2e65 	svcpl	0x005f2e65
    5994:	20686377 	rsbcs	r6, r8, r7, ror r3
    5998:	3b30203d 	blcc	c0da94 <_Min_Stack_Size+0xc0d694>
    599c:	2d725f20 	ldclcs	15, cr5, [r2, #-128]!	; 0xffffff80
    59a0:	696d5f3e 	stmdbvs	sp!, {r1, r2, r3, r4, r5, r8, r9, sl, fp, ip, lr}^
    59a4:	3e2d6373 	mcrcc	3, 1, r6, cr13, cr3, {3}
    59a8:	7363775f 	cmnvc	r3, #24903680	; 0x17c0000
    59ac:	6d6f7472 	cfstrdvs	mvd7, [pc, #-456]!	; 57ec <_Min_Stack_Size+0x53ec>
    59b0:	735f7362 	cmpvc	pc, #-2013265919	; 0x88000001
    59b4:	65746174 	ldrbvs	r6, [r4, #-372]!	; 0xfffffe8c
    59b8:	635f5f2e 	cmpvs	pc, #46, 30	; 0xb8
    59bc:	746e756f 	strbtvc	r7, [lr], #-1391	; 0xfffffa91
    59c0:	30203d20 	eorcc	r3, r0, r0, lsr #26
    59c4:	725f203b 	subsvc	r2, pc, #59	; 0x3b
    59c8:	6d5f3e2d 	ldclvs	14, cr3, [pc, #-180]	; 591c <_Min_Stack_Size+0x551c>
    59cc:	2d637369 	stclcs	3, cr7, [r3, #-420]!	; 0xfffffe5c
    59d0:	63775f3e 	cmnvs	r7, #62, 30	; 0xf8
    59d4:	6f747273 	svcvs	0x00747273
    59d8:	5f73626d 	svcpl	0x0073626d
    59dc:	74617473 	strbtvc	r7, [r1], #-1139	; 0xfffffb8d
    59e0:	5f5f2e65 	svcpl	0x005f2e65
    59e4:	756c6176 	strbvc	r6, [ip, #-374]!	; 0xfffffe8a
    59e8:	5f5f2e65 	svcpl	0x005f2e65
    59ec:	20686377 	rsbcs	r6, r8, r7, ror r3
    59f0:	3b30203d 	blcc	c0daec <_Min_Stack_Size+0xc0d6ec>
    59f4:	2d725f20 	ldclcs	15, cr5, [r2, #-128]!	; 0xffffff80
    59f8:	696d5f3e 	stmdbvs	sp!, {r1, r2, r3, r4, r5, r8, r9, sl, fp, ip, lr}^
    59fc:	3e2d6373 	mcrcc	3, 1, r6, cr13, cr3, {3}
    5a00:	34366c5f 	ldrtcc	r6, [r6], #-3167	; 0xfffff3a1
    5a04:	75625f61 	strbvc	r5, [r2, #-3937]!	; 0xfffff09f
    5a08:	5d305b66 	vldmdbpl	r0!, {d5-<overflow reg d55>}
    5a0c:	27203d20 	strcs	r3, [r0, -r0, lsr #26]!
    5a10:	3b27305c 	blcc	9d1b88 <_Min_Stack_Size+0x9d1788>
    5a14:	2d725f20 	ldclcs	15, cr5, [r2, #-128]!	; 0xffffff80
    5a18:	696d5f3e 	stmdbvs	sp!, {r1, r2, r3, r4, r5, r8, r9, sl, fp, ip, lr}^
    5a1c:	3e2d6373 	mcrcc	3, 1, r6, cr13, cr3, {3}
    5a20:	7465675f 	strbtvc	r6, [r5], #-1887	; 0xfffff8a1
    5a24:	65746164 	ldrbvs	r6, [r4, #-356]!	; 0xfffffe9c
    5a28:	7272655f 	rsbsvc	r6, r2, #398458880	; 0x17c00000
    5a2c:	30203d20 	eorcc	r3, r0, r0, lsr #26
    5a30:	207d203b 	rsbscs	r2, sp, fp, lsr r0
    5a34:	6c696877 	stclvs	8, cr6, [r9], #-476	; 0xfffffe24
    5a38:	30282065 	eorcc	r2, r8, r5, rrx
    5a3c:	5f5f0029 	svcpl	0x005f0029
    5a40:	474e4f4c 	strbmi	r4, [lr, -ip, asr #30]
    5a44:	4e4f4c5f 	mcrmi	12, 2, r4, cr15, cr15, {2}
    5a48:	49575f47 	ldmdbmi	r7, {r0, r1, r2, r6, r8, r9, sl, fp, ip, lr}^
    5a4c:	5f485444 	svcpl	0x00485444
    5a50:	3436205f 	ldrtcc	r2, [r6], #-95	; 0xffffffa1
    5a54:	49564e00 	ldmdbmi	r6, {r9, sl, fp, lr}^
    5a58:	52495f43 	subpl	r5, r9, #268	; 0x10c
    5a5c:	455f3651 	ldrbmi	r3, [pc, #-1617]	; 5413 <_Min_Stack_Size+0x5013>
    5a60:	30495458 	subcc	r5, r9, r8, asr r4
    5a64:	616e455f 	cmnvs	lr, pc, asr r5
    5a68:	20656c62 	rsbcs	r6, r5, r2, ror #24
    5a6c:	49564e28 	ldmdbmi	r6, {r3, r5, r9, sl, fp, lr}^
    5a70:	53495f43 	movtpl	r5, #40771	; 0x9f43
    5a74:	20305245 	eorscs	r5, r0, r5, asr #4
    5a78:	31203d7c 			; <UNDEFINED> instruction: 0x31203d7c
    5a7c:	29363c3c 	ldmdbcs	r6!, {r2, r3, r4, r5, sl, fp, ip, sp}
    5a80:	4e495700 	cdpmi	7, 4, cr5, cr9, cr0, {0}
    5a84:	414d5f54 	cmpmi	sp, r4, asr pc
    5a88:	5f282058 	svcpl	0x00282058
    5a8c:	4e49575f 	mcrmi	7, 2, r5, cr9, cr15, {2}
    5a90:	414d5f54 	cmpmi	sp, r4, asr pc
    5a94:	295f5f58 	ldmdbcs	pc, {r3, r4, r6, r8, r9, sl, fp, ip, lr}^	; <UNPREDICTABLE>
    5a98:	49504700 	ldmdbmi	r0, {r8, r9, sl, lr}^
    5a9c:	49505f4f 	ldmdbmi	r0, {r0, r1, r2, r3, r6, r8, r9, sl, fp, ip, lr}^
    5aa0:	30315f4e 	eorscc	r5, r1, lr, asr #30
    5aa4:	75282820 	strvc	r2, [r8, #-2080]!	; 0xfffff7e0
    5aa8:	31746e69 	cmncc	r4, r9, ror #28
    5aac:	29745f36 	ldmdbcs	r4!, {r1, r2, r4, r5, r8, r9, sl, fp, ip, lr}^
    5ab0:	34307830 	ldrtcc	r7, [r0], #-2096	; 0xfffff7d0
    5ab4:	00293030 	eoreq	r3, r9, r0, lsr r0
    5ab8:	49555f5f 	ldmdbmi	r5, {r0, r1, r2, r3, r4, r6, r8, r9, sl, fp, ip, lr}^
    5abc:	465f544e 	ldrbmi	r5, [pc], -lr, asr #8
    5ac0:	36545341 	ldrbcc	r5, [r4], -r1, asr #6
    5ac4:	414d5f34 	cmpmi	sp, r4, lsr pc
    5ac8:	205f5f58 	subscs	r5, pc, r8, asr pc	; <UNPREDICTABLE>
    5acc:	66667830 			; <UNDEFINED> instruction: 0x66667830
    5ad0:	66666666 	strbtvs	r6, [r6], -r6, ror #12
    5ad4:	66666666 	strbtvs	r6, [r6], -r6, ror #12
    5ad8:	66666666 	strbtvs	r6, [r6], -r6, ror #12
    5adc:	4c556666 	mrrcmi	6, 6, r6, r5, cr6
    5ae0:	5f5f004c 	svcpl	0x005f004c
    5ae4:	5f4d5241 	svcpl	0x004d5241
    5ae8:	5f005046 	svcpl	0x00005046
    5aec:	4e454552 	mcrmi	5, 2, r4, cr5, cr2, {2}
    5af0:	48435f54 	stmdami	r3, {r2, r4, r6, r8, r9, sl, fp, ip, lr}^
    5af4:	5f4b4345 	svcpl	0x004b4345
    5af8:	52454d45 	subpl	r4, r5, #4416	; 0x1140
    5afc:	434e4547 	movtmi	r4, #58695	; 0xe547
    5b00:	61762859 	cmnvs	r6, r9, asr r8
    5b04:	5f202972 	svcpl	0x00202972
    5b08:	4e454552 	mcrmi	5, 2, r4, cr5, cr2, {2}
    5b0c:	48435f54 	stmdami	r3, {r2, r4, r6, r8, r9, sl, fp, ip, lr}^
    5b10:	284b4345 	stmdacs	fp, {r0, r2, r6, r8, r9, lr}^
    5b14:	2c726176 	ldfcse	f6, [r2], #-472	; 0xfffffe28
    5b18:	6d655f20 	stclvs	15, cr5, [r5, #-128]!	; 0xffffff80
    5b1c:	65677265 	strbvs	r7, [r7, #-613]!	; 0xfffffd9b
    5b20:	2c79636e 	ldclcs	3, cr6, [r9], #-440	; 0xfffffe48
    5b24:	61686320 	cmnvs	r8, r0, lsr #6
    5b28:	2c2a2072 	stccs	0, cr2, [sl], #-456	; 0xfffffe38
    5b2c:	45525f20 	ldrbmi	r5, [r2, #-3872]	; 0xfffff0e0
    5b30:	5f544e45 	svcpl	0x00544e45
    5b34:	52454d45 	subpl	r4, r5, #4416	; 0x1140
    5b38:	434e4547 	movtmi	r4, #58695	; 0xe547
    5b3c:	49535f59 	ldmdbmi	r3, {r0, r3, r4, r6, r8, r9, sl, fp, ip, lr}^
    5b40:	202c455a 	eorcs	r4, ip, sl, asr r5
    5b44:	5f5f0029 	svcpl	0x005f0029
    5b48:	5f4d5241 	svcpl	0x004d5241
    5b4c:	54414546 	strbpl	r4, [r1], #-1350	; 0xfffffaba
    5b50:	5f455255 	svcpl	0x00455255
    5b54:	00505344 	subseq	r5, r0, r4, asr #6
    5b58:	4e495f5f 	mcrmi	15, 2, r5, cr9, cr15, {2}
    5b5c:	52545054 	subspl	r5, r4, #84	; 0x54
    5b60:	4449575f 	strbmi	r5, [r9], #-1887	; 0xfffff8a1
    5b64:	5f5f4854 	svcpl	0x005f4854
    5b68:	00323320 	eorseq	r3, r2, r0, lsr #6
    5b6c:	4545525f 	strbmi	r5, [r5, #-607]	; 0xfffffda1
    5b70:	495f544e 	ldmdbmi	pc, {r1, r2, r3, r6, sl, ip, lr}^	; <UNPREDICTABLE>
    5b74:	5f54494e 	svcpl	0x0054494e
    5b78:	7628504d 	strtvc	r5, [r8], -sp, asr #32
    5b7c:	20297261 	eorcs	r7, r9, r1, ror #4
    5b80:	7b206f64 	blvc	821918 <_Min_Stack_Size+0x821518>
    5b84:	72747320 	rsbsvc	r7, r4, #32, 6	; 0x80000000
    5b88:	20746375 	rsbscs	r6, r4, r5, ror r3
    5b8c:	6565725f 	strbvs	r7, [r5, #-607]!	; 0xfffffda1
    5b90:	2a20746e 	bcs	822d50 <_Min_Stack_Size+0x822950>
    5b94:	3d20725f 	sfmcc	f7, 4, [r0, #-380]!	; 0xfffffe84
    5b98:	61762820 	cmnvs	r6, r0, lsr #16
    5b9c:	203b2972 	eorscs	r2, fp, r2, ror r9
    5ba0:	3e2d725f 	mcrcc	2, 1, r7, cr13, cr15, {2}
    5ba4:	2d706d5f 	ldclcs	13, cr6, [r0, #-380]!	; 0xfffffe84
    5ba8:	65725f3e 	ldrbvs	r5, [r2, #-3902]!	; 0xfffff0c2
    5bac:	746c7573 	strbtvc	r7, [ip], #-1395	; 0xfffffa8d
    5bb0:	3d206b5f 	fstmdbxcc	r0!, {d6-d52}	;@ Deprecated
    5bb4:	203b3020 	eorscs	r3, fp, r0, lsr #32
    5bb8:	3e2d725f 	mcrcc	2, 1, r7, cr13, cr15, {2}
    5bbc:	2d706d5f 	ldclcs	13, cr6, [r0, #-380]!	; 0xfffffe84
    5bc0:	65725f3e 	ldrbvs	r5, [r2, #-3902]!	; 0xfffff0c2
    5bc4:	746c7573 	strbtvc	r7, [ip], #-1395	; 0xfffffa8d
    5bc8:	5f203d20 	svcpl	0x00203d20
    5bcc:	5f3e2d72 	svcpl	0x003e2d72
    5bd0:	3e2d706d 	cdpcc	0, 2, cr7, cr13, cr13, {3}
    5bd4:	7335705f 	teqvc	r5, #95	; 0x5f
    5bd8:	5f203d20 	svcpl	0x00203d20
    5bdc:	4c4c554e 	cfstr64mi	mvdx5, [ip], {78}	; 0x4e
    5be0:	725f203b 	subsvc	r2, pc, #59	; 0x3b
    5be4:	6d5f3e2d 	ldclvs	14, cr3, [pc, #-180]	; 5b38 <_Min_Stack_Size+0x5738>
    5be8:	5f3e2d70 	svcpl	0x003e2d70
    5bec:	65657266 	strbvs	r7, [r5, #-614]!	; 0xfffffd9a
    5bf0:	7473696c 	ldrbtvc	r6, [r3], #-2412	; 0xfffff694
    5bf4:	5f203d20 	svcpl	0x00203d20
    5bf8:	4c4c554e 	cfstr64mi	mvdx5, [ip], {78}	; 0x4e
    5bfc:	207d203b 	rsbscs	r2, sp, fp, lsr r0
    5c00:	6c696877 	stclvs	8, cr6, [r9], #-476	; 0xfffffe24
    5c04:	30282065 	eorcc	r2, r8, r5, rrx
    5c08:	58450029 	stmdapl	r5, {r0, r3, r5}^
    5c0c:	34314954 	ldrtcc	r4, [r1], #-2388	; 0xfffff6ac
    5c10:	34314350 	ldrtcc	r4, [r1], #-848	; 0xfffffcb0
    5c14:	58452820 	stmdapl	r5, {r5, fp, sp}^
    5c18:	475f4954 			; <UNDEFINED> instruction: 0x475f4954
    5c1c:	5f4f4950 	svcpl	0x004f4950
    5c20:	7070614d 	rsbsvc	r6, r0, sp, asr #2
    5c24:	5f676e69 	svcpl	0x00676e69
    5c28:	457b2974 	ldrbmi	r2, [fp, #-2420]!	; 0xfffff68c
    5c2c:	31495458 	cmpcc	r9, r8, asr r4
    5c30:	202c2034 	eorcs	r2, ip, r4, lsr r0
    5c34:	4f495047 	svcmi	0x00495047
    5c38:	202c2043 	eorcs	r2, ip, r3, asr #32
    5c3c:	4f495047 	svcmi	0x00495047
    5c40:	4e49505f 	mcrmi	0, 2, r5, cr9, cr15, {2}
    5c44:	2034315f 	eorscs	r3, r4, pc, asr r1
    5c48:	5458452c 	ldrbpl	r4, [r8], #-1324	; 0xfffffad4
    5c4c:	5f343149 	svcpl	0x00343149
    5c50:	20515249 	subscs	r5, r1, r9, asr #4
    5c54:	525f007d 	subspl	r0, pc, #125	; 0x7d
    5c58:	544e4545 	strbpl	r4, [lr], #-1349	; 0xfffffabb
    5c5c:	434f4c5f 	movtmi	r4, #64607	; 0xfc5f
    5c60:	28454c41 	stmdacs	r5, {r0, r6, sl, fp, lr}^
    5c64:	7274705f 	rsbsvc	r7, r4, #95	; 0x5f
    5c68:	28282029 	stmdacs	r8!, {r0, r3, r5, sp}
    5c6c:	7274705f 	rsbsvc	r7, r4, #95	; 0x5f
    5c70:	5f3e2d29 	svcpl	0x003e2d29
    5c74:	61636f6c 	cmnvs	r3, ip, ror #30
    5c78:	0029656c 	eoreq	r6, r9, ip, ror #10
    5c7c:	4c465f5f 	mcrrmi	15, 5, r5, r6, cr15
    5c80:	58323354 	ldmdapl	r2!, {r2, r4, r6, r8, r9, ip, sp}
    5c84:	4e494d5f 	mcrmi	13, 2, r4, cr9, cr15, {2}
    5c88:	32205f5f 	eorcc	r5, r0, #380	; 0x17c
    5c8c:	3532322e 	ldrcc	r3, [r2, #-558]!	; 0xfffffdd2
    5c90:	38333730 	ldmdacc	r3!, {r4, r5, r8, r9, sl, ip, sp}
    5c94:	30353835 	eorscc	r3, r5, r5, lsr r8
    5c98:	31303237 	teqcc	r0, r7, lsr r2
    5c9c:	332d6534 			; <UNDEFINED> instruction: 0x332d6534
    5ca0:	33463830 	movtcc	r3, #26672	; 0x6830
    5ca4:	5f007832 	svcpl	0x00007832
    5ca8:	4e454552 	mcrmi	5, 2, r4, cr5, cr2, {2}
    5cac:	41525f54 	cmpmi	r2, r4, asr pc
    5cb0:	3834444e 	ldmdacc	r4!, {r1, r2, r3, r6, sl, lr}
    5cb4:	4c554d5f 	mrrcmi	13, 5, r4, r5, cr15
    5cb8:	74702854 	ldrbtvc	r2, [r0], #-2132	; 0xfffff7ac
    5cbc:	28202972 	stmdacs	r0!, {r1, r4, r5, r6, r8, fp, sp}
    5cc0:	72747028 	rsbsvc	r7, r4, #40	; 0x28
    5cc4:	5f3e2d29 	svcpl	0x003e2d29
    5cc8:	2d383472 	cfldrscs	mvf3, [r8, #-456]!	; 0xfffffe38
    5ccc:	756d5f3e 	strbvc	r5, [sp, #-3902]!	; 0xfffff0c2
    5cd0:	0029746c 	eoreq	r7, r9, ip, ror #8
    5cd4:	4c465f5f 	mcrrmi	15, 5, r5, r6, cr15
    5cd8:	5f343654 	svcpl	0x00343654
    5cdc:	5f58414d 	svcpl	0x0058414d
    5ce0:	5f505845 	svcpl	0x00505845
    5ce4:	3031205f 	eorscc	r2, r1, pc, asr r0
    5ce8:	49003432 	stmdbmi	r0, {r1, r4, r5, sl, ip, sp}
    5cec:	435f4332 	cmpmi	pc, #-939524096	; 0xc8000000
    5cf0:	415f3152 	cmpmi	pc, r2, asr r1	; <UNPREDICTABLE>
    5cf4:	4d5f4b43 	vldrmi	d20, [pc, #-268]	; 5bf0 <_Min_Stack_Size+0x57f0>
    5cf8:	28206b73 	stmdacs	r0!, {r0, r1, r4, r5, r6, r8, r9, fp, sp, lr}
    5cfc:	55317830 	ldrpl	r7, [r1, #-2096]!	; 0xfffff7d0
    5d00:	3c3c204c 	ldccc	0, cr2, [ip], #-304	; 0xfffffed0
    5d04:	43324920 	teqmi	r2, #32, 18	; 0x80000
    5d08:	3152435f 	cmpcc	r2, pc, asr r3
    5d0c:	4b43415f 	blmi	10d6290 <_Min_Stack_Size+0x10d5e90>
    5d10:	736f505f 	cmnvc	pc, #95	; 0x5f
    5d14:	5f5f0029 	svcpl	0x005f0029
    5d18:	41484357 	cmpmi	r8, r7, asr r3
    5d1c:	20545f52 	subscs	r5, r4, r2, asr pc
    5d20:	434e4900 	movtmi	r4, #59648	; 0xe900
    5d24:	4d54535f 	ldclmi	3, cr5, [r4, #-380]	; 0xfffffe84
    5d28:	31463233 	cmpcc	r6, r3, lsr r2
    5d2c:	58583330 	ldmdapl	r8, {r4, r5, r8, r9, ip, sp}^
    5d30:	5f485f58 	svcpl	0x00485f58
    5d34:	424d0020 	submi	r0, sp, #32
    5d38:	5255435f 	subspl	r4, r5, #2080374785	; 0x7c000001
    5d3c:	58414d5f 	stmdapl	r1, {r0, r1, r2, r3, r4, r6, r8, sl, fp, lr}^
    5d40:	6c5f5f20 	mrrcvs	15, 2, r5, pc, cr0	; <UNPREDICTABLE>
    5d44:	6c61636f 	stclvs	3, cr6, [r1], #-444	; 0xfffffe44
    5d48:	626d5f65 	rsbvs	r5, sp, #404	; 0x194
    5d4c:	7275635f 	rsbsvc	r6, r5, #2080374785	; 0x7c000001
    5d50:	78616d5f 	stmdavc	r1!, {r0, r1, r2, r3, r4, r6, r8, sl, fp, sp, lr}^
    5d54:	5f002928 	svcpl	0x00002928
    5d58:	544c465f 	strbpl	r4, [ip], #-1631	; 0xfffff9a1
    5d5c:	4d5f3436 	cfldrdmi	mvd3, [pc, #-216]	; 5c8c <_Min_Stack_Size+0x588c>
    5d60:	5f5f4e49 	svcpl	0x005f4e49
    5d64:	322e3220 	eorcc	r3, lr, #32, 4
    5d68:	37303532 			; <UNDEFINED> instruction: 0x37303532
    5d6c:	38353833 	ldmdacc	r5!, {r0, r1, r4, r5, fp, ip, sp}
    5d70:	32373035 	eorscc	r3, r7, #53	; 0x35
    5d74:	65343130 	ldrvs	r3, [r4, #-304]!	; 0xfffffed0
    5d78:	3830332d 	ldmdacc	r0!, {r0, r2, r3, r5, r8, r9, ip, sp}
    5d7c:	00343646 	eorseq	r3, r4, r6, asr #12
    5d80:	4545525f 	strbmi	r5, [r5, #-607]	; 0xfffffda1
    5d84:	495f544e 	ldmdbmi	pc, {r1, r2, r3, r6, sl, ip, lr}^	; <UNPREDICTABLE>
    5d88:	5f54494e 	svcpl	0x0054494e
    5d8c:	45534552 	ldrbmi	r4, [r3, #-1362]	; 0xfffffaae
    5d90:	44455652 	strbmi	r5, [r5], #-1618	; 0xfffff9ae
    5d94:	0020385f 	eoreq	r3, r0, pc, asr r8
    5d98:	695f5f5f 	ldmdbvs	pc, {r0, r1, r2, r3, r4, r6, r8, r9, sl, fp, ip, lr}^	; <UNPREDICTABLE>
    5d9c:	3233746e 	eorscc	r7, r3, #1845493760	; 0x6e000000
    5da0:	645f745f 	ldrbvs	r7, [pc], #-1119	; 5da8 <_Min_Stack_Size+0x59a8>
    5da4:	6e696665 	cdpvs	6, 6, cr6, cr9, cr5, {3}
    5da8:	31206465 			; <UNDEFINED> instruction: 0x31206465
    5dac:	495f5f00 	ldmdbmi	pc, {r8, r9, sl, fp, ip, lr}^	; <UNPREDICTABLE>
    5db0:	575f544e 	ldrbpl	r5, [pc, -lr, asr #8]
    5db4:	48544449 	ldmdami	r4, {r0, r3, r6, sl, lr}^
    5db8:	33205f5f 			; <UNDEFINED> instruction: 0x33205f5f
    5dbc:	485f0032 	ldmdami	pc, {r1, r4, r5}^	; <UNPREDICTABLE>
    5dc0:	5f455641 	svcpl	0x00455641
    5dc4:	495f4343 	ldmdbmi	pc, {r0, r1, r6, r8, r9, lr}^	; <UNPREDICTABLE>
    5dc8:	4249484e 	submi	r4, r9, #5111808	; 0x4e0000
    5dcc:	4c5f5449 	cfldrdmi	mvd5, [pc], {73}	; 0x49
    5dd0:	5f504f4f 	svcpl	0x00504f4f
    5dd4:	4c5f4f54 	mrrcmi	15, 5, r4, pc, cr4	; <UNPREDICTABLE>
    5dd8:	41434249 	cmpmi	r3, r9, asr #4
    5ddc:	31204c4c 			; <UNDEFINED> instruction: 0x31204c4c
    5de0:	49564e00 	ldmdbmi	r6, {r9, sl, fp, lr}^
    5de4:	43495f43 	movtmi	r5, #40771	; 0x9f43
    5de8:	20325245 	eorscs	r5, r2, r5, asr #4
    5dec:	6f76282a 	svcvs	0x0076282a
    5df0:	6974616c 	ldmdbvs	r4!, {r2, r3, r5, r6, r8, sp, lr}^
    5df4:	7520656c 	strvc	r6, [r0, #-1388]!	; 0xfffffa94
    5df8:	33746e69 	cmncc	r4, #1680	; 0x690
    5dfc:	20745f32 	rsbscs	r5, r4, r2, lsr pc
    5e00:	4e28292a 	vmulmi.f16	s4, s16, s21	; <UNPREDICTABLE>
    5e04:	5f434956 	svcpl	0x00434956
    5e08:	65736142 	ldrbvs	r6, [r3, #-322]!	; 0xfffffebe
    5e0c:	30202b20 	eorcc	r2, r0, r0, lsr #22
    5e10:	29383878 	ldmdbcs	r8!, {r3, r4, r5, r6, fp, ip, sp}
    5e14:	4e5f5f00 	cdpmi	15, 5, cr5, cr15, cr0, {0}
    5e18:	414c4c55 	cmpmi	ip, r5, asr ip
    5e1c:	494c4942 	stmdbmi	ip, {r1, r6, r8, fp, lr}^
    5e20:	505f5954 	subspl	r5, pc, r4, asr r9	; <UNPREDICTABLE>
    5e24:	4d474152 	stfmie	f4, [r7, #-328]	; 0xfffffeb8
    5e28:	4f505f41 	svcmi	0x00505f41
    5e2c:	5f002050 	svcpl	0x00002050
    5e30:	4d52415f 	ldfmie	f4, [r2, #-380]	; 0xfffffe84
    5e34:	4352415f 	cmpmi	r2, #-1073741801	; 0xc0000017
    5e38:	52505f48 	subspl	r5, r0, #72, 30	; 0x120
    5e3c:	4c49464f 	mcrrmi	6, 4, r4, r9, cr15
    5e40:	5f5f0045 	svcpl	0x005f0045
    5e44:	36544e49 	ldrbcc	r4, [r4], -r9, asr #28
    5e48:	59545f34 	ldmdbpl	r4, {r2, r4, r5, r8, r9, sl, fp, ip, lr}^
    5e4c:	5f5f4550 	svcpl	0x005f4550
    5e50:	6e6f6c20 	cdpvs	12, 6, cr6, cr15, cr0, {1}
    5e54:	6f6c2067 	svcvs	0x006c2067
    5e58:	6920676e 	stmdbvs	r0!, {r1, r2, r3, r5, r6, r8, r9, sl, sp, lr}
    5e5c:	5f00746e 	svcpl	0x0000746e
    5e60:	52464c5f 	subpl	r4, r6, #24320	; 0x5f00
    5e64:	5f544341 	svcpl	0x00544341
    5e68:	54494246 	strbpl	r4, [r9], #-582	; 0xfffffdba
    5e6c:	33205f5f 			; <UNDEFINED> instruction: 0x33205f5f
    5e70:	5f5f0031 	svcpl	0x005f0031
    5e74:	52414843 	subpl	r4, r1, #4390912	; 0x430000
    5e78:	5449425f 	strbpl	r4, [r9], #-607	; 0xfffffda1
    5e7c:	38205f5f 	stmdacc	r0!, {r0, r1, r2, r3, r4, r6, r8, r9, sl, fp, ip, lr}
    5e80:	43324900 	teqmi	r2, #0, 18
    5e84:	3252435f 	subscc	r4, r2, #2080374785	; 0x7c000001
    5e88:	414d445f 	cmpmi	sp, pc, asr r4
    5e8c:	49204e45 	stmdbmi	r0!, {r0, r2, r6, r9, sl, fp, lr}
    5e90:	435f4332 	cmpmi	pc, #-939524096	; 0xc8000000
    5e94:	445f3252 	ldrbmi	r3, [pc], #-594	; 5e9c <_Min_Stack_Size+0x5a9c>
    5e98:	4e45414d 	dvfmism	f4, f5, #5.0
    5e9c:	6b734d5f 	blvs	1cd9420 <_Min_Stack_Size+0x1cd9020>
    5ea0:	54584500 	ldrbpl	r4, [r8], #-1280	; 0xfffffb00
    5ea4:	49505f49 	ldmdbmi	r0, {r0, r3, r6, r8, r9, sl, fp, ip, lr}^
    5ea8:	5845004e 	stmdapl	r5, {r1, r2, r3, r6}^
    5eac:	50374954 	eorspl	r4, r7, r4, asr r9
    5eb0:	28203743 	stmdacs	r0!, {r0, r1, r6, r8, r9, sl, ip, sp}
    5eb4:	49545845 	ldmdbmi	r4, {r0, r2, r6, fp, ip, lr}^
    5eb8:	4950475f 	ldmdbmi	r0, {r0, r1, r2, r3, r4, r6, r8, r9, sl, lr}^
    5ebc:	614d5f4f 	cmpvs	sp, pc, asr #30
    5ec0:	6e697070 	mcrvs	0, 3, r7, cr9, cr0, {3}
    5ec4:	29745f67 	ldmdbcs	r4!, {r0, r1, r2, r5, r6, r8, r9, sl, fp, ip, lr}^
    5ec8:	5458457b 	ldrbpl	r4, [r8], #-1403	; 0xfffffa85
    5ecc:	2c203749 	stccs	7, cr3, [r0], #-292	; 0xfffffedc
    5ed0:	49504720 	ldmdbmi	r0, {r5, r8, r9, sl, lr}^
    5ed4:	2c20434f 	stccs	3, cr4, [r0], #-316	; 0xfffffec4
    5ed8:	49504720 	ldmdbmi	r0, {r5, r8, r9, sl, lr}^
    5edc:	49505f4f 	ldmdbmi	r0, {r0, r1, r2, r3, r6, r8, r9, sl, fp, ip, lr}^
    5ee0:	20375f4e 	eorscs	r5, r7, lr, asr #30
    5ee4:	5458452c 	ldrbpl	r4, [r8], #-1324	; 0xfffffad4
    5ee8:	495f3749 	ldmdbmi	pc, {r0, r3, r6, r8, r9, sl, ip, sp}^	; <UNPREDICTABLE>
    5eec:	7d205152 	stfvcs	f5, [r0, #-328]!	; 0xfffffeb8
    5ef0:	425f5f00 	subsmi	r5, pc, #0, 30
    5ef4:	565f4453 			; <UNDEFINED> instruction: 0x565f4453
    5ef8:	42495349 	submi	r5, r9, #603979777	; 0x24000001
    5efc:	3120454c 			; <UNDEFINED> instruction: 0x3120454c
    5f00:	544e4900 	strbpl	r4, [lr], #-2304	; 0xfffff700
    5f04:	41454c5f 	cmpmi	r5, pc, asr ip
    5f08:	36315453 			; <UNDEFINED> instruction: 0x36315453
    5f0c:	4e494d5f 	mcrmi	13, 2, r4, cr9, cr15, {2}
    5f10:	5f2d2820 	svcpl	0x002d2820
    5f14:	544e495f 	strbpl	r4, [lr], #-2399	; 0xfffff6a1
    5f18:	41454c5f 	cmpmi	r5, pc, asr ip
    5f1c:	36315453 			; <UNDEFINED> instruction: 0x36315453
    5f20:	58414d5f 	stmdapl	r1, {r0, r1, r2, r3, r4, r6, r8, sl, fp, lr}^
    5f24:	2d205f5f 	stccs	15, cr5, [r0, #-380]!	; 0xfffffe84
    5f28:	00293120 	eoreq	r3, r9, r0, lsr #2
    5f2c:	6e755f5f 	mrcvs	15, 3, r5, cr5, cr15, {2}
    5f30:	64657375 	strbtvs	r7, [r5], #-885	; 0xfffffc8b
    5f34:	615f5f20 	cmpvs	pc, r0, lsr #30
    5f38:	69727474 	ldmdbvs	r2!, {r2, r4, r5, r6, sl, ip, sp, lr}^
    5f3c:	65747562 	ldrbvs	r7, [r4, #-1378]!	; 0xfffffa9e
    5f40:	28285f5f 	stmdacs	r8!, {r0, r1, r2, r3, r4, r6, r8, r9, sl, fp, ip, lr}
    5f44:	6e755f5f 	mrcvs	15, 3, r5, cr5, cr15, {2}
    5f48:	64657375 	strbtvs	r7, [r5], #-885	; 0xfffffc8b
    5f4c:	29295f5f 	stmdbcs	r9!, {r0, r1, r2, r3, r4, r6, r8, r9, sl, fp, ip, lr}
    5f50:	54584500 	ldrbpl	r4, [r8], #-1280	; 0xfffffb00
    5f54:	50333149 	eorspl	r3, r3, r9, asr #2
    5f58:	20333141 	eorscs	r3, r3, r1, asr #2
    5f5c:	54584528 	ldrbpl	r4, [r8], #-1320	; 0xfffffad8
    5f60:	50475f49 	subpl	r5, r7, r9, asr #30
    5f64:	4d5f4f49 	ldclmi	15, cr4, [pc, #-292]	; 5e48 <_Min_Stack_Size+0x5a48>
    5f68:	69707061 	ldmdbvs	r0!, {r0, r5, r6, ip, sp, lr}^
    5f6c:	745f676e 	ldrbvc	r6, [pc], #-1902	; 5f74 <_Min_Stack_Size+0x5b74>
    5f70:	58457b29 	stmdapl	r5, {r0, r3, r5, r8, r9, fp, ip, sp, lr}^
    5f74:	33314954 	teqcc	r1, #84, 18	; 0x150000
    5f78:	5047202c 	subpl	r2, r7, ip, lsr #32
    5f7c:	20414f49 	subcs	r4, r1, r9, asr #30
    5f80:	5047202c 	subpl	r2, r7, ip, lsr #32
    5f84:	505f4f49 	subspl	r4, pc, r9, asr #30
    5f88:	315f4e49 	cmpcc	pc, r9, asr #28
    5f8c:	202c2033 	eorcs	r2, ip, r3, lsr r0
    5f90:	49545845 	ldmdbmi	r4, {r0, r2, r6, fp, ip, lr}^
    5f94:	495f3331 	ldmdbmi	pc, {r0, r4, r5, r8, r9, ip, sp}^	; <UNPREDICTABLE>
    5f98:	7d205152 	stfvcs	f5, [r0, #-328]!	; 0xfffffeb8
    5f9c:	415f5f00 	cmpmi	pc, r0, lsl #30
    5fa0:	52455353 	subpl	r5, r5, #1275068417	; 0x4c000001
    5fa4:	55465f54 	strbpl	r5, [r6, #-3924]	; 0xfffff0ac
    5fa8:	5f20434e 	svcpl	0x0020434e
    5fac:	6e75665f 	mrcvs	6, 3, r6, cr5, cr15, {2}
    5fb0:	005f5f63 	subseq	r5, pc, r3, ror #30
    5fb4:	74726f43 	ldrbtvc	r6, [r2], #-3907	; 0xfffff0bd
    5fb8:	4d5f7865 	ldclmi	8, cr7, [pc, #-404]	; 5e2c <_Min_Stack_Size+0x5a2c>
    5fbc:	6e495f33 	mcrvs	15, 2, r5, cr9, cr3, {1}
    5fc0:	6e726574 	mrcvs	5, 3, r6, cr2, cr4, {3}
    5fc4:	505f6c61 	subspl	r6, pc, r1, ror #24
    5fc8:	70697265 	rsbvc	r7, r9, r5, ror #4
    5fcc:	61726568 	cmnvs	r2, r8, ror #10
    5fd0:	425f736c 	subsmi	r7, pc, #108, 6	; 0xb0000001
    5fd4:	20455341 	subcs	r5, r5, r1, asr #6
    5fd8:	30457830 	subcc	r7, r5, r0, lsr r8
    5fdc:	30303030 	eorscc	r3, r0, r0, lsr r0
    5fe0:	4c553030 	mrrcmi	0, 3, r3, r5, cr0
    5fe4:	555f5f00 	ldrbpl	r5, [pc, #-3840]	; 50ec <_Min_Stack_Size+0x4cec>
    5fe8:	43415246 	movtmi	r5, #4678	; 0x1246
    5fec:	414d5f54 	cmpmi	sp, r4, asr pc
    5ff0:	205f5f58 	subscs	r5, pc, r8, asr pc	; <UNPREDICTABLE>
    5ff4:	46465830 			; <UNDEFINED> instruction: 0x46465830
    5ff8:	2d504646 	ldclcs	6, cr4, [r0, #-280]	; 0xfffffee8
    5ffc:	52553631 	subspl	r3, r5, #51380224	; 0x3100000
    6000:	5f5f5f00 	svcpl	0x005f5f00
    6004:	5f746e69 	svcpl	0x00746e69
    6008:	7361656c 	cmnvc	r1, #108, 10	; 0x1b000000
    600c:	5f343674 	svcpl	0x00343674
    6010:	65645f74 	strbvs	r5, [r4, #-3956]!	; 0xfffff08c
    6014:	656e6966 	strbvs	r6, [lr, #-2406]!	; 0xfffff69a
    6018:	00312064 	eorseq	r2, r1, r4, rrx
    601c:	49545845 	ldmdbmi	r4, {r0, r2, r6, fp, ip, lr}^
    6020:	43503131 	cmpmi	r0, #1073741836	; 0x4000000c
    6024:	28203131 	stmdacs	r0!, {r0, r4, r5, r8, ip, sp}
    6028:	49545845 	ldmdbmi	r4, {r0, r2, r6, fp, ip, lr}^
    602c:	4950475f 	ldmdbmi	r0, {r0, r1, r2, r3, r4, r6, r8, r9, sl, lr}^
    6030:	614d5f4f 	cmpvs	sp, pc, asr #30
    6034:	6e697070 	mcrvs	0, 3, r7, cr9, cr0, {3}
    6038:	29745f67 	ldmdbcs	r4!, {r0, r1, r2, r5, r6, r8, r9, sl, fp, ip, lr}^
    603c:	5458457b 	ldrbpl	r4, [r8], #-1403	; 0xfffffa85
    6040:	20313149 	eorscs	r3, r1, r9, asr #2
    6044:	5047202c 	subpl	r2, r7, ip, lsr #32
    6048:	20434f49 	subcs	r4, r3, r9, asr #30
    604c:	5047202c 	subpl	r2, r7, ip, lsr #32
    6050:	505f4f49 	subspl	r4, pc, r9, asr #30
    6054:	315f4e49 	cmpcc	pc, r9, asr #28
    6058:	452c2031 	strmi	r2, [ip, #-49]!	; 0xffffffcf
    605c:	31495458 	cmpcc	r9, r8, asr r4
    6060:	52495f31 	subpl	r5, r9, #49, 30	; 0xc4
    6064:	007d2051 	rsbseq	r2, sp, r1, asr r0
    6068:	4e41575f 	mcrmi	7, 2, r5, cr1, cr15, {2}
    606c:	45525f54 	ldrbmi	r5, [r2, #-3924]	; 0xfffff0ac
    6070:	5f544e45 	svcpl	0x00544e45
    6074:	4c414d53 	mcrrmi	13, 5, r4, r1, cr3
    6078:	0031204c 	eorseq	r2, r1, ip, asr #32
    607c:	48545f5f 	ldmdami	r4, {r0, r1, r2, r3, r4, r6, r8, r9, sl, fp, ip, lr}^
    6080:	20574f52 	subscs	r4, r7, r2, asr pc
    6084:	49504700 	ldmdbmi	r0, {r8, r9, sl, lr}^
    6088:	4f4d5f4f 	svcmi	0x004d5f4f
    608c:	495f4544 	ldmdbmi	pc, {r2, r6, r8, sl, lr}^	; <UNPREDICTABLE>
    6090:	5455504e 	ldrbpl	r5, [r5], #-78	; 0xffffffb2
    6094:	2044505f 	subcs	r5, r4, pc, asr r0
    6098:	30307830 	eorscc	r7, r0, r0, lsr r8
    609c:	30303030 	eorscc	r3, r0, r0, lsr r0
    60a0:	00753330 	rsbseq	r3, r5, r0, lsr r3
    60a4:	5f434352 	svcpl	0x00434352
    60a8:	4f495047 	svcmi	0x00495047
    60ac:	4c435f41 	mcrrmi	15, 4, r5, r3, cr1
    60b0:	4e455f4b 	cdpmi	15, 4, cr5, cr5, cr11, {2}
    60b4:	28202928 	stmdacs	r0!, {r3, r5, r8, fp, sp}
    60b8:	43435220 	movtmi	r5, #12832	; 0x3220
    60bc:	50413e2d 	subpl	r3, r1, sp, lsr #28
    60c0:	4e453242 	cdpmi	2, 4, cr3, cr5, cr2, {2}
    60c4:	3d7c2052 	ldclcc	0, cr2, [ip, #-328]!	; 0xfffffeb8
    60c8:	3c312820 	ldccc	8, cr2, [r1], #-128	; 0xffffff80
    60cc:	2029323c 	eorcs	r3, r9, ip, lsr r2
    60d0:	525f0029 	subspl	r0, pc, #41	; 0x29
    60d4:	544e4545 	strbpl	r4, [lr], #-1349	; 0xfffffabb
    60d8:	4548435f 	strbmi	r4, [r8, #-863]	; 0xfffffca1
    60dc:	4d5f4b43 	vldrmi	d20, [pc, #-268]	; 5fd8 <_Min_Stack_Size+0x5bd8>
    60e0:	61762850 	cmnvs	r6, r0, asr r8
    60e4:	5f202972 	svcpl	0x00202972
    60e8:	4e454552 	mcrmi	5, 2, r4, cr5, cr2, {2}
    60ec:	48435f54 	stmdami	r3, {r2, r4, r6, r8, r9, sl, fp, ip, lr}^
    60f0:	284b4345 	stmdacs	fp, {r0, r2, r6, r8, r9, lr}^
    60f4:	2c726176 	ldfcse	f6, [r2], #-472	; 0xfffffe28
    60f8:	706d5f20 	rsbvc	r5, sp, r0, lsr #30
    60fc:	7473202c 	ldrbtvc	r2, [r3], #-44	; 0xffffffd4
    6100:	74637572 	strbtvc	r7, [r3], #-1394	; 0xfffffa8e
    6104:	706d5f20 	rsbvc	r5, sp, r0, lsr #30
    6108:	20636572 	rsbcs	r6, r3, r2, ror r5
    610c:	73202c2a 			; <UNDEFINED> instruction: 0x73202c2a
    6110:	6f657a69 	svcvs	0x00657a69
    6114:	282a2066 	stmdacs	sl!, {r1, r2, r5, r6, sp}
    6118:	72617628 	rsbvc	r7, r1, #40, 12	; 0x2800000
    611c:	5f3e2d29 	svcpl	0x003e2d29
    6120:	2c29706d 	stccs	0, cr7, [r9], #-436	; 0xfffffe4c
    6124:	45525f20 	ldrbmi	r5, [r2, #-3872]	; 0xfffff0e0
    6128:	5f544e45 	svcpl	0x00544e45
    612c:	54494e49 	strbpl	r4, [r9], #-3657	; 0xfffff1b7
    6130:	28504d5f 	ldmdacs	r0, {r0, r1, r2, r3, r4, r6, r8, sl, fp, lr}^
    6134:	29726176 	ldmdbcs	r2!, {r1, r2, r4, r5, r6, r8, sp, lr}^
    6138:	32490029 	subcc	r0, r9, #41	; 0x29
    613c:	52435f43 	subpl	r5, r3, #268	; 0x10c
    6140:	4f505f31 	svcmi	0x00505f31
    6144:	6f505f53 	svcvs	0x00505f53
    6148:	31282073 			; <UNDEFINED> instruction: 0x31282073
    614c:	00295531 	eoreq	r5, r9, r1, lsr r5
    6150:	46535f5f 	usaxmi	r5, r3, pc	; <UNPREDICTABLE>
    6154:	54434152 	strbpl	r4, [r3], #-338	; 0xfffffeae
    6158:	4942495f 	stmdbmi	r2, {r0, r1, r2, r3, r4, r6, r8, fp, lr}^
    615c:	205f5f54 	subscs	r5, pc, r4, asr pc	; <UNPREDICTABLE>
    6160:	415f0030 	cmpmi	pc, r0, lsr r0	; <UNPREDICTABLE>
    6164:	4c494654 	mcrrmi	6, 5, r4, r9, cr4
    6168:	4f535f45 	svcmi	0x00535f45
    616c:	45435255 	strbmi	r5, [r3, #-597]	; 0xfffffdab
    6170:	5f003120 	svcpl	0x00003120
    6174:	4454535f 	ldrbmi	r5, [r4], #-863	; 0xfffffca1
    6178:	5f544e49 	svcpl	0x00544e49
    617c:	28505845 	ldmdacs	r0, {r0, r2, r6, fp, ip, lr}^
    6180:	5f202978 	svcpl	0x00202978
    6184:	2323205f 			; <UNDEFINED> instruction: 0x2323205f
    6188:	23232078 			; <UNDEFINED> instruction: 0x23232078
    618c:	5f005f5f 	svcpl	0x00005f5f
    6190:	5058455f 	subspl	r4, r8, pc, asr r5
    6194:	20297828 	eorcs	r7, r9, r8, lsr #16
    6198:	23205f5f 			; <UNDEFINED> instruction: 0x23205f5f
    619c:	23207823 			; <UNDEFINED> instruction: 0x23207823
    61a0:	005f5f23 	subseq	r5, pc, r3, lsr #30
    61a4:	5f433249 	svcpl	0x00433249
    61a8:	5f315253 	svcpl	0x00315253
    61ac:	5f465442 	svcpl	0x00465442
    61b0:	206b734d 	rsbcs	r7, fp, sp, asr #6
    61b4:	31783028 	cmncc	r8, r8, lsr #32
    61b8:	3c204c55 	stccc	12, cr4, [r0], #-340	; 0xfffffeac
    61bc:	3249203c 	subcc	r2, r9, #60	; 0x3c
    61c0:	52535f43 	subspl	r5, r3, #268	; 0x10c
    61c4:	54425f31 	strbpl	r5, [r2], #-3889	; 0xfffff0cf
    61c8:	6f505f46 	svcvs	0x00505f46
    61cc:	5f002973 	svcpl	0x00002973
    61d0:	5459425f 	ldrbpl	r4, [r9], #-607	; 0xfffffda1
    61d4:	524f5f45 	subpl	r5, pc, #276	; 0x114
    61d8:	5f524544 	svcpl	0x00524544
    61dc:	5f5f205f 	svcpl	0x005f205f
    61e0:	4544524f 	strbmi	r5, [r4, #-591]	; 0xfffffdb1
    61e4:	494c5f52 	stmdbmi	ip, {r1, r4, r6, r8, r9, sl, fp, ip, lr}^
    61e8:	454c5454 	strbmi	r5, [ip, #-1108]	; 0xfffffbac
    61ec:	444e455f 	strbmi	r4, [lr], #-1375	; 0xfffffaa1
    61f0:	5f4e4149 	svcpl	0x004e4149
    61f4:	5f5f005f 	svcpl	0x005f005f
    61f8:	33544c46 	cmpcc	r4, #17920	; 0x4600
    61fc:	50455f32 	subpl	r5, r5, r2, lsr pc
    6200:	4f4c4953 	svcmi	0x004c4953
    6204:	205f5f4e 	subscs	r5, pc, lr, asr #30
    6208:	39312e31 	ldmdbcc	r1!, {r0, r4, r5, r9, sl, fp, sp}
    620c:	32393032 	eorscc	r3, r9, #50	; 0x32
    6210:	35353938 	ldrcc	r3, [r5, #-2360]!	; 0xfffff6c8
    6214:	31383730 	teqcc	r8, r0, lsr r7
    6218:	2d653532 	cfstr64cs	mvdx3, [r5, #-200]!	; 0xffffff38
    621c:	32334637 	eorscc	r4, r3, #57671680	; 0x3700000
    6220:	415f5f00 	cmpmi	pc, r0, lsl #30
    6224:	4e5f4d52 	mrcmi	13, 2, r4, cr15, cr2, {2}
    6228:	5f4e4f45 	svcpl	0x004e4f45
    622c:	5f005046 	svcpl	0x00005046
    6230:	48544f4e 	ldmdami	r4, {r1, r2, r3, r6, r8, r9, sl, fp, lr}^
    6234:	20574f52 	subscs	r4, r7, r2, asr pc
    6238:	4e415f00 	cdpmi	15, 4, cr5, cr1, cr0, {0}
    623c:	45444953 	strbmi	r4, [r4, #-2387]	; 0xfffff6ad
    6240:	485f4c43 	ldmdami	pc, {r0, r1, r6, sl, fp, lr}^	; <UNPREDICTABLE>
    6244:	4500205f 	strmi	r2, [r0, #-95]	; 0xffffffa1
    6248:	31495458 	cmpcc	r9, r8, asr r4
    624c:	52495f30 	subpl	r5, r9, #48, 30	; 0xc0
    6250:	30342051 	eorscc	r2, r4, r1, asr r0
    6254:	43324900 	teqmi	r2, #0, 18
    6258:	3152535f 	cmpcc	r2, pc, asr r3
    625c:	4f54535f 	svcmi	0x0054535f
    6260:	49204650 	stmdbmi	r0!, {r4, r6, r9, sl, lr}
    6264:	535f4332 	cmppl	pc, #-939524096	; 0xc8000000
    6268:	535f3152 	cmppl	pc, #-2147483628	; 0x80000014
    626c:	46504f54 	usaxmi	r4, r0, r4
    6270:	6b734d5f 	blvs	1cd97f4 <_Min_Stack_Size+0x1cd93f4>
    6274:	4e495500 	cdpmi	5, 4, cr5, cr9, cr0, {0}
    6278:	454c5f54 	strbmi	r5, [ip, #-3924]	; 0xfffff0ac
    627c:	36545341 	ldrbcc	r5, [r4], -r1, asr #6
    6280:	414d5f34 	cmpmi	sp, r4, lsr pc
    6284:	5f282058 	svcpl	0x00282058
    6288:	4e49555f 	mcrmi	5, 2, r5, cr9, cr15, {2}
    628c:	454c5f54 	strbmi	r5, [ip, #-3924]	; 0xfffff0ac
    6290:	36545341 	ldrbcc	r5, [r4], -r1, asr #6
    6294:	414d5f34 	cmpmi	sp, r4, lsr pc
    6298:	295f5f58 	ldmdbcs	pc, {r3, r4, r6, r8, r9, sl, fp, ip, lr}^	; <UNPREDICTABLE>
    629c:	705f5f00 	subsvc	r5, pc, r0, lsl #30
    62a0:	745f7274 	ldrbvc	r7, [pc], #-628	; 62a8 <_Min_Stack_Size+0x5ea8>
    62a4:	696f7620 	stmdbvs	pc!, {r5, r9, sl, ip, sp, lr}^	; <UNPREDICTABLE>
    62a8:	002a2064 	eoreq	r2, sl, r4, rrx
    62ac:	49545845 	ldmdbmi	r4, {r0, r2, r6, fp, ip, lr}^
    62b0:	495f3431 	ldmdbmi	pc, {r0, r4, r5, sl, ip, sp}^	; <UNPREDICTABLE>
    62b4:	34205152 	strtcc	r5, [r0], #-338	; 0xfffffeae
    62b8:	525f0030 	subspl	r0, pc, #48	; 0x30
    62bc:	544e4545 	strbpl	r4, [lr], #-1349	; 0xfffffabb
    62c0:	494e495f 	stmdbmi	lr, {r0, r1, r2, r3, r4, r6, r8, fp, lr}^
    62c4:	54505f54 	ldrbpl	r5, [r0], #-3924	; 0xfffff0ac
    62c8:	455a5f52 	ldrbmi	r5, [sl, #-3922]	; 0xfffff0ae
    62cc:	44454f52 	strbmi	r4, [r5], #-3922	; 0xfffff0ae
    62d0:	72617628 	rsbvc	r7, r1, #40, 12	; 0x2800000
    62d4:	207b2029 	rsbscs	r2, fp, r9, lsr #32
    62d8:	72617628 	rsbvc	r7, r1, #40, 12	; 0x2800000
    62dc:	5f3e2d29 	svcpl	0x003e2d29
    62e0:	69647473 	stmdbvs	r4!, {r0, r1, r4, r5, r6, sl, ip, sp, lr}^
    62e4:	203d206e 	eorscs	r2, sp, lr, rrx
    62e8:	735f5f26 	cmpvc	pc, #38, 30	; 0x98
    62ec:	5d305b66 	vldmdbpl	r0!, {d5-<overflow reg d55>}
    62f0:	7628203b 			; <UNDEFINED> instruction: 0x7628203b
    62f4:	2d297261 	sfmcs	f7, 4, [r9, #-388]!	; 0xfffffe7c
    62f8:	74735f3e 	ldrbtvc	r5, [r3], #-3902	; 0xfffff0c2
    62fc:	74756f64 	ldrbtvc	r6, [r5], #-3940	; 0xfffff09c
    6300:	26203d20 	strtcs	r3, [r0], -r0, lsr #26
    6304:	66735f5f 	uhsaxvs	r5, r3, pc	; <UNPREDICTABLE>
    6308:	3b5d315b 	blcc	175287c <_Min_Stack_Size+0x175247c>
    630c:	61762820 	cmnvs	r6, r0, lsr #16
    6310:	3e2d2972 			; <UNDEFINED> instruction: 0x3e2d2972
    6314:	6474735f 	ldrbtvs	r7, [r4], #-863	; 0xfffffca1
    6318:	20727265 	rsbscs	r7, r2, r5, ror #4
    631c:	5f26203d 	svcpl	0x0026203d
    6320:	5b66735f 	blpl	19a30a4 <_Min_Stack_Size+0x19a2ca4>
    6324:	203b5d32 	eorscs	r5, fp, r2, lsr sp
    6328:	5f5f007d 	svcpl	0x005f007d
    632c:	41524655 	cmpmi	r2, r5, asr r6
    6330:	465f5443 	ldrbmi	r5, [pc], -r3, asr #8
    6334:	5f544942 	svcpl	0x00544942
    6338:	3631205f 			; <UNDEFINED> instruction: 0x3631205f
    633c:	555f5f00 	ldrbpl	r5, [pc, #-3840]	; 5444 <_Min_Stack_Size+0x5044>
    6340:	465f5144 	ldrbmi	r5, [pc], -r4, asr #2
    6344:	5f544942 	svcpl	0x00544942
    6348:	3436205f 	ldrtcc	r2, [r6], #-95	; 0xffffffa1
    634c:	445f5f00 	ldrbmi	r5, [pc], #-3840	; 6354 <_Min_Stack_Size+0x5f54>
    6350:	4e5f4c42 	cdpmi	12, 5, cr4, cr15, cr2, {2}
    6354:	5f4d524f 	svcpl	0x004d524f
    6358:	5f58414d 	svcpl	0x0058414d
    635c:	2828205f 	stmdacs	r8!, {r0, r1, r2, r3, r4, r6, sp}
    6360:	62756f64 	rsbsvs	r6, r5, #100, 30	; 0x190
    6364:	3129656c 			; <UNDEFINED> instruction: 0x3129656c
    6368:	3739372e 	ldrcc	r3, [r9, -lr, lsr #14]!
    636c:	31333936 	teqcc	r3, r6, lsr r9
    6370:	36383433 			; <UNDEFINED> instruction: 0x36383433
    6374:	35313332 	ldrcc	r3, [r1, #-818]!	; 0xfffffcce
    6378:	332b6537 			; <UNDEFINED> instruction: 0x332b6537
    637c:	294c3830 	stmdbcs	ip, {r4, r5, fp, ip, sp}^
    6380:	475f5f00 	ldrbmi	r5, [pc, -r0, lsl #30]
    6384:	4c43554e 	cfstr64mi	mvdx5, [r3], {78}	; 0x4e
    6388:	5f454b49 	svcpl	0x00454b49
    638c:	4c495542 	cfstr64mi	mvdx5, [r9], {66}	; 0x42
    6390:	5f4e4954 	svcpl	0x004e4954
    6394:	434d454d 	movtmi	r4, #54605	; 0xd54d
    6398:	31205950 			; <UNDEFINED> instruction: 0x31205950
    639c:	465f5f00 	ldrbmi	r5, [pc], -r0, lsl #30
    63a0:	54414f4c 	strbpl	r4, [r1], #-3916	; 0xfffff0b4
    63a4:	5059545f 	subspl	r5, r9, pc, asr r4
    63a8:	6c662045 	stclvs	0, cr2, [r6], #-276	; 0xfffffeec
    63ac:	0074616f 	rsbseq	r6, r4, pc, ror #2
    63b0:	444c5f5f 	strbmi	r5, [ip], #-3935	; 0xfffff0a1
    63b4:	4d5f4c42 	ldclmi	12, cr4, [pc, #-264]	; 62b4 <_Min_Stack_Size+0x5eb4>
    63b8:	315f5841 	cmpcc	pc, r1, asr #16
    63bc:	58455f30 	stmdapl	r5, {r4, r5, r8, r9, sl, fp, ip, lr}^
    63c0:	205f5f50 	subscs	r5, pc, r0, asr pc	; <UNPREDICTABLE>
    63c4:	00383033 	eorseq	r3, r8, r3, lsr r0
    63c8:	52415f5f 	subpl	r5, r1, #380	; 0x17c
    63cc:	45465f4d 	strbmi	r5, [r6, #-3917]	; 0xfffff0b3
    63d0:	52555441 	subspl	r5, r5, #1090519040	; 0x41000000
    63d4:	4f435f45 	svcmi	0x00435f45
    63d8:	434f5250 	movtmi	r5, #62032	; 0xf250
    63dc:	00353120 	eorseq	r3, r5, r0, lsr #2
    63e0:	4349564e 	movtmi	r5, #38478	; 0x964e
    63e4:	5152495f 	cmppl	r2, pc, asr r9
    63e8:	555f3833 	ldrbpl	r3, [pc, #-2099]	; 5bbd <_Min_Stack_Size+0x57bd>
    63ec:	54524153 	ldrbpl	r4, [r2], #-339	; 0xfffffead
    63f0:	69445f32 	stmdbvs	r4, {r1, r4, r5, r8, r9, sl, fp, ip, lr}^
    63f4:	6c626173 	stfvse	f6, [r2], #-460	; 0xfffffe34
    63f8:	4e282065 	cdpmi	0, 2, cr2, cr8, cr5, {3}
    63fc:	5f434956 	svcpl	0x00434956
    6400:	52454349 	subpl	r4, r5, #603979777	; 0x24000001
    6404:	3d7c2031 	ldclcc	0, cr2, [ip, #-196]!	; 0xffffff3c
    6408:	3c3c3120 	ldfccs	f3, [ip], #-128	; 0xffffff80
    640c:	53552028 	cmppl	r5, #40	; 0x28
    6410:	32545241 	subscc	r5, r4, #268435460	; 0x10000004
    6414:	5152495f 	cmppl	r2, pc, asr r9
    6418:	3233202d 	eorscc	r2, r3, #45	; 0x2d
    641c:	00292920 	eoreq	r2, r9, r0, lsr #18
    6420:	4545525f 	strbmi	r5, [r5, #-607]	; 0xfffffda1
    6424:	4d5f544e 	cfldrdmi	mvd5, [pc, #-312]	; 62f4 <_Min_Stack_Size+0x5ef4>
    6428:	454c5242 	strbmi	r5, [ip, #-578]	; 0xfffffdbe
    642c:	54535f4e 	ldrbpl	r5, [r3], #-3918	; 0xfffff0b2
    6430:	28455441 	stmdacs	r5, {r0, r6, sl, ip, lr}^
    6434:	29727470 	ldmdbcs	r2!, {r4, r5, r6, sl, ip, sp, lr}^
    6438:	70282820 	eorvc	r2, r8, r0, lsr #16
    643c:	2d297274 	sfmcs	f7, 4, [r9, #-464]!	; 0xfffffe30
    6440:	696d5f3e 	stmdbvs	sp!, {r1, r2, r3, r4, r5, r8, r9, sl, fp, ip, lr}^
    6444:	3e2d6373 	mcrcc	3, 1, r6, cr13, cr3, {3}
    6448:	72626d5f 	rsbvc	r6, r2, #6080	; 0x17c0
    644c:	5f6e656c 	svcpl	0x006e656c
    6450:	74617473 	strbtvc	r7, [r1], #-1139	; 0xfffffb8d
    6454:	5f002965 	svcpl	0x00002965
    6458:	4c42445f 	cfstrdmi	mvd4, [r2], {95}	; 0x5f
    645c:	4e45445f 	mcrmi	4, 2, r4, cr5, cr15, {2}
    6460:	5f4d524f 	svcpl	0x004d524f
    6464:	5f4e494d 	svcpl	0x004e494d
    6468:	2828205f 	stmdacs	r8!, {r0, r1, r2, r3, r4, r6, sp}
    646c:	62756f64 	rsbsvs	r6, r5, #100, 30	; 0x190
    6470:	3429656c 	strtcc	r6, [r9], #-1388	; 0xfffffa94
    6474:	3034392e 	eorscc	r3, r4, lr, lsr #18
    6478:	34363536 	ldrtcc	r3, [r6], #-1334	; 0xfffffaca
    647c:	31343835 	teqcc	r4, r5, lsr r8
    6480:	35363432 	ldrcc	r3, [r6, #-1074]!	; 0xfffffbce
    6484:	332d6534 			; <UNDEFINED> instruction: 0x332d6534
    6488:	294c3432 	stmdbcs	ip, {r1, r4, r5, sl, ip, sp}^
    648c:	43324900 	teqmi	r2, #0, 18
    6490:	3252535f 	subscc	r5, r2, #2080374785	; 0x7c000001
    6494:	424d535f 	submi	r5, sp, #2080374785	; 0x7c000001
    6498:	54534f48 	ldrbpl	r4, [r3], #-3912	; 0xfffff0b8
    649c:	43324920 	teqmi	r2, #32, 18	; 0x80000
    64a0:	3252535f 	subscc	r5, r2, #2080374785	; 0x7c000001
    64a4:	424d535f 	submi	r5, sp, #2080374785	; 0x7c000001
    64a8:	54534f48 	ldrbpl	r4, [r3], #-3912	; 0xfffff0b8
    64ac:	6b734d5f 	blvs	1cd9a30 <_Min_Stack_Size+0x1cd9630>
    64b0:	4c475f00 	mcrrmi	15, 0, r5, r7, cr0
    64b4:	4c41424f 	sfmmi	f4, 2, [r1], {79}	; 0x4f
    64b8:	4545525f 	strbmi	r5, [r5, #-607]	; 0xfffffda1
    64bc:	2820544e 	stmdacs	r0!, {r1, r2, r3, r6, sl, ip, lr}
    64c0:	6d695f26 	stclvs	15, cr5, [r9, #-152]!	; 0xffffff68
    64c4:	65727570 	ldrbvs	r7, [r2, #-1392]!	; 0xfffffa90
    64c8:	7461645f 	strbtvc	r6, [r1], #-1119	; 0xfffffba1
    64cc:	5f002961 	svcpl	0x00002961
    64d0:	544e495f 	strbpl	r4, [lr], #-2399	; 0xfffff6a1
    64d4:	5341465f 	movtpl	r4, #5727	; 0x165f
    64d8:	5f323354 	svcpl	0x00323354
    64dc:	45505954 	ldrbmi	r5, [r0, #-2388]	; 0xfffff6ac
    64e0:	69205f5f 	stmdbvs	r0!, {r0, r1, r2, r3, r4, r6, r8, r9, sl, fp, ip, lr}
    64e4:	5f00746e 	svcpl	0x0000746e
    64e8:	544e4955 	strbpl	r4, [lr], #-2389	; 0xfffff6ab
    64ec:	545f3436 	ldrbpl	r3, [pc], #-1078	; 64f4 <_Min_Stack_Size+0x60f4>
    64f0:	4345445f 	movtmi	r4, #21599	; 0x545f
    64f4:	4552414c 	ldrbmi	r4, [r2, #-332]	; 0xfffffeb4
    64f8:	55002044 	strpl	r2, [r0, #-68]	; 0xffffffbc
    64fc:	36544e49 	ldrbcc	r4, [r4], -r9, asr #28
    6500:	414d5f34 	cmpmi	sp, r4, lsr pc
    6504:	5f282058 	svcpl	0x00282058
    6508:	4e49555f 	mcrmi	5, 2, r5, cr9, cr15, {2}
    650c:	5f343654 	svcpl	0x00343654
    6510:	5f58414d 	svcpl	0x0058414d
    6514:	4500295f 	strmi	r2, [r0, #-2399]	; 0xfffff6a1
    6518:	36495458 			; <UNDEFINED> instruction: 0x36495458
    651c:	49003620 	stmdbmi	r0, {r5, r9, sl, ip, sp}
    6520:	435f4332 	cmpmi	pc, #-939524096	; 0xc8000000
    6524:	445f3252 	ldrbmi	r3, [pc], #-594	; 652c <_Min_Stack_Size+0x612c>
    6528:	4e45414d 	dvfmism	f4, f5, #5.0
    652c:	6b734d5f 	blvs	1cd9ab0 <_Min_Stack_Size+0x1cd96b0>
    6530:	78302820 	ldmdavc	r0!, {r5, fp, sp}
    6534:	204c5531 	subcs	r5, ip, r1, lsr r5
    6538:	49203c3c 	stmdbmi	r0!, {r2, r3, r4, r5, sl, fp, ip, sp}
    653c:	435f4332 	cmpmi	pc, #-939524096	; 0xc8000000
    6540:	445f3252 	ldrbmi	r3, [pc], #-594	; 6548 <_Min_Stack_Size+0x6148>
    6544:	4e45414d 	dvfmism	f4, f5, #5.0
    6548:	736f505f 	cmnvc	pc, #95	; 0x5f
    654c:	5f5f0029 	svcpl	0x005f0029
    6550:	52545441 	subspl	r5, r4, #1090519040	; 0x41000000
    6554:	54554249 	ldrbpl	r4, [r5], #-585	; 0xfffffdb7
    6558:	4d495f45 	stclmi	15, cr5, [r9, #-276]	; 0xfffffeec
    655c:	45525550 	ldrbmi	r5, [r2, #-1360]	; 0xfffffab0
    6560:	5441445f 	strbpl	r4, [r1], #-1119	; 0xfffffba1
    6564:	205f5f41 	subscs	r5, pc, r1, asr #30
    6568:	4e5f5f00 	cdpmi	15, 5, cr5, cr15, cr0, {0}
    656c:	494c5745 	stmdbmi	ip, {r0, r2, r6, r8, r9, sl, ip, lr}^
    6570:	494d5f42 	stmdbmi	sp, {r1, r6, r8, r9, sl, fp, ip, lr}^
    6574:	5f524f4e 	svcpl	0x00524f4e
    6578:	0032205f 	eorseq	r2, r2, pc, asr r0
    657c:	49545845 	ldmdbmi	r4, {r0, r2, r6, fp, ip, lr}^
    6580:	52495f35 	subpl	r5, r9, #53, 30	; 0xd4
    6584:	33322051 	teqcc	r2, #81	; 0x51
    6588:	465f5f00 	ldrbmi	r5, [pc], -r0, lsl #30
    658c:	4d5f544c 	cfldrdmi	mvd5, [pc, #-304]	; 6464 <_Min_Stack_Size+0x6064>
    6590:	455f4e49 	ldrbmi	r4, [pc, #-3657]	; 574f <_Min_Stack_Size+0x534f>
    6594:	5f5f5058 	svcpl	0x005f5058
    6598:	312d2820 			; <UNDEFINED> instruction: 0x312d2820
    659c:	00293532 	eoreq	r3, r9, r2, lsr r5
    65a0:	4c465f5f 	mcrrmi	15, 5, r5, r6, cr15
    65a4:	5f343654 	svcpl	0x00343654
    65a8:	5f534148 	svcpl	0x00534148
    65ac:	45495551 	strbmi	r5, [r9, #-1361]	; 0xfffffaaf
    65b0:	414e5f54 	cmpmi	lr, r4, asr pc
    65b4:	205f5f4e 	subscs	r5, pc, lr, asr #30
    65b8:	49550031 	ldmdbmi	r5, {r0, r4, r5}^
    65bc:	3233544e 	eorscc	r5, r3, #1308622848	; 0x4e000000
    65c0:	7828435f 	stmdavc	r8!, {r0, r1, r2, r3, r4, r6, r8, r9, lr}
    65c4:	5f5f2029 	svcpl	0x005f2029
    65c8:	544e4955 	strbpl	r4, [lr], #-2389	; 0xfffff6ab
    65cc:	435f3233 	cmpmi	pc, #805306371	; 0x30000003
    65d0:	00297828 	eoreq	r7, r9, r8, lsr #16
    65d4:	4c555f5f 	mrrcmi	15, 5, r5, r5, cr15	; <UNPREDICTABLE>
    65d8:	4343414c 	movtmi	r4, #12620	; 0x314c
    65dc:	4d5f4d55 	ldclmi	13, cr4, [pc, #-340]	; 6490 <_Min_Stack_Size+0x6090>
    65e0:	5f5f5841 	svcpl	0x005f5841
    65e4:	46583020 	ldrbmi	r3, [r8], -r0, lsr #32
    65e8:	46464646 	strbmi	r4, [r6], -r6, asr #12
    65ec:	46464646 	strbmi	r4, [r6], -r6, asr #12
    65f0:	46464646 	strbmi	r4, [r6], -r6, asr #12
    65f4:	50464646 	subpl	r4, r6, r6, asr #12
    65f8:	5532332d 	ldrpl	r3, [r2, #-813]!	; 0xfffffcd3
    65fc:	004b4c4c 	subeq	r4, fp, ip, asr #24
    6600:	53555f5f 	cmppl	r5, #380	; 0x17c
    6604:	55434341 	strbpl	r4, [r3, #-833]	; 0xfffffcbf
    6608:	42495f4d 	submi	r5, r9, #308	; 0x134
    660c:	5f5f5449 	svcpl	0x005f5449
    6610:	5f003820 	svcpl	0x00003820
    6614:	5858475f 	ldmdapl	r8, {r0, r1, r2, r3, r4, r6, r8, r9, sl, lr}^
    6618:	5059545f 	subspl	r5, r9, pc, asr r4
    661c:	464e4945 	strbmi	r4, [lr], -r5, asr #18
    6620:	51455f4f 	cmppl	r5, pc, asr #30
    6624:	494c4155 	stmdbmi	ip, {r0, r2, r4, r6, r8, lr}^
    6628:	495f5954 	ldmdbmi	pc, {r2, r4, r6, r8, fp, ip, lr}^	; <UNPREDICTABLE>
    662c:	4e494c4e 	cdpmi	12, 4, cr4, cr9, cr14, {2}
    6630:	00302045 	eorseq	r2, r0, r5, asr #32
    6634:	5f433249 	svcpl	0x00433249
    6638:	5f325243 	svcpl	0x00325243
    663c:	56455449 	strbpl	r5, [r5], -r9, asr #8
    6640:	204e4554 	subcs	r4, lr, r4, asr r5
    6644:	5f433249 	svcpl	0x00433249
    6648:	5f325243 	svcpl	0x00325243
    664c:	56455449 	strbpl	r5, [r5], -r9, asr #8
    6650:	5f4e4554 	svcpl	0x004e4554
    6654:	006b734d 	rsbeq	r7, fp, sp, asr #6
    6658:	5f544e49 	svcpl	0x00544e49
    665c:	54534146 	ldrbpl	r4, [r3], #-326	; 0xfffffeba
    6660:	494d5f38 	stmdbmi	sp, {r3, r4, r5, r8, r9, sl, fp, ip, lr}^
    6664:	2d28204e 	stccs	0, cr2, [r8, #-312]!	; 0xfffffec8
    6668:	4e495f5f 	mcrmi	15, 2, r5, cr9, cr15, {2}
    666c:	41465f54 	cmpmi	r6, r4, asr pc
    6670:	5f385453 	svcpl	0x00385453
    6674:	5f58414d 	svcpl	0x0058414d
    6678:	202d205f 	eorcs	r2, sp, pc, asr r0
    667c:	5f002931 	svcpl	0x00002931
    6680:	6572705f 	ldrbvs	r7, [r2, #-95]!	; 0xffffffa1
    6684:	74636964 	strbtvc	r6, [r3], #-2404	; 0xfffff69c
    6688:	6c61665f 	stclvs	6, cr6, [r1], #-380	; 0xfffffe84
    668c:	65286573 	strvs	r6, [r8, #-1395]!	; 0xfffffa8d
    6690:	20297078 	eorcs	r7, r9, r8, ror r0
    6694:	75625f5f 	strbvc	r5, [r2, #-3935]!	; 0xfffff0a1
    6698:	69746c69 	ldmdbvs	r4!, {r0, r3, r5, r6, sl, fp, sp, lr}^
    669c:	78655f6e 	stmdavc	r5!, {r1, r2, r3, r5, r6, r8, r9, sl, fp, ip, lr}^
    66a0:	74636570 	strbtvc	r6, [r3], #-1392	; 0xfffffa90
    66a4:	78652828 	stmdavc	r5!, {r3, r5, fp, sp}^
    66a8:	202c2970 	eorcs	r2, ip, r0, ror r9
    66ac:	5f002930 	svcpl	0x00002930
    66b0:	544c465f 	strbpl	r4, [ip], #-1631	; 0xfffff9a1
    66b4:	485f3436 	ldmdami	pc, {r1, r2, r4, r5, sl, ip, sp}^	; <UNPREDICTABLE>
    66b8:	445f5341 	ldrbmi	r5, [pc], #-833	; 66c0 <_Min_Stack_Size+0x62c0>
    66bc:	524f4e45 	subpl	r4, pc, #1104	; 0x450
    66c0:	205f5f4d 	subscs	r5, pc, sp, asr #30
    66c4:	5f5f0031 	svcpl	0x005f0031
    66c8:	5f544c46 	svcpl	0x00544c46
    66cc:	5f474944 	svcpl	0x00474944
    66d0:	0036205f 	eorseq	r2, r6, pc, asr r0
    66d4:	41555f5f 	cmpmi	r5, pc, asr pc
    66d8:	4d554343 	ldclmi	3, cr4, [r5, #-268]	; 0xfffffef4
    66dc:	5350455f 	cmppl	r0, #398458880	; 0x17c00000
    66e0:	4e4f4c49 	cdpmi	12, 4, cr4, cr15, cr9, {2}
    66e4:	30205f5f 	eorcc	r5, r0, pc, asr pc
    66e8:	2d503178 	ldfcse	f3, [r0, #-480]	; 0xfffffe20
    66ec:	4b553631 	blmi	1553fb8 <_Min_Stack_Size+0x1553bb8>
    66f0:	43575f00 	cmpmi	r7, #0, 30
    66f4:	5f524148 	svcpl	0x00524148
    66f8:	45445f54 	strbmi	r5, [r4, #-3924]	; 0xfffff0ac
    66fc:	52414c43 	subpl	r4, r1, #17152	; 0x4300
    6700:	00204445 	eoreq	r4, r0, r5, asr #8
    6704:	5f544e49 	svcpl	0x00544e49
    6708:	54534146 	ldrbpl	r4, [r3], #-326	; 0xfffffeba
    670c:	4d5f3631 	ldclmi	6, cr3, [pc, #-196]	; 6650 <_Min_Stack_Size+0x6250>
    6710:	28205841 	stmdacs	r0!, {r0, r6, fp, ip, lr}
    6714:	4e495f5f 	mcrmi	15, 2, r5, cr9, cr15, {2}
    6718:	41465f54 	cmpmi	r6, r4, asr pc
    671c:	36315453 			; <UNDEFINED> instruction: 0x36315453
    6720:	58414d5f 	stmdapl	r1, {r0, r1, r2, r3, r4, r6, r8, sl, fp, lr}^
    6724:	00295f5f 	eoreq	r5, r9, pc, asr pc
    6728:	4349564e 	movtmi	r5, #38478	; 0x964e
    672c:	5152495f 	cmppl	r2, pc, asr r9
    6730:	58455f39 	stmdapl	r5, {r0, r3, r4, r5, r8, r9, sl, fp, ip, lr}^
    6734:	5f334954 	svcpl	0x00334954
    6738:	62616e45 	rsbvs	r6, r1, #1104	; 0x450
    673c:	2820656c 	stmdacs	r0!, {r2, r3, r5, r6, r8, sl, sp, lr}
    6740:	4349564e 	movtmi	r5, #38478	; 0x964e
    6744:	4553495f 	ldrbmi	r4, [r3, #-2399]	; 0xfffff6a1
    6748:	7c203052 	stcvc	0, cr3, [r0], #-328	; 0xfffffeb8
    674c:	3c31203d 	ldccc	0, cr2, [r1], #-244	; 0xffffff0c
    6750:	0029393c 	eoreq	r3, r9, ip, lsr r9
    6754:	5359535f 	cmppl	r9, #2080374785	; 0x7c000001
    6758:	4545525f 	strbmi	r5, [r5, #-607]	; 0xfffffda1
    675c:	485f544e 	ldmdami	pc, {r1, r2, r3, r6, sl, ip, lr}^	; <UNPREDICTABLE>
    6760:	5f00205f 	svcpl	0x0000205f
    6764:	544c465f 	strbpl	r4, [ip], #-1631	; 0xfffff9a1
    6768:	4156455f 	cmpmi	r6, pc, asr r5
    676c:	454d5f4c 	strbmi	r5, [sp, #-3916]	; 0xfffff0b4
    6770:	444f4854 	strbmi	r4, [pc], #-2132	; 6778 <_Min_Stack_Size+0x6378>
    6774:	30205f5f 	eorcc	r5, r0, pc, asr pc
    6778:	695f5f00 	ldmdbvs	pc, {r8, r9, sl, fp, ip, lr}^	; <UNPREDICTABLE>
    677c:	665f746e 	ldrbvs	r7, [pc], -lr, ror #8
    6780:	31747361 	cmncc	r4, r1, ror #6
    6784:	5f745f36 	svcpl	0x00745f36
    6788:	69666564 	stmdbvs	r6!, {r2, r5, r6, r8, sl, sp, lr}^
    678c:	2064656e 	rsbcs	r6, r4, lr, ror #10
    6790:	58450031 	stmdapl	r5, {r0, r4, r5}^
    6794:	33314954 	teqcc	r1, #84, 18	; 0x150000
    6798:	33314450 	teqcc	r1, #80, 8	; 0x50000000
    679c:	58452820 	stmdapl	r5, {r5, fp, sp}^
    67a0:	475f4954 			; <UNDEFINED> instruction: 0x475f4954
    67a4:	5f4f4950 	svcpl	0x004f4950
    67a8:	7070614d 	rsbsvc	r6, r0, sp, asr #2
    67ac:	5f676e69 	svcpl	0x00676e69
    67b0:	457b2974 	ldrbmi	r2, [fp, #-2420]!	; 0xfffff68c
    67b4:	31495458 	cmpcc	r9, r8, asr r4
    67b8:	202c2033 	eorcs	r2, ip, r3, lsr r0
    67bc:	4f495047 	svcmi	0x00495047
    67c0:	202c2044 	eorcs	r2, ip, r4, asr #32
    67c4:	4f495047 	svcmi	0x00495047
    67c8:	4e49505f 	mcrmi	0, 2, r5, cr9, cr15, {2}
    67cc:	2033315f 	eorscs	r3, r3, pc, asr r1
    67d0:	5845202c 	stmdapl	r5, {r2, r3, r5, sp}^
    67d4:	33314954 	teqcc	r1, #84, 18	; 0x150000
    67d8:	5152495f 	cmppl	r2, pc, asr r9
    67dc:	5f5f007d 	svcpl	0x005f007d
    67e0:	41484353 	cmpmi	r8, r3, asr r3
    67e4:	414d5f52 	cmpmi	sp, r2, asr pc
    67e8:	205f5f58 	subscs	r5, pc, r8, asr pc	; <UNPREDICTABLE>
    67ec:	66377830 			; <UNDEFINED> instruction: 0x66377830
    67f0:	495f5f00 	ldmdbmi	pc, {r8, r9, sl, fp, ip, lr}^	; <UNPREDICTABLE>
    67f4:	465f544e 	ldrbmi	r5, [pc], -lr, asr #8
    67f8:	38545341 	ldmdacc	r4, {r0, r6, r8, r9, ip, lr}^
    67fc:	4449575f 	strbmi	r5, [r9], #-1887	; 0xfffff8a1
    6800:	5f5f4854 	svcpl	0x005f4854
    6804:	00323320 	eorseq	r3, r2, r0, lsr #6
    6808:	54535f5f 	ldrbpl	r5, [r3], #-3935	; 0xfffff0a1
    680c:	555f4344 	ldrbpl	r4, [pc, #-836]	; 64d0 <_Min_Stack_Size+0x60d0>
    6810:	315f4654 	cmpcc	pc, r4, asr r6	; <UNPREDICTABLE>
    6814:	205f5f36 	subscs	r5, pc, r6, lsr pc	; <UNPREDICTABLE>
    6818:	525f0031 	subspl	r0, pc, #49	; 0x31
    681c:	34444e41 	strbcc	r4, [r4], #-3649	; 0xfffff1bf
    6820:	554d5f38 	strbpl	r5, [sp, #-3896]	; 0xfffff0c8
    6824:	325f544c 	subscc	r5, pc, #76, 8	; 0x4c000000
    6828:	78302820 	ldmdavc	r0!, {r5, fp, sp}
    682c:	35303030 	ldrcc	r3, [r0, #-48]!	; 0xffffffd0
    6830:	5f5f0029 	svcpl	0x005f0029
    6834:	5f4d5241 	svcpl	0x004d5241
    6838:	54414546 	strbpl	r4, [r1], #-1350	; 0xfffffaba
    683c:	5f455255 	svcpl	0x00455255
    6840:	4552444c 	ldrbmi	r4, [r2, #-1100]	; 0xfffffbb4
    6844:	525f0058 	subspl	r0, pc, #88	; 0x58
    6848:	544e4545 	strbpl	r4, [lr], #-1349	; 0xfffffabb
    684c:	4548435f 	strbmi	r4, [r8, #-863]	; 0xfffffca1
    6850:	4d5f4b43 	vldrmi	d20, [pc, #-268]	; 674c <_Min_Stack_Size+0x634c>
    6854:	28435349 	stmdacs	r3, {r0, r3, r6, r8, r9, ip, lr}^
    6858:	29726176 	ldmdbcs	r2!, {r1, r2, r4, r5, r6, r8, sp, lr}^
    685c:	45525f20 	ldrbmi	r5, [r2, #-3872]	; 0xfffff0e0
    6860:	5f544e45 	svcpl	0x00544e45
    6864:	43454843 	movtmi	r4, #22595	; 0x5843
    6868:	6176284b 	cmnvs	r6, fp, asr #16
    686c:	5f202c72 	svcpl	0x00202c72
    6870:	6373696d 	cmnvs	r3, #1785856	; 0x1b4000
    6874:	7473202c 	ldrbtvc	r2, [r3], #-44	; 0xffffffd4
    6878:	74637572 	strbtvc	r7, [r3], #-1394	; 0xfffffa8e
    687c:	696d5f20 	stmdbvs	sp!, {r5, r8, r9, sl, fp, ip, lr}^
    6880:	725f6373 	subsvc	r6, pc, #-872415231	; 0xcc000001
    6884:	746e6565 	strbtvc	r6, [lr], #-1381	; 0xfffffa9b
    6888:	202c2a20 	eorcs	r2, ip, r0, lsr #20
    688c:	657a6973 	ldrbvs	r6, [sl, #-2419]!	; 0xfffff68d
    6890:	2a20666f 	bcs	820254 <_Min_Stack_Size+0x81fe54>
    6894:	61762828 	cmnvs	r6, r8, lsr #16
    6898:	3e2d2972 			; <UNDEFINED> instruction: 0x3e2d2972
    689c:	73696d5f 	cmnvc	r9, #6080	; 0x17c0
    68a0:	202c2963 	eorcs	r2, ip, r3, ror #18
    68a4:	4545525f 	strbmi	r5, [r5, #-607]	; 0xfffffda1
    68a8:	495f544e 	ldmdbmi	pc, {r1, r2, r3, r6, sl, ip, lr}^	; <UNPREDICTABLE>
    68ac:	5f54494e 	svcpl	0x0054494e
    68b0:	4353494d 	cmpmi	r3, #1261568	; 0x134000
    68b4:	72617628 	rsbvc	r7, r1, #40, 12	; 0x2800000
    68b8:	5f002929 	svcpl	0x00002929
    68bc:	54505f54 	ldrbpl	r5, [r0], #-3924	; 0xfffff0ac
    68c0:	46494452 			; <UNDEFINED> instruction: 0x46494452
    68c4:	47002046 	strmi	r2, [r0, -r6, asr #32]
    68c8:	5f4f4950 	svcpl	0x004f4950
    68cc:	45444f4d 	strbmi	r4, [r4, #-3917]	; 0xfffff0b3
    68d0:	504e495f 	subpl	r4, lr, pc, asr r9
    68d4:	505f5455 	subspl	r5, pc, r5, asr r4	; <UNPREDICTABLE>
    68d8:	78302055 	ldmdavc	r0!, {r0, r2, r4, r6, sp}
    68dc:	30303030 	eorscc	r3, r0, r0, lsr r0
    68e0:	32303030 	eorscc	r3, r0, #48	; 0x30
    68e4:	32490075 	subcc	r0, r9, #117	; 0x75
    68e8:	52435f43 	subpl	r5, r3, #268	; 0x10c
    68ec:	4d535f31 	ldclmi	15, cr5, [r3, #-196]	; 0xffffff3c
    68f0:	5f535542 	svcpl	0x00535542
    68f4:	206b734d 	rsbcs	r7, fp, sp, asr #6
    68f8:	31783028 	cmncc	r8, r8, lsr #32
    68fc:	3c204c55 	stccc	12, cr4, [r0], #-340	; 0xfffffeac
    6900:	3249203c 	subcc	r2, r9, #60	; 0x3c
    6904:	52435f43 	subpl	r5, r3, #268	; 0x10c
    6908:	4d535f31 	ldclmi	15, cr5, [r3, #-196]	; 0xffffff3c
    690c:	5f535542 	svcpl	0x00535542
    6910:	29736f50 	ldmdbcs	r3!, {r4, r6, r8, r9, sl, fp, sp, lr}^
    6914:	415f5f00 	cmpmi	pc, r0, lsl #30
    6918:	465f4d52 			; <UNDEFINED> instruction: 0x465f4d52
    691c:	5f363150 	svcpl	0x00363150
    6920:	53475241 	movtpl	r5, #29249	; 0x7241
    6924:	475f5f00 	ldrbmi	r5, [pc, -r0, lsl #30]
    6928:	495f4343 	ldmdbmi	pc, {r0, r1, r6, r8, r9, lr}^	; <UNPREDICTABLE>
    692c:	355f4345 	ldrbcc	r4, [pc, #-837]	; 65ef <_Min_Stack_Size+0x61ef>
    6930:	30203935 	eorcc	r3, r0, r5, lsr r9
    6934:	6e5f5f00 	cdpvs	15, 5, cr5, cr15, cr0, {0}
    6938:	5f6c6c75 	svcpl	0x006c6c75
    693c:	746e6573 	strbtvc	r6, [lr], #-1395	; 0xfffffa8d
    6940:	6c656e69 	stclvs	14, cr6, [r5], #-420	; 0xfffffe5c
    6944:	615f5f20 	cmpvs	pc, r0, lsr #30
    6948:	69727474 	ldmdbvs	r2!, {r2, r4, r5, r6, sl, ip, sp, lr}^
    694c:	65747562 	ldrbvs	r7, [r4, #-1378]!	; 0xfffffa9e
    6950:	28285f5f 	stmdacs	r8!, {r0, r1, r2, r3, r4, r6, r8, r9, sl, fp, ip, lr}
    6954:	65735f5f 	ldrbvs	r5, [r3, #-3935]!	; 0xfffff0a1
    6958:	6e69746e 	cdpvs	4, 6, cr7, cr9, cr14, {3}
    695c:	5f5f6c65 	svcpl	0x005f6c65
    6960:	5f002929 	svcpl	0x00002929
    6964:	7165725f 	cmnvc	r5, pc, asr r2
    6968:	65726975 	ldrbvs	r6, [r2, #-2421]!	; 0xfffff68b
    696c:	6e755f73 	mrcvs	15, 3, r5, cr5, cr3, {3}
    6970:	6b636f6c 	blvs	18e2728 <_Min_Stack_Size+0x18e2328>
    6974:	2e286465 	cdpcs	4, 2, cr6, cr8, cr5, {3}
    6978:	20292e2e 	eorcs	r2, r9, lr, lsr #28
    697c:	6f6c5f5f 	svcvs	0x006c5f5f
    6980:	615f6b63 	cmpvs	pc, r3, ror #22
    6984:	746f6e6e 	strbtvc	r6, [pc], #-3694	; 698c <_Min_Stack_Size+0x658c>
    6988:	28657461 	stmdacs	r5!, {r0, r5, r6, sl, ip, sp, lr}^
    698c:	6b636f6c 	blvs	18e2744 <_Min_Stack_Size+0x18e2344>
    6990:	78655f73 	stmdavc	r5!, {r0, r1, r4, r5, r6, r8, r9, sl, fp, ip, lr}^
    6994:	64756c63 	ldrbtvs	r6, [r5], #-3171	; 0xfffff39d
    6998:	5f286465 	svcpl	0x00286465
    699c:	5f41565f 	svcpl	0x0041565f
    69a0:	53475241 	movtpl	r5, #29249	; 0x7241
    69a4:	29295f5f 	stmdbcs	r9!, {r0, r1, r2, r3, r4, r6, r8, r9, sl, fp, ip, lr}
    69a8:	61686300 	cmnvs	r8, r0, lsl #6
    69ac:	302b2072 	eorcc	r2, fp, r2, ror r0
    69b0:	6c6c6100 	stfvse	f6, [ip], #-0
    69b4:	0061636f 	rsbeq	r6, r1, pc, ror #6
    69b8:	464c5f5f 			; <UNDEFINED> instruction: 0x464c5f5f
    69bc:	54434152 	strbpl	r4, [r3], #-338	; 0xfffffeae
    69c0:	58414d5f 	stmdapl	r1, {r0, r1, r2, r3, r4, r6, r8, sl, fp, lr}^
    69c4:	30205f5f 	eorcc	r5, r0, pc, asr pc
    69c8:	46463758 			; <UNDEFINED> instruction: 0x46463758
    69cc:	46464646 	strbmi	r4, [r6], -r6, asr #12
    69d0:	332d5046 			; <UNDEFINED> instruction: 0x332d5046
    69d4:	00524c31 	subseq	r4, r2, r1, lsr ip
    69d8:	49535f5f 	ldmdbmi	r3, {r0, r1, r2, r3, r4, r6, r8, r9, sl, fp, ip, lr}^
    69dc:	464f455a 			; <UNDEFINED> instruction: 0x464f455a
    69e0:	5254505f 	subspl	r5, r4, #95	; 0x5f
    69e4:	46464944 	strbmi	r4, [r6], -r4, asr #18
    69e8:	5f5f545f 	svcpl	0x005f545f
    69ec:	45003420 	strmi	r3, [r0, #-1056]	; 0xfffffbe0
    69f0:	31495458 	cmpcc	r9, r8, asr r4
    69f4:	31312031 	teqcc	r1, r1, lsr r0
    69f8:	575f5f00 	ldrbpl	r5, [pc, -r0, lsl #30]
    69fc:	52414843 	subpl	r4, r1, #4390912	; 0x430000
    6a00:	5f5f545f 	svcpl	0x005f545f
    6a04:	32490020 	subcc	r0, r9, #32
    6a08:	52535f43 	subspl	r5, r3, #268	; 0x10c
    6a0c:	45505f31 	ldrbmi	r5, [r0, #-3889]	; 0xfffff0cf
    6a10:	52524543 	subspl	r4, r2, #281018368	; 0x10c00000
    6a14:	43324920 	teqmi	r2, #32, 18	; 0x80000
    6a18:	3152535f 	cmpcc	r2, pc, asr r3
    6a1c:	4345505f 	movtmi	r5, #20575	; 0x505f
    6a20:	5f525245 	svcpl	0x00525245
    6a24:	006b734d 	rsbeq	r7, fp, sp, asr #6
    6a28:	695f5f5f 	ldmdbvs	pc, {r0, r1, r2, r3, r4, r6, r8, r9, sl, fp, ip, lr}^	; <UNPREDICTABLE>
    6a2c:	6c5f746e 	cfldrdvs	mvd7, [pc], {110}	; 0x6e
    6a30:	74736165 	ldrbtvc	r6, [r3], #-357	; 0xfffffe9b
    6a34:	5f745f38 	svcpl	0x00745f38
    6a38:	69666564 	stmdbvs	r6!, {r2, r5, r6, r8, sl, sp, lr}^
    6a3c:	2064656e 	rsbcs	r6, r4, lr, ror #10
    6a40:	5f5f0031 	svcpl	0x005f0031
    6a44:	5f4d5241 	svcpl	0x004d5241
    6a48:	54414546 	strbpl	r4, [r1], #-1350	; 0xfffffaba
    6a4c:	5f455255 	svcpl	0x00455255
    6a50:	56494449 	strbpl	r4, [r9], -r9, asr #8
    6a54:	5f003120 	svcpl	0x00003120
    6a58:	4f4c465f 	svcmi	0x004c465f
    6a5c:	575f5441 	ldrbpl	r5, [pc, -r1, asr #8]
    6a60:	5f44524f 	svcpl	0x0044524f
    6a64:	4544524f 	strbmi	r5, [r4, #-591]	; 0xfffffdb1
    6a68:	205f5f52 	subscs	r5, pc, r2, asr pc	; <UNPREDICTABLE>
    6a6c:	524f5f5f 	subpl	r5, pc, #380	; 0x17c
    6a70:	5f524544 	svcpl	0x00524544
    6a74:	5454494c 	ldrbpl	r4, [r4], #-2380	; 0xfffff6b4
    6a78:	455f454c 	ldrbmi	r4, [pc, #-1356]	; 6534 <_Min_Stack_Size+0x6134>
    6a7c:	4149444e 	cmpmi	r9, lr, asr #8
    6a80:	005f5f4e 	subseq	r5, pc, lr, asr #30
    6a84:	4349564e 	movtmi	r5, #38478	; 0x964e
    6a88:	5152495f 	cmppl	r2, pc, asr r9
    6a8c:	58455f38 	stmdapl	r5, {r3, r4, r5, r8, r9, sl, fp, ip, lr}^
    6a90:	5f324954 	svcpl	0x00324954
    6a94:	61736944 	cmnvs	r3, r4, asr #18
    6a98:	20656c62 	rsbcs	r6, r5, r2, ror #24
    6a9c:	49564e28 	ldmdbmi	r6, {r3, r5, r9, sl, fp, lr}^
    6aa0:	43495f43 	movtmi	r5, #40771	; 0x9f43
    6aa4:	20305245 	eorscs	r5, r0, r5, asr #4
    6aa8:	31203d7c 			; <UNDEFINED> instruction: 0x31203d7c
    6aac:	29383c3c 	ldmdbcs	r8!, {r2, r3, r4, r5, sl, fp, ip, sp}
    6ab0:	43475f00 	movtmi	r5, #32512	; 0x7f00
    6ab4:	43575f43 	cmpmi	r7, #268	; 0x10c
    6ab8:	5f524148 	svcpl	0x00524148
    6abc:	49002054 	stmdbmi	r0, {r2, r4, r6, sp}
    6ac0:	535f4332 	cmppl	pc, #-939524096	; 0xc8000000
    6ac4:	415f3152 	cmpmi	pc, r2, asr r1	; <UNPREDICTABLE>
    6ac8:	30314444 	eorscc	r4, r1, r4, asr #8
    6acc:	736f505f 	cmnvc	pc, #95	; 0x5f
    6ad0:	55332820 	ldrpl	r2, [r3, #-2080]!	; 0xfffff7e0
    6ad4:	5f5f0029 	svcpl	0x005f0029
    6ad8:	6f6c6e75 	svcvs	0x006c6e75
    6adc:	28736b63 	ldmdacs	r3!, {r0, r1, r5, r6, r8, r9, fp, sp, lr}^
    6ae0:	292e2e2e 	stmdbcs	lr!, {r1, r2, r3, r5, r9, sl, fp, sp}
    6ae4:	6c5f5f20 	mrrcvs	15, 2, r5, pc, cr0	; <UNPREDICTABLE>
    6ae8:	5f6b636f 	svcpl	0x006b636f
    6aec:	6f6e6e61 	svcvs	0x006e6e61
    6af0:	65746174 	ldrbvs	r6, [r4, #-372]!	; 0xfffffe8c
    6af4:	6c6e7528 	cfstr64vs	mvdx7, [lr], #-160	; 0xffffff60
    6af8:	5f6b636f 	svcpl	0x006b636f
    6afc:	636e7566 	cmnvs	lr, #427819008	; 0x19800000
    6b00:	6e6f6974 			; <UNDEFINED> instruction: 0x6e6f6974
    6b04:	565f5f28 	ldrbpl	r5, [pc], -r8, lsr #30
    6b08:	52415f41 	subpl	r5, r1, #260	; 0x104
    6b0c:	5f5f5347 	svcpl	0x005f5347
    6b10:	5f002929 	svcpl	0x00002929
    6b14:	5058455f 	subspl	r4, r8, pc, asr r5
    6b18:	2054524f 	subscs	r5, r4, pc, asr #4
    6b1c:	555f5f00 	ldrbpl	r5, [pc, #-3840]	; 5c24 <_Min_Stack_Size+0x5824>
    6b20:	5f544e49 	svcpl	0x00544e49
    6b24:	5341454c 	movtpl	r4, #5452	; 0x154c
    6b28:	545f3854 	ldrbpl	r3, [pc], #-2132	; 6b30 <_Min_Stack_Size+0x6730>
    6b2c:	5f455059 	svcpl	0x00455059
    6b30:	6e75205f 	mrcvs	0, 3, r2, cr5, cr15, {2}
    6b34:	6e676973 			; <UNDEFINED> instruction: 0x6e676973
    6b38:	63206465 			; <UNDEFINED> instruction: 0x63206465
    6b3c:	00726168 	rsbseq	r6, r2, r8, ror #2
    6b40:	424f5f5f 	submi	r5, pc, #380	; 0x17c
    6b44:	454c4f53 	strbmi	r4, [ip, #-3923]	; 0xfffff0ad
    6b48:	4d5f4554 	cfldr64mi	mvdx4, [pc, #-336]	; 6a00 <_Min_Stack_Size+0x6600>
    6b4c:	5f485441 	svcpl	0x00485441
    6b50:	41464544 	cmpmi	r6, r4, asr #10
    6b54:	20544c55 	subscs	r4, r4, r5, asr ip
    6b58:	58450031 	stmdapl	r5, {r0, r4, r5}^
    6b5c:	50324954 	eorspl	r4, r2, r4, asr r9
    6b60:	28203244 	stmdacs	r0!, {r2, r6, r9, ip, sp}
    6b64:	49545845 	ldmdbmi	r4, {r0, r2, r6, fp, ip, lr}^
    6b68:	4950475f 	ldmdbmi	r0, {r0, r1, r2, r3, r4, r6, r8, r9, sl, lr}^
    6b6c:	614d5f4f 	cmpvs	sp, pc, asr #30
    6b70:	6e697070 	mcrvs	0, 3, r7, cr9, cr0, {3}
    6b74:	29745f67 	ldmdbcs	r4!, {r0, r1, r2, r5, r6, r8, r9, sl, fp, ip, lr}^
    6b78:	5458457b 	ldrbpl	r4, [r8], #-1403	; 0xfffffa85
    6b7c:	2c203249 	sfmcs	f3, 4, [r0], #-292	; 0xfffffedc
    6b80:	49504720 	ldmdbmi	r0, {r5, r8, r9, sl, lr}^
    6b84:	2c20444f 	cfstrscs	mvf4, [r0], #-316	; 0xfffffec4
    6b88:	49504720 	ldmdbmi	r0, {r5, r8, r9, sl, lr}^
    6b8c:	49505f4f 	ldmdbmi	r0, {r0, r1, r2, r3, r6, r8, r9, sl, fp, ip, lr}^
    6b90:	20325f4e 	eorscs	r5, r2, lr, asr #30
    6b94:	5845202c 	stmdapl	r5, {r2, r3, r5, sp}^
    6b98:	5f324954 	svcpl	0x00324954
    6b9c:	7d515249 	lfmvc	f5, 2, [r1, #-292]	; 0xfffffedc
    6ba0:	54584500 	ldrbpl	r4, [r8], #-1280	; 0xfffffb00
    6ba4:	43503049 	cmpmi	r0, #73	; 0x49
    6ba8:	45282030 	strmi	r2, [r8, #-48]!	; 0xffffffd0
    6bac:	5f495458 	svcpl	0x00495458
    6bb0:	4f495047 	svcmi	0x00495047
    6bb4:	70614d5f 	rsbvc	r4, r1, pc, asr sp
    6bb8:	676e6970 			; <UNDEFINED> instruction: 0x676e6970
    6bbc:	7b29745f 	blvc	a63d40 <_Min_Stack_Size+0xa63940>
    6bc0:	49545845 	ldmdbmi	r4, {r0, r2, r6, fp, ip, lr}^
    6bc4:	202c2030 	eorcs	r2, ip, r0, lsr r0
    6bc8:	4f495047 	svcmi	0x00495047
    6bcc:	202c2043 	eorcs	r2, ip, r3, asr #32
    6bd0:	4f495047 	svcmi	0x00495047
    6bd4:	4e49505f 	mcrmi	0, 2, r5, cr9, cr15, {2}
    6bd8:	2c20305f 	stccs	0, cr3, [r0], #-380	; 0xfffffe84
    6bdc:	49545845 	ldmdbmi	r4, {r0, r2, r6, fp, ip, lr}^
    6be0:	52495f30 	subpl	r5, r9, #48, 30	; 0xc0
    6be4:	007d2051 	rsbseq	r2, sp, r1, asr r0
    6be8:	48535f5f 	ldmdami	r3, {r0, r1, r2, r3, r4, r6, r8, r9, sl, fp, ip, lr}^
    6bec:	575f5452 			; <UNDEFINED> instruction: 0x575f5452
    6bf0:	48544449 	ldmdami	r4, {r0, r3, r6, sl, lr}^
    6bf4:	31205f5f 			; <UNDEFINED> instruction: 0x31205f5f
    6bf8:	525f0036 	subspl	r0, pc, #54	; 0x36
    6bfc:	5f444145 	svcpl	0x00444145
    6c00:	54495257 	strbpl	r5, [r9], #-599	; 0xfffffda9
    6c04:	55425f45 	strbpl	r5, [r2, #-3909]	; 0xfffff0bb
    6c08:	5a495346 	bpl	125b928 <_Min_Stack_Size+0x125b528>
    6c0c:	59545f45 	ldmdbpl	r4, {r0, r2, r6, r8, r9, sl, fp, ip, lr}^
    6c10:	69204550 	stmdbvs	r0!, {r4, r6, r8, sl, lr}
    6c14:	4900746e 	stmdbmi	r0, {r1, r2, r3, r5, r6, sl, ip, sp, lr}
    6c18:	5450544e 	ldrbpl	r5, [r0], #-1102	; 0xfffffbb2
    6c1c:	414d5f52 	cmpmi	sp, r2, asr pc
    6c20:	5f282058 	svcpl	0x00282058
    6c24:	544e495f 	strbpl	r4, [lr], #-2399	; 0xfffff6a1
    6c28:	5f525450 	svcpl	0x00525450
    6c2c:	5f58414d 	svcpl	0x0058414d
    6c30:	5f00295f 	svcpl	0x0000295f
    6c34:	504d495f 	subpl	r4, sp, pc, asr r9
    6c38:	2054524f 	subscs	r5, r4, pc, asr #4
    6c3c:	41525f00 	cmpmi	r2, r0, lsl #30
    6c40:	3834444e 	ldmdacc	r4!, {r1, r2, r3, r6, sl, lr}
    6c44:	4545535f 	strbmi	r5, [r5, #-863]	; 0xfffffca1
    6c48:	20325f44 	eorscs	r5, r2, r4, asr #30
    6c4c:	31783028 	cmncc	r8, r8, lsr #32
    6c50:	29343332 	ldmdbcs	r4!, {r1, r4, r5, r8, r9, ip, sp}
    6c54:	54505f00 	ldrbpl	r5, [r0], #-3840	; 0xfffff100
    6c58:	46494452 			; <UNDEFINED> instruction: 0x46494452
    6c5c:	5f545f46 	svcpl	0x00545f46
    6c60:	4c434544 	cfstr64mi	mvdx4, [r3], {68}	; 0x44
    6c64:	44455241 	strbmi	r5, [r5], #-577	; 0xfffffdbf
    6c68:	5f5f0020 	svcpl	0x005f0020
    6c6c:	5f415355 	svcpl	0x00415355
    6c70:	54494246 	strbpl	r4, [r9], #-582	; 0xfffffdba
    6c74:	31205f5f 			; <UNDEFINED> instruction: 0x31205f5f
    6c78:	5f5f0036 	svcpl	0x005f0036
    6c7c:	616c6f76 	smcvs	50934	; 0xc6f6
    6c80:	656c6974 	strbvs	r6, [ip, #-2420]!	; 0xfffff68c
    6c84:	6c6f7620 	stclvs	6, cr7, [pc], #-128	; 6c0c <_Min_Stack_Size+0x680c>
    6c88:	6c697461 	cfstrdvs	mvd7, [r9], #-388	; 0xfffffe7c
    6c8c:	4d5f0065 	ldclmi	0, cr0, [pc, #-404]	; 6b00 <_Min_Stack_Size+0x6700>
    6c90:	49484341 	stmdbmi	r8, {r0, r6, r8, r9, lr}^
    6c94:	5f5f454e 	svcpl	0x005f454e
    6c98:	45505954 	ldrbmi	r5, [r0, #-2388]	; 0xfffff6ac
    6c9c:	20485f53 	subcs	r5, r8, r3, asr pc
    6ca0:	495f5f00 	ldmdbmi	pc, {r8, r9, sl, fp, ip, lr}^	; <UNPREDICTABLE>
    6ca4:	5f454545 	svcpl	0x00454545
    6ca8:	5454494c 	ldrbpl	r4, [r4], #-2380	; 0xfffff6b4
    6cac:	455f454c 	ldrbmi	r4, [pc, #-1356]	; 6768 <_Min_Stack_Size+0x6368>
    6cb0:	4149444e 	cmpmi	r9, lr, asr #8
    6cb4:	5f00204e 	svcpl	0x0000204e
    6cb8:	4c4c555f 	cfstr64mi	mvdx5, [ip], {95}	; 0x5f
    6cbc:	43415246 	movtmi	r5, #4678	; 0x1246
    6cc0:	494d5f54 	stmdbmi	sp, {r2, r4, r6, r8, r9, sl, fp, ip, lr}^
    6cc4:	205f5f4e 	subscs	r5, pc, lr, asr #30
    6cc8:	55302e30 	ldrpl	r2, [r0, #-3632]!	; 0xfffff1d0
    6ccc:	00524c4c 	subseq	r4, r2, ip, asr #24
    6cd0:	444c5f5f 	strbmi	r5, [ip], #-3935	; 0xfffff0a1
    6cd4:	4d5f4c42 	ldclmi	12, cr4, [pc, #-264]	; 6bd4 <_Min_Stack_Size+0x67d4>
    6cd8:	315f4e49 	cmpcc	pc, r9, asr #28
    6cdc:	58455f30 	stmdapl	r5, {r4, r5, r8, r9, sl, fp, ip, lr}^
    6ce0:	205f5f50 	subscs	r5, pc, r0, asr pc	; <UNPREDICTABLE>
    6ce4:	30332d28 	eorscc	r2, r3, r8, lsr #26
    6ce8:	49002937 	stmdbmi	r0, {r0, r1, r2, r4, r5, r8, fp, sp}
    6cec:	535f4332 	cmppl	pc, #-939524096	; 0xc8000000
    6cf0:	535f3152 	cmppl	pc, #-2147483628	; 0x80000014
    6cf4:	46504f54 	usaxmi	r4, r0, r4
    6cf8:	6b734d5f 	blvs	1cda27c <_Min_Stack_Size+0x1cd9e7c>
    6cfc:	78302820 	ldmdavc	r0!, {r5, fp, sp}
    6d00:	204c5531 	subcs	r5, ip, r1, lsr r5
    6d04:	49203c3c 	stmdbmi	r0!, {r2, r3, r4, r5, sl, fp, ip, sp}
    6d08:	535f4332 	cmppl	pc, #-939524096	; 0xc8000000
    6d0c:	535f3152 	cmppl	pc, #-2147483628	; 0x80000014
    6d10:	46504f54 	usaxmi	r4, r0, r4
    6d14:	736f505f 	cmnvc	pc, #95	; 0x5f
    6d18:	5f5f0029 	svcpl	0x005f0029
    6d1c:	5f544c46 	svcpl	0x00544c46
    6d20:	5f534148 	svcpl	0x00534148
    6d24:	45495551 	strbmi	r5, [r9, #-1361]	; 0xfffffaaf
    6d28:	414e5f54 	cmpmi	lr, r4, asr pc
    6d2c:	205f5f4e 	subscs	r5, pc, lr, asr #30
    6d30:	525f0031 	subspl	r0, pc, #49	; 0x31
    6d34:	544e4545 	strbpl	r4, [lr], #-1349	; 0xfffffabb
    6d38:	454d455f 	strbmi	r4, [sp, #-1375]	; 0xfffffaa1
    6d3c:	4e454752 	mcrmi	7, 2, r4, cr5, cr2, {2}
    6d40:	5f285943 	svcpl	0x00285943
    6d44:	29727470 	ldmdbcs	r2!, {r4, r5, r6, sl, ip, sp, lr}^
    6d48:	5f282820 	svcpl	0x00282820
    6d4c:	29727470 	ldmdbcs	r2!, {r4, r5, r6, sl, ip, sp, lr}^
    6d50:	655f3e2d 	ldrbvs	r3, [pc, #-3629]	; 5f2b <_Min_Stack_Size+0x5b2b>
    6d54:	6772656d 	ldrbvs	r6, [r2, -sp, ror #10]!
    6d58:	79636e65 	stmdbvc	r3!, {r0, r2, r5, r6, r9, sl, fp, sp, lr}^
    6d5c:	5f5f0029 	svcpl	0x005f0029
    6d60:	49465441 	stmdbmi	r6, {r0, r6, sl, ip, lr}^
    6d64:	565f454c 	ldrbpl	r4, [pc], -ip, asr #10
    6d68:	42495349 	submi	r5, r9, #603979777	; 0x24000001
    6d6c:	3120454c 			; <UNDEFINED> instruction: 0x3120454c
    6d70:	43324900 	teqmi	r2, #0, 18
    6d74:	3152535f 	cmpcc	r2, pc, asr r3
    6d78:	4444415f 	strbmi	r4, [r4], #-351	; 0xfffffea1
    6d7c:	49203031 	stmdbmi	r0!, {r0, r4, r5, ip, sp}
    6d80:	535f4332 	cmppl	pc, #-939524096	; 0xc8000000
    6d84:	415f3152 	cmpmi	pc, r2, asr r1	; <UNPREDICTABLE>
    6d88:	30314444 	eorscc	r4, r1, r4, asr #8
    6d8c:	6b734d5f 	blvs	1cda310 <_Min_Stack_Size+0x1cd9f10>
    6d90:	41535500 	cmpmi	r3, r0, lsl #10
    6d94:	5f335452 	svcpl	0x00335452
    6d98:	20515249 	subscs	r5, r1, r9, asr #4
    6d9c:	5f003933 	svcpl	0x00003933
    6da0:	52464c5f 	subpl	r4, r6, #24320	; 0x5f00
    6da4:	5f544341 	svcpl	0x00544341
    6da8:	49535045 	ldmdbmi	r3, {r0, r2, r6, ip, lr}^
    6dac:	5f4e4f4c 	svcpl	0x004e4f4c
    6db0:	7830205f 	ldmdavc	r0!, {r0, r1, r2, r3, r4, r6, sp}
    6db4:	332d5031 			; <UNDEFINED> instruction: 0x332d5031
    6db8:	00524c31 	subseq	r4, r2, r1, lsr ip
    6dbc:	4745425f 	smlsldmi	r4, r5, pc, r2	; <UNPREDICTABLE>
    6dc0:	535f4e49 	cmppl	pc, #1168	; 0x490
    6dc4:	435f4454 	cmpmi	pc, #84, 8	; 0x54000000
    6dc8:	5f5f0020 	svcpl	0x005f0020
    6dcc:	6c6c616d 	stfvse	f6, [ip], #-436	; 0xfffffe4c
    6dd0:	6c5f636f 	mrrcvs	3, 6, r6, pc, cr15	; <UNPREDICTABLE>
    6dd4:	20656b69 	rsbcs	r6, r5, r9, ror #22
    6dd8:	74615f5f 	strbtvc	r5, [r1], #-3935	; 0xfffff0a1
    6ddc:	62697274 	rsbvs	r7, r9, #116, 4	; 0x40000007
    6de0:	5f657475 	svcpl	0x00657475
    6de4:	5f28285f 	svcpl	0x0028285f
    6de8:	6c616d5f 	stclvs	13, cr6, [r1], #-380	; 0xfffffe84
    6dec:	5f636f6c 	svcpl	0x00636f6c
    6df0:	0029295f 	eoreq	r2, r9, pc, asr r9
    6df4:	4349564e 	movtmi	r5, #38478	; 0x964e
    6df8:	5152495f 	cmppl	r2, pc, asr r9
    6dfc:	58455f39 	stmdapl	r5, {r0, r3, r4, r5, r8, r9, sl, fp, ip, lr}^
    6e00:	5f334954 	svcpl	0x00334954
    6e04:	61736944 	cmnvs	r3, r4, asr #18
    6e08:	20656c62 	rsbcs	r6, r5, r2, ror #24
    6e0c:	49564e28 	ldmdbmi	r6, {r3, r5, r9, sl, fp, lr}^
    6e10:	43495f43 	movtmi	r5, #40771	; 0x9f43
    6e14:	20305245 	eorscs	r5, r0, r5, asr #4
    6e18:	31203d7c 			; <UNDEFINED> instruction: 0x31203d7c
    6e1c:	29393c3c 	ldmdbcs	r9!, {r2, r3, r4, r5, sl, fp, ip, sp}
    6e20:	54584500 	ldrbpl	r4, [r8], #-1280	; 0xfffffb00
    6e24:	41503849 	cmpmi	r0, r9, asr #16
    6e28:	45282038 	strmi	r2, [r8, #-56]!	; 0xffffffc8
    6e2c:	5f495458 	svcpl	0x00495458
    6e30:	4f495047 	svcmi	0x00495047
    6e34:	70614d5f 	rsbvc	r4, r1, pc, asr sp
    6e38:	676e6970 			; <UNDEFINED> instruction: 0x676e6970
    6e3c:	7b29745f 	blvc	a63fc0 <_Min_Stack_Size+0xa63bc0>
    6e40:	49545845 	ldmdbmi	r4, {r0, r2, r6, fp, ip, lr}^
    6e44:	47202c38 			; <UNDEFINED> instruction: 0x47202c38
    6e48:	414f4950 	cmpmi	pc, r0, asr r9	; <UNPREDICTABLE>
    6e4c:	47202c20 	strmi	r2, [r0, -r0, lsr #24]!
    6e50:	5f4f4950 	svcpl	0x004f4950
    6e54:	5f4e4950 	svcpl	0x004e4950
    6e58:	202c2038 	eorcs	r2, ip, r8, lsr r0
    6e5c:	49545845 	ldmdbmi	r4, {r0, r2, r6, fp, ip, lr}^
    6e60:	52495f38 	subpl	r5, r9, #56, 30	; 0xe0
    6e64:	007d2051 	rsbseq	r2, sp, r1, asr r0
    6e68:	52415f5f 	subpl	r5, r1, #380	; 0x17c
    6e6c:	49535f4d 	ldmdbmi	r3, {r0, r2, r3, r6, r8, r9, sl, fp, ip, lr}^
    6e70:	464f455a 			; <UNDEFINED> instruction: 0x464f455a
    6e74:	4e494d5f 	mcrmi	13, 2, r4, cr9, cr15, {2}
    6e78:	4c414d49 	mcrrmi	13, 4, r4, r1, cr9
    6e7c:	554e455f 	strbpl	r4, [lr, #-1375]	; 0xfffffaa1
    6e80:	0031204d 	eorseq	r2, r1, sp, asr #32
    6e84:	494f505f 	stmdbmi	pc, {r0, r1, r2, r3, r4, r6, ip, lr}^	; <UNPREDICTABLE>
    6e88:	5245544e 	subpl	r5, r5, #1308622848	; 0x4e000000
    6e8c:	544e495f 	strbpl	r4, [lr], #-2399	; 0xfffff6a1
    6e90:	6e6f6c20 	cdpvs	12, 6, cr6, cr15, cr0, {1}
    6e94:	5f5f0067 	svcpl	0x005f0067
    6e98:	33544c46 	cmpcc	r4, #17920	; 0x4600
    6e9c:	4e5f5832 	mrcmi	8, 2, r5, cr15, cr2, {1}
    6ea0:	5f4d524f 	svcpl	0x004d524f
    6ea4:	5f58414d 	svcpl	0x0058414d
    6ea8:	2e31205f 	mrccs	0, 1, r2, cr1, cr15, {2}
    6eac:	36373937 			; <UNDEFINED> instruction: 0x36373937
    6eb0:	33313339 	teqcc	r1, #-469762048	; 0xe4000000
    6eb4:	32363834 	eorscc	r3, r6, #52, 16	; 0x340000
    6eb8:	37353133 			; <UNDEFINED> instruction: 0x37353133
    6ebc:	30332b65 	eorscc	r2, r3, r5, ror #22
    6ec0:	32334638 	eorscc	r4, r3, #56, 12	; 0x3800000
    6ec4:	5f5f0078 	svcpl	0x005f0078
    6ec8:	5f6d7261 	svcpl	0x006d7261
    6ecc:	0031205f 	eorseq	r2, r1, pc, asr r0
    6ed0:	495f5047 	ldmdbmi	pc, {r0, r1, r2, r6, ip, lr}^	; <UNPREDICTABLE>
    6ed4:	435f5152 	cmpmi	pc, #-2147483628	; 0x80000014
    6ed8:	426c6c61 	rsbmi	r6, ip, #24832	; 0x6100
    6edc:	006b6361 	rsbeq	r6, fp, r1, ror #6
    6ee0:	4349564e 	movtmi	r5, #38478	; 0x964e
    6ee4:	5152495f 	cmppl	r2, pc, asr r9
    6ee8:	555f3933 	ldrbpl	r3, [pc, #-2355]	; 65bd <_Min_Stack_Size+0x61bd>
    6eec:	54524153 	ldrbpl	r4, [r2], #-339	; 0xfffffead
    6ef0:	69445f33 	stmdbvs	r4, {r0, r1, r4, r5, r8, r9, sl, fp, ip, lr}^
    6ef4:	6c626173 	stfvse	f6, [r2], #-460	; 0xfffffe34
    6ef8:	4e282065 	cdpmi	0, 2, cr2, cr8, cr5, {3}
    6efc:	5f434956 	svcpl	0x00434956
    6f00:	52454349 	subpl	r4, r5, #603979777	; 0x24000001
    6f04:	3d7c2031 	ldclcc	0, cr2, [ip, #-196]!	; 0xffffff3c
    6f08:	3c3c3120 	ldfccs	f3, [ip], #-128	; 0xffffff80
    6f0c:	53552028 	cmppl	r5, #40	; 0x28
    6f10:	33545241 	cmpcc	r4, #268435460	; 0x10000004
    6f14:	5152495f 	cmppl	r2, pc, asr r9
    6f18:	3233202d 	eorscc	r2, r3, #45	; 0x2d
    6f1c:	00292920 	eoreq	r2, r9, r0, lsr #18
    6f20:	52465f5f 	subpl	r5, r6, #380	; 0x17c
    6f24:	5f544341 	svcpl	0x00544341
    6f28:	49535045 	ldmdbmi	r3, {r0, r2, r6, ip, lr}^
    6f2c:	5f4e4f4c 	svcpl	0x004e4f4c
    6f30:	7830205f 	ldmdavc	r0!, {r0, r1, r2, r3, r4, r6, sp}
    6f34:	312d5031 			; <UNDEFINED> instruction: 0x312d5031
    6f38:	5f005235 	svcpl	0x00005235
    6f3c:	544c465f 	strbpl	r4, [ip], #-1631	; 0xfffff9a1
    6f40:	4d5f3233 	lfmmi	f3, 2, [pc, #-204]	; 6e7c <_Min_Stack_Size+0x6a7c>
    6f44:	315f4e49 	cmpcc	pc, r9, asr #28
    6f48:	58455f30 	stmdapl	r5, {r4, r5, r8, r9, sl, fp, ip, lr}^
    6f4c:	205f5f50 	subscs	r5, pc, r0, asr pc	; <UNPREDICTABLE>
    6f50:	37332d28 	ldrcc	r2, [r3, -r8, lsr #26]!
    6f54:	525f0029 	subspl	r0, pc, #41	; 0x29
    6f58:	544e4545 	strbpl	r4, [lr], #-1349	; 0xfffffabb
    6f5c:	5443575f 	strbpl	r5, [r3], #-1887	; 0xfffff8a1
    6f60:	5f424d4f 	svcpl	0x00424d4f
    6f64:	54415453 	strbpl	r5, [r1], #-1107	; 0xfffffbad
    6f68:	74702845 	ldrbtvc	r2, [r0], #-2117	; 0xfffff7bb
    6f6c:	28202972 	stmdacs	r0!, {r1, r4, r5, r6, r8, fp, sp}
    6f70:	72747028 	rsbsvc	r7, r4, #40	; 0x28
    6f74:	5f3e2d29 	svcpl	0x003e2d29
    6f78:	6373696d 	cmnvs	r3, #1785856	; 0x1b4000
    6f7c:	775f3e2d 	ldrbvc	r3, [pc, -sp, lsr #28]
    6f80:	6d6f7463 	cfstrdvs	mvd7, [pc, #-396]!	; 6dfc <_Min_Stack_Size+0x69fc>
    6f84:	74735f62 	ldrbtvc	r5, [r3], #-3938	; 0xfffff09e
    6f88:	29657461 	stmdbcs	r5!, {r0, r5, r6, sl, ip, sp, lr}^
    6f8c:	49564e00 	ldmdbmi	r6, {r9, sl, fp, lr}^
    6f90:	52495f43 	subpl	r5, r9, #268	; 0x10c
    6f94:	5f353351 	svcpl	0x00353351
    6f98:	31495053 	qdaddcc	r5, r3, r9
    6f9c:	7369445f 	cmnvc	r9, #1593835520	; 0x5f000000
    6fa0:	656c6261 	strbvs	r6, [ip, #-609]!	; 0xfffffd9f
    6fa4:	564e2820 	strbpl	r2, [lr], -r0, lsr #16
    6fa8:	495f4349 	ldmdbmi	pc, {r0, r3, r6, r8, r9, lr}^	; <UNPREDICTABLE>
    6fac:	31524543 	cmpcc	r2, r3, asr #10
    6fb0:	203d7c20 	eorscs	r7, sp, r0, lsr #24
    6fb4:	283c3c31 	ldmdacs	ip!, {r0, r4, r5, sl, fp, ip, sp}
    6fb8:	49505320 	ldmdbmi	r0, {r5, r8, r9, ip, lr}^
    6fbc:	52495f31 	subpl	r5, r9, #49, 30	; 0xc4
    6fc0:	33202d51 			; <UNDEFINED> instruction: 0x33202d51
    6fc4:	29292032 	stmdbcs	r9!, {r1, r4, r5, sp}
    6fc8:	495f5f00 	ldmdbmi	pc, {r8, r9, sl, fp, ip, lr}^	; <UNPREDICTABLE>
    6fcc:	435f4f53 	cmpmi	pc, #332	; 0x14c
    6fd0:	5349565f 	movtpl	r5, #38495	; 0x965f
    6fd4:	454c4249 	strbmi	r4, [ip, #-585]	; 0xfffffdb7
    6fd8:	31303220 	teqcc	r0, r0, lsr #4
    6fdc:	50470031 	subpl	r0, r7, r1, lsr r0
    6fe0:	505f4f49 	subspl	r4, pc, r9, asr #30
    6fe4:	525f4e49 	subspl	r4, pc, #1168	; 0x490
    6fe8:	54455345 	strbpl	r5, [r5], #-837	; 0xfffffcbb
    6fec:	5f003020 	svcpl	0x00003020
    6ff0:	4d52415f 	ldfmie	f4, [r2, #-380]	; 0xfffffe84
    6ff4:	3150465f 	cmpcc	r0, pc, asr r6
    6ff8:	4f465f36 	svcmi	0x00465f36
    6ffc:	54414d52 	strbpl	r4, [r1], #-3410	; 0xfffff2ae
    7000:	544c415f 	strbpl	r4, [ip], #-351	; 0xfffffea1
    7004:	414e5245 	cmpmi	lr, r5, asr #4
    7008:	45564954 	ldrbmi	r4, [r6, #-2388]	; 0xfffff6ac
    700c:	465f5f00 	ldrbmi	r5, [pc], -r0, lsl #30
    7010:	49445342 	stmdbmi	r4, {r1, r6, r8, r9, ip, lr}^
    7014:	29732844 	ldmdbcs	r3!, {r2, r6, fp, sp}^
    7018:	72747320 	rsbsvc	r7, r4, #32, 6	; 0x80000000
    701c:	20746375 	rsbscs	r6, r4, r5, ror r3
    7020:	61685f5f 	cmnvs	r8, pc, asr pc
    7024:	5f006b63 	svcpl	0x00006b63
    7028:	42444c5f 	submi	r4, r4, #24320	; 0x5f00
    702c:	4f4e5f4c 	svcmi	0x004e5f4c
    7030:	4d5f4d52 	ldclmi	13, cr4, [pc, #-328]	; 6ef0 <_Min_Stack_Size+0x6af0>
    7034:	5f5f5841 	svcpl	0x005f5841
    7038:	372e3120 	strcc	r3, [lr, -r0, lsr #2]!
    703c:	39363739 	ldmdbcc	r6!, {r0, r3, r4, r5, r8, r9, sl, ip, sp}
    7040:	34333133 	ldrtcc	r3, [r3], #-307	; 0xfffffecd
    7044:	33323638 	teqcc	r2, #56, 12	; 0x3800000
    7048:	65373531 	ldrvs	r3, [r7, #-1329]!	; 0xfffffacf
    704c:	3830332b 	ldmdacc	r0!, {r0, r1, r3, r5, r8, r9, ip, sp}
    7050:	4e49004c 	cdpmi	0, 4, cr0, cr9, cr12, {2}
    7054:	41465f54 	cmpmi	r6, r4, asr pc
    7058:	34365453 	ldrtcc	r5, [r6], #-1107	; 0xfffffbad
    705c:	4e494d5f 	mcrmi	13, 2, r4, cr9, cr15, {2}
    7060:	5f2d2820 	svcpl	0x002d2820
    7064:	544e495f 	strbpl	r4, [lr], #-2399	; 0xfffff6a1
    7068:	5341465f 	movtpl	r4, #5727	; 0x165f
    706c:	5f343654 	svcpl	0x00343654
    7070:	5f58414d 	svcpl	0x0058414d
    7074:	202d205f 	eorcs	r2, sp, pc, asr r0
    7078:	5f002931 	svcpl	0x00002931
    707c:	4843414d 	stmdami	r3, {r0, r2, r3, r6, r8, lr}^
    7080:	5f454e49 	svcpl	0x00454e49
    7084:	4645445f 			; <UNDEFINED> instruction: 0x4645445f
    7088:	544c5541 	strbpl	r5, [ip], #-1345	; 0xfffffabf
    708c:	5059545f 	subspl	r5, r9, pc, asr r4
    7090:	485f5345 	ldmdami	pc, {r0, r2, r6, r8, r9, ip, lr}^	; <UNPREDICTABLE>
    7094:	5f5f0020 	svcpl	0x005f0020
    7098:	47474942 	strbmi	r4, [r7, -r2, asr #18]
    709c:	5f545345 	svcpl	0x00545345
    70a0:	47494c41 	strbmi	r4, [r9, -r1, asr #24]
    70a4:	4e454d4e 	cdpmi	13, 4, cr4, cr5, cr14, {2}
    70a8:	205f5f54 	subscs	r5, pc, r4, asr pc	; <UNPREDICTABLE>
    70ac:	5f5f0038 	svcpl	0x005f0038
    70b0:	5f736168 	svcpl	0x00736168
    70b4:	74616566 	strbtvc	r6, [r1], #-1382	; 0xfffffa9a
    70b8:	28657275 	stmdacs	r5!, {r0, r2, r4, r5, r6, r9, ip, sp, lr}^
    70bc:	30202978 	eorcc	r2, r0, r8, ror r9
    70c0:	43475f00 	movtmi	r5, #32512	; 0x7f00
    70c4:	54505f43 	ldrbpl	r5, [r0], #-3907	; 0xfffff0bd
    70c8:	46494452 			; <UNDEFINED> instruction: 0x46494452
    70cc:	20545f46 	subscs	r5, r4, r6, asr #30
    70d0:	475f5f00 	ldrbmi	r5, [pc, -r0, lsl #30]
    70d4:	4c43554e 	cfstr64mi	mvdx5, [r3], {78}	; 0x4e
    70d8:	5f454b49 	svcpl	0x00454b49
    70dc:	4c495542 	cfstr64mi	mvdx5, [r9], {66}	; 0x42
    70e0:	5f4e4954 	svcpl	0x004e4954
    70e4:	5458454e 	ldrbpl	r4, [r8], #-1358	; 0xfffffab2
    70e8:	4752415f 			; <UNDEFINED> instruction: 0x4752415f
    70ec:	5f003120 	svcpl	0x00003120
    70f0:	5f41545f 	svcpl	0x0041545f
    70f4:	54494249 	strbpl	r4, [r9], #-585	; 0xfffffdb7
    70f8:	36205f5f 	qsaxcc	r5, r0, pc	; <UNPREDICTABLE>
    70fc:	43520034 	cmpmi	r2, #52	; 0x34
    7100:	53555f43 	cmppl	r5, #268	; 0x10c
    7104:	33545241 	cmpcc	r4, #268435460	; 0x10000004
    7108:	7365525f 	cmnvc	r5, #-268435451	; 0xf0000005
    710c:	29287465 	stmdbcs	r8!, {r0, r2, r5, r6, sl, ip, sp, lr}
    7110:	52202820 	eorpl	r2, r0, #32, 16	; 0x200000
    7114:	3e2d4343 	cdpcc	3, 2, cr4, cr13, cr3, {2}
    7118:	31425041 	cmpcc	r2, r1, asr #32
    711c:	52545352 	subspl	r5, r4, #1207959553	; 0x48000001
    7120:	203d7c20 	eorscs	r7, sp, r0, lsr #24
    7124:	3c3c3128 	ldfccs	f3, [ip], #-160	; 0xffffff60
    7128:	20293831 	eorcs	r3, r9, r1, lsr r8
    712c:	54530029 	ldrbpl	r0, [r3], #-41	; 0xffffffd7
    7130:	2032334d 	eorscs	r3, r2, sp, asr #6
    7134:	5f5f0031 	svcpl	0x005f0031
    7138:	5341454c 	movtpl	r4, #5452	; 0x154c
    713c:	20343654 	eorscs	r3, r4, r4, asr r6
    7140:	226c6c22 	rsbcs	r6, ip, #8704	; 0x2200
    7144:	52524500 	subspl	r4, r2, #0, 10
    7148:	3020524f 	eorcc	r5, r0, pc, asr #4
    714c:	54584500 	ldrbpl	r4, [r8], #-1280	; 0xfffffb00
    7150:	34203449 	strtcc	r3, [r0], #-1097	; 0xfffffbb7
    7154:	725f5f00 	subsvc	r5, pc, #0, 30
    7158:	746e6565 	strbtvc	r6, [lr], #-1381	; 0xfffffa9b
    715c:	7373615f 	cmnvc	r3, #-1073741801	; 0xc0000017
    7160:	28747265 	ldmdacs	r4!, {r0, r2, r5, r6, r9, ip, sp, lr}^
    7164:	28202978 	stmdacs	r0!, {r3, r4, r5, r6, r8, fp, sp}
    7168:	20297828 	eorcs	r7, r9, r8, lsr #16
    716c:	7628203f 			; <UNDEFINED> instruction: 0x7628203f
    7170:	2964696f 	stmdbcs	r4!, {r0, r1, r2, r3, r5, r6, r8, fp, sp, lr}^
    7174:	203a2030 	eorscs	r2, sl, r0, lsr r0
    7178:	73615f5f 	cmnvc	r1, #380	; 0x17c
    717c:	74726573 	ldrbtvc	r6, [r2], #-1395	; 0xfffffa8d
    7180:	6e75665f 	mrcvs	6, 3, r6, cr5, cr15, {2}
    7184:	5f5f2863 	svcpl	0x005f2863
    7188:	454c4946 	strbmi	r4, [ip, #-2374]	; 0xfffff6ba
    718c:	202c5f5f 	eorcs	r5, ip, pc, asr pc
    7190:	494c5f5f 	stmdbmi	ip, {r0, r1, r2, r3, r4, r6, r8, r9, sl, fp, ip, lr}^
    7194:	5f5f454e 	svcpl	0x005f454e
    7198:	6328202c 			; <UNDEFINED> instruction: 0x6328202c
    719c:	20726168 	rsbscs	r6, r2, r8, ror #2
    71a0:	2c30292a 			; <UNDEFINED> instruction: 0x2c30292a
    71a4:	45522220 	ldrbmi	r2, [r2, #-544]	; 0xfffffde0
    71a8:	20544e45 	subscs	r4, r4, r5, asr #28
    71ac:	6c6c616d 	stfvse	f6, [ip], #-436	; 0xfffffe4c
    71b0:	7320636f 			; <UNDEFINED> instruction: 0x7320636f
    71b4:	65636375 	strbvs	r6, [r3, #-885]!	; 0xfffffc8b
    71b8:	64656465 	strbtvs	r6, [r5], #-1125	; 0xfffffb9b
    71bc:	00292922 	eoreq	r2, r9, r2, lsr #18
    71c0:	4f495047 	svcmi	0x00495047
    71c4:	444f4d5f 	strbmi	r4, [pc], #-3423	; 71cc <_Min_Stack_Size+0x6dcc>
    71c8:	4e415f45 	cdpmi	15, 4, cr5, cr1, cr5, {2}
    71cc:	474f4c41 	strbmi	r4, [pc, -r1, asr #24]
    71d0:	30783020 	rsbscc	r3, r8, r0, lsr #32
    71d4:	30303030 	eorscc	r3, r0, r0, lsr r0
    71d8:	75303030 	ldrvc	r3, [r0, #-48]!	; 0xffffffd0
    71dc:	415f5f00 	cmpmi	pc, r0, lsl #30
    71e0:	465f4d52 			; <UNDEFINED> instruction: 0x465f4d52
    71e4:	55544145 	ldrbpl	r4, [r4, #-325]	; 0xfffffebb
    71e8:	515f4552 	cmppl	pc, r2, asr r5	; <UNPREDICTABLE>
    71ec:	584d4452 	stmdapl	sp, {r1, r4, r6, sl, lr}^
    71f0:	54584500 	ldrbpl	r4, [r8], #-1280	; 0xfffffb00
    71f4:	44503449 	ldrbmi	r3, [r0], #-1097	; 0xfffffbb7
    71f8:	45282034 	strmi	r2, [r8, #-52]!	; 0xffffffcc
    71fc:	5f495458 	svcpl	0x00495458
    7200:	4f495047 	svcmi	0x00495047
    7204:	70614d5f 	rsbvc	r4, r1, pc, asr sp
    7208:	676e6970 			; <UNDEFINED> instruction: 0x676e6970
    720c:	7b29745f 	blvc	a64390 <_Min_Stack_Size+0xa63f90>
    7210:	49545845 	ldmdbmi	r4, {r0, r2, r6, fp, ip, lr}^
    7214:	202c2034 	eorcs	r2, ip, r4, lsr r0
    7218:	4f495047 	svcmi	0x00495047
    721c:	202c2044 	eorcs	r2, ip, r4, asr #32
    7220:	4f495047 	svcmi	0x00495047
    7224:	4e49505f 	mcrmi	0, 2, r5, cr9, cr15, {2}
    7228:	2c20345f 	cfstrscs	mvf3, [r0], #-380	; 0xfffffe84
    722c:	54584520 	ldrbpl	r4, [r8], #-1312	; 0xfffffae0
    7230:	495f3449 	ldmdbmi	pc, {r0, r3, r6, sl, ip, sp}^	; <UNPREDICTABLE>
    7234:	007d5152 	rsbseq	r5, sp, r2, asr r1
    7238:	52415f5f 	subpl	r5, r1, #380	; 0x17c
    723c:	52415f4d 	subpl	r5, r1, #308	; 0x134
    7240:	495f4843 	ldmdbmi	pc, {r0, r1, r6, fp, lr}^	; <UNPREDICTABLE>
    7244:	545f4153 	ldrbpl	r4, [pc], #-339	; 724c <_Min_Stack_Size+0x6e4c>
    7248:	424d5548 	submi	r5, sp, #72, 10	; 0x12000000
    724c:	45003220 	strmi	r3, [r0, #-544]	; 0xfffffde0
    7250:	33495458 	movtcc	r5, #37976	; 0x9458
    7254:	20334350 	eorscs	r4, r3, r0, asr r3
    7258:	54584528 	ldrbpl	r4, [r8], #-1320	; 0xfffffad8
    725c:	50475f49 	subpl	r5, r7, r9, asr #30
    7260:	4d5f4f49 	ldclmi	15, cr4, [pc, #-292]	; 7144 <_Min_Stack_Size+0x6d44>
    7264:	69707061 	ldmdbvs	r0!, {r0, r5, r6, ip, sp, lr}^
    7268:	745f676e 	ldrbvc	r6, [pc], #-1902	; 7270 <_Min_Stack_Size+0x6e70>
    726c:	58457b29 	stmdapl	r5, {r0, r3, r5, r8, r9, fp, ip, sp, lr}^
    7270:	20334954 	eorscs	r4, r3, r4, asr r9
    7274:	5047202c 	subpl	r2, r7, ip, lsr #32
    7278:	20434f49 	subcs	r4, r3, r9, asr #30
    727c:	5047202c 	subpl	r2, r7, ip, lsr #32
    7280:	505f4f49 	subspl	r4, pc, r9, asr #30
    7284:	335f4e49 	cmpcc	pc, #1168	; 0x490
    7288:	58452c20 	stmdapl	r5, {r5, sl, fp, sp}^
    728c:	5f334954 	svcpl	0x00334954
    7290:	20515249 	subscs	r5, r1, r9, asr #4
    7294:	5f5f007d 	svcpl	0x005f007d
    7298:	474e4f4c 	strbmi	r4, [lr, -ip, asr #30]
    729c:	4e4f4c5f 	mcrmi	12, 2, r4, cr15, cr15, {2}
    72a0:	414d5f47 	cmpmi	sp, r7, asr #30
    72a4:	205f5f58 	subscs	r5, pc, r8, asr pc	; <UNPREDICTABLE>
    72a8:	66377830 			; <UNDEFINED> instruction: 0x66377830
    72ac:	66666666 	strbtvs	r6, [r6], -r6, ror #12
    72b0:	66666666 	strbtvs	r6, [r6], -r6, ror #12
    72b4:	66666666 	strbtvs	r6, [r6], -r6, ror #12
    72b8:	4c4c6666 	mcrrmi	6, 6, r6, ip, cr6
    72bc:	54584500 	ldrbpl	r4, [r8], #-1280	; 0xfffffb00
    72c0:	43503149 	cmpmi	r0, #1073741842	; 0x40000012
    72c4:	45282031 	strmi	r2, [r8, #-49]!	; 0xffffffcf
    72c8:	5f495458 	svcpl	0x00495458
    72cc:	4f495047 	svcmi	0x00495047
    72d0:	70614d5f 	rsbvc	r4, r1, pc, asr sp
    72d4:	676e6970 			; <UNDEFINED> instruction: 0x676e6970
    72d8:	7b29745f 	blvc	a6445c <_Min_Stack_Size+0xa6405c>
    72dc:	49545845 	ldmdbmi	r4, {r0, r2, r6, fp, ip, lr}^
    72e0:	202c2031 	eorcs	r2, ip, r1, lsr r0
    72e4:	4f495047 	svcmi	0x00495047
    72e8:	202c2043 	eorcs	r2, ip, r3, asr #32
    72ec:	4f495047 	svcmi	0x00495047
    72f0:	4e49505f 	mcrmi	0, 2, r5, cr9, cr15, {2}
    72f4:	2c20315f 	stfcss	f3, [r0], #-380	; 0xfffffe84
    72f8:	49545845 	ldmdbmi	r4, {r0, r2, r6, fp, ip, lr}^
    72fc:	52495f31 	subpl	r5, r9, #49, 30	; 0xc4
    7300:	007d2051 	rsbseq	r2, sp, r1, asr r0
    7304:	72615f5f 	rsbvc	r5, r1, #380	; 0x17c
    7308:	79745f67 	ldmdbvc	r4!, {r0, r1, r2, r5, r6, r8, r9, sl, fp, ip, lr}^
    730c:	745f6570 	ldrbvc	r6, [pc], #-1392	; 7314 <_Min_Stack_Size+0x6f14>
    7310:	61286761 			; <UNDEFINED> instruction: 0x61286761
    7314:	6b5f6772 	blvs	17e10e4 <_Min_Stack_Size+0x17e0ce4>
    7318:	2c646e69 	stclcs	14, cr6, [r4], #-420	; 0xfffffe5c
    731c:	5f677261 	svcpl	0x00677261
    7320:	2c786469 	cfldrdcs	mvd6, [r8], #-420	; 0xfffffe5c
    7324:	65707974 	ldrbvs	r7, [r0, #-2420]!	; 0xfffff68c
    7328:	6761745f 			; <UNDEFINED> instruction: 0x6761745f
    732c:	7864695f 	stmdavc	r4!, {r0, r1, r2, r3, r4, r6, r8, fp, sp, lr}^
    7330:	53002029 	movwpl	r2, #41	; 0x29
    7334:	5f314950 	svcpl	0x00314950
    7338:	20515249 	subscs	r5, r1, r9, asr #4
    733c:	5f003533 	svcpl	0x00003533
    7340:	5254535f 	subspl	r5, r4, #2080374785	; 0x7c000001
    7344:	28474e49 	stmdacs	r7, {r0, r3, r6, r9, sl, fp, lr}^
    7348:	23202978 			; <UNDEFINED> instruction: 0x23202978
    734c:	32490078 	subcc	r0, r9, #120	; 0x78
    7350:	52535f43 	subspl	r5, r3, #268	; 0x10c
    7354:	58525f31 	ldmdapl	r2, {r0, r4, r5, r8, r9, sl, fp, ip, lr}^
    7358:	505f454e 	subspl	r4, pc, lr, asr #10
    735c:	2820736f 	stmdacs	r0!, {r0, r1, r2, r3, r5, r6, r8, r9, ip, sp, lr}
    7360:	00295536 	eoreq	r5, r9, r6, lsr r5
    7364:	726f6873 	rsbvc	r6, pc, #7536640	; 0x730000
    7368:	525f0074 	subspl	r0, pc, #116	; 0x74
    736c:	544e4545 	strbpl	r4, [lr], #-1349	; 0xfffffabb
    7370:	494e495f 	stmdbmi	lr, {r0, r1, r2, r3, r4, r6, r8, fp, lr}^
    7374:	54505f54 	ldrbpl	r5, [r0], #-3924	; 0xfffff0ac
    7378:	61762852 	cmnvs	r6, r2, asr r8
    737c:	7b202972 	blvc	81194c <_Min_Stack_Size+0x81154c>
    7380:	6d656d20 	stclvs	13, cr6, [r5, #-128]!	; 0xffffff80
    7384:	28746573 	ldmdacs	r4!, {r0, r1, r4, r5, r6, r8, sl, sp, lr}^
    7388:	72617628 	rsbvc	r7, r1, #40, 12	; 0x2800000
    738c:	30202c29 	eorcc	r2, r0, r9, lsr #24
    7390:	6973202c 	ldmdbvs	r3!, {r2, r3, r5, sp}^
    7394:	666f657a 			; <UNDEFINED> instruction: 0x666f657a
    7398:	76282a28 	strtvc	r2, [r8], -r8, lsr #20
    739c:	29297261 	stmdbcs	r9!, {r0, r5, r6, r9, ip, sp, lr}
    73a0:	5f203b29 	svcpl	0x00203b29
    73a4:	4e454552 	mcrmi	5, 2, r4, cr5, cr2, {2}
    73a8:	4e495f54 	mcrmi	15, 2, r5, cr9, cr4, {2}
    73ac:	505f5449 	subspl	r5, pc, r9, asr #8
    73b0:	5a5f5254 	bpl	17dbd08 <_Min_Stack_Size+0x17db908>
    73b4:	454f5245 	strbmi	r5, [pc, #-581]	; 7177 <_Min_Stack_Size+0x6d77>
    73b8:	61762844 	cmnvs	r6, r4, asr #16
    73bc:	203b2972 	eorscs	r2, fp, r2, ror r9
    73c0:	5f5f007d 	svcpl	0x005f007d
    73c4:	59504f43 	ldmdbpl	r0, {r0, r1, r6, r8, r9, sl, fp, lr}^
    73c8:	48474952 	stmdami	r7, {r1, r4, r6, r8, fp, lr}^
    73cc:	29732854 	ldmdbcs	r3!, {r2, r4, r6, fp, sp}^
    73d0:	72747320 	rsbsvc	r7, r4, #32, 6	; 0x80000000
    73d4:	20746375 	rsbscs	r6, r4, r5, ror r3
    73d8:	61685f5f 	cmnvs	r8, pc, asr pc
    73dc:	5f006b63 	svcpl	0x00006b63
    73e0:	5246555f 	subpl	r5, r6, #398458880	; 0x17c00000
    73e4:	5f544341 	svcpl	0x00544341
    73e8:	54494249 	strbpl	r4, [r9], #-585	; 0xfffffdb7
    73ec:	30205f5f 	eorcc	r5, r0, pc, asr pc
    73f0:	415f5f00 	cmpmi	pc, r0, lsl #30
    73f4:	335f4d52 	cmpcc	pc, #5248	; 0x1480
    73f8:	54494232 	strbpl	r4, [r9], #-562	; 0xfffffdce
    73fc:	4154535f 	cmpmi	r4, pc, asr r3
    7400:	31204554 			; <UNDEFINED> instruction: 0x31204554
    7404:	41434d00 	cmpmi	r3, r0, lsl #26
    7408:	58455f4c 	stmdapl	r5, {r2, r3, r6, r8, r9, sl, fp, ip, lr}^
    740c:	475f4954 			; <UNDEFINED> instruction: 0x475f4954
    7410:	5f4f4950 	svcpl	0x004f4950
    7414:	74696e69 	strbtvc	r6, [r9], #-3689	; 0xfffff197
    7418:	43324900 	teqmi	r2, #0, 18
    741c:	3252435f 	subscc	r4, r2, #2080374785	; 0x7c000001
    7420:	53414c5f 	movtpl	r4, #7263	; 0x1c5f
    7424:	32492054 	subcc	r2, r9, #84	; 0x54
    7428:	52435f43 	subpl	r5, r3, #268	; 0x10c
    742c:	414c5f32 	cmpmi	ip, r2, lsr pc
    7430:	4d5f5453 	cfldrdmi	mvd5, [pc, #-332]	; 72ec <_Min_Stack_Size+0x6eec>
    7434:	5f006b73 	svcpl	0x00006b73
    7438:	544e495f 	strbpl	r4, [lr], #-2399	; 0xfffff6a1
    743c:	28435f38 	stmdacs	r3, {r3, r4, r5, r8, r9, sl, fp, ip, lr}^
    7440:	63202963 			; <UNDEFINED> instruction: 0x63202963
    7444:	4c5f5f00 	mrrcmi	15, 0, r5, pc, cr0	; <UNPREDICTABLE>
    7448:	43415246 	movtmi	r5, #4678	; 0x1246
    744c:	42495f54 	submi	r5, r9, #84, 30	; 0x150
    7450:	5f5f5449 	svcpl	0x005f5449
    7454:	49003020 	stmdbmi	r0, {r5, ip, sp}
    7458:	435f4332 	cmpmi	pc, #-939524096	; 0xc8000000
    745c:	535f3152 	cmppl	pc, #-2147483628	; 0x80000014
    7460:	54524154 	ldrbpl	r4, [r2], #-340	; 0xfffffeac
    7464:	6b734d5f 	blvs	1cda9e8 <_Min_Stack_Size+0x1cda5e8>
    7468:	78302820 	ldmdavc	r0!, {r5, fp, sp}
    746c:	204c5531 	subcs	r5, ip, r1, lsr r5
    7470:	49203c3c 	stmdbmi	r0!, {r2, r3, r4, r5, sl, fp, ip, sp}
    7474:	435f4332 	cmpmi	pc, #-939524096	; 0xc8000000
    7478:	535f3152 	cmppl	pc, #-2147483628	; 0x80000014
    747c:	54524154 	ldrbpl	r4, [r2], #-340	; 0xfffffeac
    7480:	736f505f 	cmnvc	pc, #95	; 0x5f
    7484:	535f0029 	cmppl	pc, #41	; 0x29
    7488:	45444454 	strbmi	r4, [r4, #-1108]	; 0xfffffbac
    748c:	5f485f46 	svcpl	0x00485f46
    7490:	50470020 	subpl	r0, r7, r0, lsr #32
    7494:	535f4f49 	cmppl	pc, #292	; 0x124
    7498:	44454550 	strbmi	r4, [r5], #-1360	; 0xfffffab0
    749c:	4d30315f 	ldfmis	f3, [r0, #-380]!	; 0xfffffe84
    74a0:	30783020 	rsbscc	r3, r8, r0, lsr #32
    74a4:	30303030 	eorscc	r3, r0, r0, lsr r0
    74a8:	75313030 	ldrvc	r3, [r1, #-48]!	; 0xffffffd0
    74ac:	54584500 	ldrbpl	r4, [r8], #-1280	; 0xfffffb00
    74b0:	50313149 	eorspl	r3, r1, r9, asr #2
    74b4:	20313142 	eorscs	r3, r1, r2, asr #2
    74b8:	54584528 	ldrbpl	r4, [r8], #-1320	; 0xfffffad8
    74bc:	50475f49 	subpl	r5, r7, r9, asr #30
    74c0:	4d5f4f49 	ldclmi	15, cr4, [pc, #-292]	; 73a4 <_Min_Stack_Size+0x6fa4>
    74c4:	69707061 	ldmdbvs	r0!, {r0, r5, r6, ip, sp, lr}^
    74c8:	745f676e 	ldrbvc	r6, [pc], #-1902	; 74d0 <_Min_Stack_Size+0x70d0>
    74cc:	58457b29 	stmdapl	r5, {r0, r3, r5, r8, r9, fp, ip, sp, lr}^
    74d0:	31314954 	teqcc	r1, r4, asr r9
    74d4:	5047202c 	subpl	r2, r7, ip, lsr #32
    74d8:	20424f49 	subcs	r4, r2, r9, asr #30
    74dc:	5047202c 	subpl	r2, r7, ip, lsr #32
    74e0:	505f4f49 	subspl	r4, pc, r9, asr #30
    74e4:	315f4e49 	cmpcc	pc, r9, asr #28
    74e8:	452c2031 	strmi	r2, [ip, #-49]!	; 0xffffffcf
    74ec:	31495458 	cmpcc	r9, r8, asr r4
    74f0:	52495f31 	subpl	r5, r9, #49, 30	; 0xc4
    74f4:	007d2051 	rsbseq	r2, sp, r1, asr r0
    74f8:	42445f5f 	submi	r5, r4, #380	; 0x17c
    74fc:	494d5f4c 	stmdbmi	sp, {r2, r3, r6, r8, r9, sl, fp, ip, lr}^
    7500:	58455f4e 	stmdapl	r5, {r1, r2, r3, r6, r8, r9, sl, fp, ip, lr}^
    7504:	205f5f50 	subscs	r5, pc, r0, asr pc	; <UNPREDICTABLE>
    7508:	30312d28 	eorscc	r2, r1, r8, lsr #26
    750c:	00293132 	eoreq	r3, r9, r2, lsr r1
    7510:	49535f5f 	ldmdbmi	r3, {r0, r1, r2, r3, r4, r6, r8, r9, sl, fp, ip, lr}^
    7514:	545f455a 	ldrbpl	r4, [pc], #-1370	; 751c <_Min_Stack_Size+0x711c>
    7518:	5f5f0020 	svcpl	0x005f0020
    751c:	4c42444c 	cfstrdmi	mvd4, [r2], {76}	; 0x4c
    7520:	5341485f 	movtpl	r4, #6239	; 0x185f
    7524:	4e45445f 	mcrmi	4, 2, r4, cr5, cr15, {2}
    7528:	5f4d524f 	svcpl	0x004d524f
    752c:	0031205f 	eorseq	r2, r1, pc, asr r0
    7530:	5f433249 	svcpl	0x00433249
    7534:	5f315243 	svcpl	0x00315243
    7538:	53525753 	cmppl	r2, #21757952	; 0x14c0000
    753c:	734d5f54 	movtvc	r5, #57172	; 0xdf54
    7540:	3028206b 	eorcc	r2, r8, fp, rrx
    7544:	4c553178 	ldfmie	f3, [r5], {120}	; 0x78
    7548:	203c3c20 	eorscs	r3, ip, r0, lsr #24
    754c:	5f433249 	svcpl	0x00433249
    7550:	5f315243 	svcpl	0x00315243
    7554:	53525753 	cmppl	r2, #21757952	; 0x14c0000
    7558:	6f505f54 	svcvs	0x00505f54
    755c:	5f002973 	svcpl	0x00002973
    7560:	6972705f 	ldmdbvs	r2!, {r0, r1, r2, r3, r4, r6, ip, sp, lr}^
    7564:	3066746e 	rsbcc	r7, r6, lr, ror #8
    7568:	656b696c 	strbvs	r6, [fp, #-2412]!	; 0xfffff694
    756c:	746d6628 	strbtvc	r6, [sp], #-1576	; 0xfffff9d8
    7570:	2c677261 	sfmcs	f7, 2, [r7], #-388	; 0xfffffe7c
    7574:	73726966 	cmnvc	r2, #1671168	; 0x198000
    7578:	72617674 	rsbvc	r7, r1, #116, 12	; 0x7400000
    757c:	29677261 	stmdbcs	r7!, {r0, r5, r6, r9, ip, sp, lr}^
    7580:	43520020 	cmpmi	r2, #32
    7584:	50475f43 	subpl	r5, r7, r3, asr #30
    7588:	5f444f49 	svcpl	0x00444f49
    758c:	5f4b4c43 	svcpl	0x004b4c43
    7590:	29284e45 	stmdbcs	r8!, {r0, r2, r6, r9, sl, fp, lr}
    7594:	52202820 	eorpl	r2, r0, #32, 16	; 0x200000
    7598:	3e2d4343 	cdpcc	3, 2, cr4, cr13, cr3, {2}
    759c:	32425041 	subcc	r5, r2, #65	; 0x41
    75a0:	20524e45 	subscs	r4, r2, r5, asr #28
    75a4:	28203d7c 	stmdacs	r0!, {r2, r3, r4, r5, r6, r8, sl, fp, ip, sp}
    75a8:	353c3c31 	ldrcc	r3, [ip, #-3121]!	; 0xfffff3cf
    75ac:	00292029 	eoreq	r2, r9, r9, lsr #32
    75b0:	5f433249 	svcpl	0x00433249
    75b4:	5f315243 	svcpl	0x00315243
    75b8:	504f5453 	subpl	r5, pc, r3, asr r4	; <UNPREDICTABLE>
    75bc:	736f505f 	cmnvc	pc, #95	; 0x5f
    75c0:	55392820 	ldrpl	r2, [r9, #-2080]!	; 0xfffff7e0
    75c4:	5f5f0029 	svcpl	0x005f0029
    75c8:	33544c46 	cmpcc	r4, #17920	; 0x4600
    75cc:	49445f32 	stmdbmi	r4, {r1, r4, r5, r8, r9, sl, fp, ip, lr}^
    75d0:	205f5f47 	subscs	r5, pc, r7, asr #30
    75d4:	32490036 	subcc	r0, r9, #54	; 0x36
    75d8:	52535f43 	subspl	r5, r3, #268	; 0x10c
    75dc:	534d5f32 	movtpl	r5, #57138	; 0xdf32
    75e0:	3249204c 	subcc	r2, r9, #76	; 0x4c
    75e4:	52535f43 	subspl	r5, r3, #268	; 0x10c
    75e8:	534d5f32 	movtpl	r5, #57138	; 0xdf32
    75ec:	734d5f4c 	movtvc	r5, #57164	; 0xdf4c
    75f0:	5f5f006b 	svcpl	0x005f006b
    75f4:	64616564 	strbtvs	r6, [r1], #-1380	; 0xfffffa9c
    75f8:	5f5f2032 	svcpl	0x005f2032
    75fc:	72747461 	rsbsvc	r7, r4, #1627389952	; 0x61000000
    7600:	74756269 	ldrbtvc	r6, [r5], #-617	; 0xfffffd97
    7604:	285f5f65 	ldmdacs	pc, {r0, r2, r5, r6, r8, r9, sl, fp, ip, lr}^	; <UNPREDICTABLE>
    7608:	6e5f5f28 	cdpvs	15, 5, cr5, cr15, cr8, {1}
    760c:	7465726f 	strbtvc	r7, [r5], #-623	; 0xfffffd91
    7610:	5f6e7275 	svcpl	0x006e7275
    7614:	0029295f 	eoreq	r2, r9, pc, asr r9
    7618:	4f495047 	svcmi	0x00495047
    761c:	444f4d5f 	strbmi	r4, [pc], #-3423	; 7624 <_Min_Stack_Size+0x7224>
    7620:	554f5f45 	strbpl	r5, [pc, #-3909]	; 66e3 <_Min_Stack_Size+0x62e3>
    7624:	54555054 	ldrbpl	r5, [r5], #-84	; 0xffffffac
    7628:	5f46415f 	svcpl	0x0046415f
    762c:	3020444f 	eorcc	r4, r0, pc, asr #8
    7630:	30303078 	eorscc	r3, r0, r8, ror r0
    7634:	30303030 	eorscc	r3, r0, r0, lsr r0
    7638:	5f007537 	svcpl	0x00007537
    763c:	6d6f635f 	stclvs	3, cr6, [pc, #-380]!	; 74c8 <_Min_Stack_Size+0x70c8>
    7640:	5f726170 	svcpl	0x00726170
    7644:	745f6e66 	ldrbvc	r6, [pc], #-3686	; 764c <_Min_Stack_Size+0x724c>
    7648:	6665645f 			; <UNDEFINED> instruction: 0x6665645f
    764c:	64656e69 	strbtvs	r6, [r5], #-3689	; 0xfffff197
    7650:	49550020 	ldmdbmi	r5, {r5}^
    7654:	414d544e 	cmpmi	sp, lr, asr #8
    7658:	28435f58 	stmdacs	r3, {r3, r4, r6, r8, r9, sl, fp, ip, lr}^
    765c:	5f202978 	svcpl	0x00202978
    7660:	4e49555f 	mcrmi	5, 2, r5, cr9, cr15, {2}
    7664:	58414d54 	stmdapl	r1, {r2, r4, r6, r8, sl, fp, lr}^
    7668:	7828435f 	stmdavc	r8!, {r0, r1, r2, r3, r4, r6, r8, r9, lr}
    766c:	5f5f0029 	svcpl	0x005f0029
    7670:	4353494d 	cmpmi	r3, #1261568	; 0x134000
    7674:	5349565f 	movtpl	r5, #38495	; 0x965f
    7678:	454c4249 	strbmi	r4, [ip, #-585]	; 0xfffffdb7
    767c:	45003120 	strmi	r3, [r0, #-288]	; 0xfffffee0
    7680:	31495458 	cmpcc	r9, r8, asr r4
    7684:	31415032 	cmpcc	r1, r2, lsr r0
    7688:	45282032 	strmi	r2, [r8, #-50]!	; 0xffffffce
    768c:	5f495458 	svcpl	0x00495458
    7690:	4f495047 	svcmi	0x00495047
    7694:	70614d5f 	rsbvc	r4, r1, pc, asr sp
    7698:	676e6970 			; <UNDEFINED> instruction: 0x676e6970
    769c:	7b29745f 	blvc	a64820 <_Min_Stack_Size+0xa64420>
    76a0:	49545845 	ldmdbmi	r4, {r0, r2, r6, fp, ip, lr}^
    76a4:	202c3231 	eorcs	r3, ip, r1, lsr r2
    76a8:	4f495047 	svcmi	0x00495047
    76ac:	202c2041 	eorcs	r2, ip, r1, asr #32
    76b0:	4f495047 	svcmi	0x00495047
    76b4:	4e49505f 	mcrmi	0, 2, r5, cr9, cr15, {2}
    76b8:	2032315f 	eorscs	r3, r2, pc, asr r1
    76bc:	5845202c 	stmdapl	r5, {r2, r3, r5, sp}^
    76c0:	32314954 	eorscc	r4, r1, #84, 18	; 0x150000
    76c4:	5152495f 	cmppl	r2, pc, asr r9
    76c8:	5f007d20 	svcpl	0x00007d20
    76cc:	5058455f 	subspl	r4, r8, pc, asr r5
    76d0:	5f5f5f00 	svcpl	0x005f5f00
    76d4:	36746e69 	ldrbtcc	r6, [r4], -r9, ror #28
    76d8:	5f745f34 	svcpl	0x00745f34
    76dc:	69666564 	stmdbvs	r6!, {r2, r5, r6, r8, sl, sp, lr}^
    76e0:	2064656e 	rsbcs	r6, r4, lr, ror #10
    76e4:	57530031 	smmlarpl	r3, r1, r0, r0
    76e8:	00524549 	subseq	r4, r2, r9, asr #10
    76ec:	41485f5f 	cmpmi	r8, pc, asr pc
    76f0:	535f4556 	cmppl	pc, #360710144	; 0x15800000
    76f4:	55434550 	strbpl	r4, [r3, #-1360]	; 0xfffffab0
    76f8:	4954414c 	ldmdbmi	r4, {r2, r3, r6, r8, lr}^
    76fc:	535f4e4f 	cmppl	pc, #1264	; 0x4f0
    7700:	5f454641 	svcpl	0x00454641
    7704:	554c4156 	strbpl	r4, [ip, #-342]	; 0xfffffeaa
    7708:	00312045 	eorseq	r2, r1, r5, asr #32
    770c:	41535f5f 	cmpmi	r3, pc, asr pc
    7710:	4d554343 	ldclmi	3, cr4, [r5, #-268]	; 0xfffffef4
    7714:	4942465f 	stmdbmi	r2, {r0, r1, r2, r3, r4, r6, r9, sl, lr}^
    7718:	205f5f54 	subscs	r5, pc, r4, asr pc	; <UNPREDICTABLE>
    771c:	5f5f0037 	svcpl	0x005f0037
    7720:	5f434347 	svcpl	0x00434347
    7724:	45564148 	ldrbmi	r4, [r6, #-328]	; 0xfffffeb8
    7728:	4e59535f 	mrcmi	3, 2, r5, cr9, cr15, {2}
    772c:	4f435f43 	svcmi	0x00435f43
    7730:	5241504d 	subpl	r5, r1, #77	; 0x4d
    7734:	4e415f45 	cdpmi	15, 4, cr5, cr1, cr5, {2}
    7738:	57535f44 	ldrbpl	r5, [r3, -r4, asr #30]
    773c:	345f5041 	ldrbcc	r5, [pc], #-65	; 7744 <_Min_Stack_Size+0x7344>
    7740:	49003120 	stmdbmi	r0, {r5, r8, ip, sp}
    7744:	535f4332 	cmppl	pc, #-939524096	; 0xc8000000
    7748:	535f3252 	cmppl	pc, #536870917	; 0x20000005
    774c:	4544424d 	strbmi	r4, [r4, #-589]	; 0xfffffdb3
    7750:	4c554146 	ldfmie	f4, [r5], {70}	; 0x46
    7754:	734d5f54 	movtvc	r5, #57172	; 0xdf54
    7758:	3028206b 	eorcc	r2, r8, fp, rrx
    775c:	4c553178 	ldfmie	f3, [r5], {120}	; 0x78
    7760:	203c3c20 	eorscs	r3, ip, r0, lsr #24
    7764:	5f433249 	svcpl	0x00433249
    7768:	5f325253 	svcpl	0x00325253
    776c:	44424d53 	strbmi	r4, [r2], #-3411	; 0xfffff2ad
    7770:	55414645 	strbpl	r4, [r1, #-1605]	; 0xfffff9bb
    7774:	505f544c 	subspl	r5, pc, ip, asr #8
    7778:	0029736f 	eoreq	r7, r9, pc, ror #6
    777c:	5f433249 	svcpl	0x00433249
    7780:	5f325243 	svcpl	0x00325243
    7784:	55425449 	strbpl	r5, [r2, #-1097]	; 0xfffffbb7
    7788:	5f4e4546 	svcpl	0x004e4546
    778c:	206b734d 	rsbcs	r7, fp, sp, asr #6
    7790:	31783028 	cmncc	r8, r8, lsr #32
    7794:	3c204c55 	stccc	12, cr4, [r0], #-340	; 0xfffffeac
    7798:	3249203c 	subcc	r2, r9, #60	; 0x3c
    779c:	52435f43 	subpl	r5, r3, #268	; 0x10c
    77a0:	54495f32 	strbpl	r5, [r9], #-3890	; 0xfffff0ce
    77a4:	45465542 	strbmi	r5, [r6, #-1346]	; 0xfffffabe
    77a8:	6f505f4e 	svcvs	0x00505f4e
    77ac:	5f002973 	svcpl	0x00002973
    77b0:	4745425f 	smlsldmi	r4, r5, pc, r2	; <UNPREDICTABLE>
    77b4:	445f4e49 	ldrbmi	r4, [pc], #-3657	; 77bc <_Min_Stack_Size+0x73bc>
    77b8:	534c4345 	movtpl	r4, #49989	; 0xc345
    77bc:	5f5f0020 	svcpl	0x005f0020
    77c0:	55434341 	strbpl	r4, [r3, #-833]	; 0xfffffcbf
    77c4:	494d5f4d 	stmdbmi	sp, {r0, r2, r3, r6, r8, r9, sl, fp, ip, lr}^
    77c8:	205f5f4e 	subscs	r5, pc, lr, asr #30
    77cc:	58302d28 	ldmdapl	r0!, {r3, r5, r8, sl, fp, sp}
    77d0:	35315031 	ldrcc	r5, [r1, #-49]!	; 0xffffffcf
    77d4:	58302d4b 	ldmdapl	r0!, {r0, r1, r3, r6, r8, sl, fp, sp}
    77d8:	35315031 	ldrcc	r5, [r1, #-49]!	; 0xffffffcf
    77dc:	4500294b 	strmi	r2, [r0, #-2379]	; 0xfffff6b5
    77e0:	31495458 	cmpcc	r9, r8, asr r4
    77e4:	31445031 	cmpcc	r4, r1, lsr r0
    77e8:	45282031 	strmi	r2, [r8, #-49]!	; 0xffffffcf
    77ec:	5f495458 	svcpl	0x00495458
    77f0:	4f495047 	svcmi	0x00495047
    77f4:	70614d5f 	rsbvc	r4, r1, pc, asr sp
    77f8:	676e6970 			; <UNDEFINED> instruction: 0x676e6970
    77fc:	7b29745f 	blvc	a64980 <_Min_Stack_Size+0xa64580>
    7800:	49545845 	ldmdbmi	r4, {r0, r2, r6, fp, ip, lr}^
    7804:	2c203131 	stfcss	f3, [r0], #-196	; 0xffffff3c
    7808:	49504720 	ldmdbmi	r0, {r5, r8, r9, sl, lr}^
    780c:	2c20444f 	cfstrscs	mvf4, [r0], #-316	; 0xfffffec4
    7810:	49504720 	ldmdbmi	r0, {r5, r8, r9, sl, lr}^
    7814:	49505f4f 	ldmdbmi	r0, {r0, r1, r2, r3, r6, r8, r9, sl, fp, ip, lr}^
    7818:	31315f4e 	teqcc	r1, lr, asr #30
    781c:	45202c20 	strmi	r2, [r0, #-3104]!	; 0xfffff3e0
    7820:	31495458 	cmpcc	r9, r8, asr r4
    7824:	52495f31 	subpl	r5, r9, #49, 30	; 0xc4
    7828:	45007d51 	strmi	r7, [r0, #-3409]	; 0xfffff2af
    782c:	30495458 	subcc	r5, r9, r8, asr r4
    7830:	5f003020 	svcpl	0x00003020
    7834:	554e475f 	strbpl	r4, [lr, #-1887]	; 0xfffff8a1
    7838:	41565f43 	cmpmi	r6, r3, asr #30
    783c:	53494c5f 	movtpl	r4, #40031	; 0x9c5f
    7840:	4f435f54 	svcmi	0x00435f54
    7844:	5441504d 	strbpl	r5, [r1], #-77	; 0xffffffb3
    7848:	4c494249 	sfmmi	f4, 2, [r9], {73}	; 0x49
    784c:	20595449 	subscs	r5, r9, r9, asr #8
    7850:	5f5f0031 	svcpl	0x005f0031
    7854:	5f4d5241 	svcpl	0x004d5241
    7858:	54414546 	strbpl	r4, [r1], #-1350	; 0xfffffaba
    785c:	5f455255 	svcpl	0x00455255
    7860:	50595243 	subspl	r5, r9, r3, asr #4
    7864:	5f004f54 	svcpl	0x00004f54
    7868:	544e495f 	strbpl	r4, [lr], #-2399	; 0xfffff6a1
    786c:	41454c5f 	cmpmi	r5, pc, asr ip
    7870:	32335453 	eorscc	r5, r3, #1392508928	; 0x53000000
    7874:	5059545f 	subspl	r5, r9, pc, asr r4
    7878:	205f5f45 	subscs	r5, pc, r5, asr #30
    787c:	676e6f6c 	strbvs	r6, [lr, -ip, ror #30]!
    7880:	746e6920 	strbtvc	r6, [lr], #-2336	; 0xfffff6e0
    7884:	54584500 	ldrbpl	r4, [r8], #-1280	; 0xfffffb00
    7888:	495f3449 	ldmdbmi	pc, {r0, r3, r6, sl, ip, sp}^	; <UNPREDICTABLE>
    788c:	31205152 			; <UNDEFINED> instruction: 0x31205152
    7890:	32490030 	subcc	r0, r9, #48	; 0x30
    7894:	52435f43 	subpl	r5, r3, #268	; 0x10c
    7898:	57535f31 	smmlarpl	r3, r1, pc, r5	; <UNPREDICTABLE>
    789c:	5f545352 	svcpl	0x00545352
    78a0:	20736f50 	rsbscs	r6, r3, r0, asr pc
    78a4:	55353128 	ldrpl	r3, [r5, #-296]!	; 0xfffffed8
    78a8:	5f5f0029 	svcpl	0x005f0029
    78ac:	544e4955 	strbpl	r4, [lr], #-2389	; 0xfffff6ab
    78b0:	41454c5f 	cmpmi	r5, pc, asr ip
    78b4:	34365453 	ldrtcc	r5, [r6], #-1107	; 0xfffffbad
    78b8:	58414d5f 	stmdapl	r1, {r0, r1, r2, r3, r4, r6, r8, sl, fp, lr}^
    78bc:	30205f5f 	eorcc	r5, r0, pc, asr pc
    78c0:	66666678 			; <UNDEFINED> instruction: 0x66666678
    78c4:	66666666 	strbtvs	r6, [r6], -r6, ror #12
    78c8:	66666666 	strbtvs	r6, [r6], -r6, ror #12
    78cc:	66666666 	strbtvs	r6, [r6], -r6, ror #12
    78d0:	4c4c5566 	cfstr64mi	mvdx5, [ip], {102}	; 0x66
    78d4:	465f5f00 	ldrbmi	r5, [pc], -r0, lsl #30
    78d8:	54434152 	strbpl	r4, [r3], #-338	; 0xfffffeae
    78dc:	4942495f 	stmdbmi	r2, {r0, r1, r2, r3, r4, r6, r8, fp, lr}^
    78e0:	205f5f54 	subscs	r5, pc, r4, asr pc	; <UNPREDICTABLE>
    78e4:	575f0030 	smmlarpl	pc, r0, r0, r0	; <UNPREDICTABLE>
    78e8:	5f544e41 	svcpl	0x00544e41
    78ec:	5f455355 	svcpl	0x00455355
    78f0:	4f544447 	svcmi	0x00544447
    78f4:	00312041 	eorseq	r2, r1, r1, asr #32
    78f8:	4c465f5f 	mcrrmi	15, 5, r5, r6, cr15
    78fc:	5f343654 	svcpl	0x00343654
    7900:	495f5349 	ldmdbmi	pc, {r0, r3, r6, r8, r9, ip, lr}^	; <UNPREDICTABLE>
    7904:	365f4345 	ldrbcc	r4, [pc], -r5, asr #6
    7908:	39353530 	ldmdbcc	r5!, {r4, r5, r8, sl, ip, sp}
    790c:	32205f5f 	eorcc	r5, r0, #380	; 0x17c
    7910:	4e5f5f00 	cdpmi	15, 5, cr5, cr15, cr0, {0}
    7914:	494c5745 	stmdbmi	ip, {r0, r2, r6, r8, r9, sl, ip, lr}^
    7918:	41505f42 	cmpmi	r0, r2, asr #30
    791c:	4c484354 	mcrrmi	3, 5, r4, r8, cr4
    7920:	4c455645 	mcrrmi	6, 4, r5, r5, cr5
    7924:	30205f5f 	eorcc	r5, r0, pc, asr pc
    7928:	54584500 	ldrbpl	r4, [r8], #-1280	; 0xfffffb00
    792c:	79545f49 	ldmdbvc	r4, {r0, r3, r6, r8, r9, sl, fp, ip, lr}^
    7930:	65446570 	strbvs	r6, [r4, #-1392]	; 0xfffffa90
    7934:	564e0066 	strbpl	r0, [lr], -r6, rrx
    7938:	495f4349 	ldmdbmi	pc, {r0, r3, r6, r8, r9, lr}^	; <UNPREDICTABLE>
    793c:	38335152 	ldmdacc	r3!, {r1, r4, r6, r8, ip, lr}
    7940:	4153555f 	cmpmi	r3, pc, asr r5
    7944:	5f325452 	svcpl	0x00325452
    7948:	62616e45 	rsbvs	r6, r1, #1104	; 0x450
    794c:	2820656c 	stmdacs	r0!, {r2, r3, r5, r6, r8, sl, sp, lr}
    7950:	4349564e 	movtmi	r5, #38478	; 0x964e
    7954:	4553495f 	ldrbmi	r4, [r3, #-2399]	; 0xfffff6a1
    7958:	7c203152 	stfvcs	f3, [r0], #-328	; 0xfffffeb8
    795c:	3c31203d 	ldccc	0, cr2, [r1], #-244	; 0xffffff0c
    7960:	5520283c 	strpl	r2, [r0, #-2108]!	; 0xfffff7c4
    7964:	54524153 	ldrbpl	r4, [r2], #-339	; 0xfffffead
    7968:	52495f32 	subpl	r5, r9, #50, 30	; 0xc8
    796c:	202d2051 	eorcs	r2, sp, r1, asr r0
    7970:	29203233 	stmdbcs	r0!, {r0, r1, r4, r5, r9, ip, sp}
    7974:	5f5f0029 	svcpl	0x005f0029
    7978:	4544524f 	strbmi	r5, [r4, #-591]	; 0xfffffdb1
    797c:	494c5f52 	stmdbmi	ip, {r1, r4, r6, r8, r9, sl, fp, ip, lr}^
    7980:	454c5454 	strbmi	r5, [ip, #-1108]	; 0xfffffbac
    7984:	444e455f 	strbmi	r4, [lr], #-1375	; 0xfffffaa1
    7988:	5f4e4149 	svcpl	0x004e4149
    798c:	3231205f 	eorscc	r2, r1, #95	; 0x5f
    7990:	5f003433 	svcpl	0x00003433
    7994:	7a69735f 	bvc	1a64718 <_Min_Stack_Size+0x1a64318>
    7998:	00745f65 	rsbseq	r5, r4, r5, ror #30
    799c:	4c465f5f 	mcrrmi	15, 5, r5, r6, cr15
    79a0:	4f4e5f54 	svcmi	0x004e5f54
    79a4:	4d5f4d52 	ldclmi	13, cr4, [pc, #-328]	; 7864 <_Min_Stack_Size+0x7464>
    79a8:	5f5f5841 	svcpl	0x005f5841
    79ac:	342e3320 	strtcc	r3, [lr], #-800	; 0xfffffce0
    79b0:	32383230 	eorscc	r3, r8, #48, 4
    79b4:	36363433 			; <UNDEFINED> instruction: 0x36363433
    79b8:	32353833 	eorscc	r3, r5, #3342336	; 0x330000
    79bc:	65363838 	ldrvs	r3, [r6, #-2104]!	; 0xfffff7c8
    79c0:	4638332b 	ldrtmi	r3, [r8], -fp, lsr #6
    79c4:	445f5f00 	ldrbmi	r5, [pc], #-3840	; 79cc <_Min_Stack_Size+0x75cc>
    79c8:	2053544f 	subscs	r5, r3, pc, asr #8
    79cc:	2e2e202c 	cdpcs	0, 2, cr2, cr14, cr12, {1}
    79d0:	525f002e 	subspl	r0, pc, #46	; 0x2e
    79d4:	544e4545 	strbpl	r4, [lr], #-1349	; 0xfffffabb
    79d8:	5445475f 	strbpl	r4, [r5], #-1887	; 0xfffff8a1
    79dc:	45544144 	ldrbmi	r4, [r4, #-324]	; 0xfffffebc
    79e0:	5252455f 	subspl	r4, r2, #398458880	; 0x17c00000
    79e4:	7028505f 	eorvc	r5, r8, pc, asr r0
    79e8:	20297274 	eorcs	r7, r9, r4, ror r2
    79ec:	28282628 	stmdacs	r8!, {r3, r5, r9, sl, sp}
    79f0:	29727470 	ldmdbcs	r2!, {r4, r5, r6, sl, ip, sp, lr}^
    79f4:	6d5f3e2d 	ldclvs	14, cr3, [pc, #-180]	; 7948 <_Min_Stack_Size+0x7548>
    79f8:	2d637369 	stclcs	3, cr7, [r3, #-420]!	; 0xfffffe5c
    79fc:	65675f3e 	strbvs	r5, [r7, #-3902]!	; 0xfffff0c2
    7a00:	74616474 	strbtvc	r6, [r1], #-1140	; 0xfffffb8c
    7a04:	72655f65 	rsbvc	r5, r5, #404	; 0x194
    7a08:	00292972 	eoreq	r2, r9, r2, ror r9
    7a0c:	4c465f5f 	mcrrmi	15, 5, r5, r6, cr15
    7a10:	494d5f54 	stmdbmi	sp, {r2, r4, r6, r8, r9, sl, fp, ip, lr}^
    7a14:	30315f4e 	eorscc	r5, r1, lr, asr #30
    7a18:	5058455f 	subspl	r4, r8, pc, asr r5
    7a1c:	28205f5f 	stmdacs	r0!, {r0, r1, r2, r3, r4, r6, r8, r9, sl, fp, ip, lr}
    7a20:	2937332d 	ldmdbcs	r7!, {r0, r2, r3, r5, r8, r9, ip, sp}
    7a24:	43324900 	teqmi	r2, #0, 18
    7a28:	3152435f 	cmpcc	r2, pc, asr r3
    7a2c:	454c415f 	strbmi	r4, [ip, #-351]	; 0xfffffea1
    7a30:	4d5f5452 	cfldrdmi	mvd5, [pc, #-328]	; 78f0 <_Min_Stack_Size+0x74f0>
    7a34:	28206b73 	stmdacs	r0!, {r0, r1, r4, r5, r6, r8, r9, fp, sp, lr}
    7a38:	55317830 	ldrpl	r7, [r1, #-2096]!	; 0xfffff7d0
    7a3c:	3c3c204c 	ldccc	0, cr2, [ip], #-304	; 0xfffffed0
    7a40:	43324920 	teqmi	r2, #32, 18	; 0x80000
    7a44:	3152435f 	cmpcc	r2, pc, asr r3
    7a48:	454c415f 	strbmi	r4, [ip, #-351]	; 0xfffffea1
    7a4c:	505f5452 	subspl	r5, pc, r2, asr r4	; <UNPREDICTABLE>
    7a50:	0029736f 	eoreq	r7, r9, pc, ror #6
    7a54:	4f495047 	svcmi	0x00495047
    7a58:	4e49505f 	mcrmi	0, 2, r5, cr9, cr15, {2}
    7a5c:	2820315f 	stmdacs	r0!, {r0, r1, r2, r3, r4, r6, r8, ip, sp}
    7a60:	6e697528 	cdpvs	5, 6, cr7, cr9, cr8, {1}
    7a64:	5f363174 	svcpl	0x00363174
    7a68:	78302974 	ldmdavc	r0!, {r2, r4, r5, r6, r8, fp, sp}
    7a6c:	32303030 	eorscc	r3, r0, #48	; 0x30
    7a70:	5f5f0029 	svcpl	0x005f0029
    7a74:	43414c55 	movtmi	r4, #7253	; 0x1c55
    7a78:	5f4d5543 	svcpl	0x004d5543
    7a7c:	54494249 	strbpl	r4, [r9], #-585	; 0xfffffdb7
    7a80:	33205f5f 			; <UNDEFINED> instruction: 0x33205f5f
    7a84:	5f5f0032 	svcpl	0x005f0032
    7a88:	54524853 	ldrbpl	r4, [r2], #-2131	; 0xfffff7ad
    7a8c:	58414d5f 	stmdapl	r1, {r0, r1, r2, r3, r4, r6, r8, sl, fp, lr}^
    7a90:	30205f5f 	eorcc	r5, r0, pc, asr pc
    7a94:	66663778 			; <UNDEFINED> instruction: 0x66663778
    7a98:	5f5f0066 	svcpl	0x005f0066
    7a9c:	4c42444c 	cfstrdmi	mvd4, [r2], {76}	; 0x4c
    7aa0:	5f53495f 	svcpl	0x0053495f
    7aa4:	5f434549 	svcpl	0x00434549
    7aa8:	35353036 	ldrcc	r3, [r5, #-54]!	; 0xffffffca
    7aac:	205f5f39 	subscs	r5, pc, r9, lsr pc	; <UNPREDICTABLE>
    7ab0:	5f5f0032 	svcpl	0x005f0032
    7ab4:	615f7369 	cmpvs	pc, r9, ror #6
    7ab8:	6e67696c 	vnmulvs.f16	s13, s14, s25	; <UNPREDICTABLE>
    7abc:	78286465 	stmdavc	r8!, {r0, r2, r5, r6, sl, sp, lr}
    7ac0:	2029792c 	eorcs	r7, r9, ip, lsr #18
    7ac4:	75625f5f 	strbvc	r5, [r2, #-3935]!	; 0xfffff0a1
    7ac8:	69746c69 	ldmdbvs	r4!, {r0, r3, r5, r6, sl, fp, sp, lr}^
    7acc:	73695f6e 	cmnvc	r9, #440	; 0x1b8
    7ad0:	696c615f 	stmdbvs	ip!, {r0, r1, r2, r3, r4, r6, r8, sp, lr}^
    7ad4:	64656e67 	strbtvs	r6, [r5], #-3687	; 0xfffff199
    7ad8:	202c7828 	eorcs	r7, ip, r8, lsr #16
    7adc:	5f002979 	svcpl	0x00002979
    7ae0:	4c4c555f 	cfstr64mi	mvdx5, [ip], {95}	; 0x5f
    7ae4:	55434341 	strbpl	r4, [r3, #-833]	; 0xfffffcbf
    7ae8:	50455f4d 	subpl	r5, r5, sp, asr #30
    7aec:	4f4c4953 	svcmi	0x004c4953
    7af0:	205f5f4e 	subscs	r5, pc, lr, asr #30
    7af4:	50317830 	eorspl	r7, r1, r0, lsr r8
    7af8:	5532332d 	ldrpl	r3, [r2, #-813]!	; 0xfffffcd3
    7afc:	004b4c4c 	subeq	r4, fp, ip, asr #24
    7b00:	5a49535f 	bpl	125c884 <_Min_Stack_Size+0x125c484>
    7b04:	5f545f45 	svcpl	0x00545f45
    7b08:	49464544 	stmdbmi	r6, {r2, r6, r8, sl, lr}^
    7b0c:	2044454e 	subcs	r4, r4, lr, asr #10
    7b10:	445f5f00 	ldrbmi	r5, [pc], #-3840	; 7b18 <_Min_Stack_Size+0x7718>
    7b14:	42465f51 	submi	r5, r6, #324	; 0x144
    7b18:	5f5f5449 	svcpl	0x005f5449
    7b1c:	00333620 	eorseq	r3, r3, r0, lsr #12
    7b20:	5f433249 	svcpl	0x00433249
    7b24:	5f325253 	svcpl	0x00325253
    7b28:	4c415544 	cfstr64mi	mvdx5, [r1], {68}	; 0x44
    7b2c:	734d5f46 	movtvc	r5, #57158	; 0xdf46
    7b30:	3028206b 	eorcc	r2, r8, fp, rrx
    7b34:	4c553178 	ldfmie	f3, [r5], {120}	; 0x78
    7b38:	203c3c20 	eorscs	r3, ip, r0, lsr #24
    7b3c:	5f433249 	svcpl	0x00433249
    7b40:	5f325253 	svcpl	0x00325253
    7b44:	4c415544 	cfstr64mi	mvdx5, [r1], {68}	; 0x44
    7b48:	6f505f46 	svcvs	0x00505f46
    7b4c:	5f002973 	svcpl	0x00002973
    7b50:	554e475f 	strbpl	r4, [lr, #-1887]	; 0xfffff8a1
    7b54:	5349565f 	movtpl	r5, #38495	; 0x965f
    7b58:	454c4249 	strbmi	r4, [ip, #-585]	; 0xfffffdb7
    7b5c:	5f003020 	svcpl	0x00003020
    7b60:	4341535f 	movtmi	r5, #4959	; 0x135f
    7b64:	5f4d5543 	svcpl	0x004d5543
    7b68:	54494249 	strbpl	r4, [r9], #-585	; 0xfffffdb7
    7b6c:	38205f5f 	stmdacc	r0!, {r0, r1, r2, r3, r4, r6, r8, r9, sl, fp, ip, lr}
    7b70:	505f5f00 	subspl	r5, pc, r0, lsl #30
    7b74:	49445254 	stmdbmi	r4, {r2, r4, r6, r9, ip, lr}^
    7b78:	545f4646 	ldrbpl	r4, [pc], #-1606	; 7b80 <_Min_Stack_Size+0x7780>
    7b7c:	5f5f0020 	svcpl	0x005f0020
    7b80:	5f514855 	svcpl	0x00514855
    7b84:	54494249 	strbpl	r4, [r9], #-585	; 0xfffffdb7
    7b88:	30205f5f 	eorcc	r5, r0, pc, asr pc
    7b8c:	43324900 	teqmi	r2, #0, 18
    7b90:	3152535f 	cmpcc	r2, pc, asr r3
    7b94:	4654425f 			; <UNDEFINED> instruction: 0x4654425f
    7b98:	736f505f 	cmnvc	pc, #95	; 0x5f
    7b9c:	55322820 	ldrpl	r2, [r2, #-2080]!	; 0xfffff7e0
    7ba0:	50470029 	subpl	r0, r7, r9, lsr #32
    7ba4:	505f4f49 	subspl	r4, pc, r9, asr #30
    7ba8:	355f4e49 	ldrbcc	r4, [pc, #-3657]	; 6d67 <_Min_Stack_Size+0x6967>
    7bac:	75282820 	strvc	r2, [r8, #-2080]!	; 0xfffff7e0
    7bb0:	31746e69 	cmncc	r4, r9, ror #28
    7bb4:	29745f36 	ldmdbcs	r4!, {r1, r2, r4, r5, r8, r9, sl, fp, ip, lr}^
    7bb8:	30307830 	eorscc	r7, r0, r0, lsr r8
    7bbc:	00293032 	eoreq	r3, r9, r2, lsr r0
    7bc0:	4f495047 	svcmi	0x00495047
    7bc4:	41425f43 	cmpmi	r2, r3, asr #30
    7bc8:	28204553 	stmdacs	r0!, {r0, r1, r4, r6, r8, sl, lr}
    7bcc:	69726550 	ldmdbvs	r2!, {r4, r6, r8, sl, sp, lr}^
    7bd0:	72656870 	rsbvc	r6, r5, #112, 16	; 0x700000
    7bd4:	5f736c61 	svcpl	0x00736c61
    7bd8:	45534142 	ldrbmi	r4, [r3, #-322]	; 0xfffffebe
    7bdc:	30202b20 	eorcc	r2, r0, r0, lsr #22
    7be0:	30303078 	eorscc	r3, r0, r8, ror r0
    7be4:	30303131 	eorscc	r3, r0, r1, lsr r1
    7be8:	294c5530 	stmdbcs	ip, {r4, r5, r8, sl, ip, lr}^
    7bec:	54584500 	ldrbpl	r4, [r8], #-1280	; 0xfffffb00
    7bf0:	42503849 	subsmi	r3, r0, #4784128	; 0x490000
    7bf4:	45282038 	strmi	r2, [r8, #-56]!	; 0xffffffc8
    7bf8:	5f495458 	svcpl	0x00495458
    7bfc:	4f495047 	svcmi	0x00495047
    7c00:	70614d5f 	rsbvc	r4, r1, pc, asr sp
    7c04:	676e6970 			; <UNDEFINED> instruction: 0x676e6970
    7c08:	7b29745f 	blvc	a64d8c <_Min_Stack_Size+0xa6498c>
    7c0c:	49545845 	ldmdbmi	r4, {r0, r2, r6, fp, ip, lr}^
    7c10:	47202c38 			; <UNDEFINED> instruction: 0x47202c38
    7c14:	424f4950 	submi	r4, pc, #80, 18	; 0x140000
    7c18:	47202c20 	strmi	r2, [r0, -r0, lsr #24]!
    7c1c:	5f4f4950 	svcpl	0x004f4950
    7c20:	5f4e4950 	svcpl	0x004e4950
    7c24:	452c2038 	strmi	r2, [ip, #-56]!	; 0xffffffc8
    7c28:	38495458 	stmdacc	r9, {r3, r4, r6, sl, ip, lr}^
    7c2c:	5152495f 	cmppl	r2, pc, asr r9
    7c30:	49007d20 	stmdbmi	r0, {r5, r8, sl, fp, ip, sp, lr}
    7c34:	535f4332 	cmppl	pc, #-939524096	; 0xc8000000
    7c38:	475f3252 			; <UNDEFINED> instruction: 0x475f3252
    7c3c:	41434e45 	cmpmi	r3, r5, asr #28
    7c40:	49204c4c 	stmdbmi	r0!, {r2, r3, r6, sl, fp, lr}
    7c44:	535f4332 	cmppl	pc, #-939524096	; 0xc8000000
    7c48:	475f3252 			; <UNDEFINED> instruction: 0x475f3252
    7c4c:	41434e45 	cmpmi	r3, r5, asr #28
    7c50:	4d5f4c4c 	ldclmi	12, cr4, [pc, #-304]	; 7b28 <_Min_Stack_Size+0x7728>
    7c54:	5f006b73 	svcpl	0x00006b73
    7c58:	544e495f 	strbpl	r4, [lr], #-2399	; 0xfffff6a1
    7c5c:	5341465f 	movtpl	r4, #5727	; 0x165f
    7c60:	5f363154 	svcpl	0x00363154
    7c64:	45505954 	ldrbmi	r5, [r0, #-2388]	; 0xfffff6ac
    7c68:	69205f5f 	stmdbvs	r0!, {r0, r1, r2, r3, r4, r6, r8, r9, sl, fp, ip, lr}
    7c6c:	5f00746e 	svcpl	0x0000746e
    7c70:	544e4955 	strbpl	r4, [lr], #-2389	; 0xfffff6ab
    7c74:	5f58414d 	svcpl	0x0058414d
    7c78:	45445f54 	strbmi	r5, [r4, #-3924]	; 0xfffff0ac
    7c7c:	52414c43 	subpl	r4, r1, #17152	; 0x4300
    7c80:	00204445 	eoreq	r4, r0, r5, asr #8
    7c84:	41535f5f 	cmpmi	r3, pc, asr pc
    7c88:	4d554343 	ldclmi	3, cr4, [r5, #-268]	; 0xfffffef4
    7c8c:	4e494d5f 	mcrmi	13, 2, r4, cr9, cr15, {2}
    7c90:	28205f5f 	stmdacs	r0!, {r0, r1, r2, r3, r4, r6, r8, r9, sl, fp, ip, lr}
    7c94:	3158302d 	cmpcc	r8, sp, lsr #32
    7c98:	4b483750 	blmi	12159e0 <_Min_Stack_Size+0x12155e0>
    7c9c:	3158302d 	cmpcc	r8, sp, lsr #32
    7ca0:	4b483750 	blmi	12159e8 <_Min_Stack_Size+0x12155e8>
    7ca4:	5f5f0029 	svcpl	0x005f0029
    7ca8:	52464c55 	subpl	r4, r6, #21760	; 0x5500
    7cac:	5f544341 	svcpl	0x00544341
    7cb0:	5f58414d 	svcpl	0x0058414d
    7cb4:	5830205f 	ldmdapl	r0!, {r0, r1, r2, r3, r4, r6, sp}
    7cb8:	46464646 	strbmi	r4, [r6], -r6, asr #12
    7cbc:	46464646 	strbmi	r4, [r6], -r6, asr #12
    7cc0:	32332d50 	eorscc	r2, r3, #80, 26	; 0x1400
    7cc4:	00524c55 	subseq	r4, r2, r5, asr ip
    7cc8:	49555f5f 	ldmdbmi	r5, {r0, r1, r2, r3, r4, r6, r8, r9, sl, fp, ip, lr}^
    7ccc:	4c5f544e 	cfldrdmi	mvd5, [pc], {78}	; 0x4e
    7cd0:	54534145 	ldrbpl	r4, [r3], #-325	; 0xfffffebb
    7cd4:	545f3631 	ldrbpl	r3, [pc], #-1585	; 7cdc <_Min_Stack_Size+0x78dc>
    7cd8:	5f455059 	svcpl	0x00455059
    7cdc:	6873205f 	ldmdavs	r3!, {r0, r1, r2, r3, r4, r6, sp}^
    7ce0:	2074726f 	rsbscs	r7, r4, pc, ror #4
    7ce4:	69736e75 	ldmdbvs	r3!, {r0, r2, r4, r5, r6, r9, sl, fp, sp, lr}^
    7ce8:	64656e67 	strbtvs	r6, [r5], #-3687	; 0xfffff199
    7cec:	746e6920 	strbtvc	r6, [lr], #-2336	; 0xfffff6e0
    7cf0:	415f5f00 	cmpmi	pc, r0, lsl #30
    7cf4:	465f4d52 			; <UNDEFINED> instruction: 0x465f4d52
    7cf8:	55544145 	ldrbpl	r4, [r4, #-325]	; 0xfffffebb
    7cfc:	465f4552 			; <UNDEFINED> instruction: 0x465f4552
    7d00:	5f00414d 	svcpl	0x0000414d
    7d04:	43414c5f 	movtmi	r4, #7263	; 0x1c5f
    7d08:	5f4d5543 	svcpl	0x004d5543
    7d0c:	5f58414d 	svcpl	0x0058414d
    7d10:	5830205f 	ldmdapl	r0!, {r0, r1, r2, r3, r4, r6, sp}
    7d14:	46464637 			; <UNDEFINED> instruction: 0x46464637
    7d18:	46464646 	strbmi	r4, [r6], -r6, asr #12
    7d1c:	46464646 	strbmi	r4, [r6], -r6, asr #12
    7d20:	46464646 	strbmi	r4, [r6], -r6, asr #12
    7d24:	31332d50 	teqcc	r3, r0, asr sp
    7d28:	5f004b4c 	svcpl	0x00004b4c
    7d2c:	4148435f 	cmpmi	r8, pc, asr r3
    7d30:	5f363152 	svcpl	0x00363152
    7d34:	45505954 	ldrbmi	r5, [r0, #-2388]	; 0xfffff6ac
    7d38:	73205f5f 			; <UNDEFINED> instruction: 0x73205f5f
    7d3c:	74726f68 	ldrbtvc	r6, [r2], #-3944	; 0xfffff098
    7d40:	736e7520 	cmnvc	lr, #32, 10	; 0x8000000
    7d44:	656e6769 	strbvs	r6, [lr, #-1897]!	; 0xfffff897
    7d48:	6e692064 	cdpvs	0, 6, cr2, cr9, cr4, {3}
    7d4c:	50470074 	subpl	r0, r7, r4, ror r0
    7d50:	505f4f49 	subspl	r4, pc, r9, asr #30
    7d54:	0074726f 	rsbseq	r7, r4, pc, ror #4
    7d58:	31495053 	qdaddcc	r5, r3, r9
    7d5c:	5341425f 	movtpl	r4, #4703	; 0x125f
    7d60:	50282045 	eorpl	r2, r8, r5, asr #32
    7d64:	70697265 	rsbvc	r7, r9, r5, ror #4
    7d68:	61726568 	cmnvs	r2, r8, ror #10
    7d6c:	425f736c 	subsmi	r7, pc, #108, 6	; 0xb0000001
    7d70:	20455341 	subcs	r5, r5, r1, asr #6
    7d74:	7830202b 	ldmdavc	r0!, {r0, r1, r3, r5, sp}
    7d78:	31303030 	teqcc	r0, r0, lsr r0
    7d7c:	30303033 	eorscc	r3, r0, r3, lsr r0
    7d80:	00294c55 	eoreq	r4, r9, r5, asr ip
    7d84:	4c465f5f 	mcrrmi	15, 5, r5, r6, cr15
    7d88:	58323354 	ldmdapl	r2!, {r2, r4, r6, r8, r9, ip, sp}
    7d8c:	4749445f 	smlsldmi	r4, r9, pc, r4	; <UNPREDICTABLE>
    7d90:	31205f5f 			; <UNDEFINED> instruction: 0x31205f5f
    7d94:	5f5f0035 	svcpl	0x005f0035
    7d98:	6e676973 			; <UNDEFINED> instruction: 0x6e676973
    7d9c:	73206465 			; <UNDEFINED> instruction: 0x73206465
    7da0:	656e6769 	strbvs	r6, [lr, #-1897]!	; 0xfffff897
    7da4:	564e0064 	strbpl	r0, [lr], -r4, rrx
    7da8:	495f4349 	ldmdbmi	pc, {r0, r3, r6, r8, r9, lr}^	; <UNPREDICTABLE>
    7dac:	30524553 	subscc	r4, r2, r3, asr r5
    7db0:	76282a20 	strtvc	r2, [r8], -r0, lsr #20
    7db4:	74616c6f 	strbtvc	r6, [r1], #-3183	; 0xfffff391
    7db8:	20656c69 	rsbcs	r6, r5, r9, ror #24
    7dbc:	746e6975 	strbtvc	r6, [lr], #-2421	; 0xfffff68b
    7dc0:	745f3233 	ldrbvc	r3, [pc], #-563	; 7dc8 <_Min_Stack_Size+0x79c8>
    7dc4:	20292a20 	eorcs	r2, r9, r0, lsr #20
    7dc8:	49564e28 	ldmdbmi	r6, {r3, r5, r9, sl, fp, lr}^
    7dcc:	61425f43 	cmpvs	r2, r3, asr #30
    7dd0:	2b206573 	blcs	8213a4 <_Min_Stack_Size+0x820fa4>
    7dd4:	30783020 	rsbscc	r3, r8, r0, lsr #32
    7dd8:	49002920 	stmdbmi	r0, {r5, r8, fp, sp}
    7ddc:	455f5152 	ldrbmi	r5, [pc, #-338]	; 7c92 <_Min_Stack_Size+0x7892>
    7de0:	5f5f004e 	svcpl	0x005f004e
    7de4:	5f515455 	svcpl	0x00515455
    7de8:	54494246 	strbpl	r4, [r9], #-582	; 0xfffffdba
    7dec:	31205f5f 			; <UNDEFINED> instruction: 0x31205f5f
    7df0:	49003832 	stmdbmi	r0, {r1, r4, r5, fp, ip, sp}
    7df4:	435f4332 	cmpmi	pc, #-939524096	; 0xc8000000
    7df8:	4e5f3152 	mrcmi	1, 2, r3, cr15, cr2, {2}
    7dfc:	5254534f 	subspl	r5, r4, #1006632961	; 0x3c000001
    7e00:	48435445 	stmdami	r3, {r0, r2, r6, sl, ip, lr}^
    7e04:	6b734d5f 	blvs	1cdb388 <_Min_Stack_Size+0x1cdaf88>
    7e08:	78302820 	ldmdavc	r0!, {r5, fp, sp}
    7e0c:	204c5531 	subcs	r5, ip, r1, lsr r5
    7e10:	49203c3c 	stmdbmi	r0!, {r2, r3, r4, r5, sl, fp, ip, sp}
    7e14:	435f4332 	cmpmi	pc, #-939524096	; 0xc8000000
    7e18:	4e5f3152 	mrcmi	1, 2, r3, cr15, cr2, {2}
    7e1c:	5254534f 	subspl	r5, r4, #1006632961	; 0x3c000001
    7e20:	48435445 	stmdami	r3, {r0, r2, r6, sl, ip, lr}^
    7e24:	736f505f 	cmnvc	pc, #95	; 0x5f
    7e28:	525f0029 	subspl	r0, pc, #41	; 0x29
    7e2c:	544e4545 	strbpl	r4, [lr], #-1349	; 0xfffffabb
    7e30:	5456435f 	ldrbpl	r4, [r6], #-863	; 0xfffffca1
    7e34:	284e454c 	stmdacs	lr, {r2, r3, r6, r8, sl, lr}^
    7e38:	7274705f 	rsbsvc	r7, r4, #95	; 0x5f
    7e3c:	28282029 	stmdacs	r8!, {r0, r3, r5, sp}
    7e40:	7274705f 	rsbsvc	r7, r4, #95	; 0x5f
    7e44:	5f3e2d29 	svcpl	0x003e2d29
    7e48:	6c747663 	ldclvs	6, cr7, [r4], #-396	; 0xfffffe74
    7e4c:	00296e65 	eoreq	r6, r9, r5, ror #28
    7e50:	5f433249 	svcpl	0x00433249
    7e54:	5f315253 	svcpl	0x00315253
    7e58:	454e5852 	strbmi	r5, [lr, #-2130]	; 0xfffff7ae
    7e5c:	6b734d5f 	blvs	1cdb3e0 <_Min_Stack_Size+0x1cdafe0>
    7e60:	78302820 	ldmdavc	r0!, {r5, fp, sp}
    7e64:	204c5531 	subcs	r5, ip, r1, lsr r5
    7e68:	49203c3c 	stmdbmi	r0!, {r2, r3, r4, r5, sl, fp, ip, sp}
    7e6c:	535f4332 	cmppl	pc, #-939524096	; 0xc8000000
    7e70:	525f3152 	subspl	r3, pc, #-2147483628	; 0x80000014
    7e74:	5f454e58 	svcpl	0x00454e58
    7e78:	29736f50 	ldmdbcs	r3!, {r4, r6, r8, r9, sl, fp, sp, lr}^
    7e7c:	465f5f00 	ldrbmi	r5, [pc], -r0, lsl #30
    7e80:	54494e49 	strbpl	r4, [r9], #-3657	; 0xfffff1b7
    7e84:	414d5f45 	cmpmi	sp, r5, asr #30
    7e88:	4f5f4854 	svcmi	0x005f4854
    7e8c:	5f594c4e 	svcpl	0x00594c4e
    7e90:	0030205f 	eorseq	r2, r0, pc, asr r0
    7e94:	4e495f5f 	mcrmi	15, 2, r5, cr9, cr15, {2}
    7e98:	41465f54 	cmpmi	r6, r4, asr pc
    7e9c:	36315453 			; <UNDEFINED> instruction: 0x36315453
    7ea0:	58414d5f 	stmdapl	r1, {r0, r1, r2, r3, r4, r6, r8, sl, fp, lr}^
    7ea4:	30205f5f 	eorcc	r5, r0, pc, asr pc
    7ea8:	66663778 			; <UNDEFINED> instruction: 0x66663778
    7eac:	66666666 	strbtvs	r6, [r6], -r6, ror #12
    7eb0:	5f5f0066 	svcpl	0x005f0066
    7eb4:	65766168 	ldrbvs	r6, [r6, #-360]!	; 0xfffffe98
    7eb8:	6e6f6c5f 	mcrvs	12, 3, r6, cr15, cr15, {2}
    7ebc:	6e6f6c67 	cdpvs	12, 6, cr6, cr15, cr7, {3}
    7ec0:	20343667 	eorscs	r3, r4, r7, ror #12
    7ec4:	414d0031 	cmpmi	sp, r1, lsr r0
    7ec8:	49005250 	stmdbmi	r0, {r4, r6, r9, ip, lr}
    7ecc:	435f4332 	cmpmi	pc, #-939524096	; 0xc8000000
    7ed0:	4c5f3252 	lfmmi	f3, 2, [pc], {82}	; 0x52
    7ed4:	5f545341 	svcpl	0x00545341
    7ed8:	20736f50 	rsbscs	r6, r3, r0, asr pc
    7edc:	55323128 	ldrpl	r3, [r2, #-296]!	; 0xfffffed8
    7ee0:	58450029 	stmdapl	r5, {r0, r3, r5}^
    7ee4:	35314954 	ldrcc	r4, [r1, #-2388]!	; 0xfffff6ac
    7ee8:	5152495f 	cmppl	r2, pc, asr r9
    7eec:	00303420 	eorseq	r3, r0, r0, lsr #8
    7ef0:	4e49555f 	mcrmi	5, 2, r5, cr9, cr15, {2}
    7ef4:	545f3854 	ldrbpl	r3, [pc], #-2132	; 7efc <_Min_Stack_Size+0x7afc>
    7ef8:	4345445f 	movtmi	r4, #21599	; 0x545f
    7efc:	4552414c 	ldrbmi	r4, [r2, #-332]	; 0xfffffeb4
    7f00:	45002044 	strmi	r2, [r0, #-68]	; 0xffffffbc
    7f04:	32495458 	subcc	r5, r9, #88, 8	; 0x58000000
    7f08:	5152495f 	cmppl	r2, pc, asr r9
    7f0c:	646e6148 	strbtvs	r6, [lr], #-328	; 0xfffffeb8
    7f10:	0072656c 	rsbseq	r6, r2, ip, ror #10
    7f14:	5f434352 	svcpl	0x00434352
    7f18:	31433249 	cmpcc	r3, r9, asr #4
    7f1c:	4b4c435f 	blmi	1318ca0 <_Min_Stack_Size+0x13188a0>
    7f20:	284e455f 	stmdacs	lr, {r0, r1, r2, r3, r4, r6, r8, sl, lr}^
    7f24:	52282029 	eorpl	r2, r8, #41	; 0x29
    7f28:	3e2d4343 	cdpcc	3, 2, cr4, cr13, cr3, {2}
    7f2c:	31425041 	cmpcc	r2, r1, asr #32
    7f30:	20524e45 	subscs	r4, r2, r5, asr #28
    7f34:	31203d7c 			; <UNDEFINED> instruction: 0x31203d7c
    7f38:	31323c3c 	teqcc	r2, ip, lsr ip
    7f3c:	5f5f0029 	svcpl	0x005f0029
    7f40:	6b636f6c 	blvs	18e3cf8 <_Min_Stack_Size+0x18e38f8>
    7f44:	7972745f 	ldmdbvc	r2!, {r0, r1, r2, r3, r4, r6, sl, ip, sp, lr}^
    7f48:	7163615f 	cmnvc	r3, pc, asr r1
    7f4c:	65726975 	ldrbvs	r6, [r2, #-2421]!	; 0xfffff68b
    7f50:	636f6c28 	cmnvs	pc, #40, 24	; 0x2800
    7f54:	5f20296b 	svcpl	0x0020296b
    7f58:	7465725f 	strbtvc	r7, [r5], #-607	; 0xfffffda1
    7f5c:	65677261 	strbvs	r7, [r7, #-609]!	; 0xfffffd9f
    7f60:	6f6c5f74 	svcvs	0x006c5f74
    7f64:	745f6b63 	ldrbvc	r6, [pc], #-2915	; 7f6c <_Min_Stack_Size+0x7b6c>
    7f68:	615f7972 	cmpvs	pc, r2, ror r9	; <UNPREDICTABLE>
    7f6c:	69757163 	ldmdbvs	r5!, {r0, r1, r5, r6, r8, ip, sp, lr}^
    7f70:	6c286572 	cfstr32vs	mvfx6, [r8], #-456	; 0xfffffe38
    7f74:	296b636f 	stmdbcs	fp!, {r0, r1, r2, r3, r5, r6, r8, r9, sp, lr}^
    7f78:	49555f00 	ldmdbmi	r5, {r8, r9, sl, fp, ip, lr}^
    7f7c:	5450544e 	ldrbpl	r5, [r0], #-1102	; 0xfffffbb2
    7f80:	5f545f52 	svcpl	0x00545f52
    7f84:	4c434544 	cfstr64mi	mvdx4, [r3], {68}	; 0x44
    7f88:	44455241 	strbmi	r5, [r5], #-577	; 0xfffffdbf
    7f8c:	43520020 	cmpmi	r2, #32
    7f90:	50535f43 	subspl	r5, r3, r3, asr #30
    7f94:	525f3249 	subspl	r3, pc, #-1879048188	; 0x90000004
    7f98:	74657365 	strbtvc	r7, [r5], #-869	; 0xfffffc9b
    7f9c:	28202928 	stmdacs	r0!, {r3, r5, r8, fp, sp}
    7fa0:	43435220 	movtmi	r5, #12832	; 0x3220
    7fa4:	50413e2d 	subpl	r3, r1, sp, lsr #28
    7fa8:	53523142 	cmppl	r2, #-2147483632	; 0x80000010
    7fac:	7c205254 	sfmvc	f5, 4, [r0], #-336	; 0xfffffeb0
    7fb0:	3128203d 			; <UNDEFINED> instruction: 0x3128203d
    7fb4:	34313c3c 	ldrtcc	r3, [r1], #-3132	; 0xfffff3c4
    7fb8:	00292029 	eoreq	r2, r9, r9, lsr #32
    7fbc:	4843575f 	stmdami	r3, {r0, r1, r2, r3, r4, r6, r8, r9, sl, ip, lr}^
    7fc0:	545f5241 	ldrbpl	r5, [pc], #-577	; 7fc8 <_Min_Stack_Size+0x7bc8>
    7fc4:	4645445f 			; <UNDEFINED> instruction: 0x4645445f
    7fc8:	44454e49 	strbmi	r4, [r5], #-3657	; 0xfffff1b7
    7fcc:	5f5f0020 	svcpl	0x005f0020
    7fd0:	43414c55 	movtmi	r4, #7253	; 0x1c55
    7fd4:	5f4d5543 	svcpl	0x004d5543
    7fd8:	5f58414d 	svcpl	0x0058414d
    7fdc:	5830205f 	ldmdapl	r0!, {r0, r1, r2, r3, r4, r6, sp}
    7fe0:	46464646 	strbmi	r4, [r6], -r6, asr #12
    7fe4:	46464646 	strbmi	r4, [r6], -r6, asr #12
    7fe8:	46464646 	strbmi	r4, [r6], -r6, asr #12
    7fec:	46464646 	strbmi	r4, [r6], -r6, asr #12
    7ff0:	32332d50 	eorscc	r2, r3, #80, 26	; 0x1400
    7ff4:	004b4c55 	subeq	r4, fp, r5, asr ip
    7ff8:	72745f5f 	rsbsvc	r5, r4, #380	; 0x17c
    7ffc:	636f6c79 	cmnvs	pc, #30976	; 0x7900
    8000:	655f736b 	ldrbvs	r7, [pc, #-875]	; 7c9d <_Min_Stack_Size+0x789d>
    8004:	756c6378 	strbvc	r6, [ip, #-888]!	; 0xfffffc88
    8008:	65766973 	ldrbvs	r6, [r6, #-2419]!	; 0xfffff68d
    800c:	2e2e2e28 	cdpcs	14, 2, cr2, cr14, cr8, {1}
    8010:	5f5f2029 	svcpl	0x005f2029
    8014:	6b636f6c 	blvs	18e3dcc <_Min_Stack_Size+0x18e39cc>
    8018:	6e6e615f 	mcrvs	1, 3, r6, cr14, cr15, {2}
    801c:	7461746f 	strbtvc	r7, [r1], #-1135	; 0xfffffb91
    8020:	78652865 	stmdavc	r5!, {r0, r2, r5, r6, fp, sp}^
    8024:	73756c63 	cmnvc	r5, #25344	; 0x6300
    8028:	5f657669 	svcpl	0x00657669
    802c:	6c797274 	lfmvs	f7, 2, [r9], #-464	; 0xfffffe30
    8030:	5f6b636f 	svcpl	0x006b636f
    8034:	636e7566 	cmnvs	lr, #427819008	; 0x19800000
    8038:	6e6f6974 			; <UNDEFINED> instruction: 0x6e6f6974
    803c:	565f5f28 	ldrbpl	r5, [pc], -r8, lsr #30
    8040:	52415f41 	subpl	r5, r1, #260	; 0x104
    8044:	5f5f5347 	svcpl	0x005f5347
    8048:	53002929 	movwpl	r2, #2345	; 0x929
    804c:	5f4d4152 	svcpl	0x004d4152
    8050:	45534142 	ldrbmi	r4, [r3, #-322]	; 0xfffffebe
    8054:	32783020 	rsbscc	r3, r8, #32
    8058:	30303030 	eorscc	r3, r0, r0, lsr r0
    805c:	55303030 	ldrpl	r3, [r0, #-48]!	; 0xffffffd0
    8060:	525f004c 	subspl	r0, pc, #76	; 0x4c
    8064:	544e4545 	strbpl	r4, [lr], #-1349	; 0xfffffabb
    8068:	4e41525f 	mcrmi	2, 2, r5, cr1, cr15, {2}
    806c:	454e5f44 	strbmi	r5, [lr, #-3908]	; 0xfffff0bc
    8070:	70285458 	eorvc	r5, r8, r8, asr r4
    8074:	20297274 	eorcs	r7, r9, r4, ror r2
    8078:	74702828 	ldrbtvc	r2, [r0], #-2088	; 0xfffff7d8
    807c:	3e2d2972 			; <UNDEFINED> instruction: 0x3e2d2972
    8080:	3834725f 	ldmdacc	r4!, {r0, r1, r2, r3, r4, r6, r9, ip, sp, lr}
    8084:	725f3e2d 	subsvc	r3, pc, #720	; 0x2d0
    8088:	5f646e61 	svcpl	0x00646e61
    808c:	7478656e 	ldrbtvc	r6, [r8], #-1390	; 0xfffffa92
    8090:	564e0029 	strbpl	r0, [lr], -r9, lsr #32
    8094:	495f4349 	ldmdbmi	pc, {r0, r3, r6, r8, r9, lr}^	; <UNPREDICTABLE>
    8098:	5f365152 	svcpl	0x00365152
    809c:	49545845 	ldmdbmi	r4, {r0, r2, r6, fp, ip, lr}^
    80a0:	69445f30 	stmdbvs	r4, {r4, r5, r8, r9, sl, fp, ip, lr}^
    80a4:	6c626173 	stfvse	f6, [r2], #-460	; 0xfffffe34
    80a8:	4e282065 	cdpmi	0, 2, cr2, cr8, cr5, {3}
    80ac:	5f434956 	svcpl	0x00434956
    80b0:	52454349 	subpl	r4, r5, #603979777	; 0x24000001
    80b4:	3d7c2030 	ldclcc	0, cr2, [ip, #-192]!	; 0xffffff40
    80b8:	3c3c3120 	ldfccs	f3, [ip], #-128	; 0xffffff80
    80bc:	45002936 	strmi	r2, [r0, #-2358]	; 0xfffff6ca
    80c0:	30495458 	subcc	r5, r9, r8, asr r4
    80c4:	5152495f 	cmppl	r2, pc, asr r9
    80c8:	5f003620 	svcpl	0x00003620
    80cc:	464c555f 			; <UNDEFINED> instruction: 0x464c555f
    80d0:	54434152 	strbpl	r4, [r3], #-338	; 0xfffffeae
    80d4:	4e494d5f 	mcrmi	13, 2, r4, cr9, cr15, {2}
    80d8:	30205f5f 	eorcc	r5, r0, pc, asr pc
    80dc:	4c55302e 	mrrcmi	0, 2, r3, r5, cr14
    80e0:	49530052 	ldmdbmi	r3, {r1, r4, r6}^
    80e4:	4d5f455a 	cfldr64mi	mvdx4, [pc, #-360]	; 7f84 <_Min_Stack_Size+0x7b84>
    80e8:	28205841 	stmdacs	r0!, {r0, r6, fp, ip, lr}
    80ec:	49535f5f 	ldmdbmi	r3, {r0, r1, r2, r3, r4, r6, r8, r9, sl, fp, ip, lr}^
    80f0:	4d5f455a 	cfldr64mi	mvdx4, [pc, #-360]	; 7f90 <_Min_Stack_Size+0x7b90>
    80f4:	5f5f5841 	svcpl	0x005f5841
    80f8:	5f5f0029 	svcpl	0x005f0029
    80fc:	495f5144 	ldmdbmi	pc, {r2, r6, r8, ip, lr}^	; <UNPREDICTABLE>
    8100:	5f544942 	svcpl	0x00544942
    8104:	0030205f 	eorseq	r2, r0, pc, asr r0
    8108:	52415f5f 	subpl	r5, r1, #380	; 0x17c
    810c:	46425f4d 	strbmi	r5, [r2], -sp, asr #30
    8110:	465f3631 			; <UNDEFINED> instruction: 0x465f3631
    8114:	414d524f 	cmpmi	sp, pc, asr #4
    8118:	4c415f54 	mcrrmi	15, 5, r5, r1, cr4
    811c:	4e524554 	mrcmi	5, 2, r4, cr2, cr4, {2}
    8120:	56495441 	strbpl	r5, [r9], -r1, asr #8
    8124:	5f5f0045 	svcpl	0x005f0045
    8128:	33544e49 	cmpcc	r4, #1168	; 0x490
    812c:	59545f32 	ldmdbpl	r4, {r1, r4, r5, r8, r9, sl, fp, ip, lr}^
    8130:	5f5f4550 	svcpl	0x005f4550
    8134:	6e6f6c20 	cdpvs	12, 6, cr6, cr15, cr0, {1}
    8138:	6e692067 	cdpvs	0, 6, cr2, cr9, cr7, {3}
    813c:	5f5f0074 	svcpl	0x005f0074
    8140:	544e4955 	strbpl	r4, [lr], #-2389	; 0xfffff6ab
    8144:	41454c5f 	cmpmi	r5, pc, asr ip
    8148:	5f385453 	svcpl	0x00385453
    814c:	5f58414d 	svcpl	0x0058414d
    8150:	7830205f 	ldmdavc	r0!, {r0, r1, r2, r3, r4, r6, sp}
    8154:	49006666 	stmdbmi	r0, {r1, r2, r5, r6, r9, sl, sp, lr}
    8158:	435f4332 	cmpmi	pc, #-939524096	; 0xc8000000
    815c:	4e5f3152 	mrcmi	1, 2, r3, cr15, cr2, {2}
    8160:	5254534f 	subspl	r5, r4, #1006632961	; 0x3c000001
    8164:	48435445 	stmdami	r3, {r0, r2, r6, sl, ip, lr}^
    8168:	736f505f 	cmnvc	pc, #95	; 0x5f
    816c:	55372820 	ldrpl	r2, [r7, #-2080]!	; 0xfffff7e0
    8170:	415f0029 	cmpmi	pc, r9, lsr #32
    8174:	49584554 	ldmdbmi	r8, {r2, r4, r6, r8, sl, lr}^
    8178:	49535f54 	ldmdbmi	r3, {r2, r4, r6, r8, r9, sl, fp, ip, lr}^
    817c:	3320455a 			; <UNDEFINED> instruction: 0x3320455a
    8180:	5f5f0032 	svcpl	0x005f0032
    8184:	746e6f63 	strbtvc	r6, [lr], #-3939	; 0xfffff09d
    8188:	656e6961 	strbvs	r6, [lr, #-2401]!	; 0xfffff69f
    818c:	28666f72 	stmdacs	r6!, {r1, r4, r5, r6, r8, r9, sl, fp, sp, lr}^
    8190:	2c732c78 	ldclcs	12, cr2, [r3], #-480	; 0xfffffe20
    8194:	2820296d 	stmdacs	r0!, {r0, r2, r3, r5, r6, r8, fp, sp}
    8198:	6f63207b 	svcvs	0x0063207b
    819c:	2074736e 	rsbscs	r7, r4, lr, ror #6
    81a0:	616c6f76 	smcvs	50934	; 0xc6f6
    81a4:	656c6974 	strbvs	r6, [ip, #-2420]!	; 0xfffff68c
    81a8:	745f5f20 	ldrbvc	r5, [pc], #-3872	; 81b0 <_Min_Stack_Size+0x7db0>
    81ac:	6f657079 	svcvs	0x00657079
    81b0:	28282866 	stmdacs	r8!, {r1, r2, r5, r6, fp, sp}
    81b4:	292a2073 	stmdbcs	sl!, {r0, r1, r4, r5, r6, sp}
    81b8:	3e2d2930 			; <UNDEFINED> instruction: 0x3e2d2930
    81bc:	2a20296d 	bcs	812778 <_Min_Stack_Size+0x812378>
    81c0:	20785f5f 	rsbscs	r5, r8, pc, asr pc
    81c4:	7828203d 	stmdavc	r8!, {r0, r2, r3, r4, r5, sp}
    81c8:	5f203b29 	svcpl	0x00203b29
    81cc:	5145445f 	cmppl	r5, pc, asr r4
    81d0:	494c4155 	stmdbmi	ip, {r0, r2, r4, r6, r8, lr}^
    81d4:	73285946 			; <UNDEFINED> instruction: 0x73285946
    81d8:	202c2a20 	eorcs	r2, ip, r0, lsr #20
    81dc:	6e6f6328 	cdpvs	3, 6, cr6, cr15, cr8, {1}
    81e0:	76207473 			; <UNDEFINED> instruction: 0x76207473
    81e4:	74616c6f 	strbtvc	r6, [r1], #-3183	; 0xfffff391
    81e8:	20656c69 	rsbcs	r6, r5, r9, ror #24
    81ec:	72616863 	rsbvc	r6, r1, #6488064	; 0x630000
    81f0:	5f292a20 	svcpl	0x00292a20
    81f4:	2d20785f 	stccs	8, cr7, [r0, #-380]!	; 0xfffffe84
    81f8:	6f5f5f20 	svcvs	0x005f5f20
    81fc:	65736666 	ldrbvs	r6, [r3, #-1638]!	; 0xfffff99a
    8200:	28666f74 	stmdacs	r6!, {r2, r4, r5, r6, r8, r9, sl, fp, sp, lr}^
    8204:	6d202c73 	stcvs	12, cr2, [r0, #-460]!	; 0xfffffe34
    8208:	7d3b2929 			; <UNDEFINED> instruction: 0x7d3b2929
    820c:	58450029 	stmdapl	r5, {r0, r3, r5}^
    8210:	50364954 	eorspl	r4, r6, r4, asr r9
    8214:	28203641 	stmdacs	r0!, {r0, r6, r9, sl, ip, sp}
    8218:	49545845 	ldmdbmi	r4, {r0, r2, r6, fp, ip, lr}^
    821c:	4950475f 	ldmdbmi	r0, {r0, r1, r2, r3, r4, r6, r8, r9, sl, lr}^
    8220:	614d5f4f 	cmpvs	sp, pc, asr #30
    8224:	6e697070 	mcrvs	0, 3, r7, cr9, cr0, {3}
    8228:	29745f67 	ldmdbcs	r4!, {r0, r1, r2, r5, r6, r8, r9, sl, fp, ip, lr}^
    822c:	5458457b 	ldrbpl	r4, [r8], #-1403	; 0xfffffa85
    8230:	202c3649 	eorcs	r3, ip, r9, asr #12
    8234:	4f495047 	svcmi	0x00495047
    8238:	202c2041 	eorcs	r2, ip, r1, asr #32
    823c:	4f495047 	svcmi	0x00495047
    8240:	4e49505f 	mcrmi	0, 2, r5, cr9, cr15, {2}
    8244:	2c20365f 	stccs	6, cr3, [r0], #-380	; 0xfffffe84
    8248:	54584520 	ldrbpl	r4, [r8], #-1312	; 0xfffffae0
    824c:	495f3649 	ldmdbmi	pc, {r0, r3, r6, r9, sl, ip, sp}^	; <UNPREDICTABLE>
    8250:	7d205152 	stfvcs	f5, [r0, #-328]!	; 0xfffffeb8
    8254:	53425f00 	movtpl	r5, #12032	; 0x2f00
    8258:	49535f44 	ldmdbmi	r3, {r2, r6, r8, r9, sl, fp, ip, lr}^
    825c:	545f455a 	ldrbpl	r4, [pc], #-1370	; 8264 <_Min_Stack_Size+0x7e64>
    8260:	5f00205f 	svcpl	0x0000205f
    8264:	746e695f 	strbtvc	r6, [lr], #-2399	; 0xfffff6a1
    8268:	5f5f3032 	svcpl	0x005f3032
    826c:	00322b20 	eorseq	r2, r2, r0, lsr #22
    8270:	6f6e5f5f 	svcvs	0x006e5f5f
    8274:	636f6c5f 	cmnvs	pc, #24320	; 0x5f00
    8278:	6e615f6b 	cdpvs	15, 6, cr5, cr1, cr11, {3}
    827c:	73796c61 	cmnvc	r9, #24832	; 0x6100
    8280:	5f207369 	svcpl	0x00207369
    8284:	636f6c5f 	cmnvs	pc, #24320	; 0x5f00
    8288:	6e615f6b 	cdpvs	15, 6, cr5, cr1, cr11, {3}
    828c:	61746f6e 	cmnvs	r4, lr, ror #30
    8290:	6e286574 	mcrvs	5, 1, r6, cr8, cr4, {3}
    8294:	68745f6f 	ldmdavs	r4!, {r0, r1, r2, r3, r5, r6, r8, r9, sl, fp, ip, lr}^
    8298:	64616572 	strbtvs	r6, [r1], #-1394	; 0xfffffa8e
    829c:	6661735f 			; <UNDEFINED> instruction: 0x6661735f
    82a0:	5f797465 	svcpl	0x00797465
    82a4:	6c616e61 	stclvs	14, cr6, [r1], #-388	; 0xfffffe7c
    82a8:	73697379 	cmnvc	r9, #-469762047	; 0xe4000001
    82ac:	495f0029 	ldmdbmi	pc, {r0, r3, r5}^	; <UNPREDICTABLE>
    82b0:	3436544e 	ldrtcc	r5, [r6], #-1102	; 0xfffffbb2
    82b4:	445f545f 	ldrbmi	r5, [pc], #-1119	; 82bc <_Min_Stack_Size+0x7ebc>
    82b8:	414c4345 	cmpmi	ip, r5, asr #6
    82bc:	20444552 	subcs	r4, r4, r2, asr r5
    82c0:	54584500 	ldrbpl	r4, [r8], #-1280	; 0xfffffb00
    82c4:	50353149 	eorspl	r3, r5, r9, asr #2
    82c8:	20353142 	eorscs	r3, r5, r2, asr #2
    82cc:	54584528 	ldrbpl	r4, [r8], #-1320	; 0xfffffad8
    82d0:	50475f49 	subpl	r5, r7, r9, asr #30
    82d4:	4d5f4f49 	ldclmi	15, cr4, [pc, #-292]	; 81b8 <_Min_Stack_Size+0x7db8>
    82d8:	69707061 	ldmdbvs	r0!, {r0, r5, r6, ip, sp, lr}^
    82dc:	745f676e 	ldrbvc	r6, [pc], #-1902	; 82e4 <_Min_Stack_Size+0x7ee4>
    82e0:	58457b29 	stmdapl	r5, {r0, r3, r5, r8, r9, fp, ip, sp, lr}^
    82e4:	35314954 	ldrcc	r4, [r1, #-2388]!	; 0xfffff6ac
    82e8:	5047202c 	subpl	r2, r7, ip, lsr #32
    82ec:	20424f49 	subcs	r4, r2, r9, asr #30
    82f0:	5047202c 	subpl	r2, r7, ip, lsr #32
    82f4:	505f4f49 	subspl	r4, pc, r9, asr #30
    82f8:	315f4e49 	cmpcc	pc, r9, asr #28
    82fc:	452c2035 	strmi	r2, [ip, #-53]!	; 0xffffffcb
    8300:	31495458 	cmpcc	r9, r8, asr r4
    8304:	52495f35 	subpl	r5, r9, #53, 30	; 0xd4
    8308:	007d2051 	rsbseq	r2, sp, r1, asr r0
    830c:	4f495047 	svcmi	0x00495047
    8310:	4e49505f 	mcrmi	0, 2, r5, cr9, cr15, {2}
    8314:	43324900 	teqmi	r2, #0, 18
    8318:	28282032 	stmdacs	r8!, {r1, r4, r5, sp}
    831c:	5f433249 	svcpl	0x00433249
    8320:	65707954 	ldrbvs	r7, [r0, #-2388]!	; 0xfffff6ac
    8324:	20666544 	rsbcs	r6, r6, r4, asr #10
    8328:	3249292a 	subcc	r2, r9, #688128	; 0xa8000
    832c:	425f3243 	subsmi	r3, pc, #805306372	; 0x30000004
    8330:	29455341 	stmdbcs	r5, {r0, r6, r8, r9, ip, lr}^
    8334:	5f545f00 	svcpl	0x00545f00
    8338:	41484357 	cmpmi	r8, r7, asr r3
    833c:	49002052 	stmdbmi	r0, {r1, r4, r6, sp}
    8340:	535f4332 	cmppl	pc, #-939524096	; 0xc8000000
    8344:	545f3252 	ldrbpl	r3, [pc], #-594	; 834c <_Min_Stack_Size+0x7f4c>
    8348:	4d5f4152 	ldfmie	f4, [pc, #-328]	; 8208 <_Min_Stack_Size+0x7e08>
    834c:	28206b73 	stmdacs	r0!, {r0, r1, r4, r5, r6, r8, r9, fp, sp, lr}
    8350:	55317830 	ldrpl	r7, [r1, #-2096]!	; 0xfffff7d0
    8354:	3c3c204c 	ldccc	0, cr2, [ip], #-304	; 0xfffffed0
    8358:	43324920 	teqmi	r2, #32, 18	; 0x80000
    835c:	3252535f 	subscc	r5, r2, #2080374785	; 0x7c000001
    8360:	4152545f 	cmpmi	r2, pc, asr r4
    8364:	736f505f 	cmnvc	pc, #95	; 0x5f
    8368:	525f0029 	subspl	r0, pc, #41	; 0x29
    836c:	544e4545 	strbpl	r4, [lr], #-1349	; 0xfffffabb
    8370:	5f504d5f 	svcpl	0x00504d5f
    8374:	45455246 	strbmi	r5, [r5, #-582]	; 0xfffffdba
    8378:	5453494c 	ldrbpl	r4, [r3], #-2380	; 0xfffff6b4
    837c:	72747028 	rsbsvc	r7, r4, #40	; 0x28
    8380:	28282029 	stmdacs	r8!, {r0, r3, r5, sp}
    8384:	29727470 	ldmdbcs	r2!, {r4, r5, r6, sl, ip, sp, lr}^
    8388:	6d5f3e2d 	ldclvs	14, cr3, [pc, #-180]	; 82dc <_Min_Stack_Size+0x7edc>
    838c:	5f3e2d70 	svcpl	0x003e2d70
    8390:	65657266 	strbvs	r7, [r5, #-614]!	; 0xfffffd9a
    8394:	7473696c 	ldrbtvc	r6, [r3], #-2412	; 0xfffff694
    8398:	6c610029 	stclvs	0, cr0, [r1], #-164	; 0xffffff5c
    839c:	61636f6c 	cmnvs	r3, ip, ror #30
    83a0:	7a697328 	bvc	1a65048 <_Min_Stack_Size+0x1a64c48>
    83a4:	5f202965 	svcpl	0x00202965
    83a8:	6975625f 	ldmdbvs	r5!, {r0, r1, r2, r3, r4, r6, r9, sp, lr}^
    83ac:	6e69746c 	cdpvs	4, 6, cr7, cr9, cr12, {3}
    83b0:	6c6c615f 	stfvse	f6, [ip], #-380	; 0xfffffe84
    83b4:	2861636f 	stmdacs	r1!, {r0, r1, r2, r3, r5, r6, r8, r9, sp, lr}^
    83b8:	657a6973 	ldrbvs	r6, [sl, #-2419]!	; 0xfffff68d
    83bc:	435f0029 	cmpmi	pc, #41	; 0x29
    83c0:	4b434f4c 	blmi	10dc0f8 <_Min_Stack_Size+0x10dbcf8>
    83c4:	545f4449 	ldrbpl	r4, [pc], #-1097	; 83cc <_Min_Stack_Size+0x7fcc>
    83c8:	6e75205f 	mrcvs	0, 3, r2, cr5, cr15, {2}
    83cc:	6e676973 			; <UNDEFINED> instruction: 0x6e676973
    83d0:	6c206465 	cfstrsvs	mvf6, [r0], #-404	; 0xfffffe6c
    83d4:	00676e6f 	rsbeq	r6, r7, pc, ror #28
    83d8:	5f433249 	svcpl	0x00433249
    83dc:	5f315253 	svcpl	0x00315253
    83e0:	20455854 	subcs	r5, r5, r4, asr r8
    83e4:	5f433249 	svcpl	0x00433249
    83e8:	5f315253 	svcpl	0x00315253
    83ec:	5f455854 	svcpl	0x00455854
    83f0:	006b734d 	rsbeq	r7, fp, sp, asr #6
    83f4:	4349564e 	movtmi	r5, #38478	; 0x964e
    83f8:	5152495f 	cmppl	r2, pc, asr r9
    83fc:	535f3533 	cmppl	pc, #213909504	; 0xcc00000
    8400:	5f314950 	svcpl	0x00314950
    8404:	62616e45 	rsbvs	r6, r1, #1104	; 0x450
    8408:	2820656c 	stmdacs	r0!, {r2, r3, r5, r6, r8, sl, sp, lr}
    840c:	4349564e 	movtmi	r5, #38478	; 0x964e
    8410:	4553495f 	ldrbmi	r4, [r3, #-2399]	; 0xfffff6a1
    8414:	7c203152 	stfvcs	f3, [r0], #-328	; 0xfffffeb8
    8418:	3c31203d 	ldccc	0, cr2, [r1], #-244	; 0xffffff0c
    841c:	5320283c 			; <UNDEFINED> instruction: 0x5320283c
    8420:	5f314950 	svcpl	0x00314950
    8424:	20515249 	subscs	r5, r1, r9, asr #4
    8428:	3233202d 	eorscc	r2, r3, #45	; 0x2d
    842c:	00292920 	eoreq	r2, r9, r0, lsr #18
    8430:	49545845 	ldmdbmi	r4, {r0, r2, r6, fp, ip, lr}^
    8434:	37425037 	smlaldxcc	r5, r2, r7, r0
    8438:	58452820 	stmdapl	r5, {r5, fp, sp}^
    843c:	475f4954 			; <UNDEFINED> instruction: 0x475f4954
    8440:	5f4f4950 	svcpl	0x004f4950
    8444:	7070614d 	rsbsvc	r6, r0, sp, asr #2
    8448:	5f676e69 	svcpl	0x00676e69
    844c:	457b2974 	ldrbmi	r2, [fp, #-2420]!	; 0xfffff68c
    8450:	37495458 	smlsldcc	r5, r9, r8, r4
    8454:	5047202c 	subpl	r2, r7, ip, lsr #32
    8458:	20424f49 	subcs	r4, r2, r9, asr #30
    845c:	5047202c 	subpl	r2, r7, ip, lsr #32
    8460:	505f4f49 	subspl	r4, pc, r9, asr #30
    8464:	375f4e49 	ldrbcc	r4, [pc, -r9, asr #28]
    8468:	58452c20 	stmdapl	r5, {r5, sl, fp, sp}^
    846c:	5f374954 	svcpl	0x00374954
    8470:	20515249 	subscs	r5, r1, r9, asr #4
    8474:	5f5f007d 	svcpl	0x005f007d
    8478:	5f515455 	svcpl	0x00515455
    847c:	54494249 	strbpl	r4, [r9], #-585	; 0xfffffdb7
    8480:	30205f5f 	eorcc	r5, r0, pc, asr pc
    8484:	54584500 	ldrbpl	r4, [r8], #-1280	; 0xfffffb00
    8488:	32203249 	eorcc	r3, r0, #-1879048188	; 0x90000004
    848c:	535f5f00 	cmppl	pc, #0, 30
    8490:	42465f41 	submi	r5, r6, #260	; 0x104
    8494:	5f5f5449 	svcpl	0x005f5449
    8498:	00353120 	eorseq	r3, r5, r0, lsr #2
    849c:	4e495f5f 	mcrmi	15, 2, r5, cr9, cr15, {2}
    84a0:	43575f54 	cmpmi	r7, #84, 30	; 0x150
    84a4:	5f524148 	svcpl	0x00524148
    84a8:	20485f54 	subcs	r5, r8, r4, asr pc
    84ac:	465f5f00 	ldrbmi	r5, [pc], -r0, lsl #30
    84b0:	3233544c 	eorscc	r5, r3, #76, 8	; 0x4c000000
    84b4:	414d5f58 	cmpmi	sp, r8, asr pc
    84b8:	205f5f58 	subscs	r5, pc, r8, asr pc	; <UNPREDICTABLE>
    84bc:	39372e31 	ldmdbcc	r7!, {r0, r4, r5, r9, sl, fp, sp}
    84c0:	33393637 	teqcc	r9, #57671680	; 0x3700000
    84c4:	38343331 	ldmdacc	r4!, {r0, r4, r5, r8, r9, ip, sp}
    84c8:	31333236 	teqcc	r3, r6, lsr r2
    84cc:	2b653735 	blcs	19561a8 <_Min_Stack_Size+0x1955da8>
    84d0:	46383033 			; <UNDEFINED> instruction: 0x46383033
    84d4:	00783233 	rsbseq	r3, r8, r3, lsr r2
    84d8:	4349564e 	movtmi	r5, #38478	; 0x964e
    84dc:	5152495f 	cmppl	r2, pc, asr r9
    84e0:	495f3333 	ldmdbmi	pc, {r0, r1, r4, r5, r8, r9, ip, sp}^	; <UNPREDICTABLE>
    84e4:	5f324332 	svcpl	0x00324332
    84e8:	445f5645 	ldrbmi	r5, [pc], #-1605	; 84f0 <_Min_Stack_Size+0x80f0>
    84ec:	62617369 	rsbvs	r7, r1, #-1543503871	; 0xa4000001
    84f0:	2820656c 	stmdacs	r0!, {r2, r3, r5, r6, r8, sl, sp, lr}
    84f4:	4349564e 	movtmi	r5, #38478	; 0x964e
    84f8:	4543495f 	strbmi	r4, [r3, #-2399]	; 0xfffff6a1
    84fc:	7c203152 	stfvcs	f3, [r0], #-328	; 0xfffffeb8
    8500:	3c31203d 	ldccc	0, cr2, [r1], #-244	; 0xffffff0c
    8504:	4920283c 	stmdbmi	r0!, {r2, r3, r4, r5, fp, sp}
    8508:	5f324332 	svcpl	0x00324332
    850c:	495f5645 	ldmdbmi	pc, {r0, r2, r6, r9, sl, ip, lr}^	; <UNPREDICTABLE>
    8510:	2d205152 	stfcss	f5, [r0, #-328]!	; 0xfffffeb8
    8514:	20323320 	eorscs	r3, r2, r0, lsr #6
    8518:	5f002929 	svcpl	0x00002929
    851c:	554e475f 	strbpl	r4, [lr, #-1887]	; 0xfffff8a1
    8520:	4b494c43 	blmi	125b634 <_Min_Stack_Size+0x125b234>
    8524:	55425f45 	strbpl	r5, [r2, #-3909]	; 0xfffff0bb
    8528:	49544c49 	ldmdbmi	r4, {r0, r3, r6, sl, fp, lr}^
    852c:	41565f4e 	cmpmi	r6, lr, asr #30
    8530:	53494c41 	movtpl	r4, #40001	; 0x9c41
    8534:	00312054 	eorseq	r2, r1, r4, asr r0
    8538:	52415f5f 	subpl	r5, r1, #380	; 0x17c
    853c:	41455f4d 	cmpmi	r5, sp, asr #30
    8540:	5f5f4942 	svcpl	0x005f4942
    8544:	5f003120 	svcpl	0x00003120
    8548:	45564148 	ldrbmi	r4, [r6, #-328]	; 0xfffffeb8
    854c:	494e495f 	stmdbmi	lr, {r0, r1, r2, r3, r4, r6, r8, fp, lr}^
    8550:	4e494654 	mcrmi	6, 2, r4, cr9, cr4, {2}
    8554:	52415f49 	subpl	r5, r1, #292	; 0x124
    8558:	20594152 	subscs	r4, r9, r2, asr r1
    855c:	5f5f0031 	svcpl	0x005f0031
    8560:	4e4d5341 	cdpmi	3, 4, cr5, cr13, cr1, {2}
    8564:	28454d41 	stmdacs	r5, {r0, r6, r8, sl, fp, lr}^
    8568:	6d616e63 	stclvs	14, cr6, [r1, #-396]!	; 0xfffffe74
    856c:	5f202965 	svcpl	0x00202965
    8570:	5453585f 	ldrbpl	r5, [r3], #-2143	; 0xfffff7a1
    8574:	474e4952 	smlsldmi	r4, lr, r2, r9
    8578:	5f5f2820 	svcpl	0x005f2820
    857c:	52455355 	subpl	r5, r5, #1409286145	; 0x54000001
    8580:	42414c5f 	submi	r4, r1, #24320	; 0x5f00
    8584:	505f4c45 	subspl	r4, pc, r5, asr #24
    8588:	49464552 	stmdbmi	r6, {r1, r4, r6, r8, sl, lr}^
    858c:	295f5f58 	ldmdbcs	pc, {r3, r4, r6, r8, r9, sl, fp, ip, lr}^	; <UNPREDICTABLE>
    8590:	616e6320 	cmnvs	lr, r0, lsr #6
    8594:	5f00656d 	svcpl	0x0000656d
    8598:	544c465f 	strbpl	r4, [ip], #-1631	; 0xfffff9a1
    859c:	5f53495f 	svcpl	0x0053495f
    85a0:	5f434549 	svcpl	0x00434549
    85a4:	35353036 	ldrcc	r3, [r5, #-54]!	; 0xffffffca
    85a8:	205f5f39 	subscs	r5, pc, r9, lsr pc	; <UNPREDICTABLE>
    85ac:	5f5f0032 	svcpl	0x005f0032
    85b0:	4d554854 	ldclmi	8, cr4, [r5, #-336]	; 0xfffffeb0
    85b4:	5f4c4542 	svcpl	0x004c4542
    85b8:	0031205f 	eorseq	r2, r1, pc, asr r0
    85bc:	49545845 	ldmdbmi	r4, {r0, r2, r6, fp, ip, lr}^
    85c0:	44503031 	ldrbmi	r3, [r0], #-49	; 0xffffffcf
    85c4:	28203031 	stmdacs	r0!, {r0, r4, r5, ip, sp}
    85c8:	49545845 	ldmdbmi	r4, {r0, r2, r6, fp, ip, lr}^
    85cc:	4950475f 	ldmdbmi	r0, {r0, r1, r2, r3, r4, r6, r8, r9, sl, lr}^
    85d0:	614d5f4f 	cmpvs	sp, pc, asr #30
    85d4:	6e697070 	mcrvs	0, 3, r7, cr9, cr0, {3}
    85d8:	29745f67 	ldmdbcs	r4!, {r0, r1, r2, r5, r6, r8, r9, sl, fp, ip, lr}^
    85dc:	5458457b 	ldrbpl	r4, [r8], #-1403	; 0xfffffa85
    85e0:	20303149 	eorscs	r3, r0, r9, asr #2
    85e4:	5047202c 	subpl	r2, r7, ip, lsr #32
    85e8:	20444f49 	subcs	r4, r4, r9, asr #30
    85ec:	5047202c 	subpl	r2, r7, ip, lsr #32
    85f0:	505f4f49 	subspl	r4, pc, r9, asr #30
    85f4:	315f4e49 	cmpcc	pc, r9, asr #28
    85f8:	202c2030 	eorcs	r2, ip, r0, lsr r0
    85fc:	49545845 	ldmdbmi	r4, {r0, r2, r6, fp, ip, lr}^
    8600:	495f3031 	ldmdbmi	pc, {r0, r4, r5, ip, sp}^	; <UNPREDICTABLE>
    8604:	007d5152 	rsbseq	r5, sp, r2, asr r1
    8608:	49545845 	ldmdbmi	r4, {r0, r2, r6, fp, ip, lr}^
    860c:	5f355f39 	svcpl	0x00355f39
    8610:	48515249 	ldmdami	r1, {r0, r3, r6, r9, ip, lr}^
    8614:	6c646e61 	stclvs	14, cr6, [r4], #-388	; 0xfffffe7c
    8618:	45007265 	strmi	r7, [r0, #-613]	; 0xfffffd9b
    861c:	31495458 	cmpcc	r9, r8, asr r4
    8620:	49003120 	stmdbmi	r0, {r5, r8, ip, sp}
    8624:	20314332 	eorscs	r4, r1, r2, lsr r3
    8628:	32492828 	subcc	r2, r9, #40, 16	; 0x280000
    862c:	79545f43 	ldmdbvc	r4, {r0, r1, r6, r8, r9, sl, fp, ip, lr}^
    8630:	65446570 	strbvs	r6, [r4, #-1392]	; 0xfffffa90
    8634:	292a2066 	stmdbcs	sl!, {r1, r2, r5, r6, sp}
    8638:	31433249 	cmpcc	r3, r9, asr #4
    863c:	5341425f 	movtpl	r4, #4703	; 0x125f
    8640:	49002945 	stmdbmi	r0, {r0, r2, r6, r8, fp, sp}
    8644:	535f4332 	cmppl	pc, #-939524096	; 0xc8000000
    8648:	415f3152 	cmpmi	pc, r2, asr r1	; <UNPREDICTABLE>
    864c:	6f505f46 	svcvs	0x00505f46
    8650:	31282073 			; <UNDEFINED> instruction: 0x31282073
    8654:	00295530 	eoreq	r5, r9, r0, lsr r5
    8658:	49545845 	ldmdbmi	r4, {r0, r2, r6, fp, ip, lr}^
    865c:	44503231 	ldrbmi	r3, [r0], #-561	; 0xfffffdcf
    8660:	28203231 	stmdacs	r0!, {r0, r4, r5, r9, ip, sp}
    8664:	49545845 	ldmdbmi	r4, {r0, r2, r6, fp, ip, lr}^
    8668:	4950475f 	ldmdbmi	r0, {r0, r1, r2, r3, r4, r6, r8, r9, sl, lr}^
    866c:	614d5f4f 	cmpvs	sp, pc, asr #30
    8670:	6e697070 	mcrvs	0, 3, r7, cr9, cr0, {3}
    8674:	29745f67 	ldmdbcs	r4!, {r0, r1, r2, r5, r6, r8, r9, sl, fp, ip, lr}^
    8678:	5458457b 	ldrbpl	r4, [r8], #-1403	; 0xfffffa85
    867c:	20323149 	eorscs	r3, r2, r9, asr #2
    8680:	5047202c 	subpl	r2, r7, ip, lsr #32
    8684:	20444f49 	subcs	r4, r4, r9, asr #30
    8688:	5047202c 	subpl	r2, r7, ip, lsr #32
    868c:	505f4f49 	subspl	r4, pc, r9, asr #30
    8690:	315f4e49 	cmpcc	pc, r9, asr #28
    8694:	202c2032 	eorcs	r2, ip, r2, lsr r0
    8698:	49545845 	ldmdbmi	r4, {r0, r2, r6, fp, ip, lr}^
    869c:	495f3231 	ldmdbmi	pc, {r0, r4, r5, r9, ip, sp}^	; <UNPREDICTABLE>
    86a0:	007d5152 	rsbseq	r5, sp, r2, asr r1
    86a4:	51515f5f 	cmppl	r1, pc, asr pc
    86a8:	4942495f 	stmdbmi	r2, {r0, r1, r2, r3, r4, r6, r8, fp, lr}^
    86ac:	205f5f54 	subscs	r5, pc, r4, asr pc	; <UNPREDICTABLE>
    86b0:	32490030 	subcc	r0, r9, #48	; 0x30
    86b4:	52535f43 	subspl	r5, r3, #268	; 0x10c
    86b8:	52545f32 	subspl	r5, r4, #50, 30	; 0xc8
    86bc:	6f505f41 	svcvs	0x00505f41
    86c0:	32282073 	eorcc	r2, r8, #115	; 0x73
    86c4:	52002955 	andpl	r2, r0, #1392640	; 0x154000
    86c8:	555f4343 	ldrbpl	r4, [pc, #-835]	; 838d <_Min_Stack_Size+0x7f8d>
    86cc:	54524153 	ldrbpl	r4, [r2], #-339	; 0xfffffead
    86d0:	4c435f31 	mcrrmi	15, 3, r5, r3, cr1
    86d4:	4e455f4b 	cdpmi	15, 4, cr5, cr5, cr11, {2}
    86d8:	28202928 	stmdacs	r0!, {r3, r5, r8, fp, sp}
    86dc:	43435220 	movtmi	r5, #12832	; 0x3220
    86e0:	50413e2d 	subpl	r3, r1, sp, lsr #28
    86e4:	4e453242 	cdpmi	2, 4, cr3, cr5, cr2, {2}
    86e8:	3d7c2052 	ldclcc	0, cr2, [ip, #-328]!	; 0xfffffeb8
    86ec:	3c312820 	ldccc	8, cr2, [r1], #-128	; 0xffffff80
    86f0:	2934313c 	ldmdbcs	r4!, {r2, r3, r4, r5, r8, ip, sp}
    86f4:	73002920 	movwvc	r2, #2336	; 0x920
    86f8:	69746174 	ldmdbvs	r4!, {r2, r4, r5, r6, r8, sp, lr}^
    86fc:	73615f63 	cmnvc	r1, #396	; 0x18c
    8700:	74726573 	ldrbtvc	r6, [r2], #-1395	; 0xfffffa8d
    8704:	74535f20 	ldrbvc	r5, [r3], #-3872	; 0xfffff0e0
    8708:	63697461 	cmnvs	r9, #1627389952	; 0x61000000
    870c:	7373615f 	cmnvc	r3, #-1073741801	; 0xc0000017
    8710:	00747265 	rsbseq	r7, r4, r5, ror #4
    8714:	4f4c5f5f 	svcmi	0x004c5f5f
    8718:	495f4b43 	ldmdbmi	pc, {r0, r1, r6, r8, r9, fp, lr}^	; <UNPREDICTABLE>
    871c:	5f54494e 	svcpl	0x0054494e
    8720:	55434552 	strbpl	r4, [r3, #-1362]	; 0xfffffaae
    8724:	56495352 			; <UNDEFINED> instruction: 0x56495352
    8728:	6c632845 	stclvs	8, cr2, [r3], #-276	; 0xfffffeec
    872c:	2c737361 	ldclcs	3, cr7, [r3], #-388	; 0xfffffe7c
    8730:	6b636f6c 	blvs	18e44e8 <_Min_Stack_Size+0x18e40e8>
    8734:	5f5f2029 	svcpl	0x005f2029
    8738:	4b434f4c 	blmi	10dc470 <_Min_Stack_Size+0x10dc070>
    873c:	494e495f 	stmdbmi	lr, {r0, r1, r2, r3, r4, r6, r8, fp, lr}^
    8740:	6c632854 	stclvs	8, cr2, [r3], #-336	; 0xfffffeb0
    8744:	2c737361 	ldclcs	3, cr7, [r3], #-388	; 0xfffffe7c
    8748:	6b636f6c 	blvs	18e4500 <_Min_Stack_Size+0x18e4100>
    874c:	5f5f0029 	svcpl	0x005f0029
    8750:	43414c4c 	movtmi	r4, #7244	; 0x1c4c
    8754:	5f4d5543 	svcpl	0x004d5543
    8758:	54494246 	strbpl	r4, [r9], #-582	; 0xfffffdba
    875c:	33205f5f 			; <UNDEFINED> instruction: 0x33205f5f
    8760:	43520031 	cmpmi	r2, #49	; 0x31
    8764:	50535f43 	subspl	r5, r3, r3, asr #30
    8768:	435f3149 	cmpmi	pc, #1073741842	; 0x40000012
    876c:	455f4b4c 	ldrbmi	r4, [pc, #-2892]	; 7c28 <_Min_Stack_Size+0x7828>
    8770:	2029284e 	eorcs	r2, r9, lr, asr #16
    8774:	43522028 	cmpmi	r2, #40	; 0x28
    8778:	413e2d43 	teqmi	lr, r3, asr #26
    877c:	45324250 	ldrmi	r4, [r2, #-592]!	; 0xfffffdb0
    8780:	7c20524e 	sfmvc	f5, 4, [r0], #-312	; 0xfffffec8
    8784:	3128203d 			; <UNDEFINED> instruction: 0x3128203d
    8788:	32313c3c 	eorscc	r3, r1, #60, 24	; 0x3c00
    878c:	00292029 	eoreq	r2, r9, r9, lsr #32
    8790:	49555f5f 	ldmdbmi	r5, {r0, r1, r2, r3, r4, r6, r8, r9, sl, fp, ip, lr}^
    8794:	414d544e 	cmpmi	sp, lr, asr #8
    8798:	59545f58 	ldmdbpl	r4, {r3, r4, r6, r8, r9, sl, fp, ip, lr}^
    879c:	5f5f4550 	svcpl	0x005f4550
    87a0:	6e6f6c20 	cdpvs	12, 6, cr6, cr15, cr0, {1}
    87a4:	6f6c2067 	svcvs	0x006c2067
    87a8:	7520676e 	strvc	r6, [r0, #-1902]!	; 0xfffff892
    87ac:	6769736e 	strbvs	r7, [r9, -lr, ror #6]!
    87b0:	2064656e 	rsbcs	r6, r4, lr, ror #10
    87b4:	00746e69 	rsbseq	r6, r4, r9, ror #28
    87b8:	5f433249 	svcpl	0x00433249
    87bc:	5f315253 	svcpl	0x00315253
    87c0:	454d4954 	strbmi	r4, [sp, #-2388]	; 0xfffff6ac
    87c4:	2054554f 	subscs	r5, r4, pc, asr #10
    87c8:	5f433249 	svcpl	0x00433249
    87cc:	5f315253 	svcpl	0x00315253
    87d0:	454d4954 	strbmi	r4, [sp, #-2388]	; 0xfffff6ac
    87d4:	5f54554f 	svcpl	0x0054554f
    87d8:	006b734d 	rsbeq	r7, fp, sp, asr #6
    87dc:	544e4955 	strbpl	r4, [lr], #-2389	; 0xfffff6ab
    87e0:	41454c5f 	cmpmi	r5, pc, asr ip
    87e4:	5f385453 	svcpl	0x00385453
    87e8:	2058414d 	subscs	r4, r8, sp, asr #2
    87ec:	555f5f28 	ldrbpl	r5, [pc, #-3880]	; 78cc <_Min_Stack_Size+0x74cc>
    87f0:	5f544e49 	svcpl	0x00544e49
    87f4:	5341454c 	movtpl	r4, #5452	; 0x154c
    87f8:	4d5f3854 	ldclmi	8, cr3, [pc, #-336]	; 86b0 <_Min_Stack_Size+0x82b0>
    87fc:	5f5f5841 	svcpl	0x005f5841
    8800:	5f5f0029 	svcpl	0x005f0029
    8804:	5f515355 	svcpl	0x00515355
    8808:	54494249 	strbpl	r4, [r9], #-585	; 0xfffffdb7
    880c:	30205f5f 	eorcc	r5, r0, pc, asr pc
    8810:	475f5f00 	ldrbmi	r5, [pc, -r0, lsl #30]
    8814:	5f43554e 	svcpl	0x0043554e
    8818:	4f4e494d 	svcmi	0x004e494d
    881c:	205f5f52 	subscs	r5, pc, r2, asr pc	; <UNPREDICTABLE>
    8820:	5f5f0033 	svcpl	0x005f0033
    8824:	33544c46 	cmpcc	r4, #17920	; 0x4600
    8828:	4d5f5832 	ldclmi	8, cr5, [pc, #-200]	; 8768 <_Min_Stack_Size+0x8368>
    882c:	455f4e49 	ldrbmi	r4, [pc, #-3657]	; 79eb <_Min_Stack_Size+0x75eb>
    8830:	5f5f5058 	svcpl	0x005f5058
    8834:	312d2820 			; <UNDEFINED> instruction: 0x312d2820
    8838:	29313230 	ldmdbcs	r1!, {r4, r5, r9, ip, sp}
    883c:	555f5f00 	ldrbpl	r5, [pc, #-3840]	; 7944 <_Min_Stack_Size+0x7544>
    8840:	5f544e49 	svcpl	0x00544e49
    8844:	5341454c 	movtpl	r4, #5452	; 0x154c
    8848:	5f323354 	svcpl	0x00323354
    884c:	45505954 	ldrbmi	r5, [r0, #-2388]	; 0xfffff6ac
    8850:	6c205f5f 	stcvs	15, cr5, [r0], #-380	; 0xfffffe84
    8854:	20676e6f 	rsbcs	r6, r7, pc, ror #28
    8858:	69736e75 	ldmdbvs	r3!, {r0, r2, r4, r5, r6, r9, sl, fp, sp, lr}^
    885c:	64656e67 	strbtvs	r6, [r5], #-3687	; 0xfffff199
    8860:	746e6920 	strbtvc	r6, [lr], #-2336	; 0xfffff6e0
    8864:	54584500 	ldrbpl	r4, [r8], #-1280	; 0xfffffb00
    8868:	41503549 	cmpmi	r0, r9, asr #10
    886c:	45282035 	strmi	r2, [r8, #-53]!	; 0xffffffcb
    8870:	5f495458 	svcpl	0x00495458
    8874:	4f495047 	svcmi	0x00495047
    8878:	70614d5f 	rsbvc	r4, r1, pc, asr sp
    887c:	676e6970 			; <UNDEFINED> instruction: 0x676e6970
    8880:	7b29745f 	blvc	a65a04 <_Min_Stack_Size+0xa65604>
    8884:	49545845 	ldmdbmi	r4, {r0, r2, r6, fp, ip, lr}^
    8888:	47202c35 			; <UNDEFINED> instruction: 0x47202c35
    888c:	414f4950 	cmpmi	pc, r0, asr r9	; <UNPREDICTABLE>
    8890:	47202c20 	strmi	r2, [r0, -r0, lsr #24]!
    8894:	5f4f4950 	svcpl	0x004f4950
    8898:	5f4e4950 	svcpl	0x004e4950
    889c:	202c2035 	eorcs	r2, ip, r5, lsr r0
    88a0:	49545845 	ldmdbmi	r4, {r0, r2, r6, fp, ip, lr}^
    88a4:	52495f35 	subpl	r5, r9, #53, 30	; 0xd4
    88a8:	007d2051 	rsbseq	r2, sp, r1, asr r0
    88ac:	52415f5f 	subpl	r5, r1, #380	; 0x17c
    88b0:	45465f4d 	strbmi	r5, [r6, #-3917]	; 0xfffff0b3
    88b4:	52555441 	subspl	r5, r5, #1090519040	; 0x41000000
    88b8:	554e5f45 	strbpl	r5, [lr, #-3909]	; 0xfffff0bb
    88bc:	4952454d 	ldmdbmi	r2, {r0, r2, r3, r6, r8, sl, lr}^
    88c0:	414d5f43 	cmpmi	sp, r3, asr #30
    88c4:	4e494d58 	mcrmi	13, 2, r4, cr9, cr8, {2}
    88c8:	41525f00 	cmpmi	r2, r0, lsl #30
    88cc:	3834444e 	ldmdacc	r4!, {r1, r2, r3, r6, sl, lr}
    88d0:	4c554d5f 	mrrcmi	13, 5, r4, r5, cr15
    88d4:	20315f54 	eorscs	r5, r1, r4, asr pc
    88d8:	64783028 	ldrbtvs	r3, [r8], #-40	; 0xffffffd8
    88dc:	29636565 	stmdbcs	r3!, {r0, r2, r5, r6, r8, sl, sp, lr}^
    88e0:	495f5f00 	ldmdbmi	pc, {r8, r9, sl, fp, ip, lr}^	; <UNPREDICTABLE>
    88e4:	414d544e 	cmpmi	sp, lr, asr #8
    88e8:	59545f58 	ldmdbpl	r4, {r3, r4, r6, r8, r9, sl, fp, ip, lr}^
    88ec:	5f5f4550 	svcpl	0x005f4550
    88f0:	6e6f6c20 	cdpvs	12, 6, cr6, cr15, cr0, {1}
    88f4:	6f6c2067 	svcvs	0x006c2067
    88f8:	6920676e 	stmdbvs	r0!, {r1, r2, r3, r5, r6, r8, r9, sl, sp, lr}
    88fc:	5f00746e 	svcpl	0x0000746e
    8900:	4343475f 	movtmi	r4, #14175	; 0x375f
    8904:	4f54415f 	svcmi	0x0054415f
    8908:	5f43494d 	svcpl	0x0043494d
    890c:	5f544e49 	svcpl	0x00544e49
    8910:	4b434f4c 	blmi	10dc648 <_Min_Stack_Size+0x10dc248>
    8914:	4552465f 	ldrbmi	r4, [r2, #-1631]	; 0xfffff9a1
    8918:	00322045 	eorseq	r2, r2, r5, asr #32
    891c:	4e41525f 	mcrmi	2, 2, r5, cr1, cr15, {2}
    8920:	5f383444 	svcpl	0x00383444
    8924:	44454553 	strbmi	r4, [r5], #-1363	; 0xfffffaad
    8928:	2820305f 	stmdacs	r0!, {r0, r1, r2, r3, r4, r6, ip, sp}
    892c:	33337830 	teqcc	r3, #48, 16	; 0x300000
    8930:	00296530 	eoreq	r6, r9, r0, lsr r5
    8934:	4343475f 	movtmi	r4, #14175	; 0x375f
    8938:	58414d5f 	stmdapl	r1, {r0, r1, r2, r3, r4, r6, r8, sl, fp, lr}^
    893c:	494c415f 	stmdbmi	ip, {r0, r1, r2, r3, r4, r6, r8, lr}^
    8940:	545f4e47 	ldrbpl	r4, [pc], #-3655	; 8948 <_Min_Stack_Size+0x8548>
    8944:	5f5f0020 	svcpl	0x005f0020
    8948:	676e6f4c 	strbvs	r6, [lr, -ip, asr #30]!
    894c:	6e6f6c20 	cdpvs	12, 6, cr6, cr15, cr0, {1}
    8950:	5f5f0067 	svcpl	0x005f0067
    8954:	5f4d5241 	svcpl	0x004d5241
    8958:	54414546 	strbpl	r4, [r1], #-1350	; 0xfffffaba
    895c:	5f455255 	svcpl	0x00455255
    8960:	36315046 	ldrtcc	r5, [r1], -r6, asr #32
    8964:	4143535f 	cmpmi	r3, pc, asr r3
    8968:	5f52414c 	svcpl	0x0052414c
    896c:	54495241 	strbpl	r5, [r9], #-577	; 0xfffffdbf
    8970:	54454d48 	strbpl	r4, [r5], #-3400	; 0xfffff2b8
    8974:	47004349 	strmi	r4, [r0, -r9, asr #6]
    8978:	5f4f4950 	svcpl	0x004f4950
    897c:	45444f4d 	strbmi	r4, [r4, #-3917]	; 0xfffff0b3
    8980:	504e495f 	subpl	r4, lr, pc, asr r9
    8984:	465f5455 			; <UNDEFINED> instruction: 0x465f5455
    8988:	30204f4c 	eorcc	r4, r0, ip, asr #30
    898c:	30303078 	eorscc	r3, r0, r8, ror r0
    8990:	30303030 	eorscc	r3, r0, r0, lsr r0
    8994:	5f007531 	svcpl	0x00007531
    8998:	4c445453 	cfstrdmi	mvd5, [r4], {83}	; 0x53
    899c:	485f4249 	ldmdami	pc, {r0, r3, r6, r9, lr}^	; <UNPREDICTABLE>
    89a0:	5f00205f 	svcpl	0x0000205f
    89a4:	4c42445f 	cfstrdmi	mvd4, [r2], {95}	; 0x5f
    89a8:	5341485f 	movtpl	r4, #6239	; 0x185f
    89ac:	4955515f 	ldmdbmi	r5, {r0, r1, r2, r3, r4, r6, r8, ip, lr}^
    89b0:	4e5f5445 	cdpmi	4, 5, cr5, cr15, cr5, {2}
    89b4:	5f5f4e41 	svcpl	0x005f4e41
    89b8:	47003120 	strmi	r3, [r0, -r0, lsr #2]
    89bc:	5f4f4950 	svcpl	0x004f4950
    89c0:	5f4e4950 	svcpl	0x004e4950
    89c4:	28282037 	stmdacs	r8!, {r0, r1, r2, r4, r5, sp}
    89c8:	746e6975 	strbtvc	r6, [lr], #-2421	; 0xfffff68b
    89cc:	745f3631 	ldrbvc	r3, [pc], #-1585	; 89d4 <_Min_Stack_Size+0x85d4>
    89d0:	30783029 	rsbscc	r3, r8, r9, lsr #32
    89d4:	29303830 	ldmdbcs	r0!, {r4, r5, fp, ip, sp}
    89d8:	544e4900 	strbpl	r4, [lr], #-2304	; 0xfffff700
    89dc:	435f3233 	cmpmi	pc, #805306371	; 0x30000003
    89e0:	20297828 	eorcs	r7, r9, r8, lsr #16
    89e4:	4e495f5f 	mcrmi	15, 2, r5, cr9, cr15, {2}
    89e8:	5f323354 	svcpl	0x00323354
    89ec:	29782843 	ldmdbcs	r8!, {r0, r1, r6, fp, sp}^
    89f0:	705f5f00 	subsvc	r5, pc, r0, lsl #30
    89f4:	61767274 	cmnvs	r6, r4, ror r2
    89f8:	2065756c 	rsbcs	r7, r5, ip, ror #10
    89fc:	4f4e5f00 	svcmi	0x004e5f00
    8a00:	494c4e49 	stmdbmi	ip, {r0, r3, r6, r9, sl, fp, lr}^
    8a04:	535f454e 	cmppl	pc, #327155712	; 0x13800000
    8a08:	49544154 	ldmdbmi	r4, {r2, r4, r6, r8, lr}^
    8a0c:	4e5f2043 	cdpmi	0, 5, cr2, cr15, cr3, {2}
    8a10:	4c4e494f 	mcrrmi	9, 4, r4, lr, cr15	; <UNPREDICTABLE>
    8a14:	20454e49 	subcs	r4, r5, r9, asr #28
    8a18:	74617473 	strbtvc	r7, [r1], #-1139	; 0xfffffb8d
    8a1c:	5f006369 	svcpl	0x00006369
    8a20:	464c4c5f 			; <UNDEFINED> instruction: 0x464c4c5f
    8a24:	54434152 	strbpl	r4, [r3], #-338	; 0xfffffeae
    8a28:	58414d5f 	stmdapl	r1, {r0, r1, r2, r3, r4, r6, r8, sl, fp, lr}^
    8a2c:	30205f5f 	eorcc	r5, r0, pc, asr pc
    8a30:	46463758 			; <UNDEFINED> instruction: 0x46463758
    8a34:	46464646 	strbmi	r4, [r6], -r6, asr #12
    8a38:	46464646 	strbmi	r4, [r6], -r6, asr #12
    8a3c:	46464646 	strbmi	r4, [r6], -r6, asr #12
    8a40:	362d5046 	strtcc	r5, [sp], -r6, asr #32
    8a44:	524c4c33 	subpl	r4, ip, #13056	; 0x3300
    8a48:	635f5f00 	cmpvs	pc, #0, 30
    8a4c:	74736e6f 	ldrbtvc	r6, [r3], #-3695	; 0xfffff191
    8a50:	6e6f6320 	cdpvs	3, 6, cr6, cr15, cr0, {1}
    8a54:	55007473 	strpl	r7, [r0, #-1139]	; 0xfffffb8d
    8a58:	5f544e49 	svcpl	0x00544e49
    8a5c:	5341454c 	movtpl	r4, #5452	; 0x154c
    8a60:	5f323354 	svcpl	0x00323354
    8a64:	2058414d 	subscs	r4, r8, sp, asr #2
    8a68:	555f5f28 	ldrbpl	r5, [pc, #-3880]	; 7b48 <_Min_Stack_Size+0x7748>
    8a6c:	5f544e49 	svcpl	0x00544e49
    8a70:	5341454c 	movtpl	r4, #5452	; 0x154c
    8a74:	5f323354 	svcpl	0x00323354
    8a78:	5f58414d 	svcpl	0x0058414d
    8a7c:	5f00295f 	svcpl	0x0000295f
    8a80:	554e475f 	strbpl	r4, [lr, #-1887]	; 0xfffff8a1
    8a84:	52505f43 	subspl	r5, r0, #268	; 0x10c
    8a88:	51455245 	cmppl	r5, r5, asr #4
    8a8c:	6d285f5f 	stcvs	15, cr5, [r8, #-380]!	; 0xfffffe84
    8a90:	696d2c61 	stmdbvs	sp!, {r0, r5, r6, sl, fp, sp}^
    8a94:	5f5f2029 	svcpl	0x005f2029
    8a98:	43554e47 	cmpmi	r5, #1136	; 0x470
    8a9c:	4552505f 	ldrbmi	r5, [r2, #-95]	; 0xffffffa1
    8aa0:	28514552 	ldmdacs	r1, {r1, r4, r6, r8, sl, lr}^
    8aa4:	202c616d 	eorcs	r6, ip, sp, ror #2
    8aa8:	0029696d 	eoreq	r6, r9, sp, ror #18
    8aac:	5f433249 	svcpl	0x00433249
    8ab0:	5f315253 	svcpl	0x00315253
    8ab4:	52444441 	subpl	r4, r4, #1090519040	; 0x41000000
    8ab8:	6b734d5f 	blvs	1cdc03c <_Min_Stack_Size+0x1cdbc3c>
    8abc:	78302820 	ldmdavc	r0!, {r5, fp, sp}
    8ac0:	204c5531 	subcs	r5, ip, r1, lsr r5
    8ac4:	49203c3c 	stmdbmi	r0!, {r2, r3, r4, r5, sl, fp, ip, sp}
    8ac8:	535f4332 	cmppl	pc, #-939524096	; 0xc8000000
    8acc:	415f3152 	cmpmi	pc, r2, asr r1	; <UNPREDICTABLE>
    8ad0:	5f524444 	svcpl	0x00524444
    8ad4:	29736f50 	ldmdbcs	r3!, {r4, r6, r8, r9, sl, fp, sp, lr}^
    8ad8:	49504700 	ldmdbmi	r0, {r8, r9, sl, lr}^
    8adc:	69505f4f 	ldmdbvs	r0, {r0, r1, r2, r3, r6, r8, r9, sl, fp, ip, lr}^
    8ae0:	6d754e6e 	ldclvs	14, cr4, [r5, #-440]!	; 0xfffffe48
    8ae4:	00726562 	rsbseq	r6, r2, r2, ror #10
    8ae8:	4e495f5f 	mcrmi	15, 2, r5, cr9, cr15, {2}
    8aec:	52545054 	subspl	r5, r4, #84	; 0x54
    8af0:	5059545f 	subspl	r5, r9, pc, asr r4
    8af4:	205f5f45 	subscs	r5, pc, r5, asr #30
    8af8:	00746e69 	rsbseq	r6, r4, r9, ror #28
    8afc:	49545845 	ldmdbmi	r4, {r0, r2, r6, fp, ip, lr}^
    8b00:	52495f38 	subpl	r5, r9, #56, 30	; 0xe0
    8b04:	33322051 	teqcc	r2, #81	; 0x51
    8b08:	45525f00 	ldrbmi	r5, [r2, #-3840]	; 0xfffff100
    8b0c:	5f544e45 	svcpl	0x00544e45
    8b10:	41454c43 	cmpmi	r5, r3, asr #24
    8b14:	2850554e 	ldmdacs	r0, {r1, r2, r3, r6, r8, sl, ip, lr}^
    8b18:	7274705f 	rsbsvc	r7, r4, #95	; 0x5f
    8b1c:	28282029 	stmdacs	r8!, {r0, r3, r5, sp}
    8b20:	7274705f 	rsbsvc	r7, r4, #95	; 0x5f
    8b24:	5f3e2d29 	svcpl	0x003e2d29
    8b28:	656c635f 	strbvs	r6, [ip, #-863]!	; 0xfffffca1
    8b2c:	70756e61 	rsbsvc	r6, r5, r1, ror #28
    8b30:	32490029 	subcc	r0, r9, #41	; 0x29
    8b34:	52535f43 	subspl	r5, r3, #268	; 0x10c
    8b38:	564f5f31 			; <UNDEFINED> instruction: 0x564f5f31
    8b3c:	6f505f52 	svcvs	0x00505f52
    8b40:	31282073 			; <UNDEFINED> instruction: 0x31282073
    8b44:	00295531 	eoreq	r5, r9, r1, lsr r5
    8b48:	45525f5f 	ldrbmi	r5, [r2, #-3935]	; 0xfffff0a1
    8b4c:	54534947 	ldrbpl	r4, [r3], #-2375	; 0xfffff6b9
    8b50:	505f5245 	subspl	r5, pc, r5, asr #4
    8b54:	49464552 	stmdbmi	r6, {r1, r4, r6, r8, sl, lr}^
    8b58:	205f5f58 	subscs	r5, pc, r8, asr pc	; <UNPREDICTABLE>
    8b5c:	465f5f00 	ldrbmi	r5, [pc], -r0, lsl #30
    8b60:	3233544c 	eorscc	r5, r3, #76, 8	; 0x4c000000
    8b64:	58414d5f 	stmdapl	r1, {r0, r1, r2, r3, r4, r6, r8, sl, fp, lr}^
    8b68:	33205f5f 			; <UNDEFINED> instruction: 0x33205f5f
    8b6c:	3230342e 	eorscc	r3, r0, #771751936	; 0x2e000000
    8b70:	34333238 	ldrtcc	r3, [r3], #-568	; 0xfffffdc8
    8b74:	38333636 	ldmdacc	r3!, {r1, r2, r4, r5, r9, sl, ip, sp}
    8b78:	38383235 	ldmdacc	r8!, {r0, r2, r4, r5, r9, ip, sp}
    8b7c:	332b6536 			; <UNDEFINED> instruction: 0x332b6536
    8b80:	32334638 	eorscc	r4, r3, #56, 12	; 0x3800000
    8b84:	445f5f00 	ldrbmi	r5, [pc], #-3840	; 8b8c <_Min_Stack_Size+0x878c>
    8b88:	445f4c42 	ldrbmi	r4, [pc], #-3138	; 8b90 <_Min_Stack_Size+0x8790>
    8b8c:	5f5f4749 	svcpl	0x005f4749
    8b90:	00353120 	eorseq	r3, r5, r0, lsr #2
    8b94:	4c555f5f 	mrrcmi	15, 5, r5, r5, cr15	; <UNPREDICTABLE>
    8b98:	43415246 	movtmi	r5, #4678	; 0x1246
    8b9c:	50455f54 	subpl	r5, r5, r4, asr pc
    8ba0:	4f4c4953 	svcmi	0x004c4953
    8ba4:	205f5f4e 	subscs	r5, pc, lr, asr #30
    8ba8:	50317830 	eorspl	r7, r1, r0, lsr r8
    8bac:	5532332d 	ldrpl	r3, [r2, #-813]!	; 0xfffffcd3
    8bb0:	5f00524c 	svcpl	0x0000524c
    8bb4:	5343525f 	movtpl	r5, #12895	; 0x325f
    8bb8:	73284449 			; <UNDEFINED> instruction: 0x73284449
    8bbc:	74732029 	ldrbtvc	r2, [r3], #-41	; 0xffffffd7
    8bc0:	74637572 	strbtvc	r7, [r3], #-1394	; 0xfffffa8e
    8bc4:	685f5f20 	ldmdavs	pc, {r5, r8, r9, sl, fp, ip, lr}^	; <UNPREDICTABLE>
    8bc8:	006b6361 	rsbeq	r6, fp, r1, ror #6
    8bcc:	4f495047 	svcmi	0x00495047
    8bd0:	444f4d5f 	strbmi	r4, [pc], #-3423	; 8bd8 <_Min_Stack_Size+0x87d8>
    8bd4:	554f5f45 	strbpl	r5, [pc, #-3909]	; 7c97 <_Min_Stack_Size+0x7897>
    8bd8:	54555054 	ldrbpl	r5, [r5], #-84	; 0xffffffac
    8bdc:	2050505f 	subscs	r5, r0, pc, asr r0
    8be0:	30307830 	eorscc	r7, r0, r0, lsr r8
    8be4:	30303030 	eorscc	r3, r0, r0, lsr r0
    8be8:	00753430 	rsbseq	r3, r5, r0, lsr r4
    8bec:	4545525f 	strbmi	r5, [r5, #-607]	; 0xfffffda1
    8bf0:	495f544e 	ldmdbmi	pc, {r1, r2, r3, r6, sl, ip, lr}^	; <UNPREDICTABLE>
    8bf4:	5f54494e 	svcpl	0x0054494e
    8bf8:	45534552 	ldrbmi	r4, [r3, #-1362]	; 0xfffffaae
    8bfc:	44455652 	strbmi	r5, [r5], #-1618	; 0xfffff9ae
    8c00:	375f365f 			; <UNDEFINED> instruction: 0x375f365f
    8c04:	525f0020 	subspl	r0, pc, #32
    8c08:	544e4545 	strbpl	r4, [lr], #-1349	; 0xfffffabb
    8c0c:	34364c5f 	ldrtcc	r4, [r6], #-3167	; 0xfffff3a1
    8c10:	55425f41 	strbpl	r5, [r2, #-3905]	; 0xfffff0bf
    8c14:	74702846 	ldrbtvc	r2, [r0], #-2118	; 0xfffff7ba
    8c18:	28202972 	stmdacs	r0!, {r1, r4, r5, r6, r8, fp, sp}
    8c1c:	72747028 	rsbsvc	r7, r4, #40	; 0x28
    8c20:	5f3e2d29 	svcpl	0x003e2d29
    8c24:	6373696d 	cmnvs	r3, #1785856	; 0x1b4000
    8c28:	6c5f3e2d 	mrrcvs	14, 2, r3, pc, cr13	; <UNPREDICTABLE>
    8c2c:	5f613436 	svcpl	0x00613436
    8c30:	29667562 	stmdbcs	r6!, {r1, r5, r6, r8, sl, ip, sp, lr}^
    8c34:	535f5f00 	cmppl	pc, #0, 30
    8c38:	4f455a49 	svcmi	0x00455a49
    8c3c:	49535f46 	ldmdbmi	r3, {r1, r2, r6, r8, r9, sl, fp, ip, lr}^
    8c40:	545f455a 	ldrbpl	r4, [pc], #-1370	; 8c48 <_Min_Stack_Size+0x8848>
    8c44:	34205f5f 	strtcc	r5, [r0], #-3935	; 0xfffff0a1
    8c48:	54584500 	ldrbpl	r4, [r8], #-1280	; 0xfffffb00
    8c4c:	50303149 	eorspl	r3, r0, r9, asr #2
    8c50:	20303142 	eorscs	r3, r0, r2, asr #2
    8c54:	54584528 	ldrbpl	r4, [r8], #-1320	; 0xfffffad8
    8c58:	50475f49 	subpl	r5, r7, r9, asr #30
    8c5c:	4d5f4f49 	ldclmi	15, cr4, [pc, #-292]	; 8b40 <_Min_Stack_Size+0x8740>
    8c60:	69707061 	ldmdbvs	r0!, {r0, r5, r6, ip, sp, lr}^
    8c64:	745f676e 	ldrbvc	r6, [pc], #-1902	; 8c6c <_Min_Stack_Size+0x886c>
    8c68:	58457b29 	stmdapl	r5, {r0, r3, r5, r8, r9, fp, ip, sp, lr}^
    8c6c:	30314954 	eorscc	r4, r1, r4, asr r9
    8c70:	5047202c 	subpl	r2, r7, ip, lsr #32
    8c74:	20424f49 	subcs	r4, r2, r9, asr #30
    8c78:	5047202c 	subpl	r2, r7, ip, lsr #32
    8c7c:	505f4f49 	subspl	r4, pc, r9, asr #30
    8c80:	315f4e49 	cmpcc	pc, r9, asr #28
    8c84:	452c2030 	strmi	r2, [ip, #-48]!	; 0xffffffd0
    8c88:	31495458 	cmpcc	r9, r8, asr r4
    8c8c:	52495f30 	subpl	r5, r9, #48, 30	; 0xc0
    8c90:	007d2051 	rsbseq	r2, sp, r1, asr r0
    8c94:	49555f5f 	ldmdbmi	r5, {r0, r1, r2, r3, r4, r6, r8, r9, sl, fp, ip, lr}^
    8c98:	3436544e 	ldrtcc	r5, [r6], #-1102	; 0xfffffbb2
    8c9c:	5059545f 	subspl	r5, r9, pc, asr r4
    8ca0:	205f5f45 	subscs	r5, pc, r5, asr #30
    8ca4:	676e6f6c 	strbvs	r6, [lr, -ip, ror #30]!
    8ca8:	6e6f6c20 	cdpvs	12, 6, cr6, cr15, cr0, {1}
    8cac:	6e752067 	cdpvs	0, 7, cr2, cr5, cr7, {3}
    8cb0:	6e676973 			; <UNDEFINED> instruction: 0x6e676973
    8cb4:	69206465 	stmdbvs	r0!, {r0, r2, r5, r6, sl, sp, lr}
    8cb8:	5f00746e 	svcpl	0x0000746e
    8cbc:	544e495f 	strbpl	r4, [lr], #-2399	; 0xfffff6a1
    8cc0:	435f3436 	cmpmi	pc, #905969664	; 0x36000000
    8cc4:	20296328 	eorcs	r6, r9, r8, lsr #6
    8cc8:	23232063 			; <UNDEFINED> instruction: 0x23232063
    8ccc:	004c4c20 	subeq	r4, ip, r0, lsr #24
    8cd0:	4e475f5f 	mcrmi	15, 2, r5, cr7, cr15, {2}
    8cd4:	494c4355 	stmdbmi	ip, {r0, r2, r4, r6, r8, r9, lr}^
    8cd8:	435f454b 	cmpmi	pc, #314572800	; 0x12c00000
    8cdc:	5f524f54 	svcpl	0x00524f54
    8ce0:	54434553 	strbpl	r4, [r3], #-1363	; 0xfffffaad
    8ce4:	5f4e4f49 	svcpl	0x004e4f49
    8ce8:	444e4148 	strbmi	r4, [lr], #-328	; 0xfffffeb8
    8cec:	474e494c 	strbmi	r4, [lr, -ip, asr #18]
    8cf0:	5f003120 	svcpl	0x00003120
    8cf4:	636f6c5f 	cmnvs	pc, #24320	; 0x5f00
    8cf8:	6c62616b 	stfvse	f6, [r2], #-428	; 0xfffffe54
    8cfc:	5f5f2065 	svcpl	0x005f2065
    8d00:	6b636f6c 	blvs	18e4ab8 <_Min_Stack_Size+0x18e46b8>
    8d04:	6e6e615f 	mcrvs	1, 3, r6, cr14, cr15, {2}
    8d08:	7461746f 	strbtvc	r7, [r1], #-1135	; 0xfffffb91
    8d0c:	6f6c2865 	svcvs	0x006c2865
    8d10:	62616b63 	rsbvs	r6, r1, #101376	; 0x18c00
    8d14:	0029656c 	eoreq	r6, r9, ip, ror #10
    8d18:	4f495047 	svcmi	0x00495047
    8d1c:	4e49505f 	mcrmi	0, 2, r5, cr9, cr15, {2}
    8d20:	2034315f 	eorscs	r3, r4, pc, asr r1
    8d24:	69752828 	ldmdbvs	r5!, {r3, r5, fp, sp}^
    8d28:	3631746e 	ldrtcc	r7, [r1], -lr, ror #8
    8d2c:	3029745f 	eorcc	r7, r9, pc, asr r4
    8d30:	30303478 	eorscc	r3, r0, r8, ror r4
    8d34:	5f002930 	svcpl	0x00002930
    8d38:	444e455f 	strbmi	r4, [lr], #-1375	; 0xfffffaa1
    8d3c:	4345445f 	movtmi	r4, #21599	; 0x545f
    8d40:	0020534c 	eoreq	r5, r0, ip, asr #6
    8d44:	5f434352 	svcpl	0x00434352
    8d48:	45534142 	ldrbmi	r4, [r3, #-322]	; 0xfffffebe
    8d4c:	65502820 	ldrbvs	r2, [r0, #-2080]	; 0xfffff7e0
    8d50:	68706972 	ldmdavs	r0!, {r1, r4, r5, r6, r8, fp, sp, lr}^
    8d54:	6c617265 	sfmvs	f7, 2, [r1], #-404	; 0xfffffe6c
    8d58:	41425f73 	hvcmi	9715	; 0x25f3
    8d5c:	2b204553 	blcs	81a2b0 <_Min_Stack_Size+0x819eb0>
    8d60:	30783020 	rsbscc	r3, r8, r0, lsr #32
    8d64:	31323030 	teqcc	r2, r0, lsr r0
    8d68:	55303030 	ldrpl	r3, [r0, #-48]!	; 0xffffffd0
    8d6c:	4900294c 	stmdbmi	r0, {r2, r3, r6, r8, fp, sp}
    8d70:	535f4332 	cmppl	pc, #-939524096	; 0xc8000000
    8d74:	535f3152 	cmppl	pc, #-2147483628	; 0x80000014
    8d78:	4c41424d 	sfmmi	f4, 2, [r1], {77}	; 0x4d
    8d7c:	20545245 	subscs	r5, r4, r5, asr #4
    8d80:	5f433249 	svcpl	0x00433249
    8d84:	5f315253 	svcpl	0x00315253
    8d88:	41424d53 	cmpmi	r2, r3, asr sp
    8d8c:	5452454c 	ldrbpl	r4, [r2], #-1356	; 0xfffffab4
    8d90:	6b734d5f 	blvs	1cdc314 <_Min_Stack_Size+0x1cdbf14>
    8d94:	4c5f5f00 	mrrcmi	15, 0, r5, pc, cr0	; <UNPREDICTABLE>
    8d98:	5f4c4244 	svcpl	0x004c4244
    8d9c:	5f4e494d 	svcpl	0x004e494d
    8da0:	2e32205f 	mrccs	0, 1, r2, cr2, cr15, {2}
    8da4:	30353232 	eorscc	r3, r5, r2, lsr r2
    8da8:	35383337 	ldrcc	r3, [r8, #-823]!	; 0xfffffcc9
    8dac:	37303538 			; <UNDEFINED> instruction: 0x37303538
    8db0:	34313032 	ldrtcc	r3, [r1], #-50	; 0xffffffce
    8db4:	30332d65 	eorscc	r2, r3, r5, ror #26
    8db8:	5f004c38 	svcpl	0x00004c38
    8dbc:	4d52415f 	ldfmie	f4, [r2, #-380]	; 0xfffffe84
    8dc0:	4145465f 	cmpmi	r5, pc, asr r6
    8dc4:	45525554 	ldrbmi	r5, [r2, #-1364]	; 0xfffffaac
    8dc8:	4544435f 	strbmi	r4, [r4, #-863]	; 0xfffffca1
    8dcc:	415f5f00 	cmpmi	pc, r0, lsl #30
    8dd0:	4d554343 	ldclmi	3, cr4, [r5, #-268]	; 0xfffffef4
    8dd4:	4942495f 	stmdbmi	r2, {r0, r1, r2, r3, r4, r6, r8, fp, lr}^
    8dd8:	205f5f54 	subscs	r5, pc, r4, asr pc	; <UNPREDICTABLE>
    8ddc:	49003631 	stmdbmi	r0, {r0, r4, r5, r9, sl, ip, sp}
    8de0:	535f4332 	cmppl	pc, #-939524096	; 0xc8000000
    8de4:	415f3152 	cmpmi	pc, r2, asr r1	; <UNPREDICTABLE>
    8de8:	5f524444 	svcpl	0x00524444
    8dec:	20736f50 	rsbscs	r6, r3, r0, asr pc
    8df0:	29553128 	ldmdbcs	r5, {r3, r5, r8, ip, sp}^
    8df4:	736e7500 	cmnvc	lr, #0, 10
    8df8:	656e6769 	strbvs	r6, [lr, #-1897]!	; 0xfffff897
    8dfc:	5f5f0064 	svcpl	0x005f0064
    8e00:	5341454c 	movtpl	r4, #5452	; 0x154c
    8e04:	22203854 	eorcs	r3, r0, #84, 16	; 0x540000
    8e08:	00226868 	eoreq	r6, r2, r8, ror #16
    8e0c:	32433249 	subcc	r3, r3, #-1879048188	; 0x90000004
    8e10:	5f52455f 	svcpl	0x0052455f
    8e14:	20515249 	subscs	r5, r1, r9, asr #4
    8e18:	5f003433 	svcpl	0x00003433
    8e1c:	5f74705f 	svcpl	0x0074705f
    8e20:	72617567 	rsbvc	r7, r1, #432013312	; 0x19c00000
    8e24:	5f646564 	svcpl	0x00646564
    8e28:	78287962 	stmdavc	r8!, {r1, r5, r6, r8, fp, ip, sp, lr}
    8e2c:	5f5f2029 	svcpl	0x005f2029
    8e30:	6b636f6c 	blvs	18e4be8 <_Min_Stack_Size+0x18e47e8>
    8e34:	6e6e615f 	mcrvs	1, 3, r6, cr14, cr15, {2}
    8e38:	7461746f 	strbtvc	r7, [r1], #-1135	; 0xfffffb91
    8e3c:	74702865 	ldrbtvc	r2, [r0], #-2149	; 0xfffff79b
    8e40:	6175675f 	cmnvs	r5, pc, asr r7
    8e44:	64656472 	strbtvs	r6, [r5], #-1138	; 0xfffffb8e
    8e48:	2879625f 	ldmdacs	r9!, {r0, r1, r2, r3, r4, r6, r9, sp, lr}^
    8e4c:	00292978 	eoreq	r2, r9, r8, ror r9
    8e50:	75675f5f 	strbvc	r5, [r7, #-3935]!	; 0xfffff0a1
    8e54:	65647261 	strbvs	r7, [r4, #-609]!	; 0xfffffd9f
    8e58:	79625f64 	stmdbvc	r2!, {r2, r5, r6, r8, r9, sl, fp, ip, lr}^
    8e5c:	20297828 	eorcs	r7, r9, r8, lsr #16
    8e60:	6f6c5f5f 	svcvs	0x006c5f5f
    8e64:	615f6b63 	cmpvs	pc, r3, ror #22
    8e68:	746f6e6e 	strbtvc	r6, [pc], #-3694	; 8e70 <_Min_Stack_Size+0x8a70>
    8e6c:	28657461 	stmdacs	r5!, {r0, r5, r6, sl, ip, sp, lr}^
    8e70:	72617567 	rsbvc	r7, r1, #432013312	; 0x19c00000
    8e74:	5f646564 	svcpl	0x00646564
    8e78:	78287962 	stmdavc	r8!, {r1, r5, r6, r8, fp, ip, sp, lr}
    8e7c:	45002929 	strmi	r2, [r0, #-2345]	; 0xfffff6d7
    8e80:	31495458 	cmpcc	r9, r8, asr r4
    8e84:	52495f32 	subpl	r5, r9, #50, 30	; 0xc8
    8e88:	30342051 	eorscc	r2, r4, r1, asr r0
    8e8c:	555f5f00 	ldrbpl	r5, [pc, #-3840]	; 7f94 <_Min_Stack_Size+0x7b94>
    8e90:	31544e49 	cmpcc	r4, r9, asr #28
    8e94:	28435f36 	stmdacs	r3, {r1, r2, r4, r5, r8, r9, sl, fp, ip, lr}^
    8e98:	63202963 			; <UNDEFINED> instruction: 0x63202963
    8e9c:	465f5f00 	ldrbmi	r5, [pc], -r0, lsl #30
    8ea0:	3436544c 	ldrtcc	r5, [r6], #-1100	; 0xfffffbb4
    8ea4:	4e494d5f 	mcrmi	13, 2, r4, cr9, cr15, {2}
    8ea8:	5058455f 	subspl	r4, r8, pc, asr r5
    8eac:	28205f5f 	stmdacs	r0!, {r0, r1, r2, r3, r4, r6, r8, r9, sl, fp, ip, lr}
    8eb0:	3230312d 	eorscc	r3, r0, #1073741835	; 0x4000000b
    8eb4:	5f002931 	svcpl	0x00002931
    8eb8:	6d79735f 	ldclvs	3, cr7, [r9, #-380]!	; 0xfffffe84
    8ebc:	6d6f635f 	stclvs	3, cr6, [pc, #-380]!	; 8d48 <_Min_Stack_Size+0x8948>
    8ec0:	28746170 	ldmdacs	r4!, {r4, r5, r6, r8, sp, lr}^
    8ec4:	2c6d7973 			; <UNDEFINED> instruction: 0x2c6d7973
    8ec8:	6c706d69 	ldclvs	13, cr6, [r0], #-420	; 0xfffffe5c
    8ecc:	7265762c 	rsbvc	r7, r5, #44, 12	; 0x2c00000
    8ed0:	20296469 	eorcs	r6, r9, r9, ror #8
    8ed4:	73615f5f 	cmnvc	r1, #380	; 0x17c
    8ed8:	285f5f6d 	ldmdacs	pc, {r0, r2, r3, r5, r6, r8, r9, sl, fp, ip, lr}^	; <UNPREDICTABLE>
    8edc:	79732e22 	ldmdbvc	r3!, {r1, r5, r9, sl, fp, sp}^
    8ee0:	7265766d 	rsbvc	r7, r5, #114294784	; 0x6d00000
    8ee4:	23202220 			; <UNDEFINED> instruction: 0x23202220
    8ee8:	6c706d69 	ldclvs	13, cr6, [r0], #-420	; 0xfffffe5c
    8eec:	202c2220 	eorcs	r2, ip, r0, lsr #4
    8ef0:	73232022 			; <UNDEFINED> instruction: 0x73232022
    8ef4:	22206d79 	eorcs	r6, r0, #7744	; 0x1e40
    8ef8:	23202240 			; <UNDEFINED> instruction: 0x23202240
    8efc:	69726576 	ldmdbvs	r2!, {r1, r2, r4, r5, r6, r8, sl, sp, lr}^
    8f00:	5f002964 	svcpl	0x00002964
    8f04:	5f43435f 	svcpl	0x0043435f
    8f08:	50505553 	subspl	r5, r0, r3, asr r5
    8f0c:	5354524f 	cmppl	r4, #-268435452	; 0xf0000004
    8f10:	495f5f5f 	ldmdbmi	pc, {r0, r1, r2, r3, r4, r6, r8, r9, sl, fp, ip, lr}^	; <UNPREDICTABLE>
    8f14:	4e494c4e 	cdpmi	12, 4, cr4, cr9, cr14, {2}
    8f18:	205f5f45 	subscs	r5, pc, r5, asr #30
    8f1c:	5f5f0031 	svcpl	0x005f0031
    8f20:	5f414455 	svcpl	0x00414455
    8f24:	54494249 	strbpl	r4, [r9], #-585	; 0xfffffdb7
    8f28:	33205f5f 			; <UNDEFINED> instruction: 0x33205f5f
    8f2c:	5f5f0032 	svcpl	0x005f0032
    8f30:	5341454c 	movtpl	r4, #5452	; 0x154c
    8f34:	20363154 	eorscs	r3, r6, r4, asr r1
    8f38:	00226822 	eoreq	r6, r2, r2, lsr #16
    8f3c:	72705f5f 	rsbsvc	r5, r0, #380	; 0x17c
    8f40:	66746e69 	ldrbtvs	r6, [r4], -r9, ror #28
    8f44:	656b696c 	strbvs	r6, [fp, #-2412]!	; 0xfffff694
    8f48:	746d6628 	strbtvc	r6, [sp], #-1576	; 0xfffff9d8
    8f4c:	2c677261 	sfmcs	f7, 2, [r7], #-388	; 0xfffffe7c
    8f50:	73726966 	cmnvc	r2, #1671168	; 0x198000
    8f54:	72617674 	rsbvc	r7, r1, #116, 12	; 0x7400000
    8f58:	29677261 	stmdbcs	r7!, {r0, r5, r6, r9, ip, sp, lr}^
    8f5c:	615f5f20 	cmpvs	pc, r0, lsr #30
    8f60:	69727474 	ldmdbvs	r2!, {r2, r4, r5, r6, sl, ip, sp, lr}^
    8f64:	65747562 	ldrbvs	r7, [r4, #-1378]!	; 0xfffffa9e
    8f68:	28285f5f 	stmdacs	r8!, {r0, r1, r2, r3, r4, r6, r8, r9, sl, fp, ip, lr}
    8f6c:	6f665f5f 	svcvs	0x00665f5f
    8f70:	74616d72 	strbtvc	r6, [r1], #-3442	; 0xfffff28e
    8f74:	28205f5f 	stmdacs	r0!, {r0, r1, r2, r3, r4, r6, r8, r9, sl, fp, ip, lr}
    8f78:	72705f5f 	rsbsvc	r5, r0, #380	; 0x17c
    8f7c:	66746e69 	ldrbtvs	r6, [r4], -r9, ror #28
    8f80:	202c5f5f 	eorcs	r5, ip, pc, asr pc
    8f84:	61746d66 	cmnvs	r4, r6, ror #26
    8f88:	202c6772 	eorcs	r6, ip, r2, ror r7
    8f8c:	73726966 	cmnvc	r2, #1671168	; 0x198000
    8f90:	72617674 	rsbvc	r7, r1, #116, 12	; 0x7400000
    8f94:	29677261 	stmdbcs	r7!, {r0, r5, r6, r9, ip, sp, lr}^
    8f98:	5f002929 	svcpl	0x00002929
    8f9c:	5f4f4e5f 	svcpl	0x004f4e5f
    8fa0:	494c4e49 	stmdbmi	ip, {r0, r3, r6, r9, sl, fp, lr}^
    8fa4:	5f5f454e 	svcpl	0x005f454e
    8fa8:	5f003120 	svcpl	0x00003120
    8fac:	7361665f 	cmnvc	r1, #99614720	; 0x5f00000
    8fb0:	6c616374 	stclvs	3, cr6, [r1], #-464	; 0xfffffe30
    8fb4:	5f5f206c 	svcpl	0x005f206c
    8fb8:	72747461 	rsbsvc	r7, r4, #1627389952	; 0x61000000
    8fbc:	74756269 	ldrbtvc	r6, [r5], #-617	; 0xfffffd97
    8fc0:	285f5f65 	ldmdacs	pc, {r0, r2, r5, r6, r8, r9, sl, fp, ip, lr}^	; <UNPREDICTABLE>
    8fc4:	665f5f28 	ldrbvs	r5, [pc], -r8, lsr #30
    8fc8:	63747361 	cmnvs	r4, #-2080374783	; 0x84000001
    8fcc:	5f6c6c61 	svcpl	0x006c6c61
    8fd0:	0029295f 	eoreq	r2, r9, pc, asr r9
    8fd4:	5f433249 	svcpl	0x00433249
    8fd8:	5f325253 	svcpl	0x00325253
    8fdc:	48424d53 	stmdami	r2, {r0, r1, r4, r6, r8, sl, fp, lr}^
    8fe0:	5f54534f 	svcpl	0x0054534f
    8fe4:	20736f50 	rsbscs	r6, r3, r0, asr pc
    8fe8:	29553628 	ldmdbcs	r5, {r3, r5, r9, sl, ip, sp}^
    8fec:	544e4900 	strbpl	r4, [lr], #-2304	; 0xfffff700
    8ff0:	4d5f3436 	cfldrdmi	mvd3, [pc, #-216]	; 8f20 <_Min_Stack_Size+0x8b20>
    8ff4:	28204e49 	stmdacs	r0!, {r0, r3, r6, r9, sl, fp, lr}
    8ff8:	495f5f2d 	ldmdbmi	pc, {r0, r2, r3, r5, r8, r9, sl, fp, ip, lr}^	; <UNPREDICTABLE>
    8ffc:	3436544e 	ldrtcc	r5, [r6], #-1102	; 0xfffffbb2
    9000:	58414d5f 	stmdapl	r1, {r0, r1, r2, r3, r4, r6, r8, sl, fp, lr}^
    9004:	2d205f5f 	stccs	15, cr5, [r0, #-380]!	; 0xfffffe84
    9008:	00293120 	eoreq	r3, r9, r0, lsr #2
    900c:	6f6c5f5f 	svcvs	0x006c5f5f
    9010:	615f6b63 	cmpvs	pc, r3, ror #22
    9014:	746f6e6e 	strbtvc	r6, [pc], #-3694	; 901c <_Min_Stack_Size+0x8c1c>
    9018:	28657461 	stmdacs	r5!, {r0, r5, r6, sl, ip, sp, lr}^
    901c:	00202978 	eoreq	r2, r0, r8, ror r9
    9020:	54494c5f 	strbpl	r4, [r9], #-3167	; 0xfffff3a1
    9024:	58455f45 	stmdapl	r5, {r0, r2, r6, r8, r9, sl, fp, ip, lr}^
    9028:	31205449 			; <UNDEFINED> instruction: 0x31205449
    902c:	43324900 	teqmi	r2, #0, 18
    9030:	3152535f 	cmpcc	r2, pc, asr r3
    9034:	5f42535f 	svcpl	0x0042535f
    9038:	20736f50 	rsbscs	r6, r3, r0, asr pc
    903c:	29553028 	ldmdbcs	r5, {r3, r5, ip, sp}^
    9040:	415f5f00 	cmpmi	pc, r0, lsl #30
    9044:	494d4f54 	stmdbmi	sp, {r2, r4, r6, r8, r9, sl, fp, lr}^
    9048:	45525f43 	ldrbmi	r5, [r2, #-3907]	; 0xfffff0bd
    904c:	4558414c 	ldrbmi	r4, [r8, #-332]	; 0xfffffeb4
    9050:	00302044 	eorseq	r2, r0, r4, asr #32
    9054:	5454415f 	ldrbpl	r4, [r4], #-351	; 0xfffffea1
    9058:	55424952 	strbpl	r4, [r2, #-2386]	; 0xfffff6ae
    905c:	61284554 			; <UNDEFINED> instruction: 0x61284554
    9060:	73727474 	cmnvc	r2, #116, 8	; 0x74000000
    9064:	5f5f2029 	svcpl	0x005f2029
    9068:	72747461 	rsbsvc	r7, r4, #1627389952	; 0x61000000
    906c:	74756269 	ldrbtvc	r6, [r5], #-617	; 0xfffffd97
    9070:	205f5f65 	subscs	r5, pc, r5, ror #30
    9074:	74746128 	ldrbtvc	r6, [r4], #-296	; 0xfffffed8
    9078:	00297372 	eoreq	r7, r9, r2, ror r3
    907c:	52415f5f 	subpl	r5, r1, #380	; 0x17c
    9080:	45465f4d 	strbmi	r5, [r6, #-3917]	; 0xfffff0b3
    9084:	52555441 	subspl	r5, r5, #1090519040	; 0x41000000
    9088:	4f435f45 	svcmi	0x00435f45
    908c:	434f5250 	movtmi	r5, #62032	; 0xf250
    9090:	465f5f00 	ldrbmi	r5, [pc], -r0, lsl #30
    9094:	38545341 	ldmdacc	r4, {r0, r6, r8, r9, ip, lr}^
    9098:	46410020 	strbmi	r0, [r1], -r0, lsr #32
    909c:	545f4f49 	ldrbpl	r4, [pc], #-3913	; 90a4 <_Min_Stack_Size+0x8ca4>
    90a0:	44657079 	strbtmi	r7, [r5], #-121	; 0xffffff87
    90a4:	5f006665 	svcpl	0x00006665
    90a8:	4c42445f 	cfstrdmi	mvd4, [r2], {95}	; 0x5f
    90ac:	5341485f 	movtpl	r4, #6239	; 0x185f
    90b0:	464e495f 			; <UNDEFINED> instruction: 0x464e495f
    90b4:	54494e49 	strbpl	r4, [r9], #-3657	; 0xfffff1b7
    90b8:	205f5f59 	subscs	r5, pc, r9, asr pc	; <UNPREDICTABLE>
    90bc:	5f5f0031 	svcpl	0x005f0031
    90c0:	5f474953 	svcpl	0x00474953
    90c4:	4d4f5441 	cfstrdmi	mvd5, [pc, #-260]	; 8fc8 <_Min_Stack_Size+0x8bc8>
    90c8:	4d5f4349 	ldclmi	3, cr4, [pc, #-292]	; 8fac <_Min_Stack_Size+0x8bac>
    90cc:	5f5f5841 	svcpl	0x005f5841
    90d0:	37783020 	ldrbcc	r3, [r8, -r0, lsr #32]!
    90d4:	66666666 	strbtvs	r6, [r6], -r6, ror #12
    90d8:	00666666 	rsbeq	r6, r6, r6, ror #12
    90dc:	4e41525f 	mcrmi	2, 2, r5, cr1, cr15, {2}
    90e0:	5f383444 	svcpl	0x00383444
    90e4:	544c554d 	strbpl	r5, [ip], #-1357	; 0xfffffab3
    90e8:	2820305f 	stmdacs	r0!, {r0, r1, r2, r3, r4, r6, ip, sp}
    90ec:	36657830 			; <UNDEFINED> instruction: 0x36657830
    90f0:	00296436 	eoreq	r6, r9, r6, lsr r4
    90f4:	5f433249 	svcpl	0x00433249
    90f8:	5f315253 	svcpl	0x00315253
    90fc:	45434550 	strbmi	r4, [r3, #-1360]	; 0xfffffab0
    9100:	4d5f5252 	lfmmi	f5, 2, [pc, #-328]	; 8fc0 <_Min_Stack_Size+0x8bc0>
    9104:	28206b73 	stmdacs	r0!, {r0, r1, r4, r5, r6, r8, r9, fp, sp, lr}
    9108:	55317830 	ldrpl	r7, [r1, #-2096]!	; 0xfffff7d0
    910c:	3c3c204c 	ldccc	0, cr2, [ip], #-304	; 0xfffffed0
    9110:	43324920 	teqmi	r2, #32, 18	; 0x80000
    9114:	3152535f 	cmpcc	r2, pc, asr r3
    9118:	4345505f 	movtmi	r5, #20575	; 0x505f
    911c:	5f525245 	svcpl	0x00525245
    9120:	29736f50 	ldmdbcs	r3!, {r4, r6, r8, r9, sl, fp, sp, lr}^
    9124:	45525f00 	ldrbmi	r5, [r2, #-3840]	; 0xfffff100
    9128:	5f544e45 	svcpl	0x00544e45
    912c:	43454843 	movtmi	r4, #22595	; 0x5843
    9130:	41525f4b 	cmpmi	r2, fp, asr #30
    9134:	3834444e 	ldmdacc	r4!, {r1, r2, r3, r6, sl, lr}
    9138:	72617628 	rsbvc	r7, r1, #40, 12	; 0x2800000
    913c:	525f2029 	subspl	r2, pc, #41	; 0x29
    9140:	544e4545 	strbpl	r4, [lr], #-1349	; 0xfffffabb
    9144:	4548435f 	strbmi	r4, [r8, #-863]	; 0xfffffca1
    9148:	76284b43 	strtvc	r4, [r8], -r3, asr #22
    914c:	202c7261 	eorcs	r7, ip, r1, ror #4
    9150:	3834725f 	ldmdacc	r4!, {r0, r1, r2, r3, r4, r6, r9, ip, sp, lr}
    9154:	7473202c 	ldrbtvc	r2, [r3], #-44	; 0xffffffd4
    9158:	74637572 	strbtvc	r7, [r3], #-1394	; 0xfffffa8e
    915c:	61725f20 	cmnvs	r2, r0, lsr #30
    9160:	3834646e 	ldmdacc	r4!, {r1, r2, r3, r5, r6, sl, sp, lr}
    9164:	202c2a20 	eorcs	r2, ip, r0, lsr #20
    9168:	657a6973 	ldrbvs	r6, [sl, #-2419]!	; 0xfffff68d
    916c:	2a20666f 	bcs	822b30 <_Min_Stack_Size+0x822730>
    9170:	61762828 	cmnvs	r6, r8, lsr #16
    9174:	3e2d2972 			; <UNDEFINED> instruction: 0x3e2d2972
    9178:	3834725f 	ldmdacc	r4!, {r0, r1, r2, r3, r4, r6, r9, ip, sp, lr}
    917c:	5f202c29 	svcpl	0x00202c29
    9180:	4e454552 	mcrmi	5, 2, r4, cr5, cr2, {2}
    9184:	4e495f54 	mcrmi	15, 2, r5, cr9, cr4, {2}
    9188:	525f5449 	subspl	r5, pc, #1224736768	; 0x49000000
    918c:	34444e41 	strbcc	r4, [r4], #-3649	; 0xfffff1bf
    9190:	76282838 			; <UNDEFINED> instruction: 0x76282838
    9194:	29297261 	stmdbcs	r9!, {r0, r5, r6, r9, ip, sp, lr}
    9198:	525f0029 	subspl	r0, pc, #41	; 0x29
    919c:	52415445 	subpl	r5, r1, #1157627904	; 0x45000000
    91a0:	41544547 	cmpmi	r4, r7, asr #10
    91a4:	5f454c42 	svcpl	0x00454c42
    91a8:	4b434f4c 	blmi	10dcee0 <_Min_Stack_Size+0x10dcae0>
    91ac:	20474e49 	subcs	r4, r7, r9, asr #28
    91b0:	58450031 	stmdapl	r5, {r0, r4, r5}^
    91b4:	5f334954 	svcpl	0x00334954
    91b8:	48515249 	ldmdami	r1, {r0, r3, r6, r9, ip, lr}^
    91bc:	6c646e61 	stclvs	14, cr6, [r4], #-388	; 0xfffffe7c
    91c0:	45007265 	strmi	r7, [r0, #-613]	; 0xfffffd9b
    91c4:	37495458 	smlsldcc	r5, r9, r8, r4
    91c8:	5152495f 	cmppl	r2, pc, asr r9
    91cc:	00333220 	eorseq	r3, r3, r0, lsr #4
    91d0:	61725f5f 	cmnvs	r2, pc, asr pc
    91d4:	6f65676e 	svcvs	0x0065676e
    91d8:	79742866 	ldmdbvc	r4!, {r1, r2, r5, r6, fp, sp}^
    91dc:	732c6570 			; <UNDEFINED> instruction: 0x732c6570
    91e0:	74726174 	ldrbtvc	r6, [r2], #-372	; 0xfffffe8c
    91e4:	646e652c 	strbtvs	r6, [lr], #-1324	; 0xfffffad4
    91e8:	5f282029 	svcpl	0x00282029
    91ec:	66666f5f 	uqsaxvs	r6, r6, pc	; <UNPREDICTABLE>
    91f0:	6f746573 	svcvs	0x00746573
    91f4:	79742866 	ldmdbvc	r4!, {r1, r2, r5, r6, fp, sp}^
    91f8:	202c6570 	eorcs	r6, ip, r0, ror r5
    91fc:	29646e65 	stmdbcs	r4!, {r0, r2, r5, r6, r9, sl, fp, sp, lr}^
    9200:	5f202d20 	svcpl	0x00202d20
    9204:	66666f5f 	uqsaxvs	r6, r6, pc	; <UNPREDICTABLE>
    9208:	6f746573 	svcvs	0x00746573
    920c:	79742866 	ldmdbvc	r4!, {r1, r2, r5, r6, fp, sp}^
    9210:	202c6570 	eorcs	r6, ip, r0, ror r5
    9214:	72617473 	rsbvc	r7, r1, #1929379840	; 0x73000000
    9218:	00292974 	eoreq	r2, r9, r4, ror r9
    921c:	49545845 	ldmdbmi	r4, {r0, r2, r6, fp, ip, lr}^
    9220:	31445031 	cmpcc	r4, r1, lsr r0
    9224:	58452820 	stmdapl	r5, {r5, fp, sp}^
    9228:	475f4954 			; <UNDEFINED> instruction: 0x475f4954
    922c:	5f4f4950 	svcpl	0x004f4950
    9230:	7070614d 	rsbsvc	r6, r0, sp, asr #2
    9234:	5f676e69 	svcpl	0x00676e69
    9238:	457b2974 	ldrbmi	r2, [fp, #-2420]!	; 0xfffff68c
    923c:	31495458 	cmpcc	r9, r8, asr r4
    9240:	47202c20 	strmi	r2, [r0, -r0, lsr #24]!
    9244:	444f4950 	strbmi	r4, [pc], #-2384	; 924c <_Min_Stack_Size+0x8e4c>
    9248:	47202c20 	strmi	r2, [r0, -r0, lsr #24]!
    924c:	5f4f4950 	svcpl	0x004f4950
    9250:	5f4e4950 	svcpl	0x004e4950
    9254:	202c2031 	eorcs	r2, ip, r1, lsr r0
    9258:	49545845 	ldmdbmi	r4, {r0, r2, r6, fp, ip, lr}^
    925c:	52495f31 	subpl	r5, r9, #49, 30	; 0xc4
    9260:	5f007d51 	svcpl	0x00007d51
    9264:	4c4c554e 	cfstr64mi	mvdx5, [ip], {78}	; 0x4e
    9268:	5f003020 	svcpl	0x00003020
    926c:	4553555f 	ldrbmi	r5, [r3, #-1375]	; 0xfffffaa1
    9270:	4e495f53 	mcrmi	15, 2, r5, cr9, cr3, {2}
    9274:	49465449 	stmdbmi	r6, {r0, r3, r6, sl, ip, lr}^
    9278:	5f5f494e 	svcpl	0x005f494e
    927c:	55003120 	strpl	r3, [r0, #-288]	; 0xfffffee0
    9280:	38544e49 	ldmdacc	r4, {r0, r3, r6, r9, sl, fp, lr}^
    9284:	7828435f 	stmdavc	r8!, {r0, r1, r2, r3, r4, r6, r8, r9, lr}
    9288:	5f5f2029 	svcpl	0x005f2029
    928c:	544e4955 	strbpl	r4, [lr], #-2389	; 0xfffff6ab
    9290:	28435f38 	stmdacs	r3, {r3, r4, r5, r8, r9, sl, fp, ip, lr}^
    9294:	49002978 	stmdbmi	r0, {r3, r4, r5, r6, r8, fp, sp}
    9298:	535f4332 	cmppl	pc, #-939524096	; 0xc8000000
    929c:	525f3152 	subspl	r3, pc, #-2147483628	; 0x80000014
    92a0:	20454e58 	subcs	r4, r5, r8, asr lr
    92a4:	5f433249 	svcpl	0x00433249
    92a8:	5f315253 	svcpl	0x00315253
    92ac:	454e5852 	strbmi	r5, [lr, #-2130]	; 0xfffff7ae
    92b0:	6b734d5f 	blvs	1cdc834 <_Min_Stack_Size+0x1cdc434>
    92b4:	6e5f5f00 	cdpvs	15, 5, cr5, cr15, cr0, {0}
    92b8:	5f646565 	svcpl	0x00646565
    92bc:	64727470 	ldrbtvs	r7, [r2], #-1136	; 0xfffffb90
    92c0:	5f666669 	svcpl	0x00666669
    92c4:	54450074 	strbpl	r0, [r5], #-116	; 0xffffff8c
    92c8:	6e495f49 	cdpvs	15, 4, cr5, cr9, cr9, {2}
    92cc:	4c747570 	cfldr64mi	mvdx7, [r4], #-448	; 0xfffffe40
    92d0:	4e656e69 	cdpmi	14, 6, cr6, cr5, cr9, {3}
    92d4:	65626d75 	strbvs	r6, [r2, #-3445]!	; 0xfffff28b
    92d8:	5f5f0072 	svcpl	0x005f0072
    92dc:	5f4c4244 	svcpl	0x004c4244
    92e0:	49434544 	stmdbmi	r3, {r2, r6, r8, sl, lr}^
    92e4:	5f4c414d 	svcpl	0x004c414d
    92e8:	5f474944 	svcpl	0x00474944
    92ec:	3731205f 			; <UNDEFINED> instruction: 0x3731205f
    92f0:	415f5f00 	cmpmi	pc, r0, lsl #30
    92f4:	465f4d52 			; <UNDEFINED> instruction: 0x465f4d52
    92f8:	55544145 	ldrbpl	r4, [r4, #-325]	; 0xfffffebb
    92fc:	535f4552 	cmppl	pc, #343932928	; 0x14800000
    9300:	31205441 			; <UNDEFINED> instruction: 0x31205441
    9304:	685f5f00 	ldmdavs	pc, {r8, r9, sl, fp, ip, lr}^	; <UNPREDICTABLE>
    9308:	5f657661 	svcpl	0x00657661
    930c:	676e6f6c 	strbvs	r6, [lr, -ip, ror #30]!
    9310:	31203233 			; <UNDEFINED> instruction: 0x31203233
    9314:	544e4900 	strbpl	r4, [lr], #-2304	; 0xfffff700
    9318:	41454c5f 	cmpmi	r5, pc, asr ip
    931c:	5f385453 	svcpl	0x00385453
    9320:	204e494d 	subcs	r4, lr, sp, asr #18
    9324:	5f5f2d28 	svcpl	0x005f2d28
    9328:	5f544e49 	svcpl	0x00544e49
    932c:	5341454c 	movtpl	r4, #5452	; 0x154c
    9330:	4d5f3854 	ldclmi	8, cr3, [pc, #-336]	; 91e8 <_Min_Stack_Size+0x8de8>
    9334:	5f5f5841 	svcpl	0x005f5841
    9338:	31202d20 			; <UNDEFINED> instruction: 0x31202d20
    933c:	32490029 	subcc	r0, r9, #41	; 0x29
    9340:	52435f43 	subpl	r5, r3, #268	; 0x10c
    9344:	4e455f31 	mcrmi	15, 2, r5, cr5, cr1, {1}
    9348:	20434550 	subcs	r4, r3, r0, asr r5
    934c:	5f433249 	svcpl	0x00433249
    9350:	5f315243 	svcpl	0x00315243
    9354:	45504e45 	ldrbmi	r4, [r0, #-3653]	; 0xfffff1bb
    9358:	734d5f43 	movtvc	r5, #57155	; 0xdf43
    935c:	5f5f006b 	svcpl	0x005f006b
    9360:	43414c55 	movtmi	r4, #7253	; 0x1c55
    9364:	5f4d5543 	svcpl	0x004d5543
    9368:	54494246 	strbpl	r4, [r9], #-582	; 0xfffffdba
    936c:	33205f5f 			; <UNDEFINED> instruction: 0x33205f5f
    9370:	5f5f0032 	svcpl	0x005f0032
    9374:	78656c66 	stmdavc	r5!, {r1, r2, r5, r6, sl, fp, sp, lr}^
    9378:	20727261 	rsbscs	r7, r2, r1, ror #4
    937c:	005d305b 	subseq	r3, sp, fp, asr r0
    9380:	5f433249 	svcpl	0x00433249
    9384:	5f325253 	svcpl	0x00325253
    9388:	44424d53 	strbmi	r4, [r2], #-3411	; 0xfffff2ad
    938c:	55414645 	strbpl	r4, [r1, #-1605]	; 0xfffff9bb
    9390:	4920544c 	stmdbmi	r0!, {r2, r3, r6, sl, ip, lr}
    9394:	535f4332 	cmppl	pc, #-939524096	; 0xc8000000
    9398:	535f3252 	cmppl	pc, #536870917	; 0x20000005
    939c:	4544424d 	strbmi	r4, [r4, #-589]	; 0xfffffdb3
    93a0:	4c554146 	ldfmie	f4, [r5], {70}	; 0x46
    93a4:	734d5f54 	movtvc	r5, #57172	; 0xdf54
    93a8:	4955006b 	ldmdbmi	r5, {r0, r1, r3, r5, r6}^
    93ac:	3436544e 	ldrtcc	r5, [r6], #-1102	; 0xfffffbb2
    93b0:	7828435f 	stmdavc	r8!, {r0, r1, r2, r3, r4, r6, r8, r9, lr}
    93b4:	5f5f2029 	svcpl	0x005f2029
    93b8:	544e4955 	strbpl	r4, [lr], #-2389	; 0xfffff6ab
    93bc:	435f3436 	cmpmi	pc, #905969664	; 0x36000000
    93c0:	00297828 	eoreq	r7, r9, r8, lsr #16
    93c4:	4e495f5f 	mcrmi	15, 2, r5, cr9, cr15, {2}
    93c8:	5f363154 	svcpl	0x00363154
    93cc:	5f58414d 	svcpl	0x0058414d
    93d0:	7830205f 	ldmdavc	r0!, {r0, r1, r2, r3, r4, r6, sp}
    93d4:	66666637 			; <UNDEFINED> instruction: 0x66666637
    93d8:	535f5f00 	cmppl	pc, #0, 30
    93dc:	435f5359 	cmpmi	pc, #1677721601	; 0x64000001
    93e0:	49464e4f 	stmdbmi	r6, {r0, r1, r2, r3, r6, r9, sl, fp, lr}^
    93e4:	5f485f47 	svcpl	0x00485f47
    93e8:	5f00205f 	svcpl	0x0000205f
    93ec:	4343475f 	movtmi	r4, #14175	; 0x375f
    93f0:	4f54415f 	svcmi	0x0054415f
    93f4:	5f43494d 	svcpl	0x0043494d
    93f8:	52414843 	subpl	r4, r1, #4390912	; 0x430000
    93fc:	434f4c5f 	movtmi	r4, #64607	; 0xfc5f
    9400:	52465f4b 	subpl	r5, r6, #300	; 0x12c
    9404:	32204545 	eorcc	r4, r0, #289406976	; 0x11400000
    9408:	43324900 	teqmi	r2, #0, 18
    940c:	3152535f 	cmpcc	r2, pc, asr r3
    9410:	4c52415f 	ldfmie	f4, [r2], {95}	; 0x5f
    9414:	6f505f4f 	svcvs	0x00505f4f
    9418:	39282073 	stmdbcc	r8!, {r0, r1, r4, r5, r6, sp}
    941c:	5f002955 	svcpl	0x00002955
    9420:	5645445f 			; <UNDEFINED> instruction: 0x5645445f
    9424:	54414c4f 	strbpl	r4, [r1], #-3151	; 0xfffff3b1
    9428:	28454c49 	stmdacs	r5, {r0, r3, r6, sl, fp, lr}^
    942c:	65707974 	ldrbvs	r7, [r0, #-2420]!	; 0xfffff68c
    9430:	7261762c 	rsbvc	r7, r1, #44, 12	; 0x2c00000
    9434:	28282029 	stmdacs	r8!, {r0, r3, r5, sp}
    9438:	65707974 	ldrbvs	r7, [r0, #-2420]!	; 0xfffff68c
    943c:	5f5f2829 	svcpl	0x005f2829
    9440:	746e6975 	strbtvc	r6, [lr], #-2421	; 0xfffff68b
    9444:	5f727470 	svcpl	0x00727470
    9448:	76282974 			; <UNDEFINED> instruction: 0x76282974
    944c:	74616c6f 	strbtvc	r6, [r1], #-3183	; 0xfffff391
    9450:	20656c69 	rsbcs	r6, r5, r9, ror #24
    9454:	64696f76 	strbtvs	r6, [r9], #-3958	; 0xfffff08a
    9458:	28292a20 	stmdacs	r9!, {r5, r9, fp, sp}
    945c:	29726176 	ldmdbcs	r2!, {r1, r2, r4, r5, r6, r8, sp, lr}^
    9460:	50470029 	subpl	r0, r7, r9, lsr #32
    9464:	505f4f49 	subspl	r4, pc, r9, asr #30
    9468:	315f4e49 	cmpcc	pc, r9, asr #28
    946c:	28282035 	stmdacs	r8!, {r0, r2, r4, r5, sp}
    9470:	746e6975 	strbtvc	r6, [lr], #-2421	; 0xfffff68b
    9474:	745f3631 	ldrbvc	r3, [pc], #-1585	; 947c <_Min_Stack_Size+0x907c>
    9478:	38783029 	ldmdacc	r8!, {r0, r3, r5, ip, sp}^
    947c:	29303030 	ldmdbcs	r0!, {r4, r5, ip, sp}
    9480:	535f5f00 	cmppl	pc, #0, 30
    9484:	465f5053 			; <UNDEFINED> instruction: 0x465f5053
    9488:	4954524f 	ldmdbmi	r4, {r0, r1, r2, r3, r6, r9, ip, lr}^
    948c:	4c5f5946 	mrrcmi	9, 4, r5, pc, cr6	; <UNPREDICTABLE>
    9490:	4c455645 	mcrrmi	6, 4, r5, r5, cr5
    9494:	5f003020 	svcpl	0x00003020
    9498:	554e475f 	strbpl	r4, [lr, #-1887]	; 0xfffff8a1
    949c:	4b494c43 	blmi	125c5b0 <_Min_Stack_Size+0x125c1b0>
    94a0:	55425f45 	strbpl	r5, [r2, #-3909]	; 0xfffff0bb
    94a4:	49544c49 	ldmdbmi	r4, {r0, r3, r6, sl, fp, lr}^
    94a8:	54535f4e 	ldrbpl	r5, [r3], #-3918	; 0xfffff0b2
    94ac:	47524144 	ldrbmi	r4, [r2, -r4, asr #2]
    94b0:	5f003120 	svcpl	0x00003120
    94b4:	7365725f 	cmnvc	r5, #-268435451	; 0xf0000005
    94b8:	5f746c75 	svcpl	0x00746c75
    94bc:	5f657375 	svcpl	0x00657375
    94c0:	63656863 	cmnvs	r5, #6488064	; 0x630000
    94c4:	5f5f206b 	svcpl	0x005f206b
    94c8:	72747461 	rsbsvc	r7, r4, #1627389952	; 0x61000000
    94cc:	74756269 	ldrbtvc	r6, [r5], #-617	; 0xfffffd97
    94d0:	285f5f65 	ldmdacs	pc, {r0, r2, r5, r6, r8, r9, sl, fp, ip, lr}^	; <UNPREDICTABLE>
    94d4:	775f5f28 	ldrbvc	r5, [pc, -r8, lsr #30]
    94d8:	5f6e7261 	svcpl	0x006e7261
    94dc:	73756e75 	cmnvc	r5, #1872	; 0x750
    94e0:	725f6465 	subsvc	r6, pc, #1694498816	; 0x65000000
    94e4:	6c757365 	ldclvs	3, cr7, [r5], #-404	; 0xfffffe6c
    94e8:	295f5f74 	ldmdbcs	pc, {r2, r4, r5, r6, r8, r9, sl, fp, ip, lr}^	; <UNPREDICTABLE>
    94ec:	5f5f0029 	svcpl	0x005f0029
    94f0:	5f495358 	svcpl	0x00495358
    94f4:	49534956 	ldmdbmi	r3, {r1, r2, r4, r6, r8, fp, lr}^
    94f8:	20454c42 	subcs	r4, r5, r2, asr #24
    94fc:	46410030 			; <UNDEFINED> instruction: 0x46410030
    9500:	455f4f49 	ldrbmi	r4, [pc, #-3913]	; 85bf <_Min_Stack_Size+0x81bf>
    9504:	43495458 	movtmi	r5, #37976	; 0x9458
    9508:	6e695f52 	mcrvs	15, 3, r5, cr9, cr2, {2}
    950c:	00786564 	rsbseq	r6, r8, r4, ror #10
    9510:	5f433249 	svcpl	0x00433249
    9514:	5f325243 	svcpl	0x00325243
    9518:	51455246 	cmppl	r5, r6, asr #4
    951c:	6b734d5f 	blvs	1cdcaa0 <_Min_Stack_Size+0x1cdc6a0>
    9520:	78302820 	ldmdavc	r0!, {r5, fp, sp}
    9524:	4c554633 	mrrcmi	6, 3, r4, r5, cr3
    9528:	203c3c20 	eorscs	r3, ip, r0, lsr #24
    952c:	5f433249 	svcpl	0x00433249
    9530:	5f325243 	svcpl	0x00325243
    9534:	51455246 	cmppl	r5, r6, asr #4
    9538:	736f505f 	cmnvc	pc, #95	; 0x5f
    953c:	53420029 	movtpl	r0, #8233	; 0x2029
    9540:	5f005252 	svcpl	0x00005252
    9544:	4e454552 	mcrmi	5, 2, r4, cr5, cr2, {2}
    9548:	4e495f54 	mcrmi	15, 2, r5, cr9, cr4, {2}
    954c:	525f5449 	subspl	r5, pc, #1224736768	; 0x49000000
    9550:	52455345 	subpl	r5, r5, #335544321	; 0x14000001
    9554:	5f444556 	svcpl	0x00444556
    9558:	5f002032 	svcpl	0x00002032
    955c:	5341465f 	movtpl	r4, #5727	; 0x165f
    9560:	20323354 	eorscs	r3, r2, r4, asr r3
    9564:	49505300 	ldmdbmi	r0, {r8, r9, ip, lr}^
    9568:	41425f32 	cmpmi	r2, r2, lsr pc
    956c:	28204553 	stmdacs	r0!, {r0, r1, r4, r6, r8, sl, lr}
    9570:	69726550 	ldmdbvs	r2!, {r4, r6, r8, sl, sp, lr}^
    9574:	72656870 	rsbvc	r6, r5, #112, 16	; 0x700000
    9578:	5f736c61 	svcpl	0x00736c61
    957c:	45534142 	ldrbmi	r4, [r3, #-322]	; 0xfffffebe
    9580:	30202b20 	eorcc	r2, r0, r0, lsr #22
    9584:	30303078 	eorscc	r3, r0, r8, ror r0
    9588:	30383330 	eorscc	r3, r8, r0, lsr r3
    958c:	294c5530 	stmdbcs	ip, {r4, r5, r8, sl, ip, lr}^
    9590:	535f5f00 	cmppl	pc, #0, 30
    9594:	415f4749 	cmpmi	pc, r9, asr #14
    9598:	494d4f54 	stmdbmi	sp, {r2, r4, r6, r8, r9, sl, fp, lr}^
    959c:	49575f43 	ldmdbmi	r7, {r0, r1, r6, r8, r9, sl, fp, ip, lr}^
    95a0:	5f485444 	svcpl	0x00485444
    95a4:	3233205f 	eorscc	r2, r3, #95	; 0x5f
    95a8:	465f5f00 	ldrbmi	r5, [pc], -r0, lsl #30
    95ac:	3436544c 	ldrtcc	r5, [r6], #-1100	; 0xfffffbb4
    95b0:	5350455f 	cmppl	r0, #398458880	; 0x17c00000
    95b4:	4e4f4c49 	cdpmi	12, 4, cr4, cr15, cr9, {2}
    95b8:	32205f5f 	eorcc	r5, r0, #380	; 0x17c
    95bc:	3032322e 	eorscc	r3, r2, lr, lsr #4
    95c0:	30363434 	eorscc	r3, r6, r4, lsr r4
    95c4:	35323934 	ldrcc	r3, [r2, #-2356]!	; 0xfffff6cc
    95c8:	33313330 	teqcc	r1, #48, 6	; 0xc0000000
    95cc:	312d6531 			; <UNDEFINED> instruction: 0x312d6531
    95d0:	34364636 	ldrtcc	r4, [r6], #-1590	; 0xfffff9ca
    95d4:	49564e00 	ldmdbmi	r6, {r9, sl, fp, lr}^
    95d8:	52495f43 	subpl	r5, r9, #268	; 0x10c
    95dc:	5f373351 	svcpl	0x00373351
    95e0:	52415355 	subpl	r5, r1, #1409286145	; 0x54000001
    95e4:	445f3154 	ldrbmi	r3, [pc], #-340	; 95ec <_Min_Stack_Size+0x91ec>
    95e8:	62617369 	rsbvs	r7, r1, #-1543503871	; 0xa4000001
    95ec:	2820656c 	stmdacs	r0!, {r2, r3, r5, r6, r8, sl, sp, lr}
    95f0:	4349564e 	movtmi	r5, #38478	; 0x964e
    95f4:	4543495f 	strbmi	r4, [r3, #-2399]	; 0xfffff6a1
    95f8:	7c203152 	stfvcs	f3, [r0], #-328	; 0xfffffeb8
    95fc:	3c31203d 	ldccc	0, cr2, [r1], #-244	; 0xffffff0c
    9600:	5520283c 	strpl	r2, [r0, #-2108]!	; 0xfffff7c4
    9604:	54524153 	ldrbpl	r4, [r2], #-339	; 0xfffffead
    9608:	52495f31 	subpl	r5, r9, #49, 30	; 0xc4
    960c:	33202d51 			; <UNDEFINED> instruction: 0x33202d51
    9610:	29292032 	stmdbcs	r9!, {r1, r4, r5, sp}
    9614:	49504700 	ldmdbmi	r0, {r8, r9, sl, lr}^
    9618:	425f424f 	subsmi	r4, pc, #-268435452	; 0xf0000004
    961c:	20455341 	subcs	r5, r5, r1, asr #6
    9620:	72655028 	rsbvc	r5, r5, #40	; 0x28
    9624:	65687069 	strbvs	r7, [r8, #-105]!	; 0xffffff97
    9628:	736c6172 	cmnvc	ip, #-2147483620	; 0x8000001c
    962c:	5341425f 	movtpl	r4, #4703	; 0x125f
    9630:	202b2045 	eorcs	r2, fp, r5, asr #32
    9634:	30307830 	eorscc	r7, r0, r0, lsr r8
    9638:	43303130 	teqmi	r0, #48, 2
    963c:	4c553030 	mrrcmi	0, 3, r3, r5, cr0
    9640:	58450029 	stmdapl	r5, {r0, r3, r5}^
    9644:	5f304954 	svcpl	0x00304954
    9648:	48515249 	ldmdami	r1, {r0, r3, r6, r9, ip, lr}^
    964c:	6c646e61 	stclvs	14, cr6, [r4], #-388	; 0xfffffe7c
    9650:	5f007265 	svcpl	0x00007265
    9654:	4154555f 	cmpmi	r4, pc, asr r5
    9658:	4942495f 	stmdbmi	r2, {r0, r1, r2, r3, r4, r6, r8, fp, lr}^
    965c:	205f5f54 	subscs	r5, pc, r4, asr pc	; <UNPREDICTABLE>
    9660:	5f003436 	svcpl	0x00003436
    9664:	4c4c555f 	cfstr64mi	mvdx5, [ip], {95}	; 0x5f
    9668:	55434341 	strbpl	r4, [r3, #-833]	; 0xfffffcbf
    966c:	42495f4d 	submi	r5, r9, #308	; 0x134
    9670:	5f5f5449 	svcpl	0x005f5449
    9674:	00323320 	eorseq	r3, r2, r0, lsr #6
    9678:	5f433249 	svcpl	0x00433249
    967c:	5f315253 	svcpl	0x00315253
    9680:	49204641 	stmdbmi	r0!, {r0, r6, r9, sl, lr}
    9684:	535f4332 	cmppl	pc, #-939524096	; 0xc8000000
    9688:	415f3152 	cmpmi	pc, r2, asr r1	; <UNPREDICTABLE>
    968c:	734d5f46 	movtvc	r5, #57158	; 0xdf46
    9690:	5f5f006b 	svcpl	0x005f006b
    9694:	5f4d5241 	svcpl	0x004d5241
    9698:	54414546 	strbpl	r4, [r1], #-1350	; 0xfffffaba
    969c:	5f455255 	svcpl	0x00455255
    96a0:	33435243 	movtcc	r5, #12867	; 0x3243
    96a4:	5f5f0032 	svcpl	0x005f0032
    96a8:	6f727473 	svcvs	0x00727473
    96ac:	725f676e 	subsvc	r6, pc, #28835840	; 0x1b80000
    96b0:	72656665 	rsbvc	r6, r5, #105906176	; 0x6500000
    96b4:	65636e65 	strbvs	r6, [r3, #-3685]!	; 0xfffff19b
    96b8:	6d797328 	ldclvs	3, cr7, [r9, #-160]!	; 0xffffff60
    96bc:	696c612c 	stmdbvs	ip!, {r2, r3, r5, r8, sp, lr}^
    96c0:	79737361 	ldmdbvc	r3!, {r0, r5, r6, r8, r9, ip, sp, lr}^
    96c4:	6520296d 	strvs	r2, [r0, #-2413]!	; 0xfffff693
    96c8:	72657478 	rsbvc	r7, r5, #120, 8	; 0x78000000
    96cc:	5f5f206e 	svcpl	0x005f206e
    96d0:	65707974 	ldrbvs	r7, [r0, #-2420]!	; 0xfffff68c
    96d4:	2820666f 	stmdacs	r0!, {r0, r1, r2, r3, r5, r6, r9, sl, sp, lr}
    96d8:	296d7973 	stmdbcs	sp!, {r0, r1, r4, r5, r6, r8, fp, ip, sp, lr}^
    96dc:	696c6120 	stmdbvs	ip!, {r5, r8, sp, lr}^
    96e0:	79737361 	ldmdbvc	r3!, {r0, r5, r6, r8, r9, ip, sp, lr}^
    96e4:	5f5f206d 	svcpl	0x005f206d
    96e8:	72747461 	rsbsvc	r7, r4, #1627389952	; 0x61000000
    96ec:	74756269 	ldrbtvc	r6, [r5], #-617	; 0xfffffd97
    96f0:	205f5f65 	subscs	r5, pc, r5, ror #30
    96f4:	5f5f2828 	svcpl	0x005f2828
    96f8:	61696c61 	cmnvs	r9, r1, ror #24
    96fc:	205f5f73 	subscs	r5, pc, r3, ror pc	; <UNPREDICTABLE>
    9700:	79732328 	ldmdbvc	r3!, {r3, r5, r8, r9, sp}^
    9704:	2929296d 	stmdbcs	r9!, {r0, r2, r3, r5, r6, r8, fp, sp}
    9708:	49504700 	ldmdbmi	r0, {r8, r9, sl, lr}^
    970c:	79545f4f 	ldmdbvc	r4, {r0, r1, r2, r3, r6, r8, r9, sl, fp, ip, lr}^
    9710:	65446570 	strbvs	r6, [r4, #-1392]	; 0xfffffa90
    9714:	5f5f0066 	svcpl	0x005f0066
    9718:	464c4c55 			; <UNDEFINED> instruction: 0x464c4c55
    971c:	54434152 	strbpl	r4, [r3], #-338	; 0xfffffeae
    9720:	5350455f 	cmppl	r0, #398458880	; 0x17c00000
    9724:	4e4f4c49 	cdpmi	12, 4, cr4, cr15, cr9, {2}
    9728:	30205f5f 	eorcc	r5, r0, pc, asr pc
    972c:	2d503178 	ldfcse	f3, [r0, #-480]	; 0xfffffe20
    9730:	4c553436 	cfldrdmi	mvd3, [r5], {54}	; 0x36
    9734:	5f00524c 	svcpl	0x0000524c
    9738:	726e755f 	rsbvc	r7, lr, #398458880	; 0x17c00000
    973c:	68636165 	stmdavs	r3!, {r0, r2, r5, r6, r8, sp, lr}^
    9740:	656c6261 	strbvs	r6, [ip, #-609]!	; 0xfffffd9f
    9744:	5f202928 	svcpl	0x00202928
    9748:	6975625f 	ldmdbvs	r5!, {r0, r1, r2, r3, r4, r6, r9, sp, lr}^
    974c:	6e69746c 	cdpvs	4, 6, cr7, cr9, cr12, {3}
    9750:	726e755f 	rsbvc	r7, lr, #398458880	; 0x17c00000
    9754:	68636165 	stmdavs	r3!, {r0, r2, r5, r6, r8, sp, lr}^
    9758:	656c6261 	strbvs	r6, [ip, #-609]!	; 0xfffffd9f
    975c:	5f002928 	svcpl	0x00002928
    9760:	5a49535f 	bpl	125e4e4 <_Min_Stack_Size+0x125e0e4>
    9764:	5f464f45 	svcpl	0x00464f45
    9768:	544e4957 	strbpl	r4, [lr], #-2391	; 0xfffff6a9
    976c:	5f5f545f 	svcpl	0x005f545f
    9770:	49003420 	stmdbmi	r0, {r5, sl, ip, sp}
    9774:	535f4332 	cmppl	pc, #-939524096	; 0xc8000000
    9778:	415f3152 	cmpmi	pc, r2, asr r1	; <UNPREDICTABLE>
    977c:	20524444 	subscs	r4, r2, r4, asr #8
    9780:	5f433249 	svcpl	0x00433249
    9784:	5f315253 	svcpl	0x00315253
    9788:	52444441 	subpl	r4, r4, #1090519040	; 0x41000000
    978c:	6b734d5f 	blvs	1cdcd10 <_Min_Stack_Size+0x1cdc910>
    9790:	415f5f00 	cmpmi	pc, r0, lsl #30
    9794:	465f4d52 			; <UNDEFINED> instruction: 0x465f4d52
    9798:	55544145 	ldrbpl	r4, [r4, #-325]	; 0xfffffebb
    979c:	555f4552 	ldrbpl	r4, [pc, #-1362]	; 9252 <_Min_Stack_Size+0x8e52>
    97a0:	494c414e 	stmdbmi	ip, {r1, r2, r3, r6, r8, lr}^
    97a4:	44454e47 	strbmi	r4, [r5], #-3655	; 0xfffff1b9
    97a8:	5f003120 	svcpl	0x00003120
    97ac:	4454535f 	ldrbmi	r5, [r4], #-863	; 0xfffffca1
    97b0:	205f5f43 	subscs	r5, pc, r3, asr #30
    97b4:	5f5f0031 	svcpl	0x005f0031
    97b8:	4c42444c 	cfstrdmi	mvd4, [r2], {76}	; 0x4c
    97bc:	4345445f 	movtmi	r4, #21599	; 0x545f
    97c0:	4c414d49 	mcrrmi	13, 4, r4, r1, cr9
    97c4:	4749445f 	smlsldmi	r4, r9, pc, r4	; <UNPREDICTABLE>
    97c8:	31205f5f 			; <UNDEFINED> instruction: 0x31205f5f
    97cc:	5f5f0037 	svcpl	0x005f0037
    97d0:	43554e47 	cmpmi	r5, #1136	; 0x470
    97d4:	454b494c 	strbmi	r4, [fp, #-2380]	; 0xfffff6b4
    97d8:	4d53415f 	ldfmie	f4, [r3, #-380]	; 0xfffffe84
    97dc:	5f003320 	svcpl	0x00003320
    97e0:	43414c5f 	movtmi	r4, #7263	; 0x1c5f
    97e4:	5f4d5543 	svcpl	0x004d5543
    97e8:	5f4e494d 	svcpl	0x004e494d
    97ec:	2d28205f 	stccs	0, cr2, [r8, #-380]!	; 0xfffffe84
    97f0:	50315830 	eorspl	r5, r1, r0, lsr r8
    97f4:	4b4c3133 	blmi	1315cc8 <_Min_Stack_Size+0x13158c8>
    97f8:	3158302d 	cmpcc	r8, sp, lsr #32
    97fc:	4c313350 	ldcmi	3, cr3, [r1], #-320	; 0xfffffec0
    9800:	5f00294b 	svcpl	0x0000294b
    9804:	544e495f 	strbpl	r4, [lr], #-2399	; 0xfffff6a1
    9808:	5341465f 	movtpl	r4, #5727	; 0x165f
    980c:	4d5f3854 	ldclmi	8, cr3, [pc, #-336]	; 96c4 <_Min_Stack_Size+0x92c4>
    9810:	5f5f5841 	svcpl	0x005f5841
    9814:	37783020 	ldrbcc	r3, [r8, -r0, lsr #32]!
    9818:	66666666 	strbtvs	r6, [r6], -r6, ror #12
    981c:	00666666 	rsbeq	r6, r6, r6, ror #12
    9820:	4c465f5f 	mcrrmi	15, 5, r5, r6, cr15
    9824:	5f323354 	svcpl	0x00323354
    9828:	5f534148 	svcpl	0x00534148
    982c:	4f4e4544 	svcmi	0x004e4544
    9830:	5f5f4d52 	svcpl	0x005f4d52
    9834:	5f003120 	svcpl	0x00003120
    9838:	6163735f 	cmnvs	r3, pc, asr r3
    983c:	696c666e 	stmdbvs	ip!, {r1, r2, r3, r5, r6, r9, sl, sp, lr}^
    9840:	6628656b 	strtvs	r6, [r8], -fp, ror #10
    9844:	7261746d 	rsbvc	r7, r1, #1828716544	; 0x6d000000
    9848:	69662c67 	stmdbvs	r6!, {r0, r1, r2, r5, r6, sl, fp, sp}^
    984c:	76747372 			; <UNDEFINED> instruction: 0x76747372
    9850:	72617261 	rsbvc	r7, r1, #268435462	; 0x10000006
    9854:	5f202967 	svcpl	0x00202967
    9858:	7474615f 	ldrbtvc	r6, [r4], #-351	; 0xfffffea1
    985c:	75626972 	strbvc	r6, [r2, #-2418]!	; 0xfffff68e
    9860:	5f5f6574 	svcpl	0x005f6574
    9864:	5f5f2828 	svcpl	0x005f2828
    9868:	6d726f66 	ldclvs	15, cr6, [r2, #-408]!	; 0xfffffe68
    986c:	5f5f7461 	svcpl	0x005f7461
    9870:	5f5f2820 	svcpl	0x005f2820
    9874:	6e616373 	mcrvs	3, 3, r6, cr1, cr3, {3}
    9878:	2c5f5f66 	mrrccs	15, 6, r5, pc, cr6	; <UNPREDICTABLE>
    987c:	746d6620 	strbtvc	r6, [sp], #-1568	; 0xfffff9e0
    9880:	2c677261 	sfmcs	f7, 2, [r7], #-388	; 0xfffffe7c
    9884:	72696620 	rsbvc	r6, r9, #32, 12	; 0x2000000
    9888:	61767473 	cmnvs	r6, r3, ror r4
    988c:	67726172 			; <UNDEFINED> instruction: 0x67726172
    9890:	00292929 	eoreq	r2, r9, r9, lsr #18
    9894:	4f495047 	svcmi	0x00495047
    9898:	28282045 	stmdacs	r8!, {r0, r2, r6, sp}
    989c:	4f495047 	svcmi	0x00495047
    98a0:	7079545f 	rsbsvc	r5, r9, pc, asr r4
    98a4:	66654465 	strbtvs	r4, [r5], -r5, ror #8
    98a8:	47292a20 	strmi	r2, [r9, -r0, lsr #20]!
    98ac:	454f4950 	strbmi	r4, [pc, #-2384]	; 8f64 <_Min_Stack_Size+0x8b64>
    98b0:	5341425f 	movtpl	r4, #4703	; 0x125f
    98b4:	5f002945 	svcpl	0x00002945
    98b8:	4e454552 	mcrmi	5, 2, r4, cr5, cr2, {2}
    98bc:	4d535f54 	ldclmi	15, cr5, [r3, #-336]	; 0xfffffeb0
    98c0:	204c4c41 	subcs	r4, ip, r1, asr #24
    98c4:	49504700 	ldmdbmi	r0, {r8, r9, sl, lr}^
    98c8:	4f4d5f4f 	svcmi	0x004d5f4f
    98cc:	4f5f4544 	svcmi	0x005f4544
    98d0:	55505455 	ldrbpl	r5, [r0, #-1109]	; 0xfffffbab
    98d4:	46415f54 			; <UNDEFINED> instruction: 0x46415f54
    98d8:	2050505f 	subscs	r5, r0, pc, asr r0
    98dc:	30307830 	eorscc	r7, r0, r0, lsr r8
    98e0:	30303030 	eorscc	r3, r0, r0, lsr r0
    98e4:	00753630 	rsbseq	r3, r5, r0, lsr r6
    98e8:	4c555f5f 	mrrcmi	15, 5, r5, r5, cr15	; <UNPREDICTABLE>
    98ec:	4343414c 	movtmi	r4, #12620	; 0x314c
    98f0:	4d5f4d55 	ldclmi	13, cr4, [pc, #-340]	; 97a4 <_Min_Stack_Size+0x93a4>
    98f4:	5f5f4e49 	svcpl	0x005f4e49
    98f8:	302e3020 	eorcc	r3, lr, r0, lsr #32
    98fc:	4b4c4c55 	blmi	131ca58 <_Min_Stack_Size+0x131c658>
    9900:	59535f00 	ldmdbpl	r3, {r8, r9, sl, fp, ip, lr}^
    9904:	545f5f53 	ldrbpl	r5, [pc], #-3923	; 990c <_Min_Stack_Size+0x950c>
    9908:	53455059 	movtpl	r5, #20569	; 0x5059
    990c:	0020485f 	eoreq	r4, r0, pc, asr r8
    9910:	4554415f 	ldrbmi	r4, [r4, #-351]	; 0xfffffea1
    9914:	5f544958 	svcpl	0x00544958
    9918:	54494e49 	strbpl	r4, [r9], #-3657	; 0xfffff1b7
    991c:	4e5f7b20 	vnmlsmi.f64	d23, d15, d16
    9920:	2c4c4c55 	mcrrcs	12, 5, r4, ip, cr5
    9924:	202c3020 	eorcs	r3, ip, r0, lsr #32
    9928:	554e5f7b 	strbpl	r5, [lr, #-3963]	; 0xfffff085
    992c:	2c7d4c4c 	ldclcs	12, cr4, [sp], #-304	; 0xfffffed0
    9930:	554e5f20 	strbpl	r5, [lr, #-3872]	; 0xfffff0e0
    9934:	007d4c4c 	rsbseq	r4, sp, ip, asr #24
    9938:	695f5f5f 	ldmdbvs	pc, {r0, r1, r2, r3, r4, r6, r8, r9, sl, fp, ip, lr}^	; <UNPREDICTABLE>
    993c:	775f746e 	ldrbvc	r7, [pc, -lr, ror #8]
    9940:	72616863 	rsbvc	r6, r1, #6488064	; 0x630000
    9944:	685f745f 	ldmdavs	pc, {r0, r1, r2, r3, r4, r6, sl, ip, sp, lr}^	; <UNPREDICTABLE>
    9948:	50470020 	subpl	r0, r7, r0, lsr #32
    994c:	505f4f49 	subspl	r4, pc, r9, asr #30
    9950:	345f4e49 	ldrbcc	r4, [pc], #-3657	; 9958 <_Min_Stack_Size+0x9558>
    9954:	75282820 	strvc	r2, [r8, #-2080]!	; 0xfffff7e0
    9958:	31746e69 	cmncc	r4, r9, ror #28
    995c:	29745f36 	ldmdbcs	r4!, {r1, r2, r4, r5, r8, r9, sl, fp, ip, lr}^
    9960:	30307830 	eorscc	r7, r0, r0, lsr r8
    9964:	00293031 	eoreq	r3, r9, r1, lsr r0
    9968:	4f495047 	svcmi	0x00495047
    996c:	4e49505f 	mcrmi	0, 2, r5, cr9, cr15, {2}
    9970:	2820365f 	stmdacs	r0!, {r0, r1, r2, r3, r4, r6, r9, sl, ip, sp}
    9974:	6e697528 	cdpvs	5, 6, cr7, cr9, cr8, {1}
    9978:	5f363174 	svcpl	0x00363174
    997c:	78302974 	ldmdavc	r0!, {r2, r4, r5, r6, r8, fp, sp}
    9980:	30343030 	eorscc	r3, r4, r0, lsr r0
    9984:	525f0029 	subspl	r0, pc, #41	; 0x29
    9988:	544e4545 	strbpl	r4, [lr], #-1349	; 0xfffffabb
    998c:	5456435f 	ldrbpl	r4, [r6], #-863	; 0xfffffca1
    9990:	28465542 	stmdacs	r6, {r1, r6, r8, sl, ip, lr}^
    9994:	7274705f 	rsbsvc	r7, r4, #95	; 0x5f
    9998:	28282029 	stmdacs	r8!, {r0, r3, r5, sp}
    999c:	7274705f 	rsbsvc	r7, r4, #95	; 0x5f
    99a0:	5f3e2d29 	svcpl	0x003e2d29
    99a4:	62747663 	rsbsvs	r7, r4, #103809024	; 0x6300000
    99a8:	00296675 	eoreq	r6, r9, r5, ror r6
    99ac:	52435645 	subpl	r5, r3, #72351744	; 0x4500000
    99b0:	454e5f00 	strbmi	r5, [lr, #-3840]	; 0xfffff100
    99b4:	42494c57 	submi	r4, r9, #22272	; 0x5700
    99b8:	4c4c415f 	stfmie	f4, [ip], {95}	; 0x5f
    99bc:	5f41434f 	svcpl	0x0041434f
    99c0:	5f002048 	svcpl	0x00002048
    99c4:	544e495f 	strbpl	r4, [lr], #-2399	; 0xfffff6a1
    99c8:	22203233 	eorcs	r3, r0, #805306371	; 0x30000003
    99cc:	5f00226c 	svcpl	0x0000226c
    99d0:	4d52415f 	ldfmie	f4, [r2, #-380]	; 0xfffffe84
    99d4:	4d53415f 	ldfmie	f4, [r3, #-380]	; 0xfffffe84
    99d8:	4e59535f 	mrcmi	3, 2, r5, cr9, cr15, {2}
    99dc:	5f584154 	svcpl	0x00584154
    99e0:	46494e55 			; <UNDEFINED> instruction: 0x46494e55
    99e4:	5f444549 	svcpl	0x00444549
    99e8:	0031205f 	eorseq	r2, r1, pc, asr r0
    99ec:	4349564e 	movtmi	r5, #38478	; 0x964e
    99f0:	5152495f 	cmppl	r2, pc, asr r9
    99f4:	495f3233 	ldmdbmi	pc, {r0, r1, r4, r5, r9, ip, sp}^	; <UNPREDICTABLE>
    99f8:	5f314332 	svcpl	0x00314332
    99fc:	445f5245 	ldrbmi	r5, [pc], #-581	; 9a04 <_Min_Stack_Size+0x9604>
    9a00:	62617369 	rsbvs	r7, r1, #-1543503871	; 0xa4000001
    9a04:	2820656c 	stmdacs	r0!, {r2, r3, r5, r6, r8, sl, sp, lr}
    9a08:	4349564e 	movtmi	r5, #38478	; 0x964e
    9a0c:	4543495f 	strbmi	r4, [r3, #-2399]	; 0xfffff6a1
    9a10:	7c203152 	stfvcs	f3, [r0], #-328	; 0xfffffeb8
    9a14:	3c31203d 	ldccc	0, cr2, [r1], #-244	; 0xffffff0c
    9a18:	4920283c 	stmdbmi	r0!, {r2, r3, r4, r5, fp, sp}
    9a1c:	5f314332 	svcpl	0x00314332
    9a20:	495f5245 	ldmdbmi	pc, {r0, r2, r6, r9, ip, lr}^	; <UNPREDICTABLE>
    9a24:	2d205152 	stfcss	f5, [r0, #-328]!	; 0xfffffeb8
    9a28:	20323320 	eorscs	r3, r2, r0, lsr #6
    9a2c:	47002929 	strmi	r2, [r0, -r9, lsr #18]
    9a30:	5f4f4950 	svcpl	0x004f4950
    9a34:	5f4e4950 	svcpl	0x004e4950
    9a38:	206c6c41 	rsbcs	r6, ip, r1, asr #24
    9a3c:	69752828 	ldmdbvs	r5!, {r3, r5, fp, sp}^
    9a40:	3631746e 	ldrtcc	r7, [r1], -lr, ror #8
    9a44:	3029745f 	eorcc	r7, r9, pc, asr r4
    9a48:	46464678 			; <UNDEFINED> instruction: 0x46464678
    9a4c:	73002946 	movwvc	r2, #2374	; 0x946
    9a50:	6f747274 	svcvs	0x00747274
    9a54:	73206664 			; <UNDEFINED> instruction: 0x73206664
    9a58:	6f747274 	svcvs	0x00747274
    9a5c:	32490066 	subcc	r0, r9, #102	; 0x66
    9a60:	52535f43 	subspl	r5, r3, #268	; 0x10c
    9a64:	55425f32 	strbpl	r5, [r2, #-3890]	; 0xfffff0ce
    9a68:	4d5f5953 	vldrmi.16	s11, [pc, #-166]	; 99ca <_Min_Stack_Size+0x95ca>	; <UNPREDICTABLE>
    9a6c:	28206b73 	stmdacs	r0!, {r0, r1, r4, r5, r6, r8, r9, fp, sp, lr}
    9a70:	55317830 	ldrpl	r7, [r1, #-2096]!	; 0xfffff7d0
    9a74:	3c3c204c 	ldccc	0, cr2, [ip], #-304	; 0xfffffed0
    9a78:	43324920 	teqmi	r2, #32, 18	; 0x80000
    9a7c:	3252535f 	subscc	r5, r2, #2080374785	; 0x7c000001
    9a80:	5355425f 	cmppl	r5, #-268435451	; 0xf0000005
    9a84:	6f505f59 	svcvs	0x00505f59
    9a88:	5f002973 	svcpl	0x00002973
    9a8c:	4e49555f 	mcrmi	5, 2, r5, cr9, cr15, {2}
    9a90:	5f323354 	svcpl	0x00323354
    9a94:	45505954 	ldrbmi	r5, [r0, #-2388]	; 0xfffff6ac
    9a98:	6c205f5f 	stcvs	15, cr5, [r0], #-380	; 0xfffffe84
    9a9c:	20676e6f 	rsbcs	r6, r7, pc, ror #28
    9aa0:	69736e75 	ldmdbvs	r3!, {r0, r2, r4, r5, r6, r9, sl, fp, sp, lr}^
    9aa4:	64656e67 	strbtvs	r6, [r5], #-3687	; 0xfffff199
    9aa8:	746e6920 	strbtvc	r6, [lr], #-2336	; 0xfffff6e0
    9aac:	415f5f00 	cmpmi	pc, r0, lsl #30
    9ab0:	465f4d52 			; <UNDEFINED> instruction: 0x465f4d52
    9ab4:	55544145 	ldrbpl	r4, [r4, #-325]	; 0xfffffebb
    9ab8:	445f4552 	ldrbmi	r4, [pc], #-1362	; 9ac0 <_Min_Stack_Size+0x96c0>
    9abc:	5250544f 	subspl	r5, r0, #1325400064	; 0x4f000000
    9ac0:	5f00444f 	svcpl	0x0000444f
    9ac4:	7568745f 	strbvc	r7, [r8, #-1119]!	; 0xfffffba1
    9ac8:	5f32626d 	svcpl	0x0032626d
    9acc:	0031205f 	eorseq	r2, r1, pc, asr r0
    9ad0:	544e4955 	strbpl	r4, [lr], #-2389	; 0xfffff6ab
    9ad4:	4d5f3631 	ldclmi	6, cr3, [pc, #-196]	; 9a18 <_Min_Stack_Size+0x9618>
    9ad8:	28205841 	stmdacs	r0!, {r0, r6, fp, ip, lr}
    9adc:	49555f5f 	ldmdbmi	r5, {r0, r1, r2, r3, r4, r6, r8, r9, sl, fp, ip, lr}^
    9ae0:	3631544e 	ldrtcc	r5, [r1], -lr, asr #8
    9ae4:	58414d5f 	stmdapl	r1, {r0, r1, r2, r3, r4, r6, r8, sl, fp, lr}^
    9ae8:	00295f5f 	eoreq	r5, r9, pc, asr pc
    9aec:	4645445f 			; <UNDEFINED> instruction: 0x4645445f
    9af0:	544c5541 	strbpl	r5, [ip], #-1345	; 0xfffffabf
    9af4:	554f535f 	strbpl	r5, [pc, #-863]	; 979d <_Min_Stack_Size+0x939d>
    9af8:	00454352 	subeq	r4, r5, r2, asr r3
    9afc:	43475f5f 	movtmi	r5, #32607	; 0x7f5f
    9b00:	41485f43 	cmpmi	r8, r3, asr #30
    9b04:	535f4556 	cmppl	pc, #360710144	; 0x15800000
    9b08:	5f434e59 	svcpl	0x00434e59
    9b0c:	504d4f43 	subpl	r4, sp, r3, asr #30
    9b10:	5f455241 	svcpl	0x00455241
    9b14:	5f444e41 	svcpl	0x00444e41
    9b18:	50415753 	subpl	r5, r1, r3, asr r7
    9b1c:	3120325f 			; <UNDEFINED> instruction: 0x3120325f
    9b20:	6f687300 	svcvs	0x00687300
    9b24:	2b207472 	blcs	826cf4 <_Min_Stack_Size+0x8268f4>
    9b28:	475f0031 	smmlarmi	pc, r1, r0, r0	; <UNPREDICTABLE>
    9b2c:	535f4343 	cmppl	pc, #201326593	; 0xc000001
    9b30:	5f455a49 	svcpl	0x00455a49
    9b34:	45002054 	strmi	r2, [r0, #-84]	; 0xffffffac
    9b38:	31495458 	cmpcc	r9, r8, asr r4
    9b3c:	30315f35 	eorscc	r5, r1, r5, lsr pc
    9b40:	5152495f 	cmppl	r2, pc, asr r9
    9b44:	646e6148 	strbtvs	r6, [lr], #-328	; 0xfffffeb8
    9b48:	0072656c 	rsbseq	r6, r2, ip, ror #10
    9b4c:	43435f5f 	movtmi	r5, #16223	; 0x3f5f
    9b50:	5055535f 	subspl	r5, r5, pc, asr r3
    9b54:	54524f50 	ldrbpl	r4, [r2], #-3920	; 0xfffff0b0
    9b58:	41575f53 	cmpmi	r7, r3, asr pc
    9b5c:	4e494e52 	mcrmi	14, 2, r4, cr9, cr2, {2}
    9b60:	00312047 	eorseq	r2, r1, r7, asr #32
    9b64:	49575f5f 	ldmdbmi	r7, {r0, r1, r2, r3, r4, r6, r8, r9, sl, fp, ip, lr}^
    9b68:	575f544e 	ldrbpl	r5, [pc, -lr, asr #8]
    9b6c:	48544449 	ldmdami	r4, {r0, r3, r6, sl, lr}^
    9b70:	33205f5f 			; <UNDEFINED> instruction: 0x33205f5f
    9b74:	5f5f0032 	svcpl	0x005f0032
    9b78:	6b636f6c 	blvs	18e5930 <_Min_Stack_Size+0x18e5530>
    9b7c:	6f6c635f 	svcvs	0x006c635f
    9b80:	6c286573 	cfstr32vs	mvfx6, [r8], #-460	; 0xfffffe34
    9b84:	296b636f 	stmdbcs	fp!, {r0, r1, r2, r3, r5, r6, r8, r9, sp, lr}^
    9b88:	725f5f20 	subsvc	r5, pc, #32, 30	; 0x80
    9b8c:	72617465 	rsbvc	r7, r1, #1694498816	; 0x65000000
    9b90:	5f746567 	svcpl	0x00746567
    9b94:	6b636f6c 	blvs	18e594c <_Min_Stack_Size+0x18e554c>
    9b98:	6f6c635f 	svcvs	0x006c635f
    9b9c:	6c286573 	cfstr32vs	mvfx6, [r8], #-460	; 0xfffffe34
    9ba0:	296b636f 	stmdbcs	fp!, {r0, r1, r2, r3, r5, r6, r8, r9, sp, lr}^
    9ba4:	73795300 	cmnvc	r9, #0, 6
    9ba8:	5f6d6574 	svcpl	0x006d6574
    9bac:	6f6d654d 	svcvs	0x006d654d
    9bb0:	425f7972 	subsmi	r7, pc, #1867776	; 0x1c8000
    9bb4:	20455341 	subcs	r5, r5, r1, asr #6
    9bb8:	46317830 			; <UNDEFINED> instruction: 0x46317830
    9bbc:	30464646 	subcc	r4, r6, r6, asr #12
    9bc0:	4c553030 	mrrcmi	0, 3, r3, r5, cr0
    9bc4:	43324900 	teqmi	r2, #0, 18
    9bc8:	3252535f 	subscc	r5, r2, #2080374785	; 0x7c000001
    9bcc:	5355425f 	cmppl	r5, #-268435451	; 0xf0000005
    9bd0:	6f505f59 	svcvs	0x00505f59
    9bd4:	31282073 			; <UNDEFINED> instruction: 0x31282073
    9bd8:	5f002955 	svcpl	0x00002955
    9bdc:	38544e49 	ldmdacc	r4, {r0, r3, r6, r9, sl, fp, lr}^
    9be0:	445f545f 	ldrbmi	r5, [pc], #-1119	; 9be8 <_Min_Stack_Size+0x97e8>
    9be4:	414c4345 	cmpmi	ip, r5, asr #6
    9be8:	20444552 	subcs	r4, r4, r2, asr r5
    9bec:	4e495f00 	cdpmi	15, 4, cr5, cr9, cr0, {0}
    9bf0:	5f323354 	svcpl	0x00323354
    9bf4:	45445f54 	strbmi	r5, [r4, #-3924]	; 0xfffff0ac
    9bf8:	52414c43 	subpl	r4, r1, #17152	; 0x4300
    9bfc:	00204445 	eoreq	r4, r0, r5, asr #8
    9c00:	49535f5f 	ldmdbmi	r3, {r0, r1, r2, r3, r4, r6, r8, r9, sl, fp, ip, lr}^
    9c04:	464f455a 			; <UNDEFINED> instruction: 0x464f455a
    9c08:	544e495f 	strbpl	r4, [lr], #-2399	; 0xfffff6a1
    9c0c:	34205f5f 	strtcc	r5, [r0], #-3935	; 0xfffff0a1
    9c10:	53425f00 	movtpl	r5, #12032	; 0x2f00
    9c14:	43575f44 	cmpmi	r7, #68, 30	; 0x110
    9c18:	5f524148 	svcpl	0x00524148
    9c1c:	41005f54 	tstmi	r0, r4, asr pc
    9c20:	204f4946 	subcs	r4, pc, r6, asr #18
    9c24:	46412828 	strbmi	r2, [r1], -r8, lsr #16
    9c28:	545f4f49 	ldrbpl	r4, [pc], #-3913	; 9c30 <_Min_Stack_Size+0x9830>
    9c2c:	44657079 	strbtmi	r7, [r5], #-121	; 0xffffff87
    9c30:	2a206665 	bcs	8235cc <_Min_Stack_Size+0x8231cc>
    9c34:	49464129 	stmdbmi	r6, {r0, r3, r5, r8, lr}^
    9c38:	41425f4f 	cmpmi	r2, pc, asr #30
    9c3c:	00294553 	eoreq	r4, r9, r3, asr r5
    9c40:	4c4c5f5f 	mcrrmi	15, 5, r5, ip, cr15
    9c44:	43415246 	movtmi	r5, #4678	; 0x1246
    9c48:	42495f54 	submi	r5, r9, #84, 30	; 0x150
    9c4c:	5f5f5449 	svcpl	0x005f5449
    9c50:	5f003020 	svcpl	0x00003020
    9c54:	5f43435f 	svcpl	0x0043435f
    9c58:	50505553 	subspl	r5, r0, r3, asr r5
    9c5c:	5354524f 	cmppl	r4, #-268435452	; 0xf0000004
    9c60:	5241565f 	subpl	r5, r1, #99614720	; 0x5f00000
    9c64:	43494441 	movtmi	r4, #37953	; 0x9441
    9c68:	5858585f 	ldmdapl	r8, {r0, r1, r2, r3, r4, r6, fp, ip, lr}^
    9c6c:	49003120 	stmdbmi	r0, {r5, r8, ip, sp}
    9c70:	435f4332 	cmpmi	pc, #-939524096	; 0xc8000000
    9c74:	455f3152 	ldrbmi	r3, [pc, #-338]	; 9b2a <_Min_Stack_Size+0x972a>
    9c78:	5f43474e 	svcpl	0x0043474e
    9c7c:	20736f50 	rsbscs	r6, r3, r0, asr pc
    9c80:	29553628 	ldmdbcs	r5, {r3, r5, r9, sl, ip, sp}^
    9c84:	54584500 	ldrbpl	r4, [r8], #-1280	; 0xfffffb00
    9c88:	50313149 	eorspl	r3, r1, r9, asr #2
    9c8c:	20313141 	eorscs	r3, r1, r1, asr #2
    9c90:	54584528 	ldrbpl	r4, [r8], #-1320	; 0xfffffad8
    9c94:	50475f49 	subpl	r5, r7, r9, asr #30
    9c98:	4d5f4f49 	ldclmi	15, cr4, [pc, #-292]	; 9b7c <_Min_Stack_Size+0x977c>
    9c9c:	69707061 	ldmdbvs	r0!, {r0, r5, r6, ip, sp, lr}^
    9ca0:	745f676e 	ldrbvc	r6, [pc], #-1902	; 9ca8 <_Min_Stack_Size+0x98a8>
    9ca4:	58457b29 	stmdapl	r5, {r0, r3, r5, r8, r9, fp, ip, sp, lr}^
    9ca8:	31314954 	teqcc	r1, r4, asr r9
    9cac:	5047202c 	subpl	r2, r7, ip, lsr #32
    9cb0:	20414f49 	subcs	r4, r1, r9, asr #30
    9cb4:	5047202c 	subpl	r2, r7, ip, lsr #32
    9cb8:	505f4f49 	subspl	r4, pc, r9, asr #30
    9cbc:	315f4e49 	cmpcc	pc, r9, asr #28
    9cc0:	202c2031 	eorcs	r2, ip, r1, lsr r0
    9cc4:	49545845 	ldmdbmi	r4, {r0, r2, r6, fp, ip, lr}^
    9cc8:	495f3131 	ldmdbmi	pc, {r0, r4, r5, r8, ip, sp}^	; <UNPREDICTABLE>
    9ccc:	7d205152 	stfvcs	f5, [r0, #-328]!	; 0xfffffeb8
    9cd0:	43435200 	movtmi	r5, #12800	; 0x3200
    9cd4:	4332495f 	teqmi	r2, #1556480	; 0x17c000
    9cd8:	65525f31 	ldrbvs	r5, [r2, #-3889]	; 0xfffff0cf
    9cdc:	28746573 	ldmdacs	r4!, {r0, r1, r4, r5, r6, r8, sl, sp, lr}^
    9ce0:	52282029 	eorpl	r2, r8, #41	; 0x29
    9ce4:	3e2d4343 	cdpcc	3, 2, cr4, cr13, cr3, {2}
    9ce8:	31425041 	cmpcc	r2, r1, asr #32
    9cec:	52545352 	subspl	r5, r4, #1207959553	; 0x48000001
    9cf0:	203d7c20 	eorscs	r7, sp, r0, lsr #24
    9cf4:	323c3c31 	eorscc	r3, ip, #12544	; 0x3100
    9cf8:	41002931 	tstmi	r0, r1, lsr r9
    9cfc:	5f4f4946 	svcpl	0x004f4946
    9d00:	45534142 	ldrbmi	r4, [r3, #-322]	; 0xfffffebe
    9d04:	65502820 	ldrbvs	r2, [r0, #-2080]	; 0xfffff7e0
    9d08:	68706972 	ldmdavs	r0!, {r1, r4, r5, r6, r8, fp, sp, lr}^
    9d0c:	6c617265 	sfmvs	f7, 2, [r1], #-404	; 0xfffffe6c
    9d10:	41425f73 	hvcmi	9715	; 0x25f3
    9d14:	2b204553 	blcs	81b268 <_Min_Stack_Size+0x81ae68>
    9d18:	30783020 	rsbscc	r3, r8, r0, lsr #32
    9d1c:	30313030 	eorscc	r3, r1, r0, lsr r0
    9d20:	55303030 	ldrpl	r3, [r0, #-48]!	; 0xffffffd0
    9d24:	5f00294c 	svcpl	0x0000294c
    9d28:	4341535f 	movtmi	r5, #4959	; 0x135f
    9d2c:	5f4d5543 	svcpl	0x004d5543
    9d30:	49535045 	ldmdbmi	r3, {r0, r2, r6, ip, lr}^
    9d34:	5f4e4f4c 	svcpl	0x004e4f4c
    9d38:	7830205f 	ldmdavc	r0!, {r0, r1, r2, r3, r4, r6, sp}
    9d3c:	372d5031 			; <UNDEFINED> instruction: 0x372d5031
    9d40:	5f004b48 	svcpl	0x00004b48
    9d44:	4343475f 	movtmi	r4, #14175	; 0x375f
    9d48:	4d53415f 	ldfmie	f4, [r3, #-380]	; 0xfffffe84
    9d4c:	414c465f 	cmpmi	ip, pc, asr r6
    9d50:	554f5f47 	strbpl	r5, [pc, #-3911]	; 8e11 <_Min_Stack_Size+0x8a11>
    9d54:	54555054 	ldrbpl	r5, [r5], #-84	; 0xffffffac
    9d58:	205f5f53 	subscs	r5, pc, r3, asr pc	; <UNPREDICTABLE>
    9d5c:	525f0031 	subspl	r0, pc, #49	; 0x31
    9d60:	544e4545 	strbpl	r4, [lr], #-1349	; 0xfffffabb
    9d64:	4454535f 	ldrbmi	r5, [r4], #-863	; 0xfffffca1
    9d68:	2854554f 	ldmdacs	r4, {r0, r1, r2, r3, r6, r8, sl, ip, lr}^
    9d6c:	7274705f 	rsbsvc	r7, r4, #95	; 0x5f
    9d70:	28282029 	stmdacs	r8!, {r0, r3, r5, sp}
    9d74:	7274705f 	rsbsvc	r7, r4, #95	; 0x5f
    9d78:	5f3e2d29 	svcpl	0x003e2d29
    9d7c:	6f647473 	svcvs	0x00647473
    9d80:	00297475 	eoreq	r7, r9, r5, ror r4
    9d84:	49535f5f 	ldmdbmi	r3, {r0, r1, r2, r3, r4, r6, r8, r9, sl, fp, ip, lr}^
    9d88:	464f455a 			; <UNDEFINED> instruction: 0x464f455a
    9d8c:	4843575f 	stmdami	r3, {r0, r1, r2, r3, r4, r6, r8, r9, sl, ip, lr}^
    9d90:	545f5241 	ldrbpl	r5, [pc], #-577	; 9d98 <_Min_Stack_Size+0x9998>
    9d94:	34205f5f 	strtcc	r5, [r0], #-3935	; 0xfffff0a1
    9d98:	45525f00 	ldrbmi	r5, [r2, #-3840]	; 0xfffff100
    9d9c:	5f544e45 	svcpl	0x00544e45
    9da0:	43454843 	movtmi	r4, #22595	; 0x5843
    9da4:	45565f4b 	ldrbmi	r5, [r6, #-3915]	; 0xfffff0b5
    9da8:	59464952 	stmdbpl	r6, {r1, r4, r6, r8, fp, lr}^
    9dac:	49003120 	stmdbmi	r0, {r5, r8, ip, sp}
    9db0:	435f4332 	cmpmi	pc, #-939524096	; 0xc8000000
    9db4:	505f3152 	subspl	r3, pc, r2, asr r1	; <UNPREDICTABLE>
    9db8:	4d5f534f 	ldclmi	3, cr5, [pc, #-316]	; 9c84 <_Min_Stack_Size+0x9884>
    9dbc:	28206b73 	stmdacs	r0!, {r0, r1, r4, r5, r6, r8, r9, fp, sp, lr}
    9dc0:	55317830 	ldrpl	r7, [r1, #-2096]!	; 0xfffff7d0
    9dc4:	3c3c204c 	ldccc	0, cr2, [ip], #-304	; 0xfffffed0
    9dc8:	43324920 	teqmi	r2, #32, 18	; 0x80000
    9dcc:	3152435f 	cmpcc	r2, pc, asr r3
    9dd0:	534f505f 	movtpl	r5, #61535	; 0xf05f
    9dd4:	736f505f 	cmnvc	pc, #95	; 0x5f
    9dd8:	505f0029 	subspl	r0, pc, r9, lsr #32
    9ddc:	5849534f 	stmdapl	r9, {r0, r1, r2, r3, r6, r8, r9, ip, lr}^
    9de0:	554f535f 	strbpl	r5, [pc, #-863]	; 9a89 <_Min_Stack_Size+0x9689>
    9de4:	20454352 	subcs	r4, r5, r2, asr r3
    9de8:	43520031 	cmpmi	r2, #49	; 0x31
    9dec:	53555f43 	cmppl	r5, #268	; 0x10c
    9df0:	33545241 	cmpcc	r4, #268435460	; 0x10000004
    9df4:	4b4c435f 	blmi	131ab78 <_Min_Stack_Size+0x131a778>
    9df8:	284e455f 	stmdacs	lr, {r0, r1, r2, r3, r4, r6, r8, sl, lr}^
    9dfc:	20282029 	eorcs	r2, r8, r9, lsr #32
    9e00:	2d434352 	stclcs	3, cr4, [r3, #-328]	; 0xfffffeb8
    9e04:	4250413e 	subsmi	r4, r0, #-2147483633	; 0x8000000f
    9e08:	524e4531 	subpl	r4, lr, #205520896	; 0xc400000
    9e0c:	203d7c20 	eorscs	r7, sp, r0, lsr #24
    9e10:	3c3c3128 	ldfccs	f3, [ip], #-160	; 0xffffff60
    9e14:	20293831 	eorcs	r3, r9, r1, lsr r8
    9e18:	50470029 	subpl	r0, r7, r9, lsr #32
    9e1c:	4d5f4f49 	ldclmi	15, cr4, [pc, #-292]	; 9d00 <_Min_Stack_Size+0x9900>
    9e20:	5f45444f 	svcpl	0x0045444f
    9e24:	495f4641 	ldmdbmi	pc, {r0, r6, r9, sl, lr}^	; <UNPREDICTABLE>
    9e28:	5455504e 	ldrbpl	r5, [r5], #-78	; 0xffffffb2
    9e2c:	30783020 	rsbscc	r3, r8, r0, lsr #32
    9e30:	30303030 	eorscc	r3, r0, r0, lsr r0
    9e34:	75383030 	ldrvc	r3, [r8, #-48]!	; 0xffffffd0
    9e38:	555f5f00 	ldrbpl	r5, [pc, #-3840]	; 8f40 <_Min_Stack_Size+0x8b40>
    9e3c:	5f544e49 	svcpl	0x00544e49
    9e40:	54534146 	ldrbpl	r4, [r3], #-326	; 0xfffffeba
    9e44:	545f3631 	ldrbpl	r3, [pc], #-1585	; 9e4c <_Min_Stack_Size+0x9a4c>
    9e48:	5f455059 	svcpl	0x00455059
    9e4c:	6e75205f 	mrcvs	0, 3, r2, cr5, cr15, {2}
    9e50:	6e676973 			; <UNDEFINED> instruction: 0x6e676973
    9e54:	69206465 	stmdbvs	r0!, {r0, r2, r5, r6, sl, sp, lr}
    9e58:	4900746e 	stmdbmi	r0, {r1, r2, r3, r5, r6, sl, ip, sp, lr}
    9e5c:	5f314332 	svcpl	0x00314332
    9e60:	495f5245 	ldmdbmi	pc, {r0, r2, r6, r9, ip, lr}^	; <UNPREDICTABLE>
    9e64:	33205152 			; <UNDEFINED> instruction: 0x33205152
    9e68:	525f0032 	subspl	r0, pc, #50	; 0x32
    9e6c:	544e4545 	strbpl	r4, [lr], #-1349	; 0xfffffabb
    9e70:	4c424d5f 	mcrrmi	13, 5, r4, r2, cr15
    9e74:	535f4e45 	cmppl	pc, #1104	; 0x450
    9e78:	45544154 	ldrbmi	r4, [r4, #-340]	; 0xfffffeac
    9e7c:	72747028 	rsbsvc	r7, r4, #40	; 0x28
    9e80:	28282029 	stmdacs	r8!, {r0, r3, r5, sp}
    9e84:	29727470 	ldmdbcs	r2!, {r4, r5, r6, sl, ip, sp, lr}^
    9e88:	6d5f3e2d 	ldclvs	14, cr3, [pc, #-180]	; 9ddc <_Min_Stack_Size+0x99dc>
    9e8c:	2d637369 	stclcs	3, cr7, [r3, #-420]!	; 0xfffffe5c
    9e90:	626d5f3e 	rsbvs	r5, sp, #62, 30	; 0xf8
    9e94:	5f6e656c 	svcpl	0x006e656c
    9e98:	74617473 	strbtvc	r7, [r1], #-1139	; 0xfffffb8d
    9e9c:	5f002965 	svcpl	0x00002965
    9ea0:	554e475f 	strbpl	r4, [lr, #-1887]	; 0xfffff8a1
    9ea4:	54535f43 	ldrbpl	r5, [r3], #-3907	; 0xfffff0bd
    9ea8:	495f4344 	ldmdbmi	pc, {r2, r6, r8, r9, lr}^	; <UNPREDICTABLE>
    9eac:	4e494c4e 	cdpmi	12, 4, cr4, cr9, cr14, {2}
    9eb0:	205f5f45 	subscs	r5, pc, r5, asr #30
    9eb4:	5f5f0031 	svcpl	0x005f0031
    9eb8:	6465656e 	strbtvs	r6, [r5], #-1390	; 0xfffffa92
    9ebc:	6e69775f 	mcrvs	7, 3, r7, cr9, cr15, {2}
    9ec0:	20745f74 	rsbscs	r5, r4, r4, ror pc
    9ec4:	415f5f00 	cmpmi	pc, r0, lsl #30
    9ec8:	4d554343 	ldclmi	3, cr4, [r5, #-268]	; 0xfffffef4
    9ecc:	5350455f 	cmppl	r0, #398458880	; 0x17c00000
    9ed0:	4e4f4c49 	cdpmi	12, 4, cr4, cr15, cr9, {2}
    9ed4:	30205f5f 	eorcc	r5, r0, pc, asr pc
    9ed8:	2d503178 	ldfcse	f3, [r0, #-480]	; 0xfffffe20
    9edc:	004b3531 	subeq	r3, fp, r1, lsr r5
    9ee0:	4c555f5f 	mrrcmi	15, 5, r5, r5, cr15	; <UNPREDICTABLE>
    9ee4:	55434341 	strbpl	r4, [r3, #-833]	; 0xfffffcbf
    9ee8:	50455f4d 	subpl	r5, r5, sp, asr #30
    9eec:	4f4c4953 	svcmi	0x004c4953
    9ef0:	205f5f4e 	subscs	r5, pc, lr, asr #30
    9ef4:	50317830 	eorspl	r7, r1, r0, lsr r8
    9ef8:	5532332d 	ldrpl	r3, [r2, #-813]!	; 0xfffffcd3
    9efc:	5f004b4c 	svcpl	0x00004b4c
    9f00:	42444c5f 	submi	r4, r4, #24320	; 0x5f00
    9f04:	49445f4c 	stmdbmi	r4, {r2, r3, r6, r8, r9, sl, fp, ip, lr}^
    9f08:	205f5f47 	subscs	r5, pc, r7, asr #30
    9f0c:	49003531 	stmdbmi	r0, {r0, r4, r5, r8, sl, ip, sp}
    9f10:	535f4332 	cmppl	pc, #-939524096	; 0xc8000000
    9f14:	445f3252 	ldrbmi	r3, [pc], #-594	; 9f1c <_Min_Stack_Size+0x9b1c>
    9f18:	464c4155 			; <UNDEFINED> instruction: 0x464c4155
    9f1c:	736f505f 	cmnvc	pc, #95	; 0x5f
    9f20:	55372820 	ldrpl	r2, [r7, #-2080]!	; 0xfffff7e0
    9f24:	5f5f0029 	svcpl	0x005f0029
    9f28:	455a4953 	ldrbmi	r4, [sl, #-2387]	; 0xfffff6ad
    9f2c:	4449575f 	strbmi	r5, [r9], #-1887	; 0xfffff8a1
    9f30:	5f5f4854 	svcpl	0x005f4854
    9f34:	00323320 	eorseq	r3, r2, r0, lsr #6
    9f38:	4545525f 	strbmi	r5, [r5, #-607]	; 0xfffffda1
    9f3c:	4d5f544e 	cfldrdmi	mvd5, [pc, #-312]	; 9e0c <_Min_Stack_Size+0x9a0c>
    9f40:	45525f50 	ldrbmi	r5, [r2, #-3920]	; 0xfffff0b0
    9f44:	544c5553 	strbpl	r5, [ip], #-1363	; 0xfffffaad
    9f48:	72747028 	rsbsvc	r7, r4, #40	; 0x28
    9f4c:	28282029 	stmdacs	r8!, {r0, r3, r5, sp}
    9f50:	29727470 	ldmdbcs	r2!, {r4, r5, r6, sl, ip, sp, lr}^
    9f54:	6d5f3e2d 	ldclvs	14, cr3, [pc, #-180]	; 9ea8 <_Min_Stack_Size+0x9aa8>
    9f58:	5f3e2d70 	svcpl	0x003e2d70
    9f5c:	75736572 	ldrbvc	r6, [r3, #-1394]!	; 0xfffffa8e
    9f60:	0029746c 	eoreq	r7, r9, ip, ror #8
    9f64:	5f433249 	svcpl	0x00433249
    9f68:	5f315243 	svcpl	0x00315243
    9f6c:	204b4341 	subcs	r4, fp, r1, asr #6
    9f70:	5f433249 	svcpl	0x00433249
    9f74:	5f315243 	svcpl	0x00315243
    9f78:	5f4b4341 	svcpl	0x004b4341
    9f7c:	006b734d 	rsbeq	r7, fp, sp, asr #6
    9f80:	49575f5f 	ldmdbmi	r7, {r0, r1, r2, r3, r4, r6, r8, r9, sl, fp, ip, lr}^
    9f84:	4d5f544e 	cfldrdmi	mvd5, [pc, #-312]	; 9e54 <_Min_Stack_Size+0x9a54>
    9f88:	5f5f4e49 	svcpl	0x005f4e49
    9f8c:	00553020 	subseq	r3, r5, r0, lsr #32
    9f90:	49545845 	ldmdbmi	r4, {r0, r2, r6, fp, ip, lr}^
    9f94:	31425031 	cmpcc	r2, r1, lsr r0
    9f98:	58452820 	stmdapl	r5, {r5, fp, sp}^
    9f9c:	475f4954 			; <UNDEFINED> instruction: 0x475f4954
    9fa0:	5f4f4950 	svcpl	0x004f4950
    9fa4:	7070614d 	rsbsvc	r6, r0, sp, asr #2
    9fa8:	5f676e69 	svcpl	0x00676e69
    9fac:	457b2974 	ldrbmi	r2, [fp, #-2420]!	; 0xfffff68c
    9fb0:	31495458 	cmpcc	r9, r8, asr r4
    9fb4:	5047202c 	subpl	r2, r7, ip, lsr #32
    9fb8:	20424f49 	subcs	r4, r2, r9, asr #30
    9fbc:	5047202c 	subpl	r2, r7, ip, lsr #32
    9fc0:	505f4f49 	subspl	r4, pc, r9, asr #30
    9fc4:	315f4e49 	cmpcc	pc, r9, asr #28
    9fc8:	58452c20 	stmdapl	r5, {r5, sl, fp, sp}^
    9fcc:	5f314954 	svcpl	0x00314954
    9fd0:	20515249 	subscs	r5, r1, r9, asr #4
    9fd4:	5f5f007d 	svcpl	0x005f007d
    9fd8:	36544c46 	ldrbcc	r4, [r4], -r6, asr #24
    9fdc:	49445f34 	stmdbmi	r4, {r2, r4, r5, r8, r9, sl, fp, ip, lr}^
    9fe0:	205f5f47 	subscs	r5, pc, r7, asr #30
    9fe4:	5f003531 	svcpl	0x00003531
    9fe8:	33544e49 	cmpcc	r4, #1168	; 0x490
    9fec:	51455f32 	cmppl	r5, r2, lsr pc
    9ff0:	4e4f4c5f 	mcrmi	12, 2, r4, cr15, cr15, {2}
    9ff4:	45002047 	strmi	r2, [r0, #-71]	; 0xffffffb9
    9ff8:	31495458 	cmpcc	r9, r8, asr r4
    9ffc:	35312035 	ldrcc	r2, [r1, #-53]!	; 0xffffffcb
    a000:	575f5f00 	ldrbpl	r5, [pc, -r0, lsl #30]
    a004:	5f544e49 	svcpl	0x00544e49
    a008:	5f58414d 	svcpl	0x0058414d
    a00c:	7830205f 	ldmdavc	r0!, {r0, r1, r2, r3, r4, r6, sp}
    a010:	66666666 	strbtvs	r6, [r6], -r6, ror #12
    a014:	66666666 	strbtvs	r6, [r6], -r6, ror #12
    a018:	5f5f0055 	svcpl	0x005f0055
    a01c:	5f544e49 	svcpl	0x00544e49
    a020:	5341454c 	movtpl	r4, #5452	; 0x154c
    a024:	575f3854 			; <UNDEFINED> instruction: 0x575f3854
    a028:	48544449 	ldmdami	r4, {r0, r3, r6, sl, lr}^
    a02c:	38205f5f 	stmdacc	r0!, {r0, r1, r2, r3, r4, r6, r8, r9, sl, fp, ip, lr}
    a030:	6c5f5f00 	mrrcvs	15, 0, r5, pc, cr0	; <UNPREDICTABLE>
    a034:	5f676e6f 	svcpl	0x00676e6f
    a038:	62756f64 	rsbsvs	r6, r5, #100, 30	; 0x190
    a03c:	745f656c 	ldrbvc	r6, [pc], #-1388	; a044 <_Min_Stack_Size+0x9c44>
    a040:	6e6f6c20 	cdpvs	12, 6, cr6, cr15, cr0, {1}
    a044:	6f642067 	svcvs	0x00642067
    a048:	656c6275 	strbvs	r6, [ip, #-629]!	; 0xfffffd8b
    a04c:	495f5f00 	ldmdbmi	pc, {r8, r9, sl, fp, ip, lr}^	; <UNPREDICTABLE>
    a050:	4c5f544e 	cfldrdmi	mvd5, [pc], {78}	; 0x4e
    a054:	54534145 	ldrbpl	r4, [r3], #-325	; 0xfffffebb
    a058:	545f3631 	ldrbpl	r3, [pc], #-1585	; a060 <_Min_Stack_Size+0x9c60>
    a05c:	5f455059 	svcpl	0x00455059
    a060:	6873205f 	ldmdavs	r3!, {r0, r1, r2, r3, r4, r6, sp}^
    a064:	2074726f 	rsbscs	r7, r4, pc, ror #4
    a068:	00746e69 	rsbseq	r6, r4, r9, ror #28
    a06c:	51515f5f 	cmppl	r1, pc, asr pc
    a070:	4942465f 	stmdbmi	r2, {r0, r1, r2, r3, r4, r6, r9, sl, lr}^
    a074:	205f5f54 	subscs	r5, pc, r4, asr pc	; <UNPREDICTABLE>
    a078:	32490037 	subcc	r0, r9, #55	; 0x37
    a07c:	52535f43 	subspl	r5, r3, #268	; 0x10c
    a080:	45505f32 	ldrbmi	r5, [r0, #-3890]	; 0xfffff0ce
    a084:	734d5f43 	movtvc	r5, #57155	; 0xdf43
    a088:	3028206b 	eorcc	r2, r8, fp, rrx
    a08c:	55464678 	strbpl	r4, [r6, #-1656]	; 0xfffff988
    a090:	3c3c204c 	ldccc	0, cr2, [ip], #-304	; 0xfffffed0
    a094:	43324920 	teqmi	r2, #32, 18	; 0x80000
    a098:	3252535f 	subscc	r5, r2, #2080374785	; 0x7c000001
    a09c:	4345505f 	movtmi	r5, #20575	; 0x505f
    a0a0:	736f505f 	cmnvc	pc, #95	; 0x5f
    a0a4:	5f5f0029 	svcpl	0x005f0029
    a0a8:	5f4c4244 	svcpl	0x004c4244
    a0ac:	5f58414d 	svcpl	0x0058414d
    a0b0:	2828205f 	stmdacs	r8!, {r0, r1, r2, r3, r4, r6, sp}
    a0b4:	62756f64 	rsbsvs	r6, r5, #100, 30	; 0x190
    a0b8:	3129656c 			; <UNDEFINED> instruction: 0x3129656c
    a0bc:	3739372e 	ldrcc	r3, [r9, -lr, lsr #14]!
    a0c0:	31333936 	teqcc	r3, r6, lsr r9
    a0c4:	36383433 			; <UNDEFINED> instruction: 0x36383433
    a0c8:	35313332 	ldrcc	r3, [r1, #-818]!	; 0xfffffcce
    a0cc:	332b6537 			; <UNDEFINED> instruction: 0x332b6537
    a0d0:	294c3830 	stmdbcs	ip, {r4, r5, fp, ip, sp}^
    a0d4:	43324900 	teqmi	r2, #0, 18
    a0d8:	3152435f 	cmpcc	r2, pc, asr r3
    a0dc:	414e455f 	cmpmi	lr, pc, asr r5
    a0e0:	4d5f5052 	ldclmi	0, cr5, [pc, #-328]	; 9fa0 <_Min_Stack_Size+0x9ba0>
    a0e4:	28206b73 	stmdacs	r0!, {r0, r1, r4, r5, r6, r8, r9, fp, sp, lr}
    a0e8:	55317830 	ldrpl	r7, [r1, #-2096]!	; 0xfffff7d0
    a0ec:	3c3c204c 	ldccc	0, cr2, [ip], #-304	; 0xfffffed0
    a0f0:	43324920 	teqmi	r2, #32, 18	; 0x80000
    a0f4:	3152435f 	cmpcc	r2, pc, asr r3
    a0f8:	414e455f 	cmpmi	lr, pc, asr r5
    a0fc:	505f5052 	subspl	r5, pc, r2, asr r0	; <UNPREDICTABLE>
    a100:	0029736f 	eoreq	r7, r9, pc, ror #6
    a104:	4c4c5f5f 	mcrrmi	15, 5, r5, ip, cr15
    a108:	43415246 	movtmi	r5, #4678	; 0x1246
    a10c:	42465f54 	submi	r5, r6, #84, 30	; 0x150
    a110:	5f5f5449 	svcpl	0x005f5449
    a114:	00333620 	eorseq	r3, r3, r0, lsr #12
    a118:	4c465f5f 	mcrrmi	15, 5, r5, r6, cr15
    a11c:	5f323354 	svcpl	0x00323354
    a120:	5f534148 	svcpl	0x00534148
    a124:	49464e49 	stmdbmi	r6, {r0, r3, r6, r9, sl, fp, lr}^
    a128:	5954494e 	ldmdbpl	r4, {r1, r2, r3, r6, r8, fp, lr}^
    a12c:	31205f5f 			; <UNDEFINED> instruction: 0x31205f5f
    a130:	45525f00 	ldrbmi	r5, [r2, #-3840]	; 0xfffff100
    a134:	5f544e45 	svcpl	0x00544e45
    a138:	54494e49 	strbpl	r4, [r9], #-3657	; 0xfffff1b7
    a13c:	72617628 	rsbvc	r7, r1, #40, 12	; 0x2800000
    a140:	207b2029 	rsbscs	r2, fp, r9, lsr #32
    a144:	26202c30 			; <UNDEFINED> instruction: 0x26202c30
    a148:	66735f5f 	uhsaxvs	r5, r3, pc	; <UNPREDICTABLE>
    a14c:	2c5d305b 	mrrccs	0, 5, r3, sp, cr11
    a150:	5f5f2620 	svcpl	0x005f2620
    a154:	315b6673 	cmpcc	fp, r3, ror r6
    a158:	26202c5d 			; <UNDEFINED> instruction: 0x26202c5d
    a15c:	66735f5f 	uhsaxvs	r5, r3, pc	; <UNPREDICTABLE>
    a160:	2c5d325b 	lfmcs	f3, 2, [sp], {91}	; 0x5b
    a164:	202c3020 	eorcs	r3, ip, r0, lsr #32
    a168:	4c554e5f 	mrrcmi	14, 5, r4, r5, cr15
    a16c:	5f202c4c 	svcpl	0x00202c4c
    a170:	4e454552 	mcrmi	5, 2, r4, cr5, cr2, {2}
    a174:	4e495f54 	mcrmi	15, 2, r5, cr9, cr4, {2}
    a178:	525f5449 	subspl	r5, pc, #1224736768	; 0x49000000
    a17c:	52455345 	subpl	r5, r5, #335544321	; 0x14000001
    a180:	5f444556 	svcpl	0x00444556
    a184:	525f2030 	subspl	r2, pc, #48	; 0x30
    a188:	544e4545 	strbpl	r4, [lr], #-1349	; 0xfffffabb
    a18c:	494e495f 	stmdbmi	lr, {r0, r1, r2, r3, r4, r6, r8, fp, lr}^
    a190:	45525f54 	ldrbmi	r5, [r2, #-3924]	; 0xfffff0ac
    a194:	56524553 			; <UNDEFINED> instruction: 0x56524553
    a198:	315f4445 	cmpcc	pc, r5, asr #8
    a19c:	554e5f20 	strbpl	r5, [lr, #-3872]	; 0xfffff0e0
    a1a0:	202c4c4c 	eorcs	r4, ip, ip, asr #24
    a1a4:	4c554e5f 	mrrcmi	14, 5, r4, r5, cr15
    a1a8:	5f202c4c 	svcpl	0x00202c4c
    a1ac:	4c4c554e 	cfstr64mi	mvdx5, [ip], {78}	; 0x4e
    a1b0:	2c30202c 	ldccs	0, cr2, [r0], #-176	; 0xffffff50
    a1b4:	202c3020 	eorcs	r3, ip, r0, lsr #32
    a1b8:	4c554e5f 	mrrcmi	14, 5, r4, r5, cr15
    a1bc:	5f202c4c 	svcpl	0x00202c4c
    a1c0:	4c4c554e 	cfstr64mi	mvdx5, [ip], {78}	; 0x4e
    a1c4:	4e5f202c 	cdpmi	0, 5, cr2, cr15, cr12, {1}
    a1c8:	2c4c4c55 	mcrrcs	12, 5, r4, ip, cr5
    a1cc:	554e5f20 	strbpl	r5, [lr, #-3872]	; 0xfffff0e0
    a1d0:	202c4c4c 	eorcs	r4, ip, ip, asr #24
    a1d4:	4c554e5f 	mrrcmi	14, 5, r4, r5, cr15
    a1d8:	5f202c4c 	svcpl	0x00202c4c
    a1dc:	4e454552 	mcrmi	5, 2, r4, cr5, cr2, {2}
    a1e0:	4e495f54 	mcrmi	15, 2, r5, cr9, cr4, {2}
    a1e4:	525f5449 	subspl	r5, pc, #1224736768	; 0x49000000
    a1e8:	52455345 	subpl	r5, r5, #335544321	; 0x14000001
    a1ec:	5f444556 	svcpl	0x00444556
    a1f0:	20375f36 	eorscs	r5, r7, r6, lsr pc
    a1f4:	4545525f 	strbmi	r5, [r5, #-607]	; 0xfffffda1
    a1f8:	495f544e 	ldmdbmi	pc, {r1, r2, r3, r6, sl, ip, lr}^	; <UNPREDICTABLE>
    a1fc:	5f54494e 	svcpl	0x0054494e
    a200:	45534552 	ldrbmi	r4, [r3, #-1362]	; 0xfffffaae
    a204:	44455652 	strbmi	r5, [r5], #-1618	; 0xfffff9ae
    a208:	5f20385f 	svcpl	0x0020385f
    a20c:	4c4c554e 	cfstr64mi	mvdx5, [ip], {78}	; 0x4e
    a210:	4e5f202c 	cdpmi	0, 5, cr2, cr15, cr12, {1}
    a214:	2c4c4c55 	mcrrcs	12, 5, r4, ip, cr5
    a218:	554e5f20 	strbpl	r5, [lr, #-3872]	; 0xfffff0e0
    a21c:	7d204c4c 	stcvc	12, cr4, [r0, #-304]!	; 0xfffffed0
    a220:	54584500 	ldrbpl	r4, [r8], #-1280	; 0xfffffb00
    a224:	50323149 	eorspl	r3, r2, r9, asr #2
    a228:	20323143 	eorscs	r3, r2, r3, asr #2
    a22c:	54584528 	ldrbpl	r4, [r8], #-1320	; 0xfffffad8
    a230:	50475f49 	subpl	r5, r7, r9, asr #30
    a234:	4d5f4f49 	ldclmi	15, cr4, [pc, #-292]	; a118 <_Min_Stack_Size+0x9d18>
    a238:	69707061 	ldmdbvs	r0!, {r0, r5, r6, ip, sp, lr}^
    a23c:	745f676e 	ldrbvc	r6, [pc], #-1902	; a244 <_Min_Stack_Size+0x9e44>
    a240:	58457b29 	stmdapl	r5, {r0, r3, r5, r8, r9, fp, ip, sp, lr}^
    a244:	32314954 	eorscc	r4, r1, #84, 18	; 0x150000
    a248:	47202c20 	strmi	r2, [r0, -r0, lsr #24]!
    a24c:	434f4950 	movtmi	r4, #63824	; 0xf950
    a250:	47202c20 	strmi	r2, [r0, -r0, lsr #24]!
    a254:	5f4f4950 	svcpl	0x004f4950
    a258:	5f4e4950 	svcpl	0x004e4950
    a25c:	2c203231 	sfmcs	f3, 4, [r0], #-196	; 0xffffff3c
    a260:	49545845 	ldmdbmi	r4, {r0, r2, r6, fp, ip, lr}^
    a264:	495f3231 	ldmdbmi	pc, {r0, r4, r5, r9, ip, sp}^	; <UNPREDICTABLE>
    a268:	7d205152 	stfvcs	f5, [r0, #-328]!	; 0xfffffeb8
    a26c:	54584500 	ldrbpl	r4, [r8], #-1280	; 0xfffffb00
    a270:	41503449 	cmpmi	r0, r9, asr #8
    a274:	45282034 	strmi	r2, [r8, #-52]!	; 0xffffffcc
    a278:	5f495458 	svcpl	0x00495458
    a27c:	4f495047 	svcmi	0x00495047
    a280:	70614d5f 	rsbvc	r4, r1, pc, asr sp
    a284:	676e6970 			; <UNDEFINED> instruction: 0x676e6970
    a288:	7b29745f 	blvc	a6740c <_Min_Stack_Size+0xa6700c>
    a28c:	49545845 	ldmdbmi	r4, {r0, r2, r6, fp, ip, lr}^
    a290:	47202c34 			; <UNDEFINED> instruction: 0x47202c34
    a294:	414f4950 	cmpmi	pc, r0, asr r9	; <UNPREDICTABLE>
    a298:	47202c20 	strmi	r2, [r0, -r0, lsr #24]!
    a29c:	5f4f4950 	svcpl	0x004f4950
    a2a0:	5f4e4950 	svcpl	0x004e4950
    a2a4:	202c2034 	eorcs	r2, ip, r4, lsr r0
    a2a8:	49545845 	ldmdbmi	r4, {r0, r2, r6, fp, ip, lr}^
    a2ac:	52495f34 	subpl	r5, r9, #52, 30	; 0xd0
    a2b0:	007d2051 	rsbseq	r2, sp, r1, asr r0
    a2b4:	52415f5f 	subpl	r5, r1, #380	; 0x17c
    a2b8:	5f4c454d 	svcpl	0x004c454d
    a2bc:	0031205f 	eorseq	r2, r1, pc, asr r0
    a2c0:	544e495f 	strbpl	r4, [lr], #-2399	; 0xfffff6a1
    a2c4:	5f58414d 	svcpl	0x0058414d
    a2c8:	45445f54 	strbmi	r5, [r4, #-3924]	; 0xfffff0ac
    a2cc:	52414c43 	subpl	r4, r1, #17152	; 0x4300
    a2d0:	00204445 	eoreq	r4, r0, r5, asr #8
    a2d4:	6f665f5f 	svcvs	0x00665f5f
    a2d8:	74616d72 	strbtvc	r6, [r1], #-3442	; 0xfffff28e
    a2dc:	6772615f 			; <UNDEFINED> instruction: 0x6772615f
    a2e0:	746d6628 	strbtvc	r6, [sp], #-1576	; 0xfffff9d8
    a2e4:	29677261 	stmdbcs	r7!, {r0, r5, r6, r9, ip, sp, lr}^
    a2e8:	615f5f20 	cmpvs	pc, r0, lsr #30
    a2ec:	69727474 	ldmdbvs	r2!, {r2, r4, r5, r6, sl, ip, sp, lr}^
    a2f0:	65747562 	ldrbvs	r7, [r4, #-1378]!	; 0xfffffa9e
    a2f4:	28285f5f 	stmdacs	r8!, {r0, r1, r2, r3, r4, r6, r8, r9, sl, fp, ip, lr}
    a2f8:	6f665f5f 	svcvs	0x00665f5f
    a2fc:	74616d72 	strbtvc	r6, [r1], #-3442	; 0xfffff28e
    a300:	6772615f 			; <UNDEFINED> instruction: 0x6772615f
    a304:	28205f5f 	stmdacs	r0!, {r0, r1, r2, r3, r4, r6, r8, r9, sl, fp, ip, lr}
    a308:	61746d66 	cmnvs	r4, r6, ror #26
    a30c:	29296772 	stmdbcs	r9!, {r1, r4, r5, r6, r8, r9, sl, sp, lr}
    a310:	5f5f0029 	svcpl	0x005f0029
    a314:	706d6f63 	rsbvc	r6, sp, r3, ror #30
    a318:	72656c69 	rsbvc	r6, r5, #26880	; 0x6900
    a31c:	6d656d5f 	stclvs	13, cr6, [r5, #-380]!	; 0xfffffe84
    a320:	28726162 	ldmdacs	r2!, {r1, r5, r6, r8, sp, lr}^
    a324:	5f5f2029 	svcpl	0x005f2029
    a328:	206d7361 	rsbcs	r7, sp, r1, ror #6
    a32c:	6f765f5f 	svcvs	0x00765f5f
    a330:	6974616c 	ldmdbvs	r4!, {r2, r3, r5, r6, r8, sp, lr}^
    a334:	2228656c 	eorcs	r6, r8, #108, 10	; 0x1b000000
    a338:	3a202220 	bcc	812bc0 <_Min_Stack_Size+0x8127c0>
    a33c:	3a203a20 	bcc	818bc4 <_Min_Stack_Size+0x8187c4>
    a340:	656d2220 	strbvs	r2, [sp, #-544]!	; 0xfffffde0
    a344:	79726f6d 	ldmdbvc	r2!, {r0, r2, r3, r5, r6, r8, r9, sl, fp, sp, lr}^
    a348:	5f002922 	svcpl	0x00002922
    a34c:	5f51485f 	svcpl	0x0051485f
    a350:	54494246 	strbpl	r4, [r9], #-582	; 0xfffffdba
    a354:	31205f5f 			; <UNDEFINED> instruction: 0x31205f5f
    a358:	564e0035 			; <UNDEFINED> instruction: 0x564e0035
    a35c:	495f4349 	ldmdbmi	pc, {r0, r3, r6, r8, r9, lr}^	; <UNPREDICTABLE>
    a360:	34335152 	ldrtcc	r5, [r3], #-338	; 0xfffffeae
    a364:	4332495f 	teqmi	r2, #1556480	; 0x17c000
    a368:	52455f32 	subpl	r5, r5, #50, 30	; 0xc8
    a36c:	7369445f 	cmnvc	r9, #1593835520	; 0x5f000000
    a370:	656c6261 	strbvs	r6, [ip, #-609]!	; 0xfffffd9f
    a374:	564e2820 	strbpl	r2, [lr], -r0, lsr #16
    a378:	495f4349 	ldmdbmi	pc, {r0, r3, r6, r8, r9, lr}^	; <UNPREDICTABLE>
    a37c:	31524543 	cmpcc	r2, r3, asr #10
    a380:	203d7c20 	eorscs	r7, sp, r0, lsr #24
    a384:	283c3c31 	ldmdacs	ip!, {r0, r4, r5, sl, fp, ip, sp}
    a388:	43324920 	teqmi	r2, #32, 18	; 0x80000
    a38c:	52455f32 	subpl	r5, r5, #50, 30	; 0xc8
    a390:	5152495f 	cmppl	r2, pc, asr r9
    a394:	33202d20 			; <UNDEFINED> instruction: 0x33202d20
    a398:	29292032 	stmdbcs	r9!, {r1, r4, r5, sp}
    a39c:	645f5f00 	ldrbvs	r5, [pc], #-3840	; a3a4 <_Min_Stack_Size+0x9fa4>
    a3a0:	74617461 	strbtvc	r7, [r1], #-1121	; 0xfffffb9f
    a3a4:	5f657079 	svcpl	0x00657079
    a3a8:	65707974 	ldrbvs	r7, [r0, #-2420]!	; 0xfffff68c
    a3ac:	6761745f 			; <UNDEFINED> instruction: 0x6761745f
    a3b0:	6e696b28 	vmulvs.f64	d22, d9, d24
    a3b4:	79742c64 	ldmdbvc	r4!, {r2, r5, r6, sl, fp, sp}^
    a3b8:	20296570 	eorcs	r6, r9, r0, ror r5
    a3bc:	535f5f00 	cmppl	pc, #0, 30
    a3c0:	5f455a49 	svcpl	0x00455a49
    a3c4:	5f58414d 	svcpl	0x0058414d
    a3c8:	7830205f 	ldmdavc	r0!, {r0, r1, r2, r3, r4, r6, sp}
    a3cc:	66666666 	strbtvs	r6, [r6], -r6, ror #12
    a3d0:	66666666 	strbtvs	r6, [r6], -r6, ror #12
    a3d4:	32490055 	subcc	r0, r9, #85	; 0x55
    a3d8:	52435f43 	subpl	r5, r3, #268	; 0x10c
    a3dc:	52465f32 	subpl	r5, r6, #50, 30	; 0xc8
    a3e0:	49205145 	stmdbmi	r0!, {r0, r2, r6, r8, ip, lr}
    a3e4:	435f4332 	cmpmi	pc, #-939524096	; 0xc8000000
    a3e8:	465f3252 			; <UNDEFINED> instruction: 0x465f3252
    a3ec:	5f514552 	svcpl	0x00514552
    a3f0:	006b734d 	rsbeq	r7, fp, sp, asr #6
    a3f4:	32433249 	subcc	r3, r3, #-1879048188	; 0x90000004
    a3f8:	5341425f 	movtpl	r4, #4703	; 0x125f
    a3fc:	30282045 	eorcc	r2, r8, r5, asr #32
    a400:	30303478 	eorscc	r3, r0, r8, ror r4
    a404:	30383530 	eorscc	r3, r8, r0, lsr r5
    a408:	294c5530 	stmdbcs	ip, {r4, r5, r8, sl, ip, lr}^
    a40c:	495f5f00 	ldmdbmi	pc, {r8, r9, sl, fp, ip, lr}^	; <UNPREDICTABLE>
    a410:	3436544e 	ldrtcc	r5, [r6], #-1102	; 0xfffffbb2
    a414:	6c6c2220 	sfmvs	f2, 2, [ip], #-128	; 0xffffff80
    a418:	5f5f0022 	svcpl	0x005f0022
    a41c:	61776c61 	cmnvs	r7, r1, ror #24
    a420:	695f7379 	ldmdbvs	pc, {r0, r3, r4, r5, r6, r8, r9, ip, sp, lr}^	; <UNPREDICTABLE>
    a424:	6e696c6e 	cdpvs	12, 6, cr6, cr9, cr14, {3}
    a428:	5f5f2065 	svcpl	0x005f2065
    a42c:	696c6e69 	stmdbvs	ip!, {r0, r3, r5, r6, r9, sl, fp, sp, lr}^
    a430:	5f5f656e 	svcpl	0x005f656e
    a434:	615f5f20 	cmpvs	pc, r0, lsr #30
    a438:	69727474 	ldmdbvs	r2!, {r2, r4, r5, r6, sl, ip, sp, lr}^
    a43c:	65747562 	ldrbvs	r7, [r4, #-1378]!	; 0xfffffa9e
    a440:	28285f5f 	stmdacs	r8!, {r0, r1, r2, r3, r4, r6, r8, r9, sl, fp, ip, lr}
    a444:	6c615f5f 	stclvs	15, cr5, [r1], #-380	; 0xfffffe84
    a448:	73796177 	cmnvc	r9, #-1073741795	; 0xc000001d
    a44c:	6c6e695f 			; <UNDEFINED> instruction: 0x6c6e695f
    a450:	5f656e69 	svcpl	0x00656e69
    a454:	0029295f 	eoreq	r2, r9, pc, asr r9
    a458:	52415f5f 	subpl	r5, r1, #380	; 0x17c
    a45c:	52415f4d 	subpl	r5, r1, #308	; 0x134
    a460:	45004843 	strmi	r4, [r0, #-2115]	; 0xfffff7bd
    a464:	31495458 	cmpcc	r9, r8, asr r4
    a468:	31445034 	cmpcc	r4, r4, lsr r0
    a46c:	45282034 	strmi	r2, [r8, #-52]!	; 0xffffffcc
    a470:	5f495458 	svcpl	0x00495458
    a474:	4f495047 	svcmi	0x00495047
    a478:	70614d5f 	rsbvc	r4, r1, pc, asr sp
    a47c:	676e6970 			; <UNDEFINED> instruction: 0x676e6970
    a480:	7b29745f 	blvc	a67604 <_Min_Stack_Size+0xa67204>
    a484:	49545845 	ldmdbmi	r4, {r0, r2, r6, fp, ip, lr}^
    a488:	2c203431 	cfstrscs	mvf3, [r0], #-196	; 0xffffff3c
    a48c:	49504720 	ldmdbmi	r0, {r5, r8, r9, sl, lr}^
    a490:	2c20444f 	cfstrscs	mvf4, [r0], #-316	; 0xfffffec4
    a494:	49504720 	ldmdbmi	r0, {r5, r8, r9, sl, lr}^
    a498:	49505f4f 	ldmdbmi	r0, {r0, r1, r2, r3, r6, r8, r9, sl, fp, ip, lr}^
    a49c:	34315f4e 	ldrtcc	r5, [r1], #-3918	; 0xfffff0b2
    a4a0:	45202c20 	strmi	r2, [r0, #-3104]!	; 0xfffff3e0
    a4a4:	31495458 	cmpcc	r9, r8, asr r4
    a4a8:	52495f34 	subpl	r5, r9, #52, 30	; 0xd0
    a4ac:	55007d51 	strpl	r7, [r0, #-3409]	; 0xfffff2af
    a4b0:	38544e49 	ldmdacc	r4, {r0, r3, r6, r9, sl, fp, lr}^
    a4b4:	58414d5f 	stmdapl	r1, {r0, r1, r2, r3, r4, r6, r8, sl, fp, lr}^
    a4b8:	5f5f2820 	svcpl	0x005f2820
    a4bc:	544e4955 	strbpl	r4, [lr], #-2389	; 0xfffff6ab
    a4c0:	414d5f38 	cmpmi	sp, r8, lsr pc
    a4c4:	295f5f58 	ldmdbcs	pc, {r3, r4, r6, r8, r9, sl, fp, ip, lr}^	; <UNPREDICTABLE>
    a4c8:	4c5f5f00 	mrrcmi	15, 0, r5, pc, cr0	; <UNPREDICTABLE>
    a4cc:	5f474e4f 	svcpl	0x00474e4f
    a4d0:	5f58414d 	svcpl	0x0058414d
    a4d4:	7830205f 	ldmdavc	r0!, {r0, r1, r2, r3, r4, r6, sp}
    a4d8:	66666637 			; <UNDEFINED> instruction: 0x66666637
    a4dc:	66666666 	strbtvs	r6, [r6], -r6, ror #12
    a4e0:	5047004c 	subpl	r0, r7, ip, asr #32
    a4e4:	535f4f49 	cmppl	pc, #292	; 0x124
    a4e8:	44454550 	strbmi	r4, [r5], #-1360	; 0xfffffab0
    a4ec:	204d325f 	subcs	r3, sp, pc, asr r2
    a4f0:	30307830 	eorscc	r7, r0, r0, lsr r8
    a4f4:	30303030 	eorscc	r3, r0, r0, lsr r0
    a4f8:	00753230 	rsbseq	r3, r5, r0, lsr r2
    a4fc:	5359535f 	cmppl	r9, #2080374785	; 0x7c000001
    a500:	4544435f 	strbmi	r4, [r4, #-863]	; 0xfffffca1
    a504:	485f5346 	ldmdami	pc, {r1, r2, r6, r8, r9, ip, lr}^	; <UNPREDICTABLE>
    a508:	5500205f 	strpl	r2, [r0, #-95]	; 0xffffffa1
    a50c:	5f544e49 	svcpl	0x00544e49
    a510:	54534146 	ldrbpl	r4, [r3], #-326	; 0xfffffeba
    a514:	414d5f38 	cmpmi	sp, r8, lsr pc
    a518:	5f282058 	svcpl	0x00282058
    a51c:	4e49555f 	mcrmi	5, 2, r5, cr9, cr15, {2}
    a520:	41465f54 	cmpmi	r6, r4, asr pc
    a524:	5f385453 	svcpl	0x00385453
    a528:	5f58414d 	svcpl	0x0058414d
    a52c:	4900295f 	stmdbmi	r0, {r0, r1, r2, r3, r4, r6, r8, fp, sp}
    a530:	435f4332 	cmpmi	pc, #-939524096	; 0xc8000000
    a534:	535f3152 	cmppl	pc, #-2147483628	; 0x80000014
    a538:	5954424d 	ldmdbpl	r4, {r0, r2, r3, r6, r9, lr}^
    a53c:	505f4550 	subspl	r4, pc, r0, asr r5	; <UNPREDICTABLE>
    a540:	2820736f 	stmdacs	r0!, {r0, r1, r2, r3, r5, r6, r8, r9, ip, sp, lr}
    a544:	00295533 	eoreq	r5, r9, r3, lsr r5
    a548:	676e6f6c 	strbvs	r6, [lr, -ip, ror #30]!
    a54c:	00342b20 	eorseq	r2, r4, r0, lsr #22
    a550:	49545845 	ldmdbmi	r4, {r0, r2, r6, fp, ip, lr}^
    a554:	00332033 	eorseq	r2, r3, r3, lsr r0
    a558:	6f6e5f5f 	svcvs	0x006e5f5f
    a55c:	6c756e6e 	ldclvs	14, cr6, [r5], #-440	; 0xfffffe48
    a560:	2978286c 	ldmdbcs	r8!, {r2, r3, r5, r6, fp, sp}^
    a564:	615f5f20 	cmpvs	pc, r0, lsr #30
    a568:	69727474 	ldmdbvs	r2!, {r2, r4, r5, r6, sl, ip, sp, lr}^
    a56c:	65747562 	ldrbvs	r7, [r4, #-1378]!	; 0xfffffa9e
    a570:	28285f5f 	stmdacs	r8!, {r0, r1, r2, r3, r4, r6, r8, r9, sl, fp, ip, lr}
    a574:	6f6e5f5f 	svcvs	0x006e5f5f
    a578:	6c756e6e 	ldclvs	14, cr6, [r5], #-440	; 0xfffffe48
    a57c:	205f5f6c 	subscs	r5, pc, ip, ror #30
    a580:	00292978 	eoreq	r2, r9, r8, ror r9
    a584:	4e41525f 	mcrmi	2, 2, r5, cr1, cr15, {2}
    a588:	5f383444 	svcpl	0x00383444
    a58c:	20444441 	subcs	r4, r4, r1, asr #8
    a590:	30783028 	rsbscc	r3, r8, r8, lsr #32
    a594:	29623030 	stmdbcs	r2!, {r4, r5, ip, sp}^
    a598:	49584500 	ldmdbmi	r8, {r8, sl, lr}^
    a59c:	41465f54 	cmpmi	r6, r4, asr pc
    a5a0:	52554c49 	subspl	r4, r5, #18688	; 0x4900
    a5a4:	00312045 	eorseq	r2, r1, r5, asr #32
    a5a8:	49545845 	ldmdbmi	r4, {r0, r2, r6, fp, ip, lr}^
    a5ac:	52495f31 	subpl	r5, r9, #49, 30	; 0xc4
    a5b0:	00372051 	eorseq	r2, r7, r1, asr r0
    a5b4:	49545845 	ldmdbmi	r4, {r0, r2, r6, fp, ip, lr}^
    a5b8:	31203331 			; <UNDEFINED> instruction: 0x31203331
    a5bc:	5f5f0033 	svcpl	0x005f0033
    a5c0:	5f4d5241 	svcpl	0x004d5241
    a5c4:	54414546 	strbpl	r4, [r1], #-1350	; 0xfffffaba
    a5c8:	5f455255 	svcpl	0x00455255
    a5cc:	4552444c 	ldrbmi	r4, [r2, #-1100]	; 0xfffffbb4
    a5d0:	00372058 	eorseq	r2, r7, r8, asr r0
    a5d4:	6f6c5f5f 	svcvs	0x006c5f5f
    a5d8:	615f6b63 	cmpvs	pc, r3, ror #22
    a5dc:	69757163 	ldmdbvs	r5!, {r0, r1, r5, r6, r8, ip, sp, lr}^
    a5e0:	725f6572 	subsvc	r6, pc, #478150656	; 0x1c800000
    a5e4:	72756365 	rsbsvc	r6, r5, #-1811939327	; 0x94000001
    a5e8:	65766973 	ldrbvs	r6, [r6, #-2419]!	; 0xfffff68d
    a5ec:	636f6c28 	cmnvs	pc, #40, 24	; 0x2800
    a5f0:	5f20296b 	svcpl	0x0020296b
    a5f4:	7465725f 	strbtvc	r7, [r5], #-607	; 0xfffffda1
    a5f8:	65677261 	strbvs	r7, [r7, #-609]!	; 0xfffffd9f
    a5fc:	6f6c5f74 	svcvs	0x006c5f74
    a600:	615f6b63 	cmpvs	pc, r3, ror #22
    a604:	69757163 	ldmdbvs	r5!, {r0, r1, r5, r6, r8, ip, sp, lr}^
    a608:	725f6572 	subsvc	r6, pc, #478150656	; 0x1c800000
    a60c:	72756365 	rsbsvc	r6, r5, #-1811939327	; 0x94000001
    a610:	65766973 	ldrbvs	r6, [r6, #-2419]!	; 0xfffff68d
    a614:	636f6c28 	cmnvs	pc, #40, 24	; 0x2800
    a618:	5200296b 	andpl	r2, r0, #1753088	; 0x1ac000
    a61c:	495f4343 	ldmdbmi	pc, {r0, r1, r6, r8, r9, lr}^	; <UNPREDICTABLE>
    a620:	5f324332 	svcpl	0x00324332
    a624:	65736552 	ldrbvs	r6, [r3, #-1362]!	; 0xfffffaae
    a628:	20292874 	eorcs	r2, r9, r4, ror r8
    a62c:	43435228 	movtmi	r5, #12840	; 0x3228
    a630:	50413e2d 	subpl	r3, r1, sp, lsr #28
    a634:	53523142 	cmppl	r2, #-2147483632	; 0x80000010
    a638:	7c205254 	sfmvc	f5, 4, [r0], #-336	; 0xfffffeb0
    a63c:	3c31203d 	ldccc	0, cr2, [r1], #-244	; 0xffffff0c
    a640:	2932323c 	ldmdbcs	r2!, {r2, r3, r4, r5, r9, ip, sp}
    a644:	54584500 	ldrbpl	r4, [r8], #-1280	; 0xfffffb00
    a648:	44503349 	ldrbmi	r3, [r0], #-841	; 0xfffffcb7
    a64c:	45282033 	strmi	r2, [r8, #-51]!	; 0xffffffcd
    a650:	5f495458 	svcpl	0x00495458
    a654:	4f495047 	svcmi	0x00495047
    a658:	70614d5f 	rsbvc	r4, r1, pc, asr sp
    a65c:	676e6970 			; <UNDEFINED> instruction: 0x676e6970
    a660:	7b29745f 	blvc	a677e4 <_Min_Stack_Size+0xa673e4>
    a664:	49545845 	ldmdbmi	r4, {r0, r2, r6, fp, ip, lr}^
    a668:	202c2033 	eorcs	r2, ip, r3, lsr r0
    a66c:	4f495047 	svcmi	0x00495047
    a670:	202c2044 	eorcs	r2, ip, r4, asr #32
    a674:	4f495047 	svcmi	0x00495047
    a678:	4e49505f 	mcrmi	0, 2, r5, cr9, cr15, {2}
    a67c:	2c20335f 	stccs	3, cr3, [r0], #-380	; 0xfffffe84
    a680:	54584520 	ldrbpl	r4, [r8], #-1312	; 0xfffffae0
    a684:	495f3349 	ldmdbmi	pc, {r0, r3, r6, r8, r9, ip, sp}^	; <UNPREDICTABLE>
    a688:	007d5152 	rsbseq	r5, sp, r2, asr r1
    a68c:	4c4c5f5f 	mcrrmi	15, 5, r5, ip, cr15
    a690:	43415246 	movtmi	r5, #4678	; 0x1246
    a694:	50455f54 	subpl	r5, r5, r4, asr pc
    a698:	4f4c4953 	svcmi	0x004c4953
    a69c:	205f5f4e 	subscs	r5, pc, lr, asr #30
    a6a0:	50317830 	eorspl	r7, r1, r0, lsr r8
    a6a4:	4c33362d 	ldcmi	6, cr3, [r3], #-180	; 0xffffff4c
    a6a8:	5f00524c 	svcpl	0x0000524c
    a6ac:	4d52415f 	ldfmie	f4, [r2, #-380]	; 0xfffffe84
    a6b0:	4145465f 	cmpmi	r5, pc, asr r6
    a6b4:	45525554 	ldrbmi	r5, [r2, #-1364]	; 0xfffffaac
    a6b8:	4d49535f 	stclmi	3, cr5, [r9, #-380]	; 0xfffffe84
    a6bc:	00323344 	eorseq	r3, r2, r4, asr #6
    a6c0:	4c465f5f 	mcrrmi	15, 5, r5, r6, cr15
    a6c4:	58323354 	ldmdapl	r2!, {r2, r4, r6, r8, r9, ip, sp}
    a6c8:	4e414d5f 	mcrmi	13, 2, r4, cr1, cr15, {2}
    a6cc:	49445f54 	stmdbmi	r4, {r2, r4, r6, r8, r9, sl, fp, ip, lr}^
    a6d0:	205f5f47 	subscs	r5, pc, r7, asr #30
    a6d4:	45003335 	strmi	r3, [r0, #-821]	; 0xfffffccb
    a6d8:	38495458 	stmdacc	r9, {r3, r4, r6, sl, ip, lr}^
    a6dc:	47003820 	strmi	r3, [r0, -r0, lsr #16]
    a6e0:	5f4f4950 	svcpl	0x004f4950
    a6e4:	5f4e4950 	svcpl	0x004e4950
    a6e8:	28203131 	stmdacs	r0!, {r0, r4, r5, r8, ip, sp}
    a6ec:	6e697528 	cdpvs	5, 6, cr7, cr9, cr8, {1}
    a6f0:	5f363174 	svcpl	0x00363174
    a6f4:	78302974 	ldmdavc	r0!, {r2, r4, r5, r6, r8, fp, sp}
    a6f8:	30303830 	eorscc	r3, r0, r0, lsr r8
    a6fc:	5f5f0029 	svcpl	0x005f0029
    a700:	41484357 	cmpmi	r8, r7, asr r3
    a704:	49575f52 	ldmdbmi	r7, {r1, r4, r6, r8, r9, sl, fp, ip, lr}^
    a708:	5f485444 	svcpl	0x00485444
    a70c:	3233205f 	eorscc	r2, r3, #95	; 0x5f
    a710:	49504700 	ldmdbmi	r0, {r8, r9, sl, lr}^
    a714:	4f4d5f4f 	svcmi	0x004d5f4f
    a718:	4f5f4544 	svcmi	0x005f4544
    a71c:	55505455 	ldrbpl	r5, [r0, #-1109]	; 0xfffffbab
    a720:	444f5f54 	strbmi	r5, [pc], #-3924	; a728 <_Min_Stack_Size+0xa328>
    a724:	30783020 	rsbscc	r3, r8, r0, lsr #32
    a728:	30303030 	eorscc	r3, r0, r0, lsr r0
    a72c:	75353030 	ldrvc	r3, [r5, #-48]!	; 0xffffffd0
    a730:	43324900 	teqmi	r2, #0, 18
    a734:	3252435f 	subscc	r4, r2, #2080374785	; 0x7c000001
    a738:	53414c5f 	movtpl	r4, #7263	; 0x1c5f
    a73c:	734d5f54 	movtvc	r5, #57172	; 0xdf54
    a740:	3028206b 	eorcc	r2, r8, fp, rrx
    a744:	4c553178 	ldfmie	f3, [r5], {120}	; 0x78
    a748:	203c3c20 	eorscs	r3, ip, r0, lsr #24
    a74c:	5f433249 	svcpl	0x00433249
    a750:	5f325243 	svcpl	0x00325243
    a754:	5453414c 	ldrbpl	r4, [r3], #-332	; 0xfffffeb4
    a758:	736f505f 	cmnvc	pc, #95	; 0x5f
    a75c:	5f5f0029 	svcpl	0x005f0029
    a760:	31544e49 	cmpcc	r4, r9, asr #28
    a764:	28435f36 	stmdacs	r3, {r1, r2, r4, r5, r8, r9, sl, fp, ip, lr}^
    a768:	63202963 			; <UNDEFINED> instruction: 0x63202963
    a76c:	54564900 	ldrbpl	r4, [r6], #-2304	; 0xfffff700
    a770:	5152495f 	cmppl	r2, pc, asr r9
    a774:	6d754e5f 	ldclvs	14, cr4, [r5, #-380]!	; 0xfffffe84
    a778:	00726562 	rsbseq	r6, r2, r2, ror #10
    a77c:	41445f5f 	cmpmi	r4, pc, asr pc
    a780:	4942495f 	stmdbmi	r2, {r0, r1, r2, r3, r4, r6, r8, fp, lr}^
    a784:	205f5f54 	subscs	r5, pc, r4, asr pc	; <UNPREDICTABLE>
    a788:	44003233 	strmi	r3, [r0], #-563	; 0xfffffdcd
    a78c:	62617369 	rsbvs	r7, r1, #-1543503871	; 0xa4000001
    a790:	4e5f656c 	cdpmi	5, 5, cr6, cr15, cr12, {3}
    a794:	00434956 	subeq	r4, r3, r6, asr r9
    a798:	74735f5f 	ldrbtvc	r5, [r3], #-3935	; 0xfffff0a1
    a79c:	69746672 	ldmdbvs	r4!, {r1, r4, r5, r6, r9, sl, sp, lr}^
    a7a0:	696c656d 	stmdbvs	ip!, {r0, r2, r3, r5, r6, r8, sl, sp, lr}^
    a7a4:	6628656b 	strtvs	r6, [r8], -fp, ror #10
    a7a8:	7261746d 	rsbvc	r7, r1, #1828716544	; 0x6d000000
    a7ac:	69662c67 	stmdbvs	r6!, {r0, r1, r2, r5, r6, sl, fp, sp}^
    a7b0:	76747372 			; <UNDEFINED> instruction: 0x76747372
    a7b4:	72617261 	rsbvc	r7, r1, #268435462	; 0x10000006
    a7b8:	5f202967 	svcpl	0x00202967
    a7bc:	7474615f 	ldrbtvc	r6, [r4], #-351	; 0xfffffea1
    a7c0:	75626972 	strbvc	r6, [r2, #-2418]!	; 0xfffff68e
    a7c4:	5f5f6574 	svcpl	0x005f6574
    a7c8:	5f5f2828 	svcpl	0x005f2828
    a7cc:	6d726f66 	ldclvs	15, cr6, [r2, #-408]!	; 0xfffffe68
    a7d0:	5f5f7461 	svcpl	0x005f7461
    a7d4:	5f5f2820 	svcpl	0x005f2820
    a7d8:	66727473 			; <UNDEFINED> instruction: 0x66727473
    a7dc:	656d6974 	strbvs	r6, [sp, #-2420]!	; 0xfffff68c
    a7e0:	202c5f5f 	eorcs	r5, ip, pc, asr pc
    a7e4:	61746d66 	cmnvs	r4, r6, ror #26
    a7e8:	202c6772 	eorcs	r6, ip, r2, ror r7
    a7ec:	73726966 	cmnvc	r2, #1671168	; 0x198000
    a7f0:	72617674 	rsbvc	r7, r1, #116, 12	; 0x7400000
    a7f4:	29677261 	stmdbcs	r7!, {r0, r5, r6, r9, ip, sp, lr}^
    a7f8:	45002929 	strmi	r2, [r0, #-2345]	; 0xfffff6d7
    a7fc:	31495458 	cmpcc	r9, r8, asr r4
    a800:	5152495f 	cmppl	r2, pc, asr r9
    a804:	646e6148 	strbtvs	r6, [lr], #-328	; 0xfffffeb8
    a808:	0072656c 	rsbseq	r6, r2, ip, ror #10
    a80c:	45445f5f 	strbmi	r5, [r4, #-3935]	; 0xfffff0a1
    a810:	4c415551 	cfstr64mi	mvdx5, [r1], {81}	; 0x51
    a814:	28594649 	ldmdacs	r9, {r0, r3, r6, r9, sl, lr}^
    a818:	65707974 	ldrbvs	r7, [r0, #-2420]!	; 0xfffff68c
    a81c:	7261762c 	rsbvc	r7, r1, #44, 12	; 0x2c00000
    a820:	28282029 	stmdacs	r8!, {r0, r3, r5, sp}
    a824:	65707974 	ldrbvs	r7, [r0, #-2420]!	; 0xfffff68c
    a828:	5f5f2829 	svcpl	0x005f2829
    a82c:	746e6975 	strbtvc	r6, [lr], #-2421	; 0xfffff68b
    a830:	5f727470 	svcpl	0x00727470
    a834:	63282974 			; <UNDEFINED> instruction: 0x63282974
    a838:	74736e6f 	ldrbtvc	r6, [r3], #-3695	; 0xfffff191
    a83c:	6c6f7620 	stclvs	6, cr7, [pc], #-128	; a7c4 <_Min_Stack_Size+0xa3c4>
    a840:	6c697461 	cfstrdvs	mvd7, [r9], #-388	; 0xfffffe7c
    a844:	6f762065 	svcvs	0x00762065
    a848:	2a206469 	bcs	8239f4 <_Min_Stack_Size+0x8235f4>
    a84c:	61762829 	cmnvs	r6, r9, lsr #16
    a850:	00292972 	eoreq	r2, r9, r2, ror r9
    a854:	5f433249 	svcpl	0x00433249
    a858:	5f325253 	svcpl	0x00325253
    a85c:	20434550 	subcs	r4, r3, r0, asr r5
    a860:	5f433249 	svcpl	0x00433249
    a864:	5f325253 	svcpl	0x00325253
    a868:	5f434550 	svcpl	0x00434550
    a86c:	006b734d 	rsbeq	r7, fp, sp, asr #6
    a870:	6f6c5f5f 	svcvs	0x006c5f5f
    a874:	695f6b63 	ldmdbvs	pc, {r0, r1, r5, r6, r8, r9, fp, sp, lr}^	; <UNPREDICTABLE>
    a878:	5f74696e 	svcpl	0x0074696e
    a87c:	75636572 	strbvc	r6, [r3, #-1394]!	; 0xfffffa8e
    a880:	76697372 			; <UNDEFINED> instruction: 0x76697372
    a884:	6f6c2865 	svcvs	0x006c2865
    a888:	20296b63 	eorcs	r6, r9, r3, ror #22
    a88c:	65725f5f 	ldrbvs	r5, [r2, #-3935]!	; 0xfffff0a1
    a890:	67726174 			; <UNDEFINED> instruction: 0x67726174
    a894:	6c5f7465 	cfldrdvs	mvd7, [pc], {101}	; 0x65
    a898:	5f6b636f 	svcpl	0x006b636f
    a89c:	74696e69 	strbtvc	r6, [r9], #-3689	; 0xfffff197
    a8a0:	6365725f 	cmnvs	r5, #-268435451	; 0xf0000005
    a8a4:	69737275 	ldmdbvs	r3!, {r0, r2, r4, r5, r6, r9, ip, sp, lr}^
    a8a8:	26286576 			; <UNDEFINED> instruction: 0x26286576
    a8ac:	6b636f6c 	blvs	18e6664 <_Min_Stack_Size+0x18e6264>
    a8b0:	5f5f0029 	svcpl	0x005f0029
    a8b4:	4d4f5441 	cfstrdmi	mvd5, [pc, #-260]	; a7b8 <_Min_Stack_Size+0xa3b8>
    a8b8:	415f4349 	cmpmi	pc, r9, asr #6
    a8bc:	525f5143 	subspl	r5, pc, #-1073741808	; 0xc0000010
    a8c0:	34204c45 	strtcc	r4, [r0], #-3141	; 0xfffff3bb
    a8c4:	49564e00 	ldmdbmi	r6, {r9, sl, fp, lr}^
    a8c8:	53495f43 	movtpl	r5, #40771	; 0x9f43
    a8cc:	20315245 	eorscs	r5, r1, r5, asr #4
    a8d0:	6f76282a 	svcvs	0x0076282a
    a8d4:	6974616c 	ldmdbvs	r4!, {r2, r3, r5, r6, r8, sp, lr}^
    a8d8:	7520656c 	strvc	r6, [r0, #-1388]!	; 0xfffffa94
    a8dc:	33746e69 	cmncc	r4, #1680	; 0x690
    a8e0:	20745f32 	rsbscs	r5, r4, r2, lsr pc
    a8e4:	4e28292a 	vmulmi.f16	s4, s16, s21	; <UNPREDICTABLE>
    a8e8:	5f434956 	svcpl	0x00434956
    a8ec:	65736142 	ldrbvs	r6, [r3, #-322]!	; 0xfffffebe
    a8f0:	30202b20 	eorcc	r2, r0, r0, lsr #22
    a8f4:	00293478 	eoreq	r3, r9, r8, ror r4
    a8f8:	51485f5f 	cmppl	r8, pc, asr pc
    a8fc:	4942495f 	stmdbmi	r2, {r0, r1, r2, r3, r4, r6, r8, fp, lr}^
    a900:	205f5f54 	subscs	r5, pc, r4, asr pc	; <UNPREDICTABLE>
    a904:	5f5f0030 	svcpl	0x005f0030
    a908:	6b636170 	blvs	18e2ed0 <_Min_Stack_Size+0x18e2ad0>
    a90c:	5f206465 	svcpl	0x00206465
    a910:	7474615f 	ldrbtvc	r6, [r4], #-351	; 0xfffffea1
    a914:	75626972 	strbvc	r6, [r2, #-2418]!	; 0xfffff68e
    a918:	5f5f6574 	svcpl	0x005f6574
    a91c:	5f5f2828 	svcpl	0x005f2828
    a920:	6b636170 	blvs	18e2ee8 <_Min_Stack_Size+0x18e2ae8>
    a924:	5f5f6465 	svcpl	0x005f6465
    a928:	5f002929 	svcpl	0x00002929
    a92c:	41484357 	cmpmi	r8, r7, asr r3
    a930:	5f545f52 	svcpl	0x00545f52
    a934:	49464544 	stmdbmi	r6, {r2, r6, r8, sl, lr}^
    a938:	5f44454e 	svcpl	0x0044454e
    a93c:	54530020 	ldrbpl	r0, [r3], #-32	; 0xffffffe0
    a940:	4632334d 	ldrtmi	r3, [r2], -sp, asr #6
    a944:	00312031 	eorseq	r2, r1, r1, lsr r0
    a948:	49545845 	ldmdbmi	r4, {r0, r2, r6, fp, ip, lr}^
    a94c:	30425030 	subcc	r5, r2, r0, lsr r0
    a950:	58452820 	stmdapl	r5, {r5, fp, sp}^
    a954:	475f4954 			; <UNDEFINED> instruction: 0x475f4954
    a958:	5f4f4950 	svcpl	0x004f4950
    a95c:	7070614d 	rsbsvc	r6, r0, sp, asr #2
    a960:	5f676e69 	svcpl	0x00676e69
    a964:	457b2974 	ldrbmi	r2, [fp, #-2420]!	; 0xfffff68c
    a968:	30495458 	subcc	r5, r9, r8, asr r4
    a96c:	5047202c 	subpl	r2, r7, ip, lsr #32
    a970:	20424f49 	subcs	r4, r2, r9, asr #30
    a974:	5047202c 	subpl	r2, r7, ip, lsr #32
    a978:	505f4f49 	subspl	r4, pc, r9, asr #30
    a97c:	305f4e49 	subscc	r4, pc, r9, asr #28
    a980:	58452c20 	stmdapl	r5, {r5, sl, fp, sp}^
    a984:	5f304954 	svcpl	0x00304954
    a988:	20515249 	subscs	r5, r1, r9, asr #4
    a98c:	5053007d 	subspl	r0, r3, sp, ror r0
    a990:	28203249 	stmdacs	r0!, {r0, r3, r6, r9, ip, sp}
    a994:	49505328 	ldmdbmi	r0, {r3, r5, r8, r9, ip, lr}^
    a998:	7079545f 	rsbsvc	r5, r9, pc, asr r4
    a99c:	66654465 	strbtvs	r4, [r5], -r5, ror #8
    a9a0:	53292a20 			; <UNDEFINED> instruction: 0x53292a20
    a9a4:	5f324950 	svcpl	0x00324950
    a9a8:	45534142 	ldrbmi	r4, [r3, #-322]	; 0xfffffebe
    a9ac:	32490029 	subcc	r0, r9, #41	; 0x29
    a9b0:	52435f43 	subpl	r5, r3, #268	; 0x10c
    a9b4:	4e455f31 	mcrmi	15, 2, r5, cr5, cr1, {1}
    a9b8:	5f434550 	svcpl	0x00434550
    a9bc:	206b734d 	rsbcs	r7, fp, sp, asr #6
    a9c0:	31783028 	cmncc	r8, r8, lsr #32
    a9c4:	3c204c55 	stccc	12, cr4, [r0], #-340	; 0xfffffeac
    a9c8:	3249203c 	subcc	r2, r9, #60	; 0x3c
    a9cc:	52435f43 	subpl	r5, r3, #268	; 0x10c
    a9d0:	4e455f31 	mcrmi	15, 2, r5, cr5, cr1, {1}
    a9d4:	5f434550 	svcpl	0x00434550
    a9d8:	29736f50 	ldmdbcs	r3!, {r4, r6, r8, r9, sl, fp, sp, lr}^
    a9dc:	615f5f00 	cmpvs	pc, r0, lsl #30
    a9e0:	72657373 	rsbvc	r7, r5, #-872415231	; 0xcc000001
    a9e4:	735f7374 	cmpvc	pc, #116, 6	; 0xd0000001
    a9e8:	65726168 	ldrbvs	r6, [r2, #-360]!	; 0xfffffe98
    a9ec:	2e2e2864 	cdpcs	8, 2, cr2, cr14, cr4, {3}
    a9f0:	5f20292e 	svcpl	0x0020292e
    a9f4:	636f6c5f 	cmnvs	pc, #24320	; 0x5f00
    a9f8:	6e615f6b 	cdpvs	15, 6, cr5, cr1, cr11, {3}
    a9fc:	61746f6e 	cmnvs	r4, lr, ror #30
    aa00:	61286574 			; <UNDEFINED> instruction: 0x61286574
    aa04:	72657373 	rsbvc	r7, r5, #-872415231	; 0xcc000001
    aa08:	68735f74 	ldmdavs	r3!, {r2, r4, r5, r6, r8, r9, sl, fp, ip, lr}^
    aa0c:	64657261 	strbtvs	r7, [r5], #-609	; 0xfffffd9f
    aa10:	636f6c5f 	cmnvs	pc, #24320	; 0x5f00
    aa14:	5f5f286b 	svcpl	0x005f286b
    aa18:	415f4156 	cmpmi	pc, r6, asr r1	; <UNPREDICTABLE>
    aa1c:	5f534752 	svcpl	0x00534752
    aa20:	0029295f 	eoreq	r2, r9, pc, asr r9
    aa24:	59535f5f 	ldmdbpl	r3, {r0, r1, r2, r3, r4, r6, r8, r9, sl, fp, ip, lr}^
    aa28:	4f4c5f53 	svcmi	0x004c5f53
    aa2c:	485f4b43 	ldmdami	pc, {r0, r1, r6, r8, r9, fp, lr}^	; <UNPREDICTABLE>
    aa30:	00205f5f 	eoreq	r5, r0, pc, asr pc
    aa34:	6e695f5f 	mcrvs	15, 3, r5, cr9, cr15, {2}
    aa38:	00303274 	eorseq	r3, r0, r4, ror r2
    aa3c:	4e414e5f 	mcrmi	14, 2, r4, cr1, cr15, {2}
    aa40:	4f465f4f 	svcmi	0x00465f4f
    aa44:	54414d52 	strbpl	r4, [r1], #-3410	; 0xfffff2ae
    aa48:	5f444554 	svcpl	0x00444554
    aa4c:	31204f49 			; <UNDEFINED> instruction: 0x31204f49
    aa50:	544e4900 	strbpl	r4, [lr], #-2304	; 0xfffff700
    aa54:	5341465f 	movtpl	r4, #5727	; 0x165f
    aa58:	5f323354 	svcpl	0x00323354
    aa5c:	2058414d 	subscs	r4, r8, sp, asr #2
    aa60:	495f5f28 	ldmdbmi	pc, {r3, r5, r8, r9, sl, fp, ip, lr}^	; <UNPREDICTABLE>
    aa64:	465f544e 	ldrbmi	r5, [pc], -lr, asr #8
    aa68:	33545341 	cmpcc	r4, #67108865	; 0x4000001
    aa6c:	414d5f32 	cmpmi	sp, r2, lsr pc
    aa70:	295f5f58 	ldmdbcs	pc, {r3, r4, r6, r8, r9, sl, fp, ip, lr}^	; <UNPREDICTABLE>
    aa74:	465f5f00 	ldrbmi	r5, [pc], -r0, lsl #30
    aa78:	3233544c 	eorscc	r5, r3, #76, 8	; 0x4c000000
    aa7c:	524f4e5f 	subpl	r4, pc, #1520	; 0x5f0
    aa80:	414d5f4d 	cmpmi	sp, sp, asr #30
    aa84:	205f5f58 	subscs	r5, pc, r8, asr pc	; <UNPREDICTABLE>
    aa88:	30342e33 	eorscc	r2, r4, r3, lsr lr
    aa8c:	33323832 	teqcc	r2, #3276800	; 0x320000
    aa90:	33363634 	teqcc	r6, #52, 12	; 0x3400000
    aa94:	38323538 	ldmdacc	r2!, {r3, r4, r5, r8, sl, ip, sp}
    aa98:	2b653638 	blcs	1958380 <_Min_Stack_Size+0x1957f80>
    aa9c:	33463833 	movtcc	r3, #26675	; 0x6833
    aaa0:	525f0032 	subspl	r0, pc, #50	; 0x32
    aaa4:	544e4545 	strbpl	r4, [lr], #-1349	; 0xfffffabb
    aaa8:	4353415f 	cmpmi	r3, #-1073741801	; 0xc0000017
    aaac:	454d4954 	strbmi	r4, [sp, #-2388]	; 0xfffff6ac
    aab0:	5a49535f 	bpl	125f834 <_Min_Stack_Size+0x125f434>
    aab4:	36322045 	ldrtcc	r2, [r2], -r5, asr #32
    aab8:	544e4900 	strbpl	r4, [lr], #-2304	; 0xfffff700
    aabc:	5f525450 	svcpl	0x00525450
    aac0:	204e494d 	subcs	r4, lr, sp, asr #18
    aac4:	5f5f2d28 	svcpl	0x005f2d28
    aac8:	50544e49 	subspl	r4, r4, r9, asr #28
    aacc:	4d5f5254 	lfmmi	f5, 2, [pc, #-336]	; a984 <_Min_Stack_Size+0xa584>
    aad0:	5f5f5841 	svcpl	0x005f5841
    aad4:	31202d20 			; <UNDEFINED> instruction: 0x31202d20
    aad8:	54500029 	ldrbpl	r0, [r0], #-41	; 0xffffffd7
    aadc:	46494452 			; <UNDEFINED> instruction: 0x46494452
    aae0:	494d5f46 	stmdbmi	sp, {r1, r2, r6, r8, r9, sl, fp, ip, lr}^
    aae4:	2d28204e 	stccs	0, cr2, [r8, #-312]!	; 0xfffffec8
    aae8:	44525450 	ldrbmi	r5, [r2], #-1104	; 0xfffffbb0
    aaec:	5f464649 	svcpl	0x00464649
    aaf0:	2058414d 	subscs	r4, r8, sp, asr #2
    aaf4:	2931202d 	ldmdbcs	r1!, {r0, r2, r3, r5, sp}
    aaf8:	4f505f00 	svcmi	0x00505f00
    aafc:	5f584953 	svcpl	0x00584953
    ab00:	4f535f43 	svcmi	0x00535f43
    ab04:	45435255 	strbmi	r5, [r3, #-597]	; 0xfffffdab
    ab08:	555f5f00 	ldrbpl	r5, [pc, #-3840]	; 9c10 <_Min_Stack_Size+0x9810>
    ab0c:	4d544e49 	ldclmi	14, cr4, [r4, #-292]	; 0xfffffedc
    ab10:	4d5f5841 	ldclmi	8, cr5, [pc, #-260]	; aa14 <_Min_Stack_Size+0xa614>
    ab14:	5f5f5841 	svcpl	0x005f5841
    ab18:	66783020 	ldrbtvs	r3, [r8], -r0, lsr #32
    ab1c:	66666666 	strbtvs	r6, [r6], -r6, ror #12
    ab20:	66666666 	strbtvs	r6, [r6], -r6, ror #12
    ab24:	66666666 	strbtvs	r6, [r6], -r6, ror #12
    ab28:	55666666 	strbpl	r6, [r6, #-1638]!	; 0xfffff99a
    ab2c:	4e004c4c 	cdpmi	12, 0, cr4, cr0, cr12, {2}
    ab30:	5f434956 	svcpl	0x00434956
    ab34:	32515249 	subscc	r5, r1, #-1879048188	; 0x90000004
    ab38:	58455f33 	stmdapl	r5, {r0, r1, r4, r5, r8, r9, sl, fp, ip, lr}^
    ab3c:	5f354954 	svcpl	0x00354954
    ab40:	69445f39 	stmdbvs	r4, {r0, r3, r4, r5, r8, r9, sl, fp, ip, lr}^
    ab44:	6c626173 	stfvse	f6, [r2], #-460	; 0xfffffe34
    ab48:	4e282065 	cdpmi	0, 2, cr2, cr8, cr5, {3}
    ab4c:	5f434956 	svcpl	0x00434956
    ab50:	52454349 	subpl	r4, r5, #603979777	; 0x24000001
    ab54:	3d7c2030 	ldclcc	0, cr2, [ip, #-192]!	; 0xffffff40
    ab58:	3c3c3120 	ldfccs	f3, [ip], #-128	; 0xffffff80
    ab5c:	00293332 	eoreq	r3, r9, r2, lsr r3
    ab60:	42445f5f 	submi	r5, r4, #380	; 0x17c
    ab64:	414d5f4c 	cmpmi	sp, ip, asr #30
    ab68:	445f544e 	ldrbmi	r5, [pc], #-1102	; ab70 <_Min_Stack_Size+0xa770>
    ab6c:	5f5f4749 	svcpl	0x005f4749
    ab70:	00333520 	eorseq	r3, r3, r0, lsr #10
    ab74:	4c555f5f 	mrrcmi	15, 5, r5, r5, cr15	; <UNPREDICTABLE>
    ab78:	43415246 	movtmi	r5, #4678	; 0x1246
    ab7c:	42495f54 	submi	r5, r9, #84, 30	; 0x150
    ab80:	5f5f5449 	svcpl	0x005f5449
    ab84:	45003020 	strmi	r3, [r0, #-32]	; 0xffffffe0
    ab88:	31495458 	cmpcc	r9, r8, asr r4
    ab8c:	31435035 	cmpcc	r3, r5, lsr r0
    ab90:	45282035 	strmi	r2, [r8, #-53]!	; 0xffffffcb
    ab94:	5f495458 	svcpl	0x00495458
    ab98:	4f495047 	svcmi	0x00495047
    ab9c:	70614d5f 	rsbvc	r4, r1, pc, asr sp
    aba0:	676e6970 			; <UNDEFINED> instruction: 0x676e6970
    aba4:	7b29745f 	blvc	a67d28 <_Min_Stack_Size+0xa67928>
    aba8:	49545845 	ldmdbmi	r4, {r0, r2, r6, fp, ip, lr}^
    abac:	2c203531 	cfstr32cs	mvfx3, [r0], #-196	; 0xffffff3c
    abb0:	49504720 	ldmdbmi	r0, {r5, r8, r9, sl, lr}^
    abb4:	2c20434f 	stccs	3, cr4, [r0], #-316	; 0xfffffec4
    abb8:	49504720 	ldmdbmi	r0, {r5, r8, r9, sl, lr}^
    abbc:	49505f4f 	ldmdbmi	r0, {r0, r1, r2, r3, r6, r8, r9, sl, fp, ip, lr}^
    abc0:	35315f4e 	ldrcc	r5, [r1, #-3918]!	; 0xfffff0b2
    abc4:	58452c20 	stmdapl	r5, {r5, sl, fp, sp}^
    abc8:	35314954 	ldrcc	r4, [r1, #-2388]!	; 0xfffff6ac
    abcc:	5152495f 	cmppl	r2, pc, asr r9
    abd0:	5f007d20 	svcpl	0x00007d20
    abd4:	736f6e5f 	cmnvc	pc, #1520	; 0x5f0
    abd8:	74696e61 	strbtvc	r6, [r9], #-3681	; 0xfffff19f
    abdc:	74657a69 	strbtvc	r7, [r5], #-2665	; 0xfffff597
    abe0:	61657268 	cmnvs	r5, r8, ror #4
    abe4:	45002064 	strmi	r2, [r0, #-100]	; 0xffffff9c
    abe8:	31495458 	cmpcc	r9, r8, asr r4
    abec:	31435030 	cmpcc	r3, r0, lsr r0
    abf0:	45282030 	strmi	r2, [r8, #-48]!	; 0xffffffd0
    abf4:	5f495458 	svcpl	0x00495458
    abf8:	4f495047 	svcmi	0x00495047
    abfc:	70614d5f 	rsbvc	r4, r1, pc, asr sp
    ac00:	676e6970 			; <UNDEFINED> instruction: 0x676e6970
    ac04:	7b29745f 	blvc	a67d88 <_Min_Stack_Size+0xa67988>
    ac08:	49545845 	ldmdbmi	r4, {r0, r2, r6, fp, ip, lr}^
    ac0c:	2c203031 	stccs	0, cr3, [r0], #-196	; 0xffffff3c
    ac10:	49504720 	ldmdbmi	r0, {r5, r8, r9, sl, lr}^
    ac14:	2c20434f 	stccs	3, cr4, [r0], #-316	; 0xfffffec4
    ac18:	49504720 	ldmdbmi	r0, {r5, r8, r9, sl, lr}^
    ac1c:	49505f4f 	ldmdbmi	r0, {r0, r1, r2, r3, r6, r8, r9, sl, fp, ip, lr}^
    ac20:	30315f4e 	eorscc	r5, r1, lr, asr #30
    ac24:	58452c20 	stmdapl	r5, {r5, sl, fp, sp}^
    ac28:	30314954 	eorscc	r4, r1, r4, asr r9
    ac2c:	5152495f 	cmppl	r2, pc, asr r9
    ac30:	45007d20 	strmi	r7, [r0, #-3360]	; 0xfffff2e0
    ac34:	31495458 	cmpcc	r9, r8, asr r4
    ac38:	31425033 	cmpcc	r2, r3, lsr r0
    ac3c:	45282033 	strmi	r2, [r8, #-51]!	; 0xffffffcd
    ac40:	5f495458 	svcpl	0x00495458
    ac44:	4f495047 	svcmi	0x00495047
    ac48:	70614d5f 	rsbvc	r4, r1, pc, asr sp
    ac4c:	676e6970 			; <UNDEFINED> instruction: 0x676e6970
    ac50:	7b29745f 	blvc	a67dd4 <_Min_Stack_Size+0xa679d4>
    ac54:	49545845 	ldmdbmi	r4, {r0, r2, r6, fp, ip, lr}^
    ac58:	202c3331 	eorcs	r3, ip, r1, lsr r3
    ac5c:	4f495047 	svcmi	0x00495047
    ac60:	202c2042 	eorcs	r2, ip, r2, asr #32
    ac64:	4f495047 	svcmi	0x00495047
    ac68:	4e49505f 	mcrmi	0, 2, r5, cr9, cr15, {2}
    ac6c:	2033315f 	eorscs	r3, r3, pc, asr r1
    ac70:	5458452c 	ldrbpl	r4, [r8], #-1324	; 0xfffffad4
    ac74:	5f333149 	svcpl	0x00333149
    ac78:	20515249 	subscs	r5, r1, r9, asr #4
    ac7c:	5f5f007d 	svcpl	0x005f007d
    ac80:	5f544e49 	svcpl	0x00544e49
    ac84:	5f58414d 	svcpl	0x0058414d
    ac88:	7830205f 	ldmdavc	r0!, {r0, r1, r2, r3, r4, r6, sp}
    ac8c:	66666637 			; <UNDEFINED> instruction: 0x66666637
    ac90:	66666666 	strbtvs	r6, [r6], -r6, ror #12
    ac94:	495f5f00 	ldmdbmi	pc, {r8, r9, sl, fp, ip, lr}^	; <UNPREDICTABLE>
    ac98:	4c5f544e 	cfldrdmi	mvd5, [pc], {78}	; 0x4e
    ac9c:	54534145 	ldrbpl	r4, [r3], #-325	; 0xfffffebb
    aca0:	545f3436 	ldrbpl	r3, [pc], #-1078	; aca8 <_Min_Stack_Size+0xa8a8>
    aca4:	5f455059 	svcpl	0x00455059
    aca8:	6f6c205f 	svcvs	0x006c205f
    acac:	6c20676e 	stcvs	7, cr6, [r0], #-440	; 0xfffffe48
    acb0:	20676e6f 	rsbcs	r6, r7, pc, ror #28
    acb4:	00746e69 	rsbseq	r6, r4, r9, ror #28
    acb8:	62616e45 	rsbvs	r6, r1, #1104	; 0x450
    acbc:	4e5f656c 	cdpmi	5, 5, cr6, cr15, cr12, {3}
    acc0:	00434956 	subeq	r4, r3, r6, asr r9
    acc4:	52415f5f 	subpl	r5, r1, #380	; 0x17c
    acc8:	45465f4d 	strbmi	r5, [r6, #-3917]	; 0xfffff0b3
    accc:	52555441 	subspl	r5, r5, #1090519040	; 0x41000000
    acd0:	44435f45 	strbmi	r5, [r3], #-3909	; 0xfffff0bb
    acd4:	4f435f45 	svcmi	0x00435f45
    acd8:	434f5250 	movtmi	r5, #62032	; 0xf250
    acdc:	434e4900 	movtmi	r4, #59648	; 0xe900
    ace0:	5458455f 	ldrbpl	r4, [r8], #-1375	; 0xfffffaa1
    ace4:	5f485f49 	svcpl	0x00485f49
    ace8:	53550020 	cmppl	r5, #32
    acec:	32545241 	subscc	r5, r4, #268435460	; 0x10000004
    acf0:	5152495f 	cmppl	r2, pc, asr r9
    acf4:	00383320 	eorseq	r3, r8, r0, lsr #6
    acf8:	52474643 	subpl	r4, r7, #70254592	; 0x4300000
    acfc:	74654700 	strbtvc	r4, [r5], #-1792	; 0xfffff900
    ad00:	4c52435f 	mrrcmi	3, 5, r4, r2, cr15
    ad04:	6f505f48 	svcvs	0x00505f48
    ad08:	69746973 	ldmdbvs	r4!, {r0, r1, r4, r5, r6, r8, fp, sp, lr}^
    ad0c:	41006e6f 	tstmi	r0, pc, ror #28
    ad10:	45324250 	ldrmi	r4, [r2, #-592]!	; 0xfffffdb0
    ad14:	2e00524e 	cdpcs	2, 0, cr5, cr0, cr14, {2}
    ad18:	434d2f2e 	movtmi	r2, #57134	; 0xdf2e
    ad1c:	5f5f4c41 	svcpl	0x005f4c41
    ad20:	4950472f 	ldmdbmi	r0, {r0, r1, r2, r3, r5, r8, r9, sl, lr}^
    ad24:	00632e4f 	rsbeq	r2, r3, pc, asr #28
    ad28:	436e6950 	cmnmi	lr, #80, 18	; 0x140000
    ad2c:	69666e6f 	stmdbvs	r6!, {r0, r1, r2, r3, r5, r6, r9, sl, fp, sp, lr}^
    ad30:	434d0067 	movtmi	r0, #53351	; 0xd067
    ad34:	475f4c41 	ldrbmi	r4, [pc, -r1, asr #24]
    ad38:	5f4f4950 	svcpl	0x004f4950
    ad3c:	67676f54 			; <UNDEFINED> instruction: 0x67676f54
    ad40:	6950656c 	ldmdbvs	r0, {r2, r3, r5, r6, r8, sl, sp, lr}^
    ad44:	4442006e 	strbmi	r0, [r2], #-110	; 0xffffff92
    ad48:	47005243 	strmi	r5, [r0, -r3, asr #4]
    ad4c:	784f4950 	stmdavc	pc, {r4, r6, r8, fp, lr}^	; <UNPREDICTABLE>
    ad50:	41434d00 	cmpmi	r3, r0, lsl #26
    ad54:	50475f4c 	subpl	r5, r7, ip, asr #30
    ad58:	525f4f49 	subspl	r4, pc, #292	; 0x124
    ad5c:	50646165 	rsbpl	r6, r4, r5, ror #2
    ad60:	4d006e69 	stcmi	14, cr6, [r0, #-420]	; 0xfffffe5c
    ad64:	5f4c4143 	svcpl	0x004c4143
    ad68:	4f495047 	svcmi	0x00495047
    ad6c:	636f4c5f 	cmnvs	pc, #24320	; 0x5f00
    ad70:	6e69506b 	cdpvs	0, 6, cr5, cr9, cr11, {3}
    ad74:	4e495000 	cdpmi	0, 4, cr5, cr9, cr0, {0}
    ad78:	6e6f435f 	mcrvs	3, 3, r4, cr15, cr15, {2}
    ad7c:	00676966 	rsbeq	r6, r7, r6, ror #18
    ad80:	4c41434d 	mcrrmi	3, 4, r4, r1, cr13
    ad84:	4950475f 	ldmdbmi	r0, {r0, r1, r2, r3, r4, r6, r8, r9, sl, lr}^
    ad88:	72575f4f 	subsvc	r5, r7, #316	; 0x13c
    ad8c:	50657469 	rsbpl	r7, r5, r9, ror #8
    ad90:	63006e69 	movwvs	r6, #3689	; 0xe69
    ad94:	69666e6f 	stmdbvs	r6!, {r0, r1, r2, r3, r5, r6, r9, sl, fp, sp, lr}^
    ad98:	67657267 	strbvs	r7, [r5, -r7, ror #4]!
    ad9c:	65747369 	ldrbvs	r7, [r4, #-873]!	; 0xfffffc97
    ada0:	50410072 	subpl	r0, r1, r2, ror r0
    ada4:	53523242 	cmppl	r2, #536870916	; 0x20000004
    ada8:	43005254 	movwmi	r5, #596	; 0x254
    adac:	32524746 	subscc	r4, r2, #18350080	; 0x1180000
    adb0:	41434d00 	cmpmi	r3, r0, lsl #26
    adb4:	50475f4c 	subpl	r5, r7, ip, asr #30
    adb8:	575f4f49 	ldrbpl	r4, [pc, -r9, asr #30]
    adbc:	65746972 	ldrbvs	r6, [r4, #-2418]!	; 0xfffff68e
    adc0:	74726f50 	ldrbtvc	r6, [r2], #-3920	; 0xfffff0b0
    adc4:	42504100 	subsmi	r4, r0, #0, 2
    adc8:	54535231 	ldrbpl	r5, [r3], #-561	; 0xfffffdcf
    adcc:	50410052 	subpl	r0, r1, r2, asr r0
    add0:	4e453142 	dvfmism	f3, f5, f2
    add4:	434d0052 	movtmi	r0, #53330	; 0xd052
    add8:	475f4c41 	ldrbmi	r4, [pc, -r1, asr #24]
    addc:	5f4f4950 	svcpl	0x004f4950
    ade0:	6e496544 	cdpvs	5, 4, cr6, cr9, cr4, {2}
    ade4:	70007469 	andvc	r7, r0, r9, ror #8
    ade8:	5f74726f 	svcpl	0x0074726f
    adec:	756c6176 	strbvc	r6, [ip, #-374]!	; 0xfffffe8a
    adf0:	43520065 	cmpmi	r2, #101	; 0x65
    adf4:	79545f43 	ldmdbvc	r4, {r0, r1, r6, r8, r9, sl, fp, ip, lr}^
    adf8:	65446570 	strbvs	r6, [r4, #-1392]	; 0xfffffa90
    adfc:	69620066 	stmdbvs	r2!, {r1, r2, r5, r6}^
    ae00:	61747374 	cmnvs	r4, r4, ror r3
    ae04:	00737574 	rsbseq	r7, r3, r4, ror r5
    ae08:	45424841 	strbmi	r4, [r2, #-2113]	; 0xfffff7bf
    ae0c:	4100524e 	tstmi	r0, lr, asr #4
    ae10:	54534248 	ldrbpl	r4, [r3], #-584	; 0xfffffdb8
    ae14:	434d0052 	movtmi	r0, #53330	; 0xd052
    ae18:	475f4c41 	ldrbmi	r4, [pc, -r1, asr #24]
    ae1c:	5f4f4950 	svcpl	0x004f4950
    ae20:	64616552 	strbtvs	r6, [r1], #-1362	; 0xfffffaae
    ae24:	74726f50 	ldrbtvc	r6, [r2], #-3920	; 0xfffff0b0
    ae28:	6c615600 	stclvs	6, cr5, [r1], #-0
    ae2c:	75006575 	strvc	r6, [r0, #-1397]	; 0xfffffa8b
    ae30:	6972706e 	ldmdbvs	r2!, {r1, r2, r3, r5, r6, ip, sp, lr}^
    ae34:	656c6976 	strbvs	r6, [ip, #-2422]!	; 0xfffff68a
    ae38:	64656764 	strbtvs	r6, [r5], #-1892	; 0xfffff89c
    ae3c:	69616d00 	stmdbvs	r1!, {r8, sl, fp, sp, lr}^
    ae40:	7063006e 	rsbvc	r0, r3, lr, rrx
    ae44:	63615f75 	cmnvs	r1, #468	; 0x1d4
    ae48:	73736563 	cmnvc	r3, #415236096	; 0x18c00000
    ae4c:	76656c5f 			; <UNDEFINED> instruction: 0x76656c5f
    ae50:	63006c65 	movwvs	r6, #3173	; 0xc65
    ae54:	72746e6f 	rsbsvc	r6, r4, #1776	; 0x6f0
    ae58:	725f6c6f 	subsvc	r6, pc, #28416	; 0x6f00
    ae5c:	73696765 	cmnvc	r9, #26476544	; 0x1940000
    ae60:	00726574 	rsbseq	r6, r2, r4, ror r5
    ae64:	532f2e2e 			; <UNDEFINED> instruction: 0x532f2e2e
    ae68:	6d2f6372 	stcvs	3, cr6, [pc, #-456]!	; aca8 <_Min_Stack_Size+0xa8a8>
    ae6c:	2e6e6961 	vnmulcs.f16	s13, s28, s3	; <UNPREDICTABLE>
    ae70:	6c660063 	stclvs	0, cr0, [r6], #-396	; 0xfffffe74
    ae74:	48006761 	stmdami	r0, {r0, r5, r6, r8, r9, sl, sp, lr}
    ae78:	46647261 	strbtmi	r7, [r4], -r1, ror #4
    ae7c:	746c7561 	strbtvc	r7, [ip], #-1377	; 0xfffffa9f
    ae80:	6e61485f 	mcrvs	8, 3, r4, cr1, cr15, {2}
    ae84:	72656c64 	rsbvc	r6, r5, #100, 24	; 0x6400
    ae88:	53504900 	cmppl	r0, #0, 18
    ae8c:	65725f52 	ldrbvs	r5, [r2, #-3922]!	; 0xfffff0ae
    ae90:	74736967 	ldrbtvc	r6, [r3], #-2407	; 0xfffff699
    ae94:	63007265 	movwvs	r7, #613	; 0x265
    ae98:	6c5f7570 	cfldr64vs	mvdx7, [pc], {112}	; 0x70
    ae9c:	6c657665 	stclvs	6, cr7, [r5], #-404	; 0xfffffe6c
    aea0:	54584500 	ldrbpl	r4, [r8], #-1280	; 0xfffffb00
    aea4:	72695f49 	rsbvc	r5, r9, #292	; 0x124
    aea8:	2e2e0071 	mcrcs	0, 1, r0, cr14, cr1, {3}
    aeac:	6174532f 	cmnvs	r4, pc, lsr #6
    aeb0:	70757472 	rsbsvc	r7, r5, r2, ror r4
    aeb4:	6174732f 	cmnvs	r4, pc, lsr #6
    aeb8:	70757472 	rsbsvc	r7, r5, r2, ror r4
    aebc:	6d74735f 	ldclvs	3, cr7, [r4, #-380]!	; 0xfffffe84
    aec0:	31663233 	cmncc	r6, r3, lsr r2
    aec4:	38633330 	stmdacc	r3!, {r4, r5, r8, r9, ip, sp}^
    aec8:	732e7874 			; <UNDEFINED> instruction: 0x732e7874
    aecc:	554e4700 	strbpl	r4, [lr, #-1792]	; 0xfffff900
    aed0:	20534120 	subscs	r4, r3, r0, lsr #2
    aed4:	38332e32 	ldmdacc	r3!, {r1, r4, r5, r9, sl, fp, sp}
	...

Disassembly of section .debug_frame:

00000000 <.debug_frame>:
   0:	0000000c 	andeq	r0, r0, ip
   4:	ffffffff 			; <UNDEFINED> instruction: 0xffffffff
   8:	7c020001 	stcvc	0, cr0, [r2], {1}
   c:	000d0c0e 	andeq	r0, sp, lr, lsl #24
  10:	00000024 	andeq	r0, r0, r4, lsr #32
  14:	00000000 	andeq	r0, r0, r0
  18:	08000170 	stmdaeq	r0, {r4, r5, r6, r8}
  1c:	000000cc 	andeq	r0, r0, ip, asr #1
  20:	87040e41 	strhi	r0, [r4, -r1, asr #28]
  24:	100e4101 	andne	r4, lr, r1, lsl #2
  28:	02070d41 	andeq	r0, r7, #4160	; 0x1040
  2c:	41040e5c 	tstmi	r4, ip, asr lr
  30:	c7410d0d 	strbgt	r0, [r1, -sp, lsl #26]
  34:	0000000e 	andeq	r0, r0, lr
  38:	00000024 	andeq	r0, r0, r4, lsr #32
  3c:	00000000 	andeq	r0, r0, r0
  40:	0800023c 	stmdaeq	r0, {r2, r3, r4, r5, r9}
  44:	000000cc 	andeq	r0, r0, ip, asr #1
  48:	87040e41 	strhi	r0, [r4, -r1, asr #28]
  4c:	100e4101 	andne	r4, lr, r1, lsl #2
  50:	02070d41 	andeq	r0, r7, #4160	; 0x1040
  54:	41040e5c 	tstmi	r4, ip, asr lr
  58:	c7410d0d 	strbgt	r0, [r1, -sp, lsl #26]
  5c:	0000000e 	andeq	r0, r0, lr
  60:	00000020 	andeq	r0, r0, r0, lsr #32
  64:	00000000 	andeq	r0, r0, r0
  68:	08000308 	stmdaeq	r0, {r3, r8, r9}
  6c:	000001d8 	ldrdeq	r0, [r0], -r8
  70:	87080e41 	strhi	r0, [r8, -r1, asr #28]
  74:	41018e02 	tstmi	r1, r2, lsl #28
  78:	0d41180e 	stcleq	8, cr1, [r1, #-56]	; 0xffffffc8
  7c:	0ed90207 	cdpeq	2, 13, cr0, cr9, cr7, {0}
  80:	0d0d4108 	stfeqs	f4, [sp, #-32]	; 0xffffffe0
  84:	0000001c 	andeq	r0, r0, ip, lsl r0
	...
  90:	00000094 	muleq	r0, r4, r0
  94:	87040e41 	strhi	r0, [r4, -r1, asr #28]
  98:	070d4101 	streq	r4, [sp, -r1, lsl #2]
  9c:	410d0d7f 	tstmi	sp, pc, ror sp
  a0:	00000ec7 	andeq	r0, r0, r7, asr #29
  a4:	00000020 	andeq	r0, r0, r0, lsr #32
  a8:	00000000 	andeq	r0, r0, r0
  ac:	080004e0 	stmdaeq	r0, {r5, r6, r7, sl}
  b0:	00000016 	andeq	r0, r0, r6, lsl r0
  b4:	87080e41 	strhi	r0, [r8, -r1, asr #28]
  b8:	41018e02 	tstmi	r1, r2, lsl #28
  bc:	0d41100e 	stcleq	0, cr1, [r1, #-56]	; 0xffffffc8
  c0:	080e4607 	stmdaeq	lr, {r0, r1, r2, r9, sl, lr}
  c4:	000d0d41 	andeq	r0, sp, r1, asr #26
  c8:	00000020 	andeq	r0, r0, r0, lsr #32
	...
  d4:	00000016 	andeq	r0, r0, r6, lsl r0
  d8:	87080e41 	strhi	r0, [r8, -r1, asr #28]
  dc:	41018e02 	tstmi	r1, r2, lsl #28
  e0:	0d41100e 	stcleq	0, cr1, [r1, #-56]	; 0xffffffc8
  e4:	080e4607 	stmdaeq	lr, {r0, r1, r2, r9, sl, lr}
  e8:	000d0d41 	andeq	r0, sp, r1, asr #26
  ec:	00000018 	andeq	r0, r0, r8, lsl r0
  f0:	00000000 	andeq	r0, r0, r0
  f4:	080004f8 	stmdaeq	r0, {r3, r4, r5, r6, r7, sl}
  f8:	00000024 	andeq	r0, r0, r4, lsr #32
  fc:	87080e41 	strhi	r0, [r8, -r1, asr #28]
 100:	41018e02 	tstmi	r1, r2, lsl #28
 104:	0000070d 	andeq	r0, r0, sp, lsl #14
 108:	00000018 	andeq	r0, r0, r8, lsl r0
 10c:	00000000 	andeq	r0, r0, r0
 110:	0800051c 	stmdaeq	r0, {r2, r3, r4, r8, sl}
 114:	00000024 	andeq	r0, r0, r4, lsr #32
 118:	87080e41 	strhi	r0, [r8, -r1, asr #28]
 11c:	41018e02 	tstmi	r1, r2, lsl #28
 120:	0000070d 	andeq	r0, r0, sp, lsl #14
 124:	00000018 	andeq	r0, r0, r8, lsl r0
 128:	00000000 	andeq	r0, r0, r0
 12c:	08000540 	stmdaeq	r0, {r6, r8, sl}
 130:	00000024 	andeq	r0, r0, r4, lsr #32
 134:	87080e41 	strhi	r0, [r8, -r1, asr #28]
 138:	41018e02 	tstmi	r1, r2, lsl #28
 13c:	0000070d 	andeq	r0, r0, sp, lsl #14
 140:	00000018 	andeq	r0, r0, r8, lsl r0
 144:	00000000 	andeq	r0, r0, r0
 148:	08000564 	stmdaeq	r0, {r2, r5, r6, r8, sl}
 14c:	00000024 	andeq	r0, r0, r4, lsr #32
 150:	87080e41 	strhi	r0, [r8, -r1, asr #28]
 154:	41018e02 	tstmi	r1, r2, lsl #28
 158:	0000070d 	andeq	r0, r0, sp, lsl #14
 15c:	00000018 	andeq	r0, r0, r8, lsl r0
 160:	00000000 	andeq	r0, r0, r0
 164:	08000588 	stmdaeq	r0, {r3, r7, r8, sl}
 168:	00000024 	andeq	r0, r0, r4, lsr #32
 16c:	87080e41 	strhi	r0, [r8, -r1, asr #28]
 170:	41018e02 	tstmi	r1, r2, lsl #28
 174:	0000070d 	andeq	r0, r0, sp, lsl #14
 178:	00000018 	andeq	r0, r0, r8, lsl r0
 17c:	00000000 	andeq	r0, r0, r0
 180:	080005ac 	stmdaeq	r0, {r2, r3, r5, r7, r8, sl}
 184:	000000a8 	andeq	r0, r0, r8, lsr #1
 188:	87080e41 	strhi	r0, [r8, -r1, asr #28]
 18c:	41018e02 	tstmi	r1, r2, lsl #28
 190:	0000070d 	andeq	r0, r0, sp, lsl #14
 194:	00000018 	andeq	r0, r0, r8, lsl r0
 198:	00000000 	andeq	r0, r0, r0
 19c:	08000654 	stmdaeq	r0, {r2, r4, r6, r9, sl}
 1a0:	000000c4 	andeq	r0, r0, r4, asr #1
 1a4:	87080e41 	strhi	r0, [r8, -r1, asr #28]
 1a8:	41018e02 	tstmi	r1, r2, lsl #28
 1ac:	0000070d 	andeq	r0, r0, sp, lsl #14
 1b0:	0000000c 	andeq	r0, r0, ip
 1b4:	ffffffff 			; <UNDEFINED> instruction: 0xffffffff
 1b8:	7c020001 	stcvc	0, cr0, [r2], {1}
 1bc:	000d0c0e 	andeq	r0, sp, lr, lsl #24
 1c0:	00000024 	andeq	r0, r0, r4, lsr #32
 1c4:	000001b0 			; <UNDEFINED> instruction: 0x000001b0
 1c8:	08000718 	stmdaeq	r0, {r3, r4, r8, r9, sl}
 1cc:	0000016e 	andeq	r0, r0, lr, ror #2
 1d0:	87040e41 	strhi	r0, [r4, -r1, asr #28]
 1d4:	100e4101 	andne	r4, lr, r1, lsl #2
 1d8:	02070d41 	andeq	r0, r7, #4160	; 0x1040
 1dc:	41040eb1 			; <UNDEFINED> instruction: 0x41040eb1
 1e0:	c7410d0d 	strbgt	r0, [r1, -sp, lsl #26]
 1e4:	0000000e 	andeq	r0, r0, lr
 1e8:	00000024 	andeq	r0, r0, r4, lsr #32
 1ec:	000001b0 			; <UNDEFINED> instruction: 0x000001b0
 1f0:	08000888 	stmdaeq	r0, {r3, r7, fp}
 1f4:	00000154 	andeq	r0, r0, r4, asr r1
 1f8:	840c0e41 	strhi	r0, [ip], #-3649	; 0xfffff1bf
 1fc:	8e028703 	cdphi	7, 0, cr8, cr2, cr3, {0}
 200:	200e4101 	andcs	r4, lr, r1, lsl #2
 204:	02070d41 	andeq	r0, r7, #4160	; 0x1040
 208:	410c0ea5 	smlatbmi	ip, r5, lr, r0
 20c:	00000d0d 	andeq	r0, r0, sp, lsl #26
 210:	00000024 	andeq	r0, r0, r4, lsr #32
 214:	000001b0 			; <UNDEFINED> instruction: 0x000001b0
 218:	00000000 	andeq	r0, r0, r0
 21c:	000000d4 	ldrdeq	r0, [r0], -r4
 220:	87040e41 	strhi	r0, [r4, -r1, asr #28]
 224:	100e4101 	andne	r4, lr, r1, lsl #2
 228:	02070d41 	andeq	r0, r7, #4160	; 0x1040
 22c:	41040e57 	tstmi	r4, r7, asr lr
 230:	c7410d0d 	strbgt	r0, [r1, -sp, lsl #26]
 234:	0000000e 	andeq	r0, r0, lr
 238:	00000024 	andeq	r0, r0, r4, lsr #32
 23c:	000001b0 			; <UNDEFINED> instruction: 0x000001b0
 240:	00000000 	andeq	r0, r0, r0
 244:	0000002e 	andeq	r0, r0, lr, lsr #32
 248:	87040e41 	strhi	r0, [r4, -r1, asr #28]
 24c:	180e4101 	stmdane	lr, {r0, r8, lr}
 250:	51070d41 	tstpl	r7, r1, asr #26
 254:	0d41040e 	cfstrdeq	mvd0, [r1, #-56]	; 0xffffffc8
 258:	0ec7410d 	poleqs	f4, f7, #5.0
 25c:	00000000 	andeq	r0, r0, r0
 260:	00000024 	andeq	r0, r0, r4, lsr #32
 264:	000001b0 			; <UNDEFINED> instruction: 0x000001b0
 268:	00000000 	andeq	r0, r0, r0
 26c:	0000001a 	andeq	r0, r0, sl, lsl r0
 270:	87040e41 	strhi	r0, [r4, -r1, asr #28]
 274:	180e4101 	stmdane	lr, {r0, r8, lr}
 278:	47070d41 	strmi	r0, [r7, -r1, asr #26]
 27c:	0d41040e 	cfstrdeq	mvd0, [r1, #-56]	; 0xffffffc8
 280:	0ec7410d 	poleqs	f4, f7, #5.0
 284:	00000000 	andeq	r0, r0, r0
 288:	00000024 	andeq	r0, r0, r4, lsr #32
 28c:	000001b0 			; <UNDEFINED> instruction: 0x000001b0
 290:	00000000 	andeq	r0, r0, r0
 294:	0000001c 	andeq	r0, r0, ip, lsl r0
 298:	87040e41 	strhi	r0, [r4, -r1, asr #28]
 29c:	100e4101 	andne	r4, lr, r1, lsl #2
 2a0:	48070d41 	stmdami	r7, {r0, r6, r8, sl, fp}
 2a4:	0d41040e 	cfstrdeq	mvd0, [r1, #-56]	; 0xffffffc8
 2a8:	0ec7410d 	poleqs	f4, f7, #5.0
 2ac:	00000000 	andeq	r0, r0, r0
 2b0:	00000024 	andeq	r0, r0, r4, lsr #32
 2b4:	000001b0 			; <UNDEFINED> instruction: 0x000001b0
 2b8:	00000000 	andeq	r0, r0, r0
 2bc:	0000002e 	andeq	r0, r0, lr, lsr #32
 2c0:	87040e41 	strhi	r0, [r4, -r1, asr #28]
 2c4:	100e4101 	andne	r4, lr, r1, lsl #2
 2c8:	51070d41 	tstpl	r7, r1, asr #26
 2cc:	0d41040e 	cfstrdeq	mvd0, [r1, #-56]	; 0xffffffc8
 2d0:	0ec7410d 	poleqs	f4, f7, #5.0
 2d4:	00000000 	andeq	r0, r0, r0
 2d8:	00000024 	andeq	r0, r0, r4, lsr #32
 2dc:	000001b0 			; <UNDEFINED> instruction: 0x000001b0
 2e0:	00000000 	andeq	r0, r0, r0
 2e4:	00000022 	andeq	r0, r0, r2, lsr #32
 2e8:	87040e41 	strhi	r0, [r4, -r1, asr #28]
 2ec:	100e4101 	andne	r4, lr, r1, lsl #2
 2f0:	4b070d41 	blmi	1c37fc <_Min_Stack_Size+0x1c33fc>
 2f4:	0d41040e 	cfstrdeq	mvd0, [r1, #-56]	; 0xffffffc8
 2f8:	0ec7410d 	poleqs	f4, f7, #5.0
 2fc:	00000000 	andeq	r0, r0, r0
 300:	00000024 	andeq	r0, r0, r4, lsr #32
 304:	000001b0 			; <UNDEFINED> instruction: 0x000001b0
 308:	00000000 	andeq	r0, r0, r0
 30c:	0000004e 	andeq	r0, r0, lr, asr #32
 310:	87040e41 	strhi	r0, [r4, -r1, asr #28]
 314:	180e4101 	stmdane	lr, {r0, r8, lr}
 318:	61070d41 	tstvs	r7, r1, asr #26
 31c:	0d41040e 	cfstrdeq	mvd0, [r1, #-56]	; 0xffffffc8
 320:	0ec7410d 	poleqs	f4, f7, #5.0
 324:	00000000 	andeq	r0, r0, r0
 328:	0000000c 	andeq	r0, r0, ip
 32c:	ffffffff 			; <UNDEFINED> instruction: 0xffffffff
 330:	7c020001 	stcvc	0, cr0, [r2], {1}
 334:	000d0c0e 	andeq	r0, sp, lr, lsl #24
 338:	0000001c 	andeq	r0, r0, ip, lsl r0
 33c:	00000328 	andeq	r0, r0, r8, lsr #6
 340:	080009dc 	stmdaeq	r0, {r2, r3, r4, r6, r7, r8, fp}
 344:	0000000c 	andeq	r0, r0, ip
 348:	87040e41 	strhi	r0, [r4, -r1, asr #28]
 34c:	070d4101 	streq	r4, [sp, -r1, lsl #2]
 350:	410d0d42 	tstmi	sp, r2, asr #26
 354:	00000ec7 	andeq	r0, r0, r7, asr #29
 358:	00000024 	andeq	r0, r0, r4, lsr #32
 35c:	00000328 	andeq	r0, r0, r8, lsr #6
 360:	080009e8 	stmdaeq	r0, {r3, r5, r6, r7, r8, fp}
 364:	00000040 	andeq	r0, r0, r0, asr #32
 368:	87040e41 	strhi	r0, [r4, -r1, asr #28]
 36c:	100e4101 	andne	r4, lr, r1, lsl #2
 370:	5a070d41 	bpl	1c387c <_Min_Stack_Size+0x1c347c>
 374:	0d41040e 	cfstrdeq	mvd0, [r1, #-56]	; 0xffffffc8
 378:	0ec7410d 	poleqs	f4, f7, #5.0
 37c:	00000000 	andeq	r0, r0, r0
 380:	00000018 	andeq	r0, r0, r8, lsl r0
 384:	00000328 	andeq	r0, r0, r8, lsr #6
 388:	08000a28 	stmdaeq	r0, {r3, r5, r9, fp}
 38c:	00000018 	andeq	r0, r0, r8, lsl r0
 390:	87080e41 	strhi	r0, [r8, -r1, asr #28]
 394:	41018e02 	tstmi	r1, r2, lsl #28
 398:	0000070d 	andeq	r0, r0, sp, lsl #14
 39c:	0000001c 	andeq	r0, r0, ip, lsl r0
 3a0:	00000328 	andeq	r0, r0, r8, lsr #6
 3a4:	08000a40 	stmdaeq	r0, {r6, r9, fp}
 3a8:	00000068 	andeq	r0, r0, r8, rrx
 3ac:	87080e41 	strhi	r0, [r8, -r1, asr #28]
 3b0:	41018e02 	tstmi	r1, r2, lsl #28
 3b4:	0d41280e 	stcleq	8, cr2, [r1, #-56]	; 0xffffffc8
 3b8:	00000007 	andeq	r0, r0, r7
 3bc:	0000000c 	andeq	r0, r0, ip
 3c0:	ffffffff 			; <UNDEFINED> instruction: 0xffffffff
 3c4:	7c020001 	stcvc	0, cr0, [r2], {1}
 3c8:	000d0c0e 	andeq	r0, sp, lr, lsl #24
 3cc:	00000018 	andeq	r0, r0, r8, lsl r0
 3d0:	000003bc 			; <UNDEFINED> instruction: 0x000003bc
 3d4:	08000afc 	stmdaeq	r0, {r2, r3, r4, r5, r6, r7, r9, fp}
 3d8:	00000048 	andeq	r0, r0, r8, asr #32
 3dc:	84100e41 	ldrhi	r0, [r0], #-3649	; 0xfffff1bf
 3e0:	86038504 	strhi	r8, [r3], -r4, lsl #10
 3e4:	00018e02 	andeq	r8, r1, r2, lsl #28
